ARM GAS  /tmp/ccOLb5rs.s 			page 1


   1              		.cpu arm7tdmi
   2              		.fpu softvfp
   3              		.eabi_attribute 20, 1
   4              		.eabi_attribute 21, 1
   5              		.eabi_attribute 23, 3
   6              		.eabi_attribute 24, 1
   7              		.eabi_attribute 25, 1
   8              		.eabi_attribute 26, 1
   9              		.eabi_attribute 30, 6
  10              		.eabi_attribute 18, 4
  11              		.file	"ENC28J60.c"
  18 0000 8B020000 		.text
  18      02002401 
  18      00000201 
  18      FB0E0D00 
  18      01010101 
  19              	.Ltext0:
  20              		.section	.text.ENC_init,"ax",%progbits
  21              		.align	2
  22              		.global	ENC_init
  23              		.type	ENC_init, %function
  24              	ENC_init:
  25              	.LFB2:
  26              		.file 1 "ENC28J60.c"
   1:ENC28J60.c    **** #include "ENC28J60.h"
   2:ENC28J60.c    **** #include "GPIO.h"
   3:ENC28J60.c    **** 
   4:ENC28J60.c    **** /*static pSPI_Device spi;*/
   5:ENC28J60.c    **** static cyg_spi_lpc2xxx_dev_t *spi_enc28j60_dev;
   6:ENC28J60.c    **** 
   7:ENC28J60.c    **** /*SPI defines*/
   8:ENC28J60.c    **** #define SPI_DEV (cyg_spi_device *) spi_enc28j60_dev
   9:ENC28J60.c    **** #define PW_SSP	1<<21
  10:ENC28J60.c    **** #define PW_SPI	1<<8
  11:ENC28J60.c    **** #define __SPI_CONFIG_PORT__ 0x5500
  12:ENC28J60.c    **** #define __SPI_PORTS__		0xff00
  13:ENC28J60.c    **** 
  14:ENC28J60.c    ****  void ENC_init(cyg_spi_lpc2xxx_dev_t *pspi){
  27              		.loc 1 14 0
  28              		@ Function supports interworking.
  29              		@ args = 0, pretend = 0, frame = 16
  30              		@ frame_needed = 1, uses_anonymous_args = 0
  31 0000 0DC0A0E1 		mov	ip, sp
  32              	.LCFI0:
  33 0004 00D82DE9 		stmfd	sp!, {fp, ip, lr, pc}
  34              	.LCFI1:
  35 0008 04B04CE2 		sub	fp, ip, #4
  36              	.LCFI2:
  37 000c 10D04DE2 		sub	sp, sp, #16
  38              	.LCFI3:
  39 0010 18000BE5 		str	r0, [fp, #-24]
ARM GAS  /tmp/ccOLb5rs.s 			page 2


  15:ENC28J60.c    **** 	 spi_enc28j60_dev=pspi;
  40              		.loc 1 15 0
  41 0014 A8209FE5 		ldr	r2, .L3
  42 0018 18301BE5 		ldr	r3, [fp, #-24]
  43 001c 003082E5 		str	r3, [r2, #0]
  16:ENC28J60.c    **** 
  17:ENC28J60.c    **** 	 cyg_uint32 aux;
  18:ENC28J60.c    **** 	 /*Ensure SSP is disable - PIN 21*/
  19:ENC28J60.c    **** 	 HAL_READ_UINT32(CYGARC_HAL_LPC2XXX_REG_SCB_BASE + CYGARC_HAL_LPC2XXX_REG_PCONP, aux);
  44              		.loc 1 19 0
  45 0020 0E32A0E3 		mov	r3, #-536870912
  46 0024 7F3983E2 		add	r3, r3, #2080768
  47 0028 C43083E2 		add	r3, r3, #196
  48 002c 003093E5 		ldr	r3, [r3, #0]
  49 0030 10300BE5 		str	r3, [fp, #-16]
  20:ENC28J60.c    **** 	 aux&=~(PW_SSP);
  50              		.loc 1 20 0
  51 0034 10301BE5 		ldr	r3, [fp, #-16]
  52 0038 0236C3E3 		bic	r3, r3, #2097152
  53 003c 10300BE5 		str	r3, [fp, #-16]
  21:ENC28J60.c    **** 	 HAL_WRITE_UINT32(CYGARC_HAL_LPC2XXX_REG_SCB_BASE + CYGARC_HAL_LPC2XXX_REG_PCONP, (aux));
  54              		.loc 1 21 0
  55 0040 0E32A0E3 		mov	r3, #-536870912
  56 0044 7F3983E2 		add	r3, r3, #2080768
  57 0048 C43083E2 		add	r3, r3, #196
  58 004c 10201BE5 		ldr	r2, [fp, #-16]
  59 0050 002083E5 		str	r2, [r3, #0]
  22:ENC28J60.c    **** 
  23:ENC28J60.c    **** 	 /*Turn SPI on - PIN 8*/
  24:ENC28J60.c    **** 	 HAL_READ_UINT32(CYGARC_HAL_LPC2XXX_REG_SCB_BASE + CYGARC_HAL_LPC2XXX_REG_PCONP, aux);
  60              		.loc 1 24 0
  61 0054 0E32A0E3 		mov	r3, #-536870912
  62 0058 7F3983E2 		add	r3, r3, #2080768
  63 005c C43083E2 		add	r3, r3, #196
  64 0060 003093E5 		ldr	r3, [r3, #0]
  65 0064 10300BE5 		str	r3, [fp, #-16]
  25:ENC28J60.c    **** 	 HAL_WRITE_UINT32(CYGARC_HAL_LPC2XXX_REG_SCB_BASE + CYGARC_HAL_LPC2XXX_REG_PCONP, (aux | PW_SPI));
  66              		.loc 1 25 0
  67 0068 0E32A0E3 		mov	r3, #-536870912
  68 006c 7F3983E2 		add	r3, r3, #2080768
  69 0070 C43083E2 		add	r3, r3, #196
  70 0074 10201BE5 		ldr	r2, [fp, #-16]
  71 0078 012C82E3 		orr	r2, r2, #256
  72 007c 002083E5 		str	r2, [r3, #0]
  26:ENC28J60.c    **** 
  27:ENC28J60.c    **** 	 /*Configure Pinsel0 pins for SPI*/
  28:ENC28J60.c    **** 	 //GPIO_INIT_PINSEL0((PINSEL0_SPI_SPP_SSEL|PINSEL0_SPI_SPP_MOSI|PINSEL0_SPI_SPP_MISO|PINSEL0_SPI_S
  29:ENC28J60.c    **** 	 HAL_READ_UINT32(CYGARC_HAL_LPC2XXX_REG_PIN_BASE + CYGARC_HAL_LPC2XXX_REG_PINSEL0, aux);
  73              		.loc 1 29 0
  74 0080 0E32A0E3 		mov	r3, #-536870912
  75 0084 0B3983E2 		add	r3, r3, #180224
  76 0088 003093E5 		ldr	r3, [r3, #0]
  77 008c 10300BE5 		str	r3, [fp, #-16]
  30:ENC28J60.c    **** 	 aux&=~__SPI_PORTS__;	//clear SPI config pins
  78              		.loc 1 30 0
  79 0090 10301BE5 		ldr	r3, [fp, #-16]
  80 0094 FF3CC3E3 		bic	r3, r3, #65280
ARM GAS  /tmp/ccOLb5rs.s 			page 3


  81 0098 10300BE5 		str	r3, [fp, #-16]
  31:ENC28J60.c    **** 	 aux|=__SPI_CONFIG_PORT__;
  82              		.loc 1 31 0
  83 009c 10301BE5 		ldr	r3, [fp, #-16]
  84 00a0 553C83E3 		orr	r3, r3, #21760
  85 00a4 10300BE5 		str	r3, [fp, #-16]
  32:ENC28J60.c    **** 	 HAL_WRITE_UINT32(CYGARC_HAL_LPC2XXX_REG_PIN_BASE + CYGARC_HAL_LPC2XXX_REG_PINSEL0, aux);
  86              		.loc 1 32 0
  87 00a8 0E32A0E3 		mov	r3, #-536870912
  88 00ac 0B3983E2 		add	r3, r3, #180224
  89 00b0 10201BE5 		ldr	r2, [fp, #-16]
  90 00b4 002083E5 		str	r2, [r3, #0]
  33:ENC28J60.c    **** 
  34:ENC28J60.c    **** //	 POWER_Off_Peripherical(PW_SSP);     		/* Ensure SSP is disable */
  35:ENC28J60.c    **** //	 POWER_On_Peripherical(PW_SPI);      		/* (1) */
  36:ENC28J60.c    **** //	 gpio_init_PINSEL0(__SPI_CONFIG_PORT__); 	/* (3) */
  37:ENC28J60.c    **** //	 pSPI->CONTROL &= ~__SPCR_MSTR__;      		/* Set as slave to prevent communications */
  38:ENC28J60.c    **** 
  39:ENC28J60.c    **** 
  40:ENC28J60.c    **** /*
  41:ENC28J60.c    **** 		cyg_uint32 aux;
  42:ENC28J60.c    **** 		aux = CYGARC_HAL_LPC2XXX_REG_IO_BASE;
  43:ENC28J60.c    **** 		aux = CYGARC_HAL_LPC2XXX_REG_IODIR;
  44:ENC28J60.c    **** 		//Activar o spi
  45:ENC28J60.c    **** 		HAL_READ_UINT32(CYGARC_HAL_LPC2XXX_REG_SCB_BASE + CYGARC_HAL_LPC2XXX_REG_PCONP, aux);
  46:ENC28J60.c    **** 		diag_printf("Valor lido de PCONP: %x\n", aux);
  47:ENC28J60.c    **** 		aux |= 0x100;
  48:ENC28J60.c    **** 		diag_printf("Valor a ser programado em PCONP: %x\n", aux);
  49:ENC28J60.c    **** 		HAL_WRITE_UINT32(CYGARC_HAL_LPC2XXX_REG_SCB_BASE + CYGARC_HAL_LPC2XXX_REG_PCONP, aux);
  50:ENC28J60.c    **** 
  51:ENC28J60.c    **** 		HAL_READ_UINT32(CYGARC_HAL_LPC2XXX_REG_PIN_BASE + CYGARC_HAL_LPC2XXX_REG_PINSEL0, aux);
  52:ENC28J60.c    **** 		diag_printf("Valor lido de PINSEL0: %x\n", aux);
  53:ENC28J60.c    **** 		aux &= (~0xff00);
  54:ENC28J60.c    **** 		aux |= 0x5500;
  55:ENC28J60.c    **** 		diag_printf("Valor a ser programado em PINSEL0: %x\n", aux);
  56:ENC28J60.c    **** 		HAL_WRITE_UINT32(CYGARC_HAL_LPC2XXX_REG_PIN_BASE + CYGARC_HAL_LPC2XXX_REG_PINSEL0, aux);
  57:ENC28J60.c    **** */
  58:ENC28J60.c    **** 
  59:ENC28J60.c    ****  }
  91              		.loc 1 59 0
  92 00b8 0CD04BE2 		sub	sp, fp, #12
  93 00bc 00689DE8 		ldmfd	sp, {fp, sp, lr}
  94 00c0 1EFF2FE1 		bx	lr
  95              	.L4:
  96              		.align	2
  97              	.L3:
  98 00c4 00000000 		.word	spi_enc28j60_dev
  99              	.LFE2:
 100              		.size	ENC_init, .-ENC_init
 101              		.section	.rodata.tx_data.2512,"a",%progbits
 102              		.type	tx_data.2512, %object
 103              		.size	tx_data.2512, 2
 104              	tx_data.2512:
 105 0000 1E       		.byte	30
 106 0001 FF       		.byte	-1
 107              		.section	.rodata.C.0.2514,"a",%progbits
 108              		.type	C.0.2514, %object
ARM GAS  /tmp/ccOLb5rs.s 			page 4


 109              		.size	C.0.2514, 2
 110              	C.0.2514:
 111 0000 0000     		.space	2
 112              		.section	.text.ENC_test,"ax",%progbits
 113              		.align	2
 114              		.global	ENC_test
 115              		.type	ENC_test, %function
 116              	ENC_test:
 117              	.LFB3:
  60:ENC28J60.c    **** 
  61:ENC28J60.c    **** 
  62:ENC28J60.c    ****  U8 ENC_test(){
 118              		.loc 1 62 0
 119              		@ Function supports interworking.
 120              		@ args = 0, pretend = 0, frame = 8
 121              		@ frame_needed = 1, uses_anonymous_args = 0
 122 0000 0DC0A0E1 		mov	ip, sp
 123              	.LCFI4:
 124 0004 00D82DE9 		stmfd	sp!, {fp, ip, lr, pc}
 125              	.LCFI5:
 126 0008 04B04CE2 		sub	fp, ip, #4
 127              	.LCFI6:
 128 000c 10D04DE2 		sub	sp, sp, #16
 129              	.LCFI7:
  63:ENC28J60.c    ****  		U32 size=2;
 130              		.loc 1 63 0
 131 0010 0230A0E3 		mov	r3, #2
 132 0014 10300BE5 		str	r3, [fp, #-16]
  64:ENC28J60.c    ****  		const U8 tx_data[2] = {0x1E, 0xFF};
  65:ENC28J60.c    ****  		U8 rx_buffer[2] = {0x0, 0x0};
 133              		.loc 1 65 0
 134 0018 A4309FE5 		ldr	r3, .L7
 135 001c 12204BE2 		sub	r2, fp, #18
 136 0020 02C0A0E3 		mov	ip, #2
 137 0024 0200A0E1 		mov	r0, r2
 138 0028 0310A0E1 		mov	r1, r3
 139 002c 0C20A0E1 		mov	r2, ip
 140 0030 FEFFFFEB 		bl	memcpy
  66:ENC28J60.c    ****  		/*RESET ENC*/
  67:ENC28J60.c    ****  		HAL_WRITE_UINT32(CYGARC_HAL_LPC2XXX_REG_IO_BASE + CYGARC_HAL_LPC2XXX_REG_IOCLR, RESET);
 141              		.loc 1 67 0
 142 0034 CE32A0E3 		mov	r3, #-536870900
 143 0038 0A3983E2 		add	r3, r3, #163840
 144 003c 022CA0E3 		mov	r2, #512
 145 0040 002083E5 		str	r2, [r3, #0]
  68:ENC28J60.c    ****  		HAL_WRITE_UINT32(CYGARC_HAL_LPC2XXX_REG_IO_BASE + CYGARC_HAL_LPC2XXX_REG_IOSET, RESET);
 146              		.loc 1 68 0
 147 0044 4E32A0E3 		mov	r3, #-536870908
 148 0048 0A3983E2 		add	r3, r3, #163840
 149 004c 022CA0E3 		mov	r2, #512
 150 0050 002083E5 		str	r2, [r3, #0]
  69:ENC28J60.c    **** 
  70:ENC28J60.c    ****  		cyg_thread_delay(500);
 151              		.loc 1 70 0
 152 0054 7D0FA0E3 		mov	r0, #500
 153 0058 0010A0E3 		mov	r1, #0
 154 005c FEFFFFEB 		bl	cyg_thread_delay
ARM GAS  /tmp/ccOLb5rs.s 			page 5


  71:ENC28J60.c    ****  		/*READ CONTENT OF ECON2*/
  72:ENC28J60.c    ****  		cyg_spi_transaction_begin(SPI_DEV);
 155              		.loc 1 72 0
 156 0060 60309FE5 		ldr	r3, .L7+4
 157 0064 003093E5 		ldr	r3, [r3, #0]
 158 0068 0300A0E1 		mov	r0, r3
 159 006c FEFFFFEB 		bl	cyg_spi_transaction_begin
  73:ENC28J60.c    ****  	    cyg_spi_transaction_transfer(SPI_DEV, true, size, tx_data, rx_buffer, true);
 160              		.loc 1 73 0
 161 0070 50309FE5 		ldr	r3, .L7+4
 162 0074 003093E5 		ldr	r3, [r3, #0]
 163 0078 0320A0E1 		mov	r2, r3
 164 007c 12304BE2 		sub	r3, fp, #18
 165 0080 00308DE5 		str	r3, [sp, #0]
 166 0084 0130A0E3 		mov	r3, #1
 167 0088 04308DE5 		str	r3, [sp, #4]
 168 008c 0200A0E1 		mov	r0, r2
 169 0090 0110A0E3 		mov	r1, #1
 170 0094 10201BE5 		ldr	r2, [fp, #-16]
 171 0098 2C309FE5 		ldr	r3, .L7+8
 172 009c FEFFFFEB 		bl	cyg_spi_transaction_transfer
  74:ENC28J60.c    ****  	    cyg_spi_transaction_end(SPI_DEV);
 173              		.loc 1 74 0
 174 00a0 20309FE5 		ldr	r3, .L7+4
 175 00a4 003093E5 		ldr	r3, [r3, #0]
 176 00a8 0300A0E1 		mov	r0, r3
 177 00ac FEFFFFEB 		bl	cyg_spi_transaction_end
  75:ENC28J60.c    ****  	    return rx_buffer[1];
 178              		.loc 1 75 0
 179 00b0 11305BE5 		ldrb	r3, [fp, #-17]	@ zero_extendqisi2
  76:ENC28J60.c    ****  }
 180              		.loc 1 76 0
 181 00b4 0300A0E1 		mov	r0, r3
 182 00b8 0CD04BE2 		sub	sp, fp, #12
 183 00bc 00689DE8 		ldmfd	sp, {fp, sp, lr}
 184 00c0 1EFF2FE1 		bx	lr
 185              	.L8:
 186              		.align	2
 187              	.L7:
 188 00c4 00000000 		.word	C.0.2514
 189 00c8 00000000 		.word	spi_enc28j60_dev
 190 00cc 00000000 		.word	tx_data.2512
 191              	.LFE3:
 192              		.size	ENC_test, .-ENC_test
 193              		.section	.text.ENC_read_control_register,"ax",%progbits
 194              		.align	2
 195              		.global	ENC_read_control_register
 196              		.type	ENC_read_control_register, %function
 197              	ENC_read_control_register:
 198              	.LFB6:
  77:ENC28J60.c    **** 
  78:ENC28J60.c    **** static inline void do_single_transaction(U32 size, const U8 *tx_data, U8 *rx_buffer){
  79:ENC28J60.c    ****   /*SPI_start_device(spi);
  80:ENC28J60.c    **** 	SPI_transfer(spi, size, tx_data, rx_buffer);
  81:ENC28J60.c    **** 	SPI_stop_device(spi);*/
  82:ENC28J60.c    **** 	cyg_spi_transaction_begin(SPI_DEV);
  83:ENC28J60.c    ****     cyg_spi_transaction_transfer(SPI_DEV, true, size,tx_data, rx_buffer, true);
ARM GAS  /tmp/ccOLb5rs.s 			page 6


  84:ENC28J60.c    ****     cyg_spi_transaction_end(SPI_DEV);
  85:ENC28J60.c    **** }
  86:ENC28J60.c    **** 
  87:ENC28J60.c    **** 
  88:ENC28J60.c    **** static inline void do_double_transaction(U8* command, U8 commandSize, U32 dataSize, const U8 *tx_da
  89:ENC28J60.c    ****   /*SPI_start_device(spi);
  90:ENC28J60.c    ****     SPI_transfer(spi, commandSize, command, command);
  91:ENC28J60.c    ****     SPI_transfer(spi, dataSize, tx_data, rx_buffer);
  92:ENC28J60.c    ****     SPI_stop_device(spi);*/
  93:ENC28J60.c    **** 
  94:ENC28J60.c    **** 	cyg_spi_transaction_begin(SPI_DEV);
  95:ENC28J60.c    ****     cyg_spi_transaction_transfer(SPI_DEV, true, (U32)(commandSize), command, command, false);
  96:ENC28J60.c    ****     cyg_spi_transaction_transfer(SPI_DEV, true, dataSize, tx_data, rx_buffer, true);
  97:ENC28J60.c    ****     cyg_spi_transaction_end(SPI_DEV);
  98:ENC28J60.c    **** }
  99:ENC28J60.c    **** 
 100:ENC28J60.c    **** /* TABLE 4-1: SPI INSTRUCTION SET FOR THE ENC28J60 */
 101:ENC28J60.c    **** 
 102:ENC28J60.c    **** U8 ENC_read_control_register(U8 address){
 199              		.loc 1 102 0
 200              		@ Function supports interworking.
 201              		@ args = 0, pretend = 0, frame = 24
 202              		@ frame_needed = 1, uses_anonymous_args = 0
 203 0000 0DC0A0E1 		mov	ip, sp
 204              	.LCFI8:
 205 0004 00D82DE9 		stmfd	sp!, {fp, ip, lr, pc}
 206              	.LCFI9:
 207 0008 04B04CE2 		sub	fp, ip, #4
 208              	.LCFI10:
 209 000c 18D04DE2 		sub	sp, sp, #24
 210              	.LCFI11:
 211 0010 0030A0E1 		mov	r3, r0
 212 0014 15304BE5 		strb	r3, [fp, #-21]
 103:ENC28J60.c    ****     U8 dummytx[__ENC_READ_BUFFER_SIZE__] ;	
 104:ENC28J60.c    ****     U8 dummyrx[__ENC_WRITE_BUFFER_SIZE__];
 105:ENC28J60.c    **** 	dummytx[0] =  __ENC_SPI_READ_CONTROL_REGISTER_OP_CODE__ | (address & __ENC_ADDRESS_MASK__);
 213              		.loc 1 105 0
 214 0018 15305BE5 		ldrb	r3, [fp, #-21]	@ zero_extendqisi2
 215 001c 1F3003E2 		and	r3, r3, #31
 216 0020 0F304BE5 		strb	r3, [fp, #-15]
 106:ENC28J60.c    **** 	
 107:ENC28J60.c    ****     do_single_transaction(ENC_BUFFER_LEN(address),dummytx,dummyrx);
 217              		.loc 1 107 0
 218 0024 15305BE5 		ldrb	r3, [fp, #-21]	@ zero_extendqisi2
 219 0028 403003E2 		and	r3, r3, #64
 220 002c 000053E3 		cmp	r3, #0
 221 0030 0200000A 		beq	.L10
 222 0034 0310A0E3 		mov	r1, #3
 223 0038 20100BE5 		str	r1, [fp, #-32]
 224 003c 010000EA 		b	.L11
 225              	.L10:
 226 0040 0230A0E3 		mov	r3, #2
 227 0044 20300BE5 		str	r3, [fp, #-32]
 228              	.L11:
 229 0048 0F304BE2 		sub	r3, fp, #15
 230 004c 12204BE2 		sub	r2, fp, #18
 231 0050 20001BE5 		ldr	r0, [fp, #-32]
ARM GAS  /tmp/ccOLb5rs.s 			page 7


 232 0054 0310A0E1 		mov	r1, r3
 233 0058 FEFFFFEB 		bl	do_single_transaction
 108:ENC28J60.c    ****     return dummyrx[ENC_BUFFER_LEN(address) - 1];
 234              		.loc 1 108 0
 235 005c 15305BE5 		ldrb	r3, [fp, #-21]	@ zero_extendqisi2
 236 0060 403003E2 		and	r3, r3, #64
 237 0064 000053E3 		cmp	r3, #0
 238 0068 0200000A 		beq	.L12
 239 006c 0210A0E3 		mov	r1, #2
 240 0070 1C100BE5 		str	r1, [fp, #-28]
 241 0074 010000EA 		b	.L13
 242              	.L12:
 243 0078 0130A0E3 		mov	r3, #1
 244 007c 1C300BE5 		str	r3, [fp, #-28]
 245              	.L13:
 246 0080 1C301BE5 		ldr	r3, [fp, #-28]
 247 0084 0520E0E3 		mvn	r2, #5
 248 0088 0C104BE2 		sub	r1, fp, #12
 249 008c 033081E0 		add	r3, r1, r3
 250 0090 023083E0 		add	r3, r3, r2
 251 0094 0030D3E5 		ldrb	r3, [r3, #0]	@ zero_extendqisi2
 109:ENC28J60.c    **** }
 252              		.loc 1 109 0
 253 0098 0300A0E1 		mov	r0, r3
 254 009c 0CD04BE2 		sub	sp, fp, #12
 255 00a0 00689DE8 		ldmfd	sp, {fp, sp, lr}
 256 00a4 1EFF2FE1 		bx	lr
 257              	.LFE6:
 258              		.size	ENC_read_control_register, .-ENC_read_control_register
 259              		.section	.text.do_single_transaction,"ax",%progbits
 260              		.align	2
 261              		.type	do_single_transaction, %function
 262              	do_single_transaction:
 263              	.LFB4:
 264              		.loc 1 78 0
 265              		@ Function supports interworking.
 266              		@ args = 0, pretend = 0, frame = 16
 267              		@ frame_needed = 1, uses_anonymous_args = 0
 268 0000 0DC0A0E1 		mov	ip, sp
 269              	.LCFI12:
 270 0004 00D82DE9 		stmfd	sp!, {fp, ip, lr, pc}
 271              	.LCFI13:
 272 0008 04B04CE2 		sub	fp, ip, #4
 273              	.LCFI14:
 274 000c 18D04DE2 		sub	sp, sp, #24
 275              	.LCFI15:
 276 0010 10000BE5 		str	r0, [fp, #-16]
 277 0014 14100BE5 		str	r1, [fp, #-20]
 278 0018 18200BE5 		str	r2, [fp, #-24]
 279              		.loc 1 82 0
 280 001c 54309FE5 		ldr	r3, .L17
 281 0020 003093E5 		ldr	r3, [r3, #0]
 282 0024 0300A0E1 		mov	r0, r3
 283 0028 FEFFFFEB 		bl	cyg_spi_transaction_begin
 284              		.loc 1 83 0
 285 002c 44309FE5 		ldr	r3, .L17
 286 0030 003093E5 		ldr	r3, [r3, #0]
ARM GAS  /tmp/ccOLb5rs.s 			page 8


 287 0034 0320A0E1 		mov	r2, r3
 288 0038 18301BE5 		ldr	r3, [fp, #-24]
 289 003c 00308DE5 		str	r3, [sp, #0]
 290 0040 0130A0E3 		mov	r3, #1
 291 0044 04308DE5 		str	r3, [sp, #4]
 292 0048 0200A0E1 		mov	r0, r2
 293 004c 0110A0E3 		mov	r1, #1
 294 0050 10201BE5 		ldr	r2, [fp, #-16]
 295 0054 14301BE5 		ldr	r3, [fp, #-20]
 296 0058 FEFFFFEB 		bl	cyg_spi_transaction_transfer
 297              		.loc 1 84 0
 298 005c 14309FE5 		ldr	r3, .L17
 299 0060 003093E5 		ldr	r3, [r3, #0]
 300 0064 0300A0E1 		mov	r0, r3
 301 0068 FEFFFFEB 		bl	cyg_spi_transaction_end
 302              		.loc 1 85 0
 303 006c 0CD04BE2 		sub	sp, fp, #12
 304 0070 00689DE8 		ldmfd	sp, {fp, sp, lr}
 305 0074 1EFF2FE1 		bx	lr
 306              	.L18:
 307              		.align	2
 308              	.L17:
 309 0078 00000000 		.word	spi_enc28j60_dev
 310              	.LFE4:
 311              		.size	do_single_transaction, .-do_single_transaction
 312              		.section	.text.ENC_read_buffer_memory,"ax",%progbits
 313              		.align	2
 314              		.global	ENC_read_buffer_memory
 315              		.type	ENC_read_buffer_memory, %function
 316              	ENC_read_buffer_memory:
 317              	.LFB7:
 110:ENC28J60.c    **** void ENC_read_buffer_memory(U8* buffer, U32 size){
 318              		.loc 1 110 0
 319              		@ Function supports interworking.
 320              		@ args = 0, pretend = 0, frame = 16
 321              		@ frame_needed = 1, uses_anonymous_args = 0
 322 0000 0DC0A0E1 		mov	ip, sp
 323              	.LCFI16:
 324 0004 00D82DE9 		stmfd	sp!, {fp, ip, lr, pc}
 325              	.LCFI17:
 326 0008 04B04CE2 		sub	fp, ip, #4
 327              	.LCFI18:
 328 000c 18D04DE2 		sub	sp, sp, #24
 329              	.LCFI19:
 330 0010 18000BE5 		str	r0, [fp, #-24]
 331 0014 1C100BE5 		str	r1, [fp, #-28]
 111:ENC28J60.c    ****   U8 command[] = { __ENC_READ_BUFFER_MEMORY__ };
 332              		.loc 1 111 0
 333 0018 3A30A0E3 		mov	r3, #58
 334 001c 0D304BE5 		strb	r3, [fp, #-13]
 112:ENC28J60.c    ****   do_double_transaction(command,__ENC_READ_BUFFER_MEMORY_SIZE__,size, buffer, buffer);
 335              		.loc 1 112 0
 336 0020 0D204BE2 		sub	r2, fp, #13
 337 0024 18301BE5 		ldr	r3, [fp, #-24]
 338 0028 00308DE5 		str	r3, [sp, #0]
 339 002c 0200A0E1 		mov	r0, r2
 340 0030 0110A0E3 		mov	r1, #1
ARM GAS  /tmp/ccOLb5rs.s 			page 9


 341 0034 1C201BE5 		ldr	r2, [fp, #-28]
 342 0038 18301BE5 		ldr	r3, [fp, #-24]
 343 003c FEFFFFEB 		bl	do_double_transaction
 113:ENC28J60.c    **** }
 344              		.loc 1 113 0
 345 0040 0CD04BE2 		sub	sp, fp, #12
 346 0044 00689DE8 		ldmfd	sp, {fp, sp, lr}
 347 0048 1EFF2FE1 		bx	lr
 348              	.LFE7:
 349              		.size	ENC_read_buffer_memory, .-ENC_read_buffer_memory
 350              		.section	.text.do_double_transaction,"ax",%progbits
 351              		.align	2
 352              		.type	do_double_transaction, %function
 353              	do_double_transaction:
 354              	.LFB5:
 355              		.loc 1 88 0
 356              		@ Function supports interworking.
 357              		@ args = 4, pretend = 0, frame = 16
 358              		@ frame_needed = 1, uses_anonymous_args = 0
 359 0000 0DC0A0E1 		mov	ip, sp
 360              	.LCFI20:
 361 0004 00D82DE9 		stmfd	sp!, {fp, ip, lr, pc}
 362              	.LCFI21:
 363 0008 04B04CE2 		sub	fp, ip, #4
 364              	.LCFI22:
 365 000c 18D04DE2 		sub	sp, sp, #24
 366              	.LCFI23:
 367 0010 10000BE5 		str	r0, [fp, #-16]
 368 0014 18200BE5 		str	r2, [fp, #-24]
 369 0018 1C300BE5 		str	r3, [fp, #-28]
 370 001c 0130A0E1 		mov	r3, r1
 371 0020 11304BE5 		strb	r3, [fp, #-17]
 372              		.loc 1 94 0
 373 0024 88309FE5 		ldr	r3, .L23
 374 0028 003093E5 		ldr	r3, [r3, #0]
 375 002c 0300A0E1 		mov	r0, r3
 376 0030 FEFFFFEB 		bl	cyg_spi_transaction_begin
 377              		.loc 1 95 0
 378 0034 78309FE5 		ldr	r3, .L23
 379 0038 003093E5 		ldr	r3, [r3, #0]
 380 003c 0320A0E1 		mov	r2, r3
 381 0040 11C05BE5 		ldrb	ip, [fp, #-17]	@ zero_extendqisi2
 382 0044 10301BE5 		ldr	r3, [fp, #-16]
 383 0048 00308DE5 		str	r3, [sp, #0]
 384 004c 0030A0E3 		mov	r3, #0
 385 0050 04308DE5 		str	r3, [sp, #4]
 386 0054 0200A0E1 		mov	r0, r2
 387 0058 0110A0E3 		mov	r1, #1
 388 005c 0C20A0E1 		mov	r2, ip
 389 0060 10301BE5 		ldr	r3, [fp, #-16]
 390 0064 FEFFFFEB 		bl	cyg_spi_transaction_transfer
 391              		.loc 1 96 0
 392 0068 44309FE5 		ldr	r3, .L23
 393 006c 003093E5 		ldr	r3, [r3, #0]
 394 0070 0320A0E1 		mov	r2, r3
 395 0074 04309BE5 		ldr	r3, [fp, #4]
 396 0078 00308DE5 		str	r3, [sp, #0]
ARM GAS  /tmp/ccOLb5rs.s 			page 10


 397 007c 0130A0E3 		mov	r3, #1
 398 0080 04308DE5 		str	r3, [sp, #4]
 399 0084 0200A0E1 		mov	r0, r2
 400 0088 0110A0E3 		mov	r1, #1
 401 008c 18201BE5 		ldr	r2, [fp, #-24]
 402 0090 1C301BE5 		ldr	r3, [fp, #-28]
 403 0094 FEFFFFEB 		bl	cyg_spi_transaction_transfer
 404              		.loc 1 97 0
 405 0098 14309FE5 		ldr	r3, .L23
 406 009c 003093E5 		ldr	r3, [r3, #0]
 407 00a0 0300A0E1 		mov	r0, r3
 408 00a4 FEFFFFEB 		bl	cyg_spi_transaction_end
 409              		.loc 1 98 0
 410 00a8 0CD04BE2 		sub	sp, fp, #12
 411 00ac 00689DE8 		ldmfd	sp, {fp, sp, lr}
 412 00b0 1EFF2FE1 		bx	lr
 413              	.L24:
 414              		.align	2
 415              	.L23:
 416 00b4 00000000 		.word	spi_enc28j60_dev
 417              	.LFE5:
 418              		.size	do_double_transaction, .-do_double_transaction
 419              		.section	.text.ENC_write_control_register,"ax",%progbits
 420              		.align	2
 421              		.global	ENC_write_control_register
 422              		.type	ENC_write_control_register, %function
 423              	ENC_write_control_register:
 424              	.LFB8:
 114:ENC28J60.c    **** void ENC_write_control_register(U8 address, U8 data){
 425              		.loc 1 114 0
 426              		@ Function supports interworking.
 427              		@ args = 0, pretend = 0, frame = 16
 428              		@ frame_needed = 1, uses_anonymous_args = 0
 429 0000 0DC0A0E1 		mov	ip, sp
 430              	.LCFI24:
 431 0004 00D82DE9 		stmfd	sp!, {fp, ip, lr, pc}
 432              	.LCFI25:
 433 0008 04B04CE2 		sub	fp, ip, #4
 434              	.LCFI26:
 435 000c 10D04DE2 		sub	sp, sp, #16
 436              	.LCFI27:
 437 0010 0030A0E1 		mov	r3, r0
 438 0014 0120A0E1 		mov	r2, r1
 439 0018 15304BE5 		strb	r3, [fp, #-21]
 440 001c 0230A0E1 		mov	r3, r2
 441 0020 16304BE5 		strb	r3, [fp, #-22]
 115:ENC28J60.c    ****   U8 tx_buf[__ENC_WRITE_CONTROL_MEMORY_SIZE__];
 116:ENC28J60.c    ****   tx_buf[0] = __ENC_SPI_WRITE_CONTROL_REGISTER_OP_CODE__ | (address&__ENC_ADDRESS_MASK__);
 442              		.loc 1 116 0
 443 0024 15305BE5 		ldrb	r3, [fp, #-21]	@ zero_extendqisi2
 444 0028 FF3003E2 		and	r3, r3, #255
 445 002c 1F3003E2 		and	r3, r3, #31
 446 0030 403083E3 		orr	r3, r3, #64
 447 0034 FF3003E2 		and	r3, r3, #255
 448 0038 FF3003E2 		and	r3, r3, #255
 449 003c 0E304BE5 		strb	r3, [fp, #-14]
 117:ENC28J60.c    ****   tx_buf[1] = data;
ARM GAS  /tmp/ccOLb5rs.s 			page 11


 450              		.loc 1 117 0
 451 0040 16305BE5 		ldrb	r3, [fp, #-22]
 452 0044 0D304BE5 		strb	r3, [fp, #-13]
 118:ENC28J60.c    ****   do_single_transaction(__ENC_WRITE_CONTROL_MEMORY_SIZE__,tx_buf,tx_buf);
 453              		.loc 1 118 0
 454 0048 0E304BE2 		sub	r3, fp, #14
 455 004c 0E204BE2 		sub	r2, fp, #14
 456 0050 0200A0E3 		mov	r0, #2
 457 0054 0310A0E1 		mov	r1, r3
 458 0058 FEFFFFEB 		bl	do_single_transaction
 119:ENC28J60.c    **** }
 459              		.loc 1 119 0
 460 005c 0CD04BE2 		sub	sp, fp, #12
 461 0060 00689DE8 		ldmfd	sp, {fp, sp, lr}
 462 0064 1EFF2FE1 		bx	lr
 463              	.LFE8:
 464              		.size	ENC_write_control_register, .-ENC_write_control_register
 465              		.section	.text.ENC_write_buffer_memory,"ax",%progbits
 466              		.align	2
 467              		.global	ENC_write_buffer_memory
 468              		.type	ENC_write_buffer_memory, %function
 469              	ENC_write_buffer_memory:
 470              	.LFB9:
 120:ENC28J60.c    **** void ENC_write_buffer_memory(U8* data, U32 size){
 471              		.loc 1 120 0
 472              		@ Function supports interworking.
 473              		@ args = 0, pretend = 0, frame = 16
 474              		@ frame_needed = 1, uses_anonymous_args = 0
 475 0000 0DC0A0E1 		mov	ip, sp
 476              	.LCFI28:
 477 0004 00D82DE9 		stmfd	sp!, {fp, ip, lr, pc}
 478              	.LCFI29:
 479 0008 04B04CE2 		sub	fp, ip, #4
 480              	.LCFI30:
 481 000c 18D04DE2 		sub	sp, sp, #24
 482              	.LCFI31:
 483 0010 18000BE5 		str	r0, [fp, #-24]
 484 0014 1C100BE5 		str	r1, [fp, #-28]
 121:ENC28J60.c    ****   U8 command[] = { __ENC_WRITE_BUFFER_MEMORY__};
 485              		.loc 1 121 0
 486 0018 7A30A0E3 		mov	r3, #122
 487 001c 0D304BE5 		strb	r3, [fp, #-13]
 122:ENC28J60.c    ****   do_double_transaction(command,__ENC_WRITE_BUFFER_MEMORY_SIZE__,size, data, data);
 488              		.loc 1 122 0
 489 0020 0D204BE2 		sub	r2, fp, #13
 490 0024 18301BE5 		ldr	r3, [fp, #-24]
 491 0028 00308DE5 		str	r3, [sp, #0]
 492 002c 0200A0E1 		mov	r0, r2
 493 0030 0110A0E3 		mov	r1, #1
 494 0034 1C201BE5 		ldr	r2, [fp, #-28]
 495 0038 18301BE5 		ldr	r3, [fp, #-24]
 496 003c FEFFFFEB 		bl	do_double_transaction
 123:ENC28J60.c    **** }
 497              		.loc 1 123 0
 498 0040 0CD04BE2 		sub	sp, fp, #12
 499 0044 00689DE8 		ldmfd	sp, {fp, sp, lr}
 500 0048 1EFF2FE1 		bx	lr
ARM GAS  /tmp/ccOLb5rs.s 			page 12


 501              	.LFE9:
 502              		.size	ENC_write_buffer_memory, .-ENC_write_buffer_memory
 503              		.section	.text.ENC_bit_field_set,"ax",%progbits
 504              		.align	2
 505              		.global	ENC_bit_field_set
 506              		.type	ENC_bit_field_set, %function
 507              	ENC_bit_field_set:
 508              	.LFB10:
 124:ENC28J60.c    **** void ENC_bit_field_set(U8 address, U8 data){
 509              		.loc 1 124 0
 510              		@ Function supports interworking.
 511              		@ args = 0, pretend = 0, frame = 16
 512              		@ frame_needed = 1, uses_anonymous_args = 0
 513 0000 0DC0A0E1 		mov	ip, sp
 514              	.LCFI32:
 515 0004 00D82DE9 		stmfd	sp!, {fp, ip, lr, pc}
 516              	.LCFI33:
 517 0008 04B04CE2 		sub	fp, ip, #4
 518              	.LCFI34:
 519 000c 10D04DE2 		sub	sp, sp, #16
 520              	.LCFI35:
 521 0010 0030A0E1 		mov	r3, r0
 522 0014 0120A0E1 		mov	r2, r1
 523 0018 15304BE5 		strb	r3, [fp, #-21]
 524 001c 0230A0E1 		mov	r3, r2
 525 0020 16304BE5 		strb	r3, [fp, #-22]
 125:ENC28J60.c    ****     U8 dummytx[__ENC_SPI_BIT_FIELD_SET_SIZE__];
 126:ENC28J60.c    **** 	dummytx[0] = __ENC_SPI_BIT_FIELD_SET_OP_CODE__| (address&__ENC_ADDRESS_MASK__);
 526              		.loc 1 126 0
 527 0024 15305BE5 		ldrb	r3, [fp, #-21]	@ zero_extendqisi2
 528 0028 FF3003E2 		and	r3, r3, #255
 529 002c 1F3003E2 		and	r3, r3, #31
 530 0030 833CE0E1 		mvn	r3, r3, asl #25
 531 0034 A33CE0E1 		mvn	r3, r3, lsr #25
 532 0038 FF3003E2 		and	r3, r3, #255
 533 003c FF3003E2 		and	r3, r3, #255
 534 0040 0E304BE5 		strb	r3, [fp, #-14]
 127:ENC28J60.c    **** 	dummytx[1] = data;
 535              		.loc 1 127 0
 536 0044 16305BE5 		ldrb	r3, [fp, #-22]
 537 0048 0D304BE5 		strb	r3, [fp, #-13]
 128:ENC28J60.c    ****     do_single_transaction(__ENC_SPI_BIT_FIELD_SET_SIZE__,dummytx,dummytx);
 538              		.loc 1 128 0
 539 004c 0E304BE2 		sub	r3, fp, #14
 540 0050 0E204BE2 		sub	r2, fp, #14
 541 0054 0200A0E3 		mov	r0, #2
 542 0058 0310A0E1 		mov	r1, r3
 543 005c FEFFFFEB 		bl	do_single_transaction
 129:ENC28J60.c    **** }
 544              		.loc 1 129 0
 545 0060 0CD04BE2 		sub	sp, fp, #12
 546 0064 00689DE8 		ldmfd	sp, {fp, sp, lr}
 547 0068 1EFF2FE1 		bx	lr
 548              	.LFE10:
 549              		.size	ENC_bit_field_set, .-ENC_bit_field_set
 550              		.section	.text.ENC_bit_field_clear,"ax",%progbits
 551              		.align	2
ARM GAS  /tmp/ccOLb5rs.s 			page 13


 552              		.global	ENC_bit_field_clear
 553              		.type	ENC_bit_field_clear, %function
 554              	ENC_bit_field_clear:
 555              	.LFB11:
 130:ENC28J60.c    **** void ENC_bit_field_clear(U8 address, U8 data){
 556              		.loc 1 130 0
 557              		@ Function supports interworking.
 558              		@ args = 0, pretend = 0, frame = 16
 559              		@ frame_needed = 1, uses_anonymous_args = 0
 560 0000 0DC0A0E1 		mov	ip, sp
 561              	.LCFI36:
 562 0004 00D82DE9 		stmfd	sp!, {fp, ip, lr, pc}
 563              	.LCFI37:
 564 0008 04B04CE2 		sub	fp, ip, #4
 565              	.LCFI38:
 566 000c 10D04DE2 		sub	sp, sp, #16
 567              	.LCFI39:
 568 0010 0030A0E1 		mov	r3, r0
 569 0014 0120A0E1 		mov	r2, r1
 570 0018 15304BE5 		strb	r3, [fp, #-21]
 571 001c 0230A0E1 		mov	r3, r2
 572 0020 16304BE5 		strb	r3, [fp, #-22]
 131:ENC28J60.c    ****     U8 dummytx[__ENC_SPI_BIT_FIELD_CLEAR_SIZE__];
 132:ENC28J60.c    **** 	dummytx[0] = __ENC_SPI_BIT_FIELD_CLEAR_OP_CODE__| (address&__ENC_ADDRESS_MASK__);
 573              		.loc 1 132 0
 574 0024 15305BE5 		ldrb	r3, [fp, #-21]	@ zero_extendqisi2
 575 0028 FF3003E2 		and	r3, r3, #255
 576 002c 1F3003E2 		and	r3, r3, #31
 577 0030 0330E0E1 		mvn	r3, r3
 578 0034 5F3003E2 		and	r3, r3, #95
 579 0038 0330E0E1 		mvn	r3, r3
 580 003c FF3003E2 		and	r3, r3, #255
 581 0040 FF3003E2 		and	r3, r3, #255
 582 0044 0E304BE5 		strb	r3, [fp, #-14]
 133:ENC28J60.c    **** 	dummytx[1] = data;
 583              		.loc 1 133 0
 584 0048 16305BE5 		ldrb	r3, [fp, #-22]
 585 004c 0D304BE5 		strb	r3, [fp, #-13]
 134:ENC28J60.c    ****     do_single_transaction(__ENC_SPI_BIT_FIELD_CLEAR_SIZE__,dummytx,dummytx);
 586              		.loc 1 134 0
 587 0050 0E304BE2 		sub	r3, fp, #14
 588 0054 0E204BE2 		sub	r2, fp, #14
 589 0058 0200A0E3 		mov	r0, #2
 590 005c 0310A0E1 		mov	r1, r3
 591 0060 FEFFFFEB 		bl	do_single_transaction
 135:ENC28J60.c    **** }
 592              		.loc 1 135 0
 593 0064 0CD04BE2 		sub	sp, fp, #12
 594 0068 00689DE8 		ldmfd	sp, {fp, sp, lr}
 595 006c 1EFF2FE1 		bx	lr
 596              	.LFE11:
 597              		.size	ENC_bit_field_clear, .-ENC_bit_field_clear
 598              		.section	.text.ENC_system_reset_command,"ax",%progbits
 599              		.align	2
 600              		.global	ENC_system_reset_command
 601              		.type	ENC_system_reset_command, %function
 602              	ENC_system_reset_command:
ARM GAS  /tmp/ccOLb5rs.s 			page 14


 603              	.LFB12:
 136:ENC28J60.c    **** void ENC_system_reset_command(){
 604              		.loc 1 136 0
 605              		@ Function supports interworking.
 606              		@ args = 0, pretend = 0, frame = 8
 607              		@ frame_needed = 1, uses_anonymous_args = 0
 608 0000 0DC0A0E1 		mov	ip, sp
 609              	.LCFI40:
 610 0004 00D82DE9 		stmfd	sp!, {fp, ip, lr, pc}
 611              	.LCFI41:
 612 0008 04B04CE2 		sub	fp, ip, #4
 613              	.LCFI42:
 614 000c 08D04DE2 		sub	sp, sp, #8
 615              	.LCFI43:
 137:ENC28J60.c    ****     U8 dummyRx[]={__ENC_SYSTEM_RESET_COMMAND__};
 616              		.loc 1 137 0
 617 0010 0030E0E3 		mvn	r3, #0
 618 0014 0D304BE5 		strb	r3, [fp, #-13]
 138:ENC28J60.c    ****     do_single_transaction(__ENC_SYSTEM_RESET_COMMAND_SIZE__,dummyRx,dummyRx);
 619              		.loc 1 138 0
 620 0018 0D304BE2 		sub	r3, fp, #13
 621 001c 0D204BE2 		sub	r2, fp, #13
 622 0020 0100A0E3 		mov	r0, #1
 623 0024 0310A0E1 		mov	r1, r3
 624 0028 FEFFFFEB 		bl	do_single_transaction
 139:ENC28J60.c    **** }
 625              		.loc 1 139 0
 626 002c 0CD04BE2 		sub	sp, fp, #12
 627 0030 00689DE8 		ldmfd	sp, {fp, sp, lr}
 628 0034 1EFF2FE1 		bx	lr
 629              	.LFE12:
 630              		.size	ENC_system_reset_command, .-ENC_system_reset_command
 631              		.section	.text.ENC_bank_select,"ax",%progbits
 632              		.align	2
 633              		.type	ENC_bank_select, %function
 634              	ENC_bank_select:
 635              	.LFB13:
 140:ENC28J60.c    **** 
 141:ENC28J60.c    **** /*------------------------------------------------------------------------------------------*/
 142:ENC28J60.c    **** static void ENC_bank_select(U8 bankNbr){
 636              		.loc 1 142 0
 637              		@ Function supports interworking.
 638              		@ args = 0, pretend = 0, frame = 16
 639              		@ frame_needed = 1, uses_anonymous_args = 0
 640 0000 0DC0A0E1 		mov	ip, sp
 641              	.LCFI44:
 642 0004 00D82DE9 		stmfd	sp!, {fp, ip, lr, pc}
 643              	.LCFI45:
 644 0008 04B04CE2 		sub	fp, ip, #4
 645              	.LCFI46:
 646 000c 10D04DE2 		sub	sp, sp, #16
 647              	.LCFI47:
 648 0010 0030A0E1 		mov	r3, r0
 649 0014 15304BE5 		strb	r3, [fp, #-21]
 143:ENC28J60.c    ****     U8 aux = ENC_read_control_register(ECON1);
 650              		.loc 1 143 0
 651 0018 1F00A0E3 		mov	r0, #31
ARM GAS  /tmp/ccOLb5rs.s 			page 15


 652 001c FEFFFFEB 		bl	ENC_read_control_register
 653 0020 0030A0E1 		mov	r3, r0
 654 0024 0D304BE5 		strb	r3, [fp, #-13]
 144:ENC28J60.c    ****     aux &= ~ECON1_BSEL;
 655              		.loc 1 144 0
 656 0028 0D305BE5 		ldrb	r3, [fp, #-13]
 657 002c 0330C3E3 		bic	r3, r3, #3
 658 0030 0D304BE5 		strb	r3, [fp, #-13]
 145:ENC28J60.c    ****     aux |= bankNbr & ECON1_BSEL;
 659              		.loc 1 145 0
 660 0034 15305BE5 		ldrb	r3, [fp, #-21]	@ zero_extendqisi2
 661 0038 FF3003E2 		and	r3, r3, #255
 662 003c 033003E2 		and	r3, r3, #3
 663 0040 0D205BE5 		ldrb	r2, [fp, #-13]	@ zero_extendqisi2
 664 0044 0310A0E1 		mov	r1, r3
 665 0048 0230A0E1 		mov	r3, r2
 666 004c 033081E1 		orr	r3, r1, r3
 667 0050 FF3003E2 		and	r3, r3, #255
 668 0054 0D304BE5 		strb	r3, [fp, #-13]
 146:ENC28J60.c    ****     ENC_write_control_register(ECON1,aux);    
 669              		.loc 1 146 0
 670 0058 0D305BE5 		ldrb	r3, [fp, #-13]	@ zero_extendqisi2
 671 005c 1F00A0E3 		mov	r0, #31
 672 0060 0310A0E1 		mov	r1, r3
 673 0064 FEFFFFEB 		bl	ENC_write_control_register
 147:ENC28J60.c    **** }
 674              		.loc 1 147 0
 675 0068 0CD04BE2 		sub	sp, fp, #12
 676 006c 00689DE8 		ldmfd	sp, {fp, sp, lr}
 677 0070 1EFF2FE1 		bx	lr
 678              	.LFE13:
 679              		.size	ENC_bank_select, .-ENC_bank_select
 680              		.section	.text.ENC_read_reg,"ax",%progbits
 681              		.align	2
 682              		.global	ENC_read_reg
 683              		.type	ENC_read_reg, %function
 684              	ENC_read_reg:
 685              	.LFB14:
 148:ENC28J60.c    **** /*
 149:ENC28J60.c    **** static U8 ENC_read_reg8(U8 address, U8 bankID){
 150:ENC28J60.c    ****     ENC_bank_select(bankID);
 151:ENC28J60.c    ****     return ENC_read_control_register(address);
 152:ENC28J60.c    **** }
 153:ENC28J60.c    **** 
 154:ENC28J60.c    **** static U16 ENC_read_reg16(U8 address, U8 bankID){
 155:ENC28J60.c    ****     U16 data = 0;
 156:ENC28J60.c    ****     ENC_bank_select(bankID);
 157:ENC28J60.c    ****     data = ENC_read_control_register(address);
 158:ENC28J60.c    ****     return ((data << 8)+ENC_read_control_register(address+1));    
 159:ENC28J60.c    **** }
 160:ENC28J60.c    **** */
 161:ENC28J60.c    **** 
 162:ENC28J60.c    **** U16 ENC_read_reg(U8 address, U8 bankID,bool asShort){
 686              		.loc 1 162 0
 687              		@ Function supports interworking.
 688              		@ args = 0, pretend = 0, frame = 24
 689              		@ frame_needed = 1, uses_anonymous_args = 0
ARM GAS  /tmp/ccOLb5rs.s 			page 16


 690 0000 0DC0A0E1 		mov	ip, sp
 691              	.LCFI48:
 692 0004 00D82DE9 		stmfd	sp!, {fp, ip, lr, pc}
 693              	.LCFI49:
 694 0008 04B04CE2 		sub	fp, ip, #4
 695              	.LCFI50:
 696 000c 18D04DE2 		sub	sp, sp, #24
 697              	.LCFI51:
 698 0010 0030A0E1 		mov	r3, r0
 699 0014 1C200BE5 		str	r2, [fp, #-28]
 700 0018 15304BE5 		strb	r3, [fp, #-21]
 701 001c 0130A0E1 		mov	r3, r1
 702 0020 16304BE5 		strb	r3, [fp, #-22]
 163:ENC28J60.c    ****     U16 data = 0;
 703              		.loc 1 163 0
 704 0024 0030A0E3 		mov	r3, #0
 705 0028 BE304BE1 		strh	r3, [fp, #-14]	@ movhi
 164:ENC28J60.c    ****     ENC_bank_select(bankID);
 706              		.loc 1 164 0
 707 002c 16305BE5 		ldrb	r3, [fp, #-22]	@ zero_extendqisi2
 708 0030 0300A0E1 		mov	r0, r3
 709 0034 FEFFFFEB 		bl	ENC_bank_select
 165:ENC28J60.c    ****     data = ENC_read_control_register(address);
 710              		.loc 1 165 0
 711 0038 15305BE5 		ldrb	r3, [fp, #-21]	@ zero_extendqisi2
 712 003c 0300A0E1 		mov	r0, r3
 713 0040 FEFFFFEB 		bl	ENC_read_control_register
 714 0044 0030A0E1 		mov	r3, r0
 715 0048 BE304BE1 		strh	r3, [fp, #-14]	@ movhi
 166:ENC28J60.c    ****     return ((asShort)?((ENC_read_control_register(address+1)<<8) + data) : data);
 716              		.loc 1 166 0
 717 004c 1C301BE5 		ldr	r3, [fp, #-28]
 718 0050 000053E3 		cmp	r3, #0
 719 0054 0E00000A 		beq	.L38
 720 0058 15305BE5 		ldrb	r3, [fp, #-21]
 721 005c 013083E2 		add	r3, r3, #1
 722 0060 FF3003E2 		and	r3, r3, #255
 723 0064 0300A0E1 		mov	r0, r3
 724 0068 FEFFFFEB 		bl	ENC_read_control_register
 725 006c 0030A0E1 		mov	r3, r0
 726 0070 0334A0E1 		mov	r3, r3, asl #8
 727 0074 0338A0E1 		mov	r3, r3, asl #16
 728 0078 2328A0E1 		mov	r2, r3, lsr #16
 729 007c BE305BE1 		ldrh	r3, [fp, #-14]	@ movhi
 730 0080 033082E0 		add	r3, r2, r3
 731 0084 0338A0E1 		mov	r3, r3, asl #16
 732 0088 2338A0E1 		mov	r3, r3, lsr #16
 733 008c 20300BE5 		str	r3, [fp, #-32]
 734 0090 010000EA 		b	.L39
 735              	.L38:
 736 0094 BE305BE1 		ldrh	r3, [fp, #-14]
 737 0098 20300BE5 		str	r3, [fp, #-32]
 738              	.L39:
 739 009c 20301BE5 		ldr	r3, [fp, #-32]
 167:ENC28J60.c    **** }
 740              		.loc 1 167 0
 741 00a0 0300A0E1 		mov	r0, r3
ARM GAS  /tmp/ccOLb5rs.s 			page 17


 742 00a4 0CD04BE2 		sub	sp, fp, #12
 743 00a8 00689DE8 		ldmfd	sp, {fp, sp, lr}
 744 00ac 1EFF2FE1 		bx	lr
 745              	.LFE14:
 746              		.size	ENC_read_reg, .-ENC_read_reg
 747              		.section	.text.ENC_write_reg,"ax",%progbits
 748              		.align	2
 749              		.global	ENC_write_reg
 750              		.type	ENC_write_reg, %function
 751              	ENC_write_reg:
 752              	.LFB15:
 168:ENC28J60.c    **** 
 169:ENC28J60.c    **** /*
 170:ENC28J60.c    **** static void ENC_write_reg8(U8 address, U8 bankID, U8 data){
 171:ENC28J60.c    ****     ENC_bank_select(bankID);
 172:ENC28J60.c    ****     ENC_write_control_register(address,data);
 173:ENC28J60.c    **** }
 174:ENC28J60.c    **** static void ENC_write_reg16(U8 address, U8 bankID, U16 data){
 175:ENC28J60.c    ****     ENC_bank_select(bankID);
 176:ENC28J60.c    ****     ENC_write_control_register(address,data);
 177:ENC28J60.c    ****     ENC_write_control_register(address + 1, data >> 8);
 178:ENC28J60.c    **** }
 179:ENC28J60.c    **** */
 180:ENC28J60.c    **** 
 181:ENC28J60.c    **** void ENC_write_reg(U8 address, U8 bankID,U16 data,bool asShort){
 753              		.loc 1 181 0
 754              		@ Function supports interworking.
 755              		@ args = 0, pretend = 0, frame = 8
 756              		@ frame_needed = 1, uses_anonymous_args = 0
 757 0000 0DC0A0E1 		mov	ip, sp
 758              	.LCFI52:
 759 0004 00D82DE9 		stmfd	sp!, {fp, ip, lr, pc}
 760              	.LCFI53:
 761 0008 04B04CE2 		sub	fp, ip, #4
 762              	.LCFI54:
 763 000c 08D04DE2 		sub	sp, sp, #8
 764              	.LCFI55:
 765 0010 14300BE5 		str	r3, [fp, #-20]
 766 0014 0030A0E1 		mov	r3, r0
 767 0018 0D304BE5 		strb	r3, [fp, #-13]
 768 001c 0130A0E1 		mov	r3, r1
 769 0020 0E304BE5 		strb	r3, [fp, #-14]
 770 0024 B0214BE1 		strh	r2, [fp, #-16]	@ movhi
 182:ENC28J60.c    ****     ENC_bank_select(bankID);
 771              		.loc 1 182 0
 772 0028 0E305BE5 		ldrb	r3, [fp, #-14]	@ zero_extendqisi2
 773 002c 0300A0E1 		mov	r0, r3
 774 0030 FEFFFFEB 		bl	ENC_bank_select
 183:ENC28J60.c    ****     ENC_write_control_register(address,data);
 775              		.loc 1 183 0
 776 0034 B0315BE1 		ldrh	r3, [fp, #-16]	@ movhi
 777 0038 FF2003E2 		and	r2, r3, #255
 778 003c 0D305BE5 		ldrb	r3, [fp, #-13]	@ zero_extendqisi2
 779 0040 0300A0E1 		mov	r0, r3
 780 0044 0210A0E1 		mov	r1, r2
 781 0048 FEFFFFEB 		bl	ENC_write_control_register
 184:ENC28J60.c    ****     if (asShort){
ARM GAS  /tmp/ccOLb5rs.s 			page 18


 782              		.loc 1 184 0
 783 004c 14301BE5 		ldr	r3, [fp, #-20]
 784 0050 000053E3 		cmp	r3, #0
 785 0054 0A00000A 		beq	.L43
 185:ENC28J60.c    ****         ENC_write_control_register(address + 1, data >> 8);
 786              		.loc 1 185 0
 787 0058 0D305BE5 		ldrb	r3, [fp, #-13]
 788 005c 013083E2 		add	r3, r3, #1
 789 0060 FF2003E2 		and	r2, r3, #255
 790 0064 B0315BE1 		ldrh	r3, [fp, #-16]
 791 0068 2334A0E1 		mov	r3, r3, lsr #8
 792 006c 0338A0E1 		mov	r3, r3, asl #16
 793 0070 2338A0E1 		mov	r3, r3, lsr #16
 794 0074 FF3003E2 		and	r3, r3, #255
 795 0078 0200A0E1 		mov	r0, r2
 796 007c 0310A0E1 		mov	r1, r3
 797 0080 FEFFFFEB 		bl	ENC_write_control_register
 798              	.L43:
 186:ENC28J60.c    ****     }
 187:ENC28J60.c    **** }
 799              		.loc 1 187 0
 800 0084 0CD04BE2 		sub	sp, fp, #12
 801 0088 00689DE8 		ldmfd	sp, {fp, sp, lr}
 802 008c 1EFF2FE1 		bx	lr
 803              	.LFE15:
 804              		.size	ENC_write_reg, .-ENC_write_reg
 805              		.section	.text.ENC_write_physical_register,"ax",%progbits
 806              		.align	2
 807              		.global	ENC_write_physical_register
 808              		.type	ENC_write_physical_register, %function
 809              	ENC_write_physical_register:
 810              	.LFB16:
 188:ENC28J60.c    **** 
 189:ENC28J60.c    **** void ENC_write_physical_register(U8 address, U16 data) {
 811              		.loc 1 189 0
 812              		@ Function supports interworking.
 813              		@ args = 0, pretend = 0, frame = 8
 814              		@ frame_needed = 1, uses_anonymous_args = 0
 815 0000 0DC0A0E1 		mov	ip, sp
 816              	.LCFI56:
 817 0004 00D82DE9 		stmfd	sp!, {fp, ip, lr, pc}
 818              	.LCFI57:
 819 0008 04B04CE2 		sub	fp, ip, #4
 820              	.LCFI58:
 821 000c 08D04DE2 		sub	sp, sp, #8
 822              	.LCFI59:
 823 0010 0030A0E1 		mov	r3, r0
 824 0014 0120A0E1 		mov	r2, r1
 825 0018 0D304BE5 		strb	r3, [fp, #-13]
 826 001c B0214BE1 		strh	r2, [fp, #-16]	@ movhi
 190:ENC28J60.c    ****     ENC_write_reg(B2_MIREGADR,BANK02,address,false);
 827              		.loc 1 190 0
 828 0020 0D305BE5 		ldrb	r3, [fp, #-13]	@ zero_extendqisi2
 829 0024 5400A0E3 		mov	r0, #84
 830 0028 0210A0E3 		mov	r1, #2
 831 002c 0320A0E1 		mov	r2, r3
 832 0030 0030A0E3 		mov	r3, #0
ARM GAS  /tmp/ccOLb5rs.s 			page 19


 833 0034 FEFFFFEB 		bl	ENC_write_reg
 191:ENC28J60.c    ****     ENC_write_reg(B2_MIWRL,BANK02,data,true);
 834              		.loc 1 191 0
 835 0038 B0315BE1 		ldrh	r3, [fp, #-16]
 836 003c 5600A0E3 		mov	r0, #86
 837 0040 0210A0E3 		mov	r1, #2
 838 0044 0320A0E1 		mov	r2, r3
 839 0048 0130A0E3 		mov	r3, #1
 840 004c FEFFFFEB 		bl	ENC_write_reg
 192:ENC28J60.c    **** }
 841              		.loc 1 192 0
 842 0050 0CD04BE2 		sub	sp, fp, #12
 843 0054 00689DE8 		ldmfd	sp, {fp, sp, lr}
 844 0058 1EFF2FE1 		bx	lr
 845              	.LFE16:
 846              		.size	ENC_write_physical_register, .-ENC_write_physical_register
 847              		.section	.text.read_physical_register,"ax",%progbits
 848              		.align	2
 849              		.global	read_physical_register
 850              		.type	read_physical_register, %function
 851              	read_physical_register:
 852              	.LFB17:
 193:ENC28J60.c    **** 
 194:ENC28J60.c    **** U16 read_physical_register(U8 address) {
 853              		.loc 1 194 0
 854              		@ Function supports interworking.
 855              		@ args = 0, pretend = 0, frame = 16
 856              		@ frame_needed = 1, uses_anonymous_args = 0
 857 0000 0DC0A0E1 		mov	ip, sp
 858              	.LCFI60:
 859 0004 00D82DE9 		stmfd	sp!, {fp, ip, lr, pc}
 860              	.LCFI61:
 861 0008 04B04CE2 		sub	fp, ip, #4
 862              	.LCFI62:
 863 000c 10D04DE2 		sub	sp, sp, #16
 864              	.LCFI63:
 865 0010 0030A0E1 		mov	r3, r0
 866 0014 15304BE5 		strb	r3, [fp, #-21]
 195:ENC28J60.c    ****   U8 aux;
 196:ENC28J60.c    ****   ENC_write_reg(B2_MIREGADR,BANK02,address,false);
 867              		.loc 1 196 0
 868 0018 15305BE5 		ldrb	r3, [fp, #-21]	@ zero_extendqisi2
 869 001c 5400A0E3 		mov	r0, #84
 870 0020 0210A0E3 		mov	r1, #2
 871 0024 0320A0E1 		mov	r2, r3
 872 0028 0030A0E3 		mov	r3, #0
 873 002c FEFFFFEB 		bl	ENC_write_reg
 197:ENC28J60.c    ****   ENC_bit_field_set(B2_MICMD,MICMD_MIIRD);
 874              		.loc 1 197 0
 875 0030 5200A0E3 		mov	r0, #82
 876 0034 0110A0E3 		mov	r1, #1
 877 0038 FEFFFFEB 		bl	ENC_bit_field_set
 878              	.L47:
 198:ENC28J60.c    ****   do {
 199:ENC28J60.c    ****     aux = ENC_read_reg(B3_MISTAT,BANK03,false);
 879              		.loc 1 199 0
 880 003c 4A00A0E3 		mov	r0, #74
ARM GAS  /tmp/ccOLb5rs.s 			page 20


 881 0040 0310A0E3 		mov	r1, #3
 882 0044 0020A0E3 		mov	r2, #0
 883 0048 FEFFFFEB 		bl	ENC_read_reg
 884 004c 0030A0E1 		mov	r3, r0
 885 0050 0D304BE5 		strb	r3, [fp, #-13]
 200:ENC28J60.c    ****   } while ((aux & MISTAT_BUSY) != 0);
 886              		.loc 1 200 0
 887 0054 0D305BE5 		ldrb	r3, [fp, #-13]	@ zero_extendqisi2
 888 0058 013003E2 		and	r3, r3, #1
 889 005c FF3003E2 		and	r3, r3, #255
 890 0060 000053E3 		cmp	r3, #0
 891 0064 F4FFFF1A 		bne	.L47
 201:ENC28J60.c    ****   ENC_bit_field_clear(B2_MICMD,MICMD_MIIRD);
 892              		.loc 1 201 0
 893 0068 5200A0E3 		mov	r0, #82
 894 006c 0110A0E3 		mov	r1, #1
 895 0070 FEFFFFEB 		bl	ENC_bit_field_clear
 202:ENC28J60.c    ****   
 203:ENC28J60.c    ****   return ENC_read_reg(B2_MIRDL,BANK02,true);
 896              		.loc 1 203 0
 897 0074 5800A0E3 		mov	r0, #88
 898 0078 0210A0E3 		mov	r1, #2
 899 007c 0120A0E3 		mov	r2, #1
 900 0080 FEFFFFEB 		bl	ENC_read_reg
 901 0084 0030A0E1 		mov	r3, r0
 204:ENC28J60.c    **** }
 902              		.loc 1 204 0
 903 0088 0300A0E1 		mov	r0, r3
 904 008c 0CD04BE2 		sub	sp, fp, #12
 905 0090 00689DE8 		ldmfd	sp, {fp, sp, lr}
 906 0094 1EFF2FE1 		bx	lr
 907              	.LFE17:
 908              		.size	read_physical_register, .-read_physical_register
 909              		.section	.bss.spi_enc28j60_dev,"aw",%nobits
 910              		.align	2
 911              		.type	spi_enc28j60_dev, %object
 912              		.size	spi_enc28j60_dev, 4
 913              	spi_enc28j60_dev:
 914 0000 00000000 		.space	4
 915              		.section	.debug_frame,"",%progbits
 916              	.Lframe0:
 917 0000 0C000000 		.4byte	.LECIE0-.LSCIE0
 918              	.LSCIE0:
 919 0004 FFFFFFFF 		.4byte	0xffffffff
 920 0008 01       		.byte	0x1
 921 0009 00       		.ascii	"\000"
 922 000a 01       		.uleb128 0x1
 923 000b 7C       		.sleb128 -4
 924 000c 0E       		.byte	0xe
 925 000d 0C       		.byte	0xc
 926 000e 0D       		.uleb128 0xd
 927 000f 00       		.uleb128 0x0
 928              		.align	2
 929              	.LECIE0:
 930              	.LSFDE0:
 931 0010 1C000000 		.4byte	.LEFDE0-.LASFDE0
 932              	.LASFDE0:
ARM GAS  /tmp/ccOLb5rs.s 			page 21


 933 0014 00000000 		.4byte	.Lframe0
 934 0018 00000000 		.4byte	.LFB2
 935 001c C8000000 		.4byte	.LFE2-.LFB2
 936 0020 44       		.byte	0x4
 937              		.4byte	.LCFI0-.LFB2
 938 0021 0D       		.byte	0xd
 939 0022 0C       		.uleb128 0xc
 940 0023 44       		.byte	0x4
 941              		.4byte	.LCFI1-.LCFI0
 942 0024 8E       		.byte	0x8e
 943 0025 02       		.uleb128 0x2
 944 0026 8D       		.byte	0x8d
 945 0027 03       		.uleb128 0x3
 946 0028 8B       		.byte	0x8b
 947 0029 04       		.uleb128 0x4
 948 002a 44       		.byte	0x4
 949              		.4byte	.LCFI2-.LCFI1
 950 002b 0C       		.byte	0xc
 951 002c 0B       		.uleb128 0xb
 952 002d 04       		.uleb128 0x4
 953 002e 0000     		.align	2
 954              	.LEFDE0:
 955              	.LSFDE2:
 956 0030 1C000000 		.4byte	.LEFDE2-.LASFDE2
 957              	.LASFDE2:
 958 0034 00000000 		.4byte	.Lframe0
 959 0038 00000000 		.4byte	.LFB3
 960 003c D0000000 		.4byte	.LFE3-.LFB3
 961 0040 44       		.byte	0x4
 962              		.4byte	.LCFI4-.LFB3
 963 0041 0D       		.byte	0xd
 964 0042 0C       		.uleb128 0xc
 965 0043 44       		.byte	0x4
 966              		.4byte	.LCFI5-.LCFI4
 967 0044 8E       		.byte	0x8e
 968 0045 02       		.uleb128 0x2
 969 0046 8D       		.byte	0x8d
 970 0047 03       		.uleb128 0x3
 971 0048 8B       		.byte	0x8b
 972 0049 04       		.uleb128 0x4
 973 004a 44       		.byte	0x4
 974              		.4byte	.LCFI6-.LCFI5
 975 004b 0C       		.byte	0xc
 976 004c 0B       		.uleb128 0xb
 977 004d 04       		.uleb128 0x4
 978 004e 0000     		.align	2
 979              	.LEFDE2:
 980              	.LSFDE4:
 981 0050 1C000000 		.4byte	.LEFDE4-.LASFDE4
 982              	.LASFDE4:
 983 0054 00000000 		.4byte	.Lframe0
 984 0058 00000000 		.4byte	.LFB6
 985 005c A8000000 		.4byte	.LFE6-.LFB6
 986 0060 44       		.byte	0x4
 987              		.4byte	.LCFI8-.LFB6
 988 0061 0D       		.byte	0xd
 989 0062 0C       		.uleb128 0xc
ARM GAS  /tmp/ccOLb5rs.s 			page 22


 990 0063 44       		.byte	0x4
 991              		.4byte	.LCFI9-.LCFI8
 992 0064 8E       		.byte	0x8e
 993 0065 02       		.uleb128 0x2
 994 0066 8D       		.byte	0x8d
 995 0067 03       		.uleb128 0x3
 996 0068 8B       		.byte	0x8b
 997 0069 04       		.uleb128 0x4
 998 006a 44       		.byte	0x4
 999              		.4byte	.LCFI10-.LCFI9
 1000 006b 0C       		.byte	0xc
 1001 006c 0B       		.uleb128 0xb
 1002 006d 04       		.uleb128 0x4
 1003 006e 0000     		.align	2
 1004              	.LEFDE4:
 1005              	.LSFDE6:
 1006 0070 1C000000 		.4byte	.LEFDE6-.LASFDE6
 1007              	.LASFDE6:
 1008 0074 00000000 		.4byte	.Lframe0
 1009 0078 00000000 		.4byte	.LFB4
 1010 007c 7C000000 		.4byte	.LFE4-.LFB4
 1011 0080 44       		.byte	0x4
 1012              		.4byte	.LCFI12-.LFB4
 1013 0081 0D       		.byte	0xd
 1014 0082 0C       		.uleb128 0xc
 1015 0083 44       		.byte	0x4
 1016              		.4byte	.LCFI13-.LCFI12
 1017 0084 8E       		.byte	0x8e
 1018 0085 02       		.uleb128 0x2
 1019 0086 8D       		.byte	0x8d
 1020 0087 03       		.uleb128 0x3
 1021 0088 8B       		.byte	0x8b
 1022 0089 04       		.uleb128 0x4
 1023 008a 44       		.byte	0x4
 1024              		.4byte	.LCFI14-.LCFI13
 1025 008b 0C       		.byte	0xc
 1026 008c 0B       		.uleb128 0xb
 1027 008d 04       		.uleb128 0x4
 1028 008e 0000     		.align	2
 1029              	.LEFDE6:
 1030              	.LSFDE8:
 1031 0090 1C000000 		.4byte	.LEFDE8-.LASFDE8
 1032              	.LASFDE8:
 1033 0094 00000000 		.4byte	.Lframe0
 1034 0098 00000000 		.4byte	.LFB7
 1035 009c 4C000000 		.4byte	.LFE7-.LFB7
 1036 00a0 44       		.byte	0x4
 1037              		.4byte	.LCFI16-.LFB7
 1038 00a1 0D       		.byte	0xd
 1039 00a2 0C       		.uleb128 0xc
 1040 00a3 44       		.byte	0x4
 1041              		.4byte	.LCFI17-.LCFI16
 1042 00a4 8E       		.byte	0x8e
 1043 00a5 02       		.uleb128 0x2
 1044 00a6 8D       		.byte	0x8d
 1045 00a7 03       		.uleb128 0x3
 1046 00a8 8B       		.byte	0x8b
ARM GAS  /tmp/ccOLb5rs.s 			page 23


 1047 00a9 04       		.uleb128 0x4
 1048 00aa 44       		.byte	0x4
 1049              		.4byte	.LCFI18-.LCFI17
 1050 00ab 0C       		.byte	0xc
 1051 00ac 0B       		.uleb128 0xb
 1052 00ad 04       		.uleb128 0x4
 1053 00ae 0000     		.align	2
 1054              	.LEFDE8:
 1055              	.LSFDE10:
 1056 00b0 1C000000 		.4byte	.LEFDE10-.LASFDE10
 1057              	.LASFDE10:
 1058 00b4 00000000 		.4byte	.Lframe0
 1059 00b8 00000000 		.4byte	.LFB5
 1060 00bc B8000000 		.4byte	.LFE5-.LFB5
 1061 00c0 44       		.byte	0x4
 1062              		.4byte	.LCFI20-.LFB5
 1063 00c1 0D       		.byte	0xd
 1064 00c2 0C       		.uleb128 0xc
 1065 00c3 44       		.byte	0x4
 1066              		.4byte	.LCFI21-.LCFI20
 1067 00c4 8E       		.byte	0x8e
 1068 00c5 02       		.uleb128 0x2
 1069 00c6 8D       		.byte	0x8d
 1070 00c7 03       		.uleb128 0x3
 1071 00c8 8B       		.byte	0x8b
 1072 00c9 04       		.uleb128 0x4
 1073 00ca 44       		.byte	0x4
 1074              		.4byte	.LCFI22-.LCFI21
 1075 00cb 0C       		.byte	0xc
 1076 00cc 0B       		.uleb128 0xb
 1077 00cd 04       		.uleb128 0x4
 1078 00ce 0000     		.align	2
 1079              	.LEFDE10:
 1080              	.LSFDE12:
 1081 00d0 1C000000 		.4byte	.LEFDE12-.LASFDE12
 1082              	.LASFDE12:
 1083 00d4 00000000 		.4byte	.Lframe0
 1084 00d8 00000000 		.4byte	.LFB8
 1085 00dc 68000000 		.4byte	.LFE8-.LFB8
 1086 00e0 44       		.byte	0x4
 1087              		.4byte	.LCFI24-.LFB8
 1088 00e1 0D       		.byte	0xd
 1089 00e2 0C       		.uleb128 0xc
 1090 00e3 44       		.byte	0x4
 1091              		.4byte	.LCFI25-.LCFI24
 1092 00e4 8E       		.byte	0x8e
 1093 00e5 02       		.uleb128 0x2
 1094 00e6 8D       		.byte	0x8d
 1095 00e7 03       		.uleb128 0x3
 1096 00e8 8B       		.byte	0x8b
 1097 00e9 04       		.uleb128 0x4
 1098 00ea 44       		.byte	0x4
 1099              		.4byte	.LCFI26-.LCFI25
 1100 00eb 0C       		.byte	0xc
 1101 00ec 0B       		.uleb128 0xb
 1102 00ed 04       		.uleb128 0x4
 1103 00ee 0000     		.align	2
ARM GAS  /tmp/ccOLb5rs.s 			page 24


 1104              	.LEFDE12:
 1105              	.LSFDE14:
 1106 00f0 1C000000 		.4byte	.LEFDE14-.LASFDE14
 1107              	.LASFDE14:
 1108 00f4 00000000 		.4byte	.Lframe0
 1109 00f8 00000000 		.4byte	.LFB9
 1110 00fc 4C000000 		.4byte	.LFE9-.LFB9
 1111 0100 44       		.byte	0x4
 1112              		.4byte	.LCFI28-.LFB9
 1113 0101 0D       		.byte	0xd
 1114 0102 0C       		.uleb128 0xc
 1115 0103 44       		.byte	0x4
 1116              		.4byte	.LCFI29-.LCFI28
 1117 0104 8E       		.byte	0x8e
 1118 0105 02       		.uleb128 0x2
 1119 0106 8D       		.byte	0x8d
 1120 0107 03       		.uleb128 0x3
 1121 0108 8B       		.byte	0x8b
 1122 0109 04       		.uleb128 0x4
 1123 010a 44       		.byte	0x4
 1124              		.4byte	.LCFI30-.LCFI29
 1125 010b 0C       		.byte	0xc
 1126 010c 0B       		.uleb128 0xb
 1127 010d 04       		.uleb128 0x4
 1128 010e 0000     		.align	2
 1129              	.LEFDE14:
 1130              	.LSFDE16:
 1131 0110 1C000000 		.4byte	.LEFDE16-.LASFDE16
 1132              	.LASFDE16:
 1133 0114 00000000 		.4byte	.Lframe0
 1134 0118 00000000 		.4byte	.LFB10
 1135 011c 6C000000 		.4byte	.LFE10-.LFB10
 1136 0120 44       		.byte	0x4
 1137              		.4byte	.LCFI32-.LFB10
 1138 0121 0D       		.byte	0xd
 1139 0122 0C       		.uleb128 0xc
 1140 0123 44       		.byte	0x4
 1141              		.4byte	.LCFI33-.LCFI32
 1142 0124 8E       		.byte	0x8e
 1143 0125 02       		.uleb128 0x2
 1144 0126 8D       		.byte	0x8d
 1145 0127 03       		.uleb128 0x3
 1146 0128 8B       		.byte	0x8b
 1147 0129 04       		.uleb128 0x4
 1148 012a 44       		.byte	0x4
 1149              		.4byte	.LCFI34-.LCFI33
 1150 012b 0C       		.byte	0xc
 1151 012c 0B       		.uleb128 0xb
 1152 012d 04       		.uleb128 0x4
 1153 012e 0000     		.align	2
 1154              	.LEFDE16:
 1155              	.LSFDE18:
 1156 0130 1C000000 		.4byte	.LEFDE18-.LASFDE18
 1157              	.LASFDE18:
 1158 0134 00000000 		.4byte	.Lframe0
 1159 0138 00000000 		.4byte	.LFB11
 1160 013c 70000000 		.4byte	.LFE11-.LFB11
ARM GAS  /tmp/ccOLb5rs.s 			page 25


 1161 0140 44       		.byte	0x4
 1162              		.4byte	.LCFI36-.LFB11
 1163 0141 0D       		.byte	0xd
 1164 0142 0C       		.uleb128 0xc
 1165 0143 44       		.byte	0x4
 1166              		.4byte	.LCFI37-.LCFI36
 1167 0144 8E       		.byte	0x8e
 1168 0145 02       		.uleb128 0x2
 1169 0146 8D       		.byte	0x8d
 1170 0147 03       		.uleb128 0x3
 1171 0148 8B       		.byte	0x8b
 1172 0149 04       		.uleb128 0x4
 1173 014a 44       		.byte	0x4
 1174              		.4byte	.LCFI38-.LCFI37
 1175 014b 0C       		.byte	0xc
 1176 014c 0B       		.uleb128 0xb
 1177 014d 04       		.uleb128 0x4
 1178 014e 0000     		.align	2
 1179              	.LEFDE18:
 1180              	.LSFDE20:
 1181 0150 1C000000 		.4byte	.LEFDE20-.LASFDE20
 1182              	.LASFDE20:
 1183 0154 00000000 		.4byte	.Lframe0
 1184 0158 00000000 		.4byte	.LFB12
 1185 015c 38000000 		.4byte	.LFE12-.LFB12
 1186 0160 44       		.byte	0x4
 1187              		.4byte	.LCFI40-.LFB12
 1188 0161 0D       		.byte	0xd
 1189 0162 0C       		.uleb128 0xc
 1190 0163 44       		.byte	0x4
 1191              		.4byte	.LCFI41-.LCFI40
 1192 0164 8E       		.byte	0x8e
 1193 0165 02       		.uleb128 0x2
 1194 0166 8D       		.byte	0x8d
 1195 0167 03       		.uleb128 0x3
 1196 0168 8B       		.byte	0x8b
 1197 0169 04       		.uleb128 0x4
 1198 016a 44       		.byte	0x4
 1199              		.4byte	.LCFI42-.LCFI41
 1200 016b 0C       		.byte	0xc
 1201 016c 0B       		.uleb128 0xb
 1202 016d 04       		.uleb128 0x4
 1203 016e 0000     		.align	2
 1204              	.LEFDE20:
 1205              	.LSFDE22:
 1206 0170 1C000000 		.4byte	.LEFDE22-.LASFDE22
 1207              	.LASFDE22:
 1208 0174 00000000 		.4byte	.Lframe0
 1209 0178 00000000 		.4byte	.LFB13
 1210 017c 74000000 		.4byte	.LFE13-.LFB13
 1211 0180 44       		.byte	0x4
 1212              		.4byte	.LCFI44-.LFB13
 1213 0181 0D       		.byte	0xd
 1214 0182 0C       		.uleb128 0xc
 1215 0183 44       		.byte	0x4
 1216              		.4byte	.LCFI45-.LCFI44
 1217 0184 8E       		.byte	0x8e
ARM GAS  /tmp/ccOLb5rs.s 			page 26


 1218 0185 02       		.uleb128 0x2
 1219 0186 8D       		.byte	0x8d
 1220 0187 03       		.uleb128 0x3
 1221 0188 8B       		.byte	0x8b
 1222 0189 04       		.uleb128 0x4
 1223 018a 44       		.byte	0x4
 1224              		.4byte	.LCFI46-.LCFI45
 1225 018b 0C       		.byte	0xc
 1226 018c 0B       		.uleb128 0xb
 1227 018d 04       		.uleb128 0x4
 1228 018e 0000     		.align	2
 1229              	.LEFDE22:
 1230              	.LSFDE24:
 1231 0190 1C000000 		.4byte	.LEFDE24-.LASFDE24
 1232              	.LASFDE24:
 1233 0194 00000000 		.4byte	.Lframe0
 1234 0198 00000000 		.4byte	.LFB14
 1235 019c B0000000 		.4byte	.LFE14-.LFB14
 1236 01a0 44       		.byte	0x4
 1237              		.4byte	.LCFI48-.LFB14
 1238 01a1 0D       		.byte	0xd
 1239 01a2 0C       		.uleb128 0xc
 1240 01a3 44       		.byte	0x4
 1241              		.4byte	.LCFI49-.LCFI48
 1242 01a4 8E       		.byte	0x8e
 1243 01a5 02       		.uleb128 0x2
 1244 01a6 8D       		.byte	0x8d
 1245 01a7 03       		.uleb128 0x3
 1246 01a8 8B       		.byte	0x8b
 1247 01a9 04       		.uleb128 0x4
 1248 01aa 44       		.byte	0x4
 1249              		.4byte	.LCFI50-.LCFI49
 1250 01ab 0C       		.byte	0xc
 1251 01ac 0B       		.uleb128 0xb
 1252 01ad 04       		.uleb128 0x4
 1253 01ae 0000     		.align	2
 1254              	.LEFDE24:
 1255              	.LSFDE26:
 1256 01b0 1C000000 		.4byte	.LEFDE26-.LASFDE26
 1257              	.LASFDE26:
 1258 01b4 00000000 		.4byte	.Lframe0
 1259 01b8 00000000 		.4byte	.LFB15
 1260 01bc 90000000 		.4byte	.LFE15-.LFB15
 1261 01c0 44       		.byte	0x4
 1262              		.4byte	.LCFI52-.LFB15
 1263 01c1 0D       		.byte	0xd
 1264 01c2 0C       		.uleb128 0xc
 1265 01c3 44       		.byte	0x4
 1266              		.4byte	.LCFI53-.LCFI52
 1267 01c4 8E       		.byte	0x8e
 1268 01c5 02       		.uleb128 0x2
 1269 01c6 8D       		.byte	0x8d
 1270 01c7 03       		.uleb128 0x3
 1271 01c8 8B       		.byte	0x8b
 1272 01c9 04       		.uleb128 0x4
 1273 01ca 44       		.byte	0x4
 1274              		.4byte	.LCFI54-.LCFI53
ARM GAS  /tmp/ccOLb5rs.s 			page 27


 1275 01cb 0C       		.byte	0xc
 1276 01cc 0B       		.uleb128 0xb
 1277 01cd 04       		.uleb128 0x4
 1278 01ce 0000     		.align	2
 1279              	.LEFDE26:
 1280              	.LSFDE28:
 1281 01d0 1C000000 		.4byte	.LEFDE28-.LASFDE28
 1282              	.LASFDE28:
 1283 01d4 00000000 		.4byte	.Lframe0
 1284 01d8 00000000 		.4byte	.LFB16
 1285 01dc 5C000000 		.4byte	.LFE16-.LFB16
 1286 01e0 44       		.byte	0x4
 1287              		.4byte	.LCFI56-.LFB16
 1288 01e1 0D       		.byte	0xd
 1289 01e2 0C       		.uleb128 0xc
 1290 01e3 44       		.byte	0x4
 1291              		.4byte	.LCFI57-.LCFI56
 1292 01e4 8E       		.byte	0x8e
 1293 01e5 02       		.uleb128 0x2
 1294 01e6 8D       		.byte	0x8d
 1295 01e7 03       		.uleb128 0x3
 1296 01e8 8B       		.byte	0x8b
 1297 01e9 04       		.uleb128 0x4
 1298 01ea 44       		.byte	0x4
 1299              		.4byte	.LCFI58-.LCFI57
 1300 01eb 0C       		.byte	0xc
 1301 01ec 0B       		.uleb128 0xb
 1302 01ed 04       		.uleb128 0x4
 1303 01ee 0000     		.align	2
 1304              	.LEFDE28:
 1305              	.LSFDE30:
 1306 01f0 1C000000 		.4byte	.LEFDE30-.LASFDE30
 1307              	.LASFDE30:
 1308 01f4 00000000 		.4byte	.Lframe0
 1309 01f8 00000000 		.4byte	.LFB17
 1310 01fc 98000000 		.4byte	.LFE17-.LFB17
 1311 0200 44       		.byte	0x4
 1312              		.4byte	.LCFI60-.LFB17
 1313 0201 0D       		.byte	0xd
 1314 0202 0C       		.uleb128 0xc
 1315 0203 44       		.byte	0x4
 1316              		.4byte	.LCFI61-.LCFI60
 1317 0204 8E       		.byte	0x8e
 1318 0205 02       		.uleb128 0x2
 1319 0206 8D       		.byte	0x8d
 1320 0207 03       		.uleb128 0x3
 1321 0208 8B       		.byte	0x8b
 1322 0209 04       		.uleb128 0x4
 1323 020a 44       		.byte	0x4
 1324              		.4byte	.LCFI62-.LCFI61
 1325 020b 0C       		.byte	0xc
 1326 020c 0B       		.uleb128 0xb
 1327 020d 04       		.uleb128 0x4
 1328 020e 0000     		.align	2
 1329              	.LEFDE30:
 1330              		.text
 1331              	.Letext0:
ARM GAS  /tmp/ccOLb5rs.s 			page 28

