ARM GAS  /tmp/ccvvV6V2.s 			page 1


   1              		.cpu arm7tdmi
   2              		.fpu softvfp
   3              		.eabi_attribute 20, 1
   4              		.eabi_attribute 21, 1
   5              		.eabi_attribute 23, 3
   6              		.eabi_attribute 24, 1
   7              		.eabi_attribute 25, 1
   8              		.eabi_attribute 26, 1
   9              		.eabi_attribute 30, 6
  10              		.eabi_attribute 18, 4
  11              		.file	"Ethernet.c"
  12              		.section	.debug_abbrev,"",%progbits
  13              	.Ldebug_abbrev0:
  14              		.section	.debug_info,"",%progbits
  15              	.Ldebug_info0:
  16              		.section	.debug_line,"",%progbits
  17              	.Ldebug_line0:
  18 0000 F4010000 		.text
  18      02003201 
  18      00000201 
  18      FB0E0D00 
  18      01010101 
  19              	.Ltext0:
  20              		.section	.text.enc28j60_cs,"ax",%progbits
  21              		.align	2
  22              		.type	enc28j60_cs, %function
  23              	enc28j60_cs:
  24              	.LFB2:
  25              		.file 1 "Ethernet.c"
   1:Ethernet.c    **** /*
   2:Ethernet.c    ****  * TODO ethernet for eCos
   3:Ethernet.c    ****  * initialize SPI with eCos SPI
   4:Ethernet.c    ****  *
   5:Ethernet.c    ****  *
   6:Ethernet.c    ****  */
   7:Ethernet.c    **** 
   8:Ethernet.c    **** 
   9:Ethernet.c    **** #include "Ethernet.h"
  10:Ethernet.c    **** #include "ENC28J60.h"
  11:Ethernet.c    **** #include "GPIO.h"
  12:Ethernet.c    **** 
  13:Ethernet.c    **** 
  14:Ethernet.c    **** #define SINGLE_BYTE	1
  15:Ethernet.c    **** #define DOUBLE_BYTE 2
  16:Ethernet.c    **** #define TSV_SIZE 7
  17:Ethernet.c    **** #define RSV_SIZE 4
  18:Ethernet.c    **** #define TRANSMITE_LATE_COLLITION_BUG(A)		((A)[3] & (1 << 5))	
  19:Ethernet.c    **** #define MAX_TX_RETRIES				10
  20:Ethernet.c    **** #define PROMISCUOUS_MODE 0      /*ERXFCON_REGISTER Enumerator shoul be used to filter packets*/
  21:Ethernet.c    **** #define FULL_DUPLEX  0x15
  22:Ethernet.c    **** #define HALF_DUPLEX  0x12
  23:Ethernet.c    **** #define MAIPGH_HALF_DUPLEX	0x0C12
  24:Ethernet.c    **** #define MAIPGH_FULL_DUPLEX	0x12
  25:Ethernet.c    **** 
  26:Ethernet.c    **** #define __BUFFER_RX_SIZE__		512
  27:Ethernet.c    **** #define __BUFFER_TX_SIZE__		512
  28:Ethernet.c    **** 
ARM GAS  /tmp/ccvvV6V2.s 			page 2


  29:Ethernet.c    **** static pETHERNET_Device ethDevice;
  30:Ethernet.c    **** 
  31:Ethernet.c    **** 
  32:Ethernet.c    **** static void enc28j60_cs(int select) {
  26              		.loc 1 32 0
  27              		@ Function supports interworking.
  28              		@ args = 0, pretend = 0, frame = 8
  29              		@ frame_needed = 1, uses_anonymous_args = 0
  30 0000 0DC0A0E1 		mov	ip, sp
  31              	.LCFI0:
  32 0004 00D82DE9 		stmfd	sp!, {fp, ip, lr, pc}
  33              	.LCFI1:
  34 0008 04B04CE2 		sub	fp, ip, #4
  35              	.LCFI2:
  36 000c 08D04DE2 		sub	sp, sp, #8
  37              	.LCFI3:
  38 0010 10000BE5 		str	r0, [fp, #-16]
  33:Ethernet.c    **** 	if (select)
  39              		.loc 1 33 0
  40 0014 10301BE5 		ldr	r3, [fp, #-16]
  41 0018 000053E3 		cmp	r3, #0
  42 001c 0400000A 		beq	.L2
  34:Ethernet.c    **** 		HAL_WRITE_UINT32(CYGARC_HAL_LPC2XXX_REG_IO_BASE +
  43              		.loc 1 34 0
  44 0020 CE32A0E3 		mov	r3, #-536870900
  45 0024 0A3983E2 		add	r3, r3, #163840
  46 0028 012CA0E3 		mov	r2, #256
  47 002c 002083E5 		str	r2, [r3, #0]
  48 0030 030000EA 		b	.L4
  49              	.L2:
  35:Ethernet.c    **** 				CYGARC_HAL_LPC2XXX_REG_IOCLR, CS_PIN);
  36:Ethernet.c    **** 	else
  37:Ethernet.c    **** 		HAL_WRITE_UINT32(CYGARC_HAL_LPC2XXX_REG_IO_BASE +
  50              		.loc 1 37 0
  51 0034 4E32A0E3 		mov	r3, #-536870908
  52 0038 0A3983E2 		add	r3, r3, #163840
  53 003c 012CA0E3 		mov	r2, #256
  54 0040 002083E5 		str	r2, [r3, #0]
  55              	.L4:
  38:Ethernet.c    **** 				CYGARC_HAL_LPC2XXX_REG_IOSET, CS_PIN);
  39:Ethernet.c    **** }
  56              		.loc 1 39 0
  57 0044 0CD04BE2 		sub	sp, fp, #12
  58 0048 00689DE8 		ldmfd	sp, {fp, sp, lr}
  59 004c 1EFF2FE1 		bx	lr
  60              	.LFE2:
  61              		.size	enc28j60_cs, .-enc28j60_cs
  62              		.global	spi_enc28j60_dev
  63              		.section	.ecos.table.spibus_0.data,"aw",%progbits
  64              		.type	spi_enc28j60_dev, %object
  65              		.size	spi_enc28j60_dev, 15
  66              	spi_enc28j60_dev:
  67 0000 00000000 		.4byte	cyg_spi_lpc2xxx_bus0
  68 0004 00       		.byte	0
  69 0005 00       		.byte	0
  70 0006 00       		.byte	0
  71 0007 10270000 		.4byte	10000
ARM GAS  /tmp/ccvvV6V2.s 			page 3


  72 000b 00000000 		.4byte	enc28j60_cs
  73              		.section	.text.Ethernet_init,"ax",%progbits
  74              		.align	2
  75              		.global	Ethernet_init
  76              		.type	Ethernet_init, %function
  77              	Ethernet_init:
  78              	.LFB3:
  40:Ethernet.c    **** 
  41:Ethernet.c    **** cyg_spi_lpc2xxx_dev_t spi_enc28j60_dev CYG_SPI_DEVICE_ON_BUS(0) =
  42:Ethernet.c    **** {
  43:Ethernet.c    **** 	.spi_device.spi_bus = &cyg_spi_lpc2xxx_bus0.spi_bus,
  44:Ethernet.c    **** 	.spi_cpha = 0, //Clock phase (0 or 1)
  45:Ethernet.c    **** 	.spi_cpol = 0, // Clock polarity (0 or 1)
  46:Ethernet.c    **** 	.spi_lsbf = 0, // MSBF
  47:Ethernet.c    **** 	.spi_baud = 10000, // Clock baud rate
  48:Ethernet.c    **** 	.spi_cs = enc28j60_cs
  49:Ethernet.c    **** };
  50:Ethernet.c    **** 
  51:Ethernet.c    **** /**
  52:Ethernet.c    ****  * @brief 
  53:Ethernet.c    ****  * */
  54:Ethernet.c    **** U8 Ethernet_init(pETHERNET_Device ethernetDevice){
  79              		.loc 1 54 0
  80              		@ Function supports interworking.
  81              		@ args = 0, pretend = 0, frame = 8
  82              		@ frame_needed = 1, uses_anonymous_args = 0
  83 0000 0DC0A0E1 		mov	ip, sp
  84              	.LCFI4:
  85 0004 00D82DE9 		stmfd	sp!, {fp, ip, lr, pc}
  86              	.LCFI5:
  87 0008 04B04CE2 		sub	fp, ip, #4
  88              	.LCFI6:
  89 000c 08D04DE2 		sub	sp, sp, #8
  90              	.LCFI7:
  91 0010 10000BE5 		str	r0, [fp, #-16]
  55:Ethernet.c    **** 	if (&(ethernetDevice->mac) == 0)
  92              		.loc 1 55 0
  93 0014 10301BE5 		ldr	r3, [fp, #-16]
  94 0018 053083E2 		add	r3, r3, #5
  95 001c 000053E3 		cmp	r3, #0
  96 0020 0200001A 		bne	.L6
  56:Ethernet.c    **** 		return ETHERNET_MAC_NULL_POINTER;
  97              		.loc 1 56 0
  98 0024 0430A0E3 		mov	r3, #4
  99 0028 14300BE5 		str	r3, [fp, #-20]
 100 002c A40000EA 		b	.L7
 101              	.L6:
  57:Ethernet.c    **** 	
  58:Ethernet.c    ****     ethDevice = ethernetDevice;
 102              		.loc 1 58 0
 103 0030 A0229FE5 		ldr	r2, .L11
 104 0034 10301BE5 		ldr	r3, [fp, #-16]
 105 0038 003082E5 		str	r3, [r2, #0]
  59:Ethernet.c    **** 
  60:Ethernet.c    ****     ethDevice->ethernetDevice=&spi_enc28j60_dev;
 106              		.loc 1 60 0
 107 003c 94329FE5 		ldr	r3, .L11
ARM GAS  /tmp/ccvvV6V2.s 			page 4


 108 0040 00C093E5 		ldr	ip, [r3, #0]
 109 0044 90029FE5 		ldr	r0, .L11+4
 110 0048 FF1000E2 		and	r1, r0, #255
 111 004c 0030A0E3 		mov	r3, #0
 112 0050 0320A0E1 		mov	r2, r3
 113 0054 0130A0E1 		mov	r3, r1
 114 0058 033082E1 		orr	r3, r2, r3
 115 005c 0030CCE5 		strb	r3, [ip, #0]
 116 0060 2034A0E1 		mov	r3, r0, lsr #8
 117 0064 FF1003E2 		and	r1, r3, #255
 118 0068 0030A0E3 		mov	r3, #0
 119 006c 0320A0E1 		mov	r2, r3
 120 0070 0130A0E1 		mov	r3, r1
 121 0074 033082E1 		orr	r3, r2, r3
 122 0078 0130CCE5 		strb	r3, [ip, #1]
 123 007c 2038A0E1 		mov	r3, r0, lsr #16
 124 0080 FF1003E2 		and	r1, r3, #255
 125 0084 0030A0E3 		mov	r3, #0
 126 0088 0320A0E1 		mov	r2, r3
 127 008c 0130A0E1 		mov	r3, r1
 128 0090 033082E1 		orr	r3, r2, r3
 129 0094 0230CCE5 		strb	r3, [ip, #2]
 130 0098 201CA0E1 		mov	r1, r0, lsr #24
 131 009c 0030A0E3 		mov	r3, #0
 132 00a0 0320A0E1 		mov	r2, r3
 133 00a4 0130A0E1 		mov	r3, r1
 134 00a8 033082E1 		orr	r3, r2, r3
 135 00ac 0330CCE5 		strb	r3, [ip, #3]
  61:Ethernet.c    **** 
  62:Ethernet.c    ****     ENC_init((cyg_spi_lpc2xxx_dev_t*)(ethDevice->ethernetDevice));
 136              		.loc 1 62 0
 137 00b0 20329FE5 		ldr	r3, .L11
 138 00b4 002093E5 		ldr	r2, [r3, #0]
 139 00b8 0010D2E5 		ldrb	r1, [r2, #0]	@ zero_extendqisi2
 140 00bc 0130D2E5 		ldrb	r3, [r2, #1]	@ zero_extendqisi2
 141 00c0 0334A0E1 		mov	r3, r3, asl #8
 142 00c4 011083E1 		orr	r1, r3, r1
 143 00c8 0230D2E5 		ldrb	r3, [r2, #2]	@ zero_extendqisi2
 144 00cc 0338A0E1 		mov	r3, r3, asl #16
 145 00d0 011083E1 		orr	r1, r3, r1
 146 00d4 0330D2E5 		ldrb	r3, [r2, #3]	@ zero_extendqisi2
 147 00d8 033CA0E1 		mov	r3, r3, asl #24
 148 00dc 013083E1 		orr	r3, r3, r1
 149 00e0 0300A0E1 		mov	r0, r3
 150 00e4 FEFFFFEB 		bl	ENC_init
  63:Ethernet.c    **** 
  64:Ethernet.c    ****     /*Reset Enc28j60 to default values*/
  65:Ethernet.c    ****     ENC_system_reset_command();
 151              		.loc 1 65 0
 152 00e8 FEFFFFEB 		bl	ENC_system_reset_command
  66:Ethernet.c    ****     /*6.1 Receive Buffer*/
  67:Ethernet.c    ****     /*
  68:Ethernet.c    **** 	ENC_write_reg(B0_ERXSTL,BANK00,__ETHERNET_RX_START_PTR__,true);
  69:Ethernet.c    **** 	ENC_write_reg(B0_ERXNDL,BANK00,__ETHERNET_RX_END_PTR__,true);
  70:Ethernet.c    **** 	ENC_write_reg(B0_ERXRDPTL,BANK00,__ETHERNET_RX_END_PTR__,true);
  71:Ethernet.c    **** 	*/
  72:Ethernet.c    **** 	ENC_WRITE_REG16(B0_ERXSTL,BANK00,__ETHERNET_RX_START_PTR__);
ARM GAS  /tmp/ccvvV6V2.s 			page 5


 153              		.loc 1 72 0
 154 00ec 2800A0E3 		mov	r0, #40
 155 00f0 0010A0E3 		mov	r1, #0
 156 00f4 0020A0E3 		mov	r2, #0
 157 00f8 0130A0E3 		mov	r3, #1
 158 00fc FEFFFFEB 		bl	ENC_write_reg
  73:Ethernet.c    **** 	ENC_WRITE_REG16(B0_ERXNDL,BANK00,__ETHERNET_RX_END_PTR__);
 159              		.loc 1 73 0
 160 0100 2A00A0E3 		mov	r0, #42
 161 0104 0010A0E3 		mov	r1, #0
 162 0108 FF2EA0E3 		mov	r2, #4080
 163 010c 0F2082E2 		add	r2, r2, #15
 164 0110 0130A0E3 		mov	r3, #1
 165 0114 FEFFFFEB 		bl	ENC_write_reg
  74:Ethernet.c    **** 	ENC_WRITE_REG16(B0_ERXRDPTL,BANK00,__ETHERNET_RX_END_PTR__);
 166              		.loc 1 74 0
 167 0118 2C00A0E3 		mov	r0, #44
 168 011c 0010A0E3 		mov	r1, #0
 169 0120 FF2EA0E3 		mov	r2, #4080
 170 0124 0F2082E2 		add	r2, r2, #15
 171 0128 0130A0E3 		mov	r3, #1
 172 012c FEFFFFEB 		bl	ENC_write_reg
  75:Ethernet.c    ****     
  76:Ethernet.c    ****     /*6.3 Receive Filters*/
  77:Ethernet.c    ****     ENC_WRITE_REG8(B1_ERXFCON,BANK01,PROMISCUOUS_MODE);
 173              		.loc 1 77 0
 174 0130 3800A0E3 		mov	r0, #56
 175 0134 0110A0E3 		mov	r1, #1
 176 0138 0020A0E3 		mov	r2, #0
 177 013c 0030A0E3 		mov	r3, #0
 178 0140 FEFFFFEB 		bl	ENC_write_reg
  78:Ethernet.c    **** 
  79:Ethernet.c    ****     /*6.5 MAC Initialization Settings*/
  80:Ethernet.c    **** 	ENC_WRITE_REG8(B3_MAADR1,BANK03,ethernetDevice->mac[0]);
 179              		.loc 1 80 0
 180 0144 10301BE5 		ldr	r3, [fp, #-16]
 181 0148 0530D3E5 		ldrb	r3, [r3, #5]	@ zero_extendqisi2
 182 014c 4400A0E3 		mov	r0, #68
 183 0150 0310A0E3 		mov	r1, #3
 184 0154 0320A0E1 		mov	r2, r3
 185 0158 0030A0E3 		mov	r3, #0
 186 015c FEFFFFEB 		bl	ENC_write_reg
  81:Ethernet.c    **** 	ENC_WRITE_REG8(B3_MAADR2,BANK03,ethernetDevice->mac[1]);
 187              		.loc 1 81 0
 188 0160 10301BE5 		ldr	r3, [fp, #-16]
 189 0164 0630D3E5 		ldrb	r3, [r3, #6]	@ zero_extendqisi2
 190 0168 4500A0E3 		mov	r0, #69
 191 016c 0310A0E3 		mov	r1, #3
 192 0170 0320A0E1 		mov	r2, r3
 193 0174 0030A0E3 		mov	r3, #0
 194 0178 FEFFFFEB 		bl	ENC_write_reg
  82:Ethernet.c    **** 	ENC_WRITE_REG8(B3_MAADR3,BANK03,ethernetDevice->mac[2]);
 195              		.loc 1 82 0
 196 017c 10301BE5 		ldr	r3, [fp, #-16]
 197 0180 0730D3E5 		ldrb	r3, [r3, #7]	@ zero_extendqisi2
 198 0184 4200A0E3 		mov	r0, #66
 199 0188 0310A0E3 		mov	r1, #3
ARM GAS  /tmp/ccvvV6V2.s 			page 6


 200 018c 0320A0E1 		mov	r2, r3
 201 0190 0030A0E3 		mov	r3, #0
 202 0194 FEFFFFEB 		bl	ENC_write_reg
  83:Ethernet.c    **** 	ENC_WRITE_REG8(B3_MAADR4,BANK03,ethernetDevice->mac[3]);
 203              		.loc 1 83 0
 204 0198 10301BE5 		ldr	r3, [fp, #-16]
 205 019c 0830D3E5 		ldrb	r3, [r3, #8]	@ zero_extendqisi2
 206 01a0 4300A0E3 		mov	r0, #67
 207 01a4 0310A0E3 		mov	r1, #3
 208 01a8 0320A0E1 		mov	r2, r3
 209 01ac 0030A0E3 		mov	r3, #0
 210 01b0 FEFFFFEB 		bl	ENC_write_reg
  84:Ethernet.c    **** 	ENC_WRITE_REG8(B3_MAADR5,BANK03,ethernetDevice->mac[4]);
 211              		.loc 1 84 0
 212 01b4 10301BE5 		ldr	r3, [fp, #-16]
 213 01b8 0930D3E5 		ldrb	r3, [r3, #9]	@ zero_extendqisi2
 214 01bc 4000A0E3 		mov	r0, #64
 215 01c0 0310A0E3 		mov	r1, #3
 216 01c4 0320A0E1 		mov	r2, r3
 217 01c8 0030A0E3 		mov	r3, #0
 218 01cc FEFFFFEB 		bl	ENC_write_reg
  85:Ethernet.c    **** 	ENC_WRITE_REG8(B3_MAADR6,BANK03,ethernetDevice->mac[5]);
 219              		.loc 1 85 0
 220 01d0 10301BE5 		ldr	r3, [fp, #-16]
 221 01d4 0A30D3E5 		ldrb	r3, [r3, #10]	@ zero_extendqisi2
 222 01d8 4100A0E3 		mov	r0, #65
 223 01dc 0310A0E3 		mov	r1, #3
 224 01e0 0320A0E1 		mov	r2, r3
 225 01e4 0030A0E3 		mov	r3, #0
 226 01e8 FEFFFFEB 		bl	ENC_write_reg
  86:Ethernet.c    **** 
  87:Ethernet.c    **** 	ENC_WRITE_REG8(B2_MACON1,BANK02,MACON1_MARXEN);
 227              		.loc 1 87 0
 228 01ec 4000A0E3 		mov	r0, #64
 229 01f0 0210A0E3 		mov	r1, #2
 230 01f4 0120A0E3 		mov	r2, #1
 231 01f8 0030A0E3 		mov	r3, #0
 232 01fc FEFFFFEB 		bl	ENC_write_reg
  88:Ethernet.c    **** 	ENC_WRITE_REG8(B2_MACON3,BANK02,MACON3_FRMLNEN + MACON3_TXCRCEN + MACON3_PADCFG0);
 233              		.loc 1 88 0
 234 0200 4200A0E3 		mov	r0, #66
 235 0204 0210A0E3 		mov	r1, #2
 236 0208 3220A0E3 		mov	r2, #50
 237 020c 0030A0E3 		mov	r3, #0
 238 0210 FEFFFFEB 		bl	ENC_write_reg
  89:Ethernet.c    **** 	ENC_WRITE_REG8(B2_MACON4,BANK02,MACON4_DEFER);
 239              		.loc 1 89 0
 240 0214 4300A0E3 		mov	r0, #67
 241 0218 0210A0E3 		mov	r1, #2
 242 021c 4020A0E3 		mov	r2, #64
 243 0220 0030A0E3 		mov	r3, #0
 244 0224 FEFFFFEB 		bl	ENC_write_reg
  90:Ethernet.c    **** 
  91:Ethernet.c    **** 	/*ENC_write_reg(B2_MAMXFLL,BANK02,MAX_FRAME_LEN,true);*/
  92:Ethernet.c    ****     ENC_WRITE_REG16(B2_MAMXFLL,BANK02,MAX_FRAME_LEN);
 245              		.loc 1 92 0
 246 0228 4A00A0E3 		mov	r0, #74
ARM GAS  /tmp/ccvvV6V2.s 			page 7


 247 022c 0210A0E3 		mov	r1, #2
 248 0230 5E2EA0E3 		mov	r2, #1504
 249 0234 0E2082E2 		add	r2, r2, #14
 250 0238 0130A0E3 		mov	r3, #1
 251 023c FEFFFFEB 		bl	ENC_write_reg
  93:Ethernet.c    **** 
  94:Ethernet.c    ****     /**
  95:Ethernet.c    ****      * @todo
  96:Ethernet.c    ****      * Config Full Duplex     
  97:Ethernet.c    ****      * */
  98:Ethernet.c    ****     if ( ethernetDevice->duplex == ETHERNET_FULL_DUPLEX){
 252              		.loc 1 98 0
 253 0240 10301BE5 		ldr	r3, [fp, #-16]
 254 0244 0430D3E5 		ldrb	r3, [r3, #4]	@ zero_extendqisi2
 255 0248 010053E3 		cmp	r3, #1
 256 024c 0A00001A 		bne	.L8
  99:Ethernet.c    ****         ENC_WRITE_REG8(B2_MABBIPG,BANK02,FULL_DUPLEX);
 257              		.loc 1 99 0
 258 0250 4400A0E3 		mov	r0, #68
 259 0254 0210A0E3 		mov	r1, #2
 260 0258 1520A0E3 		mov	r2, #21
 261 025c 0030A0E3 		mov	r3, #0
 262 0260 FEFFFFEB 		bl	ENC_write_reg
 100:Ethernet.c    ****         ENC_WRITE_REG16(B2_MAIPGL,BANK02,MAIPGH_FULL_DUPLEX);
 263              		.loc 1 100 0
 264 0264 4600A0E3 		mov	r0, #70
 265 0268 0210A0E3 		mov	r1, #2
 266 026c 1220A0E3 		mov	r2, #18
 267 0270 0130A0E3 		mov	r3, #1
 268 0274 FEFFFFEB 		bl	ENC_write_reg
 269 0278 0A0000EA 		b	.L9
 270              	.L8:
 101:Ethernet.c    **** 	}else{
 102:Ethernet.c    ****         ENC_WRITE_REG8(B2_MABBIPG,BANK02,HALF_DUPLEX);
 271              		.loc 1 102 0
 272 027c 4400A0E3 		mov	r0, #68
 273 0280 0210A0E3 		mov	r1, #2
 274 0284 1220A0E3 		mov	r2, #18
 275 0288 0030A0E3 		mov	r3, #0
 276 028c FEFFFFEB 		bl	ENC_write_reg
 103:Ethernet.c    ****         ENC_WRITE_REG16(B2_MAIPGL,BANK02,MAIPGH_HALF_DUPLEX);
 277              		.loc 1 103 0
 278 0290 4600A0E3 		mov	r0, #70
 279 0294 0210A0E3 		mov	r1, #2
 280 0298 C12EA0E3 		mov	r2, #3088
 281 029c 022082E2 		add	r2, r2, #2
 282 02a0 0130A0E3 		mov	r3, #1
 283 02a4 FEFFFFEB 		bl	ENC_write_reg
 284              	.L9:
 104:Ethernet.c    ****     }
 105:Ethernet.c    **** 
 106:Ethernet.c    ****     ENC_WRITE_REG8(ECON1,BANK02,ECON1_RXEN);
 285              		.loc 1 106 0
 286 02a8 1F00A0E3 		mov	r0, #31
 287 02ac 0210A0E3 		mov	r1, #2
 288 02b0 0420A0E3 		mov	r2, #4
 289 02b4 0030A0E3 		mov	r3, #0
ARM GAS  /tmp/ccvvV6V2.s 			page 8


 290 02b8 FEFFFFEB 		bl	ENC_write_reg
 107:Ethernet.c    **** 	
 108:Ethernet.c    ****     /*
 109:Ethernet.c    **** 	 * Prepare Software Buffer.
 110:Ethernet.c    **** 	 * */
 111:Ethernet.c    ****    /*buffer_init(&rx_Buffer,&rx_Buffer_Space,__ETHERNET_RX_BUFFER_SIZE__);
 112:Ethernet.c    **** 	 buffer_init(&tx_Buffer,&tx_Buffer_Space,__ETHERNET_TX_BUFFER_SIZE__);
 113:Ethernet.c    **** 	 */
 114:Ethernet.c    **** 	 
 115:Ethernet.c    **** 	return ETHERNET_OK;
 291              		.loc 1 115 0
 292 02bc 0030A0E3 		mov	r3, #0
 293 02c0 14300BE5 		str	r3, [fp, #-20]
 294              	.L7:
 295 02c4 14301BE5 		ldr	r3, [fp, #-20]
 116:Ethernet.c    **** }
 296              		.loc 1 116 0
 297 02c8 0300A0E1 		mov	r0, r3
 298 02cc 0CD04BE2 		sub	sp, fp, #12
 299 02d0 00689DE8 		ldmfd	sp, {fp, sp, lr}
 300 02d4 1EFF2FE1 		bx	lr
 301              	.L12:
 302              		.align	2
 303              	.L11:
 304 02d8 00000000 		.word	ethDevice
 305 02dc 00000000 		.word	spi_enc28j60_dev
 306              	.LFE3:
 307              		.size	Ethernet_init, .-Ethernet_init
 308              		.section	.text.Ethernet_send,"ax",%progbits
 309              		.align	2
 310              		.global	Ethernet_send
 311              		.type	Ethernet_send, %function
 312              	Ethernet_send:
 313              	.LFB6:
 117:Ethernet.c    **** 
 118:Ethernet.c    **** static inline void Ethernet_prepare(U8* packet, U16 packet_size){
 119:Ethernet.c    **** 	U8 control = 0x0;
 120:Ethernet.c    **** 	ENC_write_reg(B0_ETXSTL,BANK00,__ETHERNET_TX_START_PTR__,true);
 121:Ethernet.c    **** 	ENC_write_reg(B0_ETXNDL,BANK00,__ETHERNET_TX_START_PTR__+ packet_size,true);
 122:Ethernet.c    **** 	ENC_write_reg(B0_EWRPTL,BANK00,__ETHERNET_TX_START_PTR__,true);
 123:Ethernet.c    **** 	ENC_write_buffer_memory(&control,SINGLE_BYTE);
 124:Ethernet.c    **** 	ENC_write_buffer_memory(packet,packet_size);	
 125:Ethernet.c    **** }
 126:Ethernet.c    **** static inline void Ethernet_start_tx(){
 127:Ethernet.c    **** 	ENC_bit_field_set(ECON1,ECON1_TXRST);
 128:Ethernet.c    **** 	ENC_bit_field_clear(ECON1,ECON1_TXRST);
 129:Ethernet.c    **** 	ENC_bit_field_clear(EIR,EIR_TXERIF|EIR_TXIF);
 130:Ethernet.c    **** 	ENC_bit_field_set(ECON1,ECON1_TXRTS);	
 131:Ethernet.c    **** }
 132:Ethernet.c    **** 
 133:Ethernet.c    **** /**
 134:Ethernet.c    ****  * @todo Use of software buffers to add bytes from both buffers.
 135:Ethernet.c    ****  * */
 136:Ethernet.c    **** 
 137:Ethernet.c    **** U8 Ethernet_send(U8* packet, U16 packet_size){
 314              		.loc 1 137 0
 315              		@ Function supports interworking.
ARM GAS  /tmp/ccvvV6V2.s 			page 9


 316              		@ args = 0, pretend = 0, frame = 32
 317              		@ frame_needed = 1, uses_anonymous_args = 0
 318 0000 0DC0A0E1 		mov	ip, sp
 319              	.LCFI8:
 320 0004 00D82DE9 		stmfd	sp!, {fp, ip, lr, pc}
 321              	.LCFI9:
 322 0008 04B04CE2 		sub	fp, ip, #4
 323              	.LCFI10:
 324 000c 20D04DE2 		sub	sp, sp, #32
 325              	.LCFI11:
 326 0010 20000BE5 		str	r0, [fp, #-32]
 327 0014 0130A0E1 		mov	r3, r1
 328 0018 B2324BE1 		strh	r3, [fp, #-34]	@ movhi
 138:Ethernet.c    **** 	U8 tsv[TSV_SIZE],aux;
 139:Ethernet.c    **** 	U8 retry = 0;
 329              		.loc 1 139 0
 330 001c 0030A0E3 		mov	r3, #0
 331 0020 0D304BE5 		strb	r3, [fp, #-13]
 140:Ethernet.c    **** 
 141:Ethernet.c    **** 	if (packet == 0)
 332              		.loc 1 141 0
 333 0024 20301BE5 		ldr	r3, [fp, #-32]
 334 0028 000053E3 		cmp	r3, #0
 335 002c 0200001A 		bne	.L14
 142:Ethernet.c    **** 		return ETHERNET_NULL_POINTER;
 336              		.loc 1 142 0
 337 0030 0130A0E3 		mov	r3, #1
 338 0034 28300BE5 		str	r3, [fp, #-40]
 339 0038 470000EA 		b	.L15
 340              	.L14:
 143:Ethernet.c    **** 	if(packet_size == 0 )
 341              		.loc 1 143 0
 342 003c B2325BE1 		ldrh	r3, [fp, #-34]
 343 0040 000053E3 		cmp	r3, #0
 344 0044 0200001A 		bne	.L16
 144:Ethernet.c    **** 		return ETHERNET_NULL_POINTER;
 345              		.loc 1 144 0
 346 0048 0130A0E3 		mov	r3, #1
 347 004c 28300BE5 		str	r3, [fp, #-40]
 348 0050 410000EA 		b	.L15
 349              	.L16:
 145:Ethernet.c    **** 	if (packet_size > MAX_FRAME_LEN)
 350              		.loc 1 145 0
 351 0054 B2225BE1 		ldrh	r2, [fp, #-34]
 352 0058 5E3EA0E3 		mov	r3, #1504
 353 005c 0E3083E2 		add	r3, r3, #14
 354 0060 030052E1 		cmp	r2, r3
 355 0064 0200009A 		bls	.L17
 146:Ethernet.c    **** 		return ETHERNET_PACKET_TOO_LONG;
 356              		.loc 1 146 0
 357 0068 0330A0E3 		mov	r3, #3
 358 006c 28300BE5 		str	r3, [fp, #-40]
 359 0070 390000EA 		b	.L15
 360              	.L17:
 147:Ethernet.c    **** 		
 148:Ethernet.c    **** 	Ethernet_prepare(packet,packet_size);
 361              		.loc 1 148 0
ARM GAS  /tmp/ccvvV6V2.s 			page 10


 362 0074 B2325BE1 		ldrh	r3, [fp, #-34]
 363 0078 20001BE5 		ldr	r0, [fp, #-32]
 364 007c 0310A0E1 		mov	r1, r3
 365 0080 FEFFFFEB 		bl	Ethernet_prepare
 366              	.L20:
 149:Ethernet.c    **** 	
 150:Ethernet.c    **** 	do{
 151:Ethernet.c    **** 		Ethernet_start_tx();
 367              		.loc 1 151 0
 368 0084 FEFFFFEB 		bl	Ethernet_start_tx
 369              	.L18:
 152:Ethernet.c    **** 		do{			
 153:Ethernet.c    ****             aux = ENC_READ_REG8(EIR,BANK00);
 370              		.loc 1 153 0
 371 0088 1C00A0E3 		mov	r0, #28
 372 008c 0010A0E3 		mov	r1, #0
 373 0090 0020A0E3 		mov	r2, #0
 374 0094 FEFFFFEB 		bl	ENC_read_reg
 375 0098 0030A0E1 		mov	r3, r0
 376 009c 0E304BE5 		strb	r3, [fp, #-14]
 154:Ethernet.c    **** 		}while((aux & EIR_TXIF) == 0);
 377              		.loc 1 154 0
 378 00a0 0E305BE5 		ldrb	r3, [fp, #-14]	@ zero_extendqisi2
 379 00a4 083003E2 		and	r3, r3, #8
 380 00a8 000053E3 		cmp	r3, #0
 381 00ac F5FFFF0A 		beq	.L18
 155:Ethernet.c    **** 
 156:Ethernet.c    **** 		ENC_bit_field_clear(ECON1,ECON1_TXRTS);
 382              		.loc 1 156 0
 383 00b0 1F00A0E3 		mov	r0, #31
 384 00b4 0810A0E3 		mov	r1, #8
 385 00b8 FEFFFFEB 		bl	ENC_bit_field_clear
 157:Ethernet.c    **** 		ENC_WRITE_REG16(B0_ERDPTL,BANK00,__ETHERNET_TX_START_PTR__ + packet_size + 1);
 386              		.loc 1 157 0
 387 00bc B2325BE1 		ldrh	r3, [fp, #-34]	@ movhi
 388 00c0 013A83E2 		add	r3, r3, #4096
 389 00c4 013083E2 		add	r3, r3, #1
 390 00c8 0338A0E1 		mov	r3, r3, asl #16
 391 00cc 2338A0E1 		mov	r3, r3, lsr #16
 392 00d0 2000A0E3 		mov	r0, #32
 393 00d4 0010A0E3 		mov	r1, #0
 394 00d8 0320A0E1 		mov	r2, r3
 395 00dc 0130A0E3 		mov	r3, #1
 396 00e0 FEFFFFEB 		bl	ENC_write_reg
 158:Ethernet.c    **** 		ENC_read_buffer_memory(tsv,TSV_SIZE);
 397              		.loc 1 158 0
 398 00e4 15304BE2 		sub	r3, fp, #21
 399 00e8 0300A0E1 		mov	r0, r3
 400 00ec 0710A0E3 		mov	r1, #7
 401 00f0 FEFFFFEB 		bl	ENC_read_buffer_memory
 159:Ethernet.c    **** 
 160:Ethernet.c    ****         aux =  ENC_READ_REG8(EIR,BANK00);
 402              		.loc 1 160 0
 403 00f4 1C00A0E3 		mov	r0, #28
 404 00f8 0010A0E3 		mov	r1, #0
 405 00fc 0020A0E3 		mov	r2, #0
 406 0100 FEFFFFEB 		bl	ENC_read_reg
ARM GAS  /tmp/ccvvV6V2.s 			page 11


 407 0104 0030A0E1 		mov	r3, r0
 408 0108 0E304BE5 		strb	r3, [fp, #-14]
 161:Ethernet.c    **** 	}while((aux & EIR_TXERIF) && TRANSMITE_LATE_COLLITION_BUG(tsv) && (retry++ < MAX_TX_RETRIES) )	;
 409              		.loc 1 161 0
 410 010c 0E305BE5 		ldrb	r3, [fp, #-14]	@ zero_extendqisi2
 411 0110 023003E2 		and	r3, r3, #2
 412 0114 000053E3 		cmp	r3, #0
 413 0118 0D00000A 		beq	.L19
 414 011c 12305BE5 		ldrb	r3, [fp, #-18]	@ zero_extendqisi2
 415 0120 203003E2 		and	r3, r3, #32
 416 0124 000053E3 		cmp	r3, #0
 417 0128 0900000A 		beq	.L19
 418 012c 0D305BE5 		ldrb	r3, [fp, #-13]	@ zero_extendqisi2
 419 0130 090053E3 		cmp	r3, #9
 420 0134 0030A083 		movhi	r3, #0
 421 0138 0130A093 		movls	r3, #1
 422 013c FF2003E2 		and	r2, r3, #255
 423 0140 0D305BE5 		ldrb	r3, [fp, #-13]
 424 0144 013083E2 		add	r3, r3, #1
 425 0148 0D304BE5 		strb	r3, [fp, #-13]
 426 014c 000052E3 		cmp	r2, #0
 427 0150 CBFFFF1A 		bne	.L20
 428              	.L19:
 162:Ethernet.c    **** 	return ETHERNET_OK;
 429              		.loc 1 162 0
 430 0154 0030A0E3 		mov	r3, #0
 431 0158 28300BE5 		str	r3, [fp, #-40]
 432              	.L15:
 433 015c 28301BE5 		ldr	r3, [fp, #-40]
 163:Ethernet.c    **** }
 434              		.loc 1 163 0
 435 0160 0300A0E1 		mov	r0, r3
 436 0164 0CD04BE2 		sub	sp, fp, #12
 437 0168 00689DE8 		ldmfd	sp, {fp, sp, lr}
 438 016c 1EFF2FE1 		bx	lr
 439              	.LFE6:
 440              		.size	Ethernet_send, .-Ethernet_send
 441              		.section	.text.Ethernet_prepare,"ax",%progbits
 442              		.align	2
 443              		.type	Ethernet_prepare, %function
 444              	Ethernet_prepare:
 445              	.LFB4:
 446              		.loc 1 118 0
 447              		@ Function supports interworking.
 448              		@ args = 0, pretend = 0, frame = 16
 449              		@ frame_needed = 1, uses_anonymous_args = 0
 450 0000 0DC0A0E1 		mov	ip, sp
 451              	.LCFI12:
 452 0004 00D82DE9 		stmfd	sp!, {fp, ip, lr, pc}
 453              	.LCFI13:
 454 0008 04B04CE2 		sub	fp, ip, #4
 455              	.LCFI14:
 456 000c 10D04DE2 		sub	sp, sp, #16
 457              	.LCFI15:
 458 0010 18000BE5 		str	r0, [fp, #-24]
 459 0014 0130A0E1 		mov	r3, r1
 460 0018 BA314BE1 		strh	r3, [fp, #-26]	@ movhi
ARM GAS  /tmp/ccvvV6V2.s 			page 12


 461              		.loc 1 119 0
 462 001c 0030A0E3 		mov	r3, #0
 463 0020 0D304BE5 		strb	r3, [fp, #-13]
 464              		.loc 1 120 0
 465 0024 2400A0E3 		mov	r0, #36
 466 0028 0010A0E3 		mov	r1, #0
 467 002c 012AA0E3 		mov	r2, #4096
 468 0030 0130A0E3 		mov	r3, #1
 469 0034 FEFFFFEB 		bl	ENC_write_reg
 470              		.loc 1 121 0
 471 0038 BA315BE1 		ldrh	r3, [fp, #-26]	@ movhi
 472 003c 013A83E2 		add	r3, r3, #4096
 473 0040 0338A0E1 		mov	r3, r3, asl #16
 474 0044 2338A0E1 		mov	r3, r3, lsr #16
 475 0048 2600A0E3 		mov	r0, #38
 476 004c 0010A0E3 		mov	r1, #0
 477 0050 0320A0E1 		mov	r2, r3
 478 0054 0130A0E3 		mov	r3, #1
 479 0058 FEFFFFEB 		bl	ENC_write_reg
 480              		.loc 1 122 0
 481 005c 2200A0E3 		mov	r0, #34
 482 0060 0010A0E3 		mov	r1, #0
 483 0064 012AA0E3 		mov	r2, #4096
 484 0068 0130A0E3 		mov	r3, #1
 485 006c FEFFFFEB 		bl	ENC_write_reg
 486              		.loc 1 123 0
 487 0070 0D304BE2 		sub	r3, fp, #13
 488 0074 0300A0E1 		mov	r0, r3
 489 0078 0110A0E3 		mov	r1, #1
 490 007c FEFFFFEB 		bl	ENC_write_buffer_memory
 491              		.loc 1 124 0
 492 0080 BA315BE1 		ldrh	r3, [fp, #-26]
 493 0084 18001BE5 		ldr	r0, [fp, #-24]
 494 0088 0310A0E1 		mov	r1, r3
 495 008c FEFFFFEB 		bl	ENC_write_buffer_memory
 496              		.loc 1 125 0
 497 0090 0CD04BE2 		sub	sp, fp, #12
 498 0094 00689DE8 		ldmfd	sp, {fp, sp, lr}
 499 0098 1EFF2FE1 		bx	lr
 500              	.LFE4:
 501              		.size	Ethernet_prepare, .-Ethernet_prepare
 502              		.section	.text.Ethernet_start_tx,"ax",%progbits
 503              		.align	2
 504              		.type	Ethernet_start_tx, %function
 505              	Ethernet_start_tx:
 506              	.LFB5:
 507              		.loc 1 126 0
 508              		@ Function supports interworking.
 509              		@ args = 0, pretend = 0, frame = 0
 510              		@ frame_needed = 1, uses_anonymous_args = 0
 511 0000 0DC0A0E1 		mov	ip, sp
 512              	.LCFI16:
 513 0004 00D82DE9 		stmfd	sp!, {fp, ip, lr, pc}
 514              	.LCFI17:
 515 0008 04B04CE2 		sub	fp, ip, #4
 516              	.LCFI18:
 517              		.loc 1 127 0
ARM GAS  /tmp/ccvvV6V2.s 			page 13


 518 000c 1F00A0E3 		mov	r0, #31
 519 0010 8010A0E3 		mov	r1, #128
 520 0014 FEFFFFEB 		bl	ENC_bit_field_set
 521              		.loc 1 128 0
 522 0018 1F00A0E3 		mov	r0, #31
 523 001c 8010A0E3 		mov	r1, #128
 524 0020 FEFFFFEB 		bl	ENC_bit_field_clear
 525              		.loc 1 129 0
 526 0024 1C00A0E3 		mov	r0, #28
 527 0028 0A10A0E3 		mov	r1, #10
 528 002c FEFFFFEB 		bl	ENC_bit_field_clear
 529              		.loc 1 130 0
 530 0030 1F00A0E3 		mov	r0, #31
 531 0034 0810A0E3 		mov	r1, #8
 532 0038 FEFFFFEB 		bl	ENC_bit_field_set
 533              		.loc 1 131 0
 534 003c 0CD04BE2 		sub	sp, fp, #12
 535 0040 00689DE8 		ldmfd	sp, {fp, sp, lr}
 536 0044 1EFF2FE1 		bx	lr
 537              	.LFE5:
 538              		.size	Ethernet_start_tx, .-Ethernet_start_tx
 539              		.section	.text.Ethernet_receive,"ax",%progbits
 540              		.align	2
 541              		.global	Ethernet_receive
 542              		.type	Ethernet_receive, %function
 543              	Ethernet_receive:
 544              	.LFB7:
 164:Ethernet.c    **** /*U32 Ethernet_receive(U8* buffer, U32 buffer_size,U32* read_size){*/
 165:Ethernet.c    **** U32 Ethernet_receive(U8* buffer, U32 buffer_size){
 545              		.loc 1 165 0
 546              		@ Function supports interworking.
 547              		@ args = 0, pretend = 0, frame = 40
 548              		@ frame_needed = 1, uses_anonymous_args = 0
 549 0000 0DC0A0E1 		mov	ip, sp
 550              	.LCFI19:
 551 0004 00D82DE9 		stmfd	sp!, {fp, ip, lr, pc}
 552              	.LCFI20:
 553 0008 04B04CE2 		sub	fp, ip, #4
 554              	.LCFI21:
 555 000c 28D04DE2 		sub	sp, sp, #40
 556              	.LCFI22:
 557 0010 28000BE5 		str	r0, [fp, #-40]
 558 0014 2C100BE5 		str	r1, [fp, #-44]
 166:Ethernet.c    **** 	U32 read_size=0;
 559              		.loc 1 166 0
 560 0018 0030A0E3 		mov	r3, #0
 561 001c 18300BE5 		str	r3, [fp, #-24]
 167:Ethernet.c    **** 	U8 rsv[RSV_SIZE];
 168:Ethernet.c    **** 	U32 packet_size = 0;
 562              		.loc 1 168 0
 563 0020 0030A0E3 		mov	r3, #0
 564 0024 14300BE5 		str	r3, [fp, #-20]
 169:Ethernet.c    **** 	U16 rx_next_packet = __ETHERNET_RX_START_PTR__;
 565              		.loc 1 169 0
 566 0028 0030A0E3 		mov	r3, #0
 567 002c BE314BE1 		strh	r3, [fp, #-30]	@ movhi
 170:Ethernet.c    **** 	U32 nbr_packets = 0;
ARM GAS  /tmp/ccvvV6V2.s 			page 14


 568              		.loc 1 170 0
 569 0030 0030A0E3 		mov	r3, #0
 570 0034 10300BE5 		str	r3, [fp, #-16]
 171:Ethernet.c    **** 	
 172:Ethernet.c    **** 	if (buffer== 0)
 571              		.loc 1 172 0
 572 0038 28301BE5 		ldr	r3, [fp, #-40]
 573 003c 000053E3 		cmp	r3, #0
 574 0040 0200001A 		bne	.L27
 173:Ethernet.c    **** 		return ETHERNET_NULL_POINTER;
 575              		.loc 1 173 0
 576 0044 0130A0E3 		mov	r3, #1
 577 0048 30300BE5 		str	r3, [fp, #-48]
 578 004c 3F0000EA 		b	.L28
 579              	.L27:
 174:Ethernet.c    **** 	if(buffer_size == 0 )
 580              		.loc 1 174 0
 581 0050 2C301BE5 		ldr	r3, [fp, #-44]
 582 0054 000053E3 		cmp	r3, #0
 583 0058 0200001A 		bne	.L29
 175:Ethernet.c    **** 		return ETHERNET_NULL_POINTER;
 584              		.loc 1 175 0
 585 005c 0130A0E3 		mov	r3, #1
 586 0060 30300BE5 		str	r3, [fp, #-48]
 587 0064 390000EA 		b	.L28
 588              	.L29:
 176:Ethernet.c    **** 	if (buffer_size > MAX_FRAME_LEN)
 589              		.loc 1 176 0
 590 0068 2C201BE5 		ldr	r2, [fp, #-44]
 591 006c 5E3EA0E3 		mov	r3, #1504
 592 0070 0E3083E2 		add	r3, r3, #14
 593 0074 030052E1 		cmp	r2, r3
 594 0078 0200009A 		bls	.L30
 177:Ethernet.c    **** 		return ETHERNET_PACKET_TOO_LONG;	
 595              		.loc 1 177 0
 596 007c 0330A0E3 		mov	r3, #3
 597 0080 30300BE5 		str	r3, [fp, #-48]
 598 0084 310000EA 		b	.L28
 599              	.L30:
 178:Ethernet.c    **** 	/*Evaluate parameters. Then spent time*/
 179:Ethernet.c    **** 	nbr_packets = ENC_read_reg(B1_EPKTCNT,BANK01,false);
 600              		.loc 1 179 0
 601 0088 3900A0E3 		mov	r0, #57
 602 008c 0110A0E3 		mov	r1, #1
 603 0090 0020A0E3 		mov	r2, #0
 604 0094 FEFFFFEB 		bl	ENC_read_reg
 605 0098 0030A0E1 		mov	r3, r0
 606 009c 10300BE5 		str	r3, [fp, #-16]
 180:Ethernet.c    **** 	
 181:Ethernet.c    **** 	if (nbr_packets > 0){
 607              		.loc 1 181 0
 608 00a0 10301BE5 		ldr	r3, [fp, #-16]
 609 00a4 000053E3 		cmp	r3, #0
 610 00a8 2400000A 		beq	.L31
 182:Ethernet.c    **** 		ENC_write_reg(B0_ERDPTL,BANK00,rx_next_packet,true);
 611              		.loc 1 182 0
 612 00ac BE315BE1 		ldrh	r3, [fp, #-30]
ARM GAS  /tmp/ccvvV6V2.s 			page 15


 613 00b0 2000A0E3 		mov	r0, #32
 614 00b4 0010A0E3 		mov	r1, #0
 615 00b8 0320A0E1 		mov	r2, r3
 616 00bc 0130A0E3 		mov	r3, #1
 617 00c0 FEFFFFEB 		bl	ENC_write_reg
 183:Ethernet.c    **** 		ENC_read_buffer_memory((U8*)&rx_next_packet,DOUBLE_BYTE);
 618              		.loc 1 183 0
 619 00c4 1E304BE2 		sub	r3, fp, #30
 620 00c8 0300A0E1 		mov	r0, r3
 621 00cc 0210A0E3 		mov	r1, #2
 622 00d0 FEFFFFEB 		bl	ENC_read_buffer_memory
 184:Ethernet.c    **** 		ENC_read_buffer_memory(rsv,RSV_SIZE);
 623              		.loc 1 184 0
 624 00d4 1C304BE2 		sub	r3, fp, #28
 625 00d8 0300A0E1 		mov	r0, r3
 626 00dc 0410A0E3 		mov	r1, #4
 627 00e0 FEFFFFEB 		bl	ENC_read_buffer_memory
 185:Ethernet.c    **** 		packet_size = ((U16)rsv[1] << 8) + rsv[0];
 628              		.loc 1 185 0
 629 00e4 1B305BE5 		ldrb	r3, [fp, #-27]	@ zero_extendqisi2
 630 00e8 0324A0E1 		mov	r2, r3, asl #8
 631 00ec 1C305BE5 		ldrb	r3, [fp, #-28]	@ zero_extendqisi2
 632 00f0 033082E0 		add	r3, r2, r3
 633 00f4 14300BE5 		str	r3, [fp, #-20]
 186:Ethernet.c    **** 		read_size = ((buffer_size<packet_size)?buffer_size:packet_size);
 634              		.loc 1 186 0
 635 00f8 14201BE5 		ldr	r2, [fp, #-20]
 636 00fc 2C301BE5 		ldr	r3, [fp, #-44]
 637 0100 030052E1 		cmp	r2, r3
 638 0104 0230A031 		movcc	r3, r2
 639 0108 18300BE5 		str	r3, [fp, #-24]
 187:Ethernet.c    **** 		ENC_read_buffer_memory(buffer,read_size);
 640              		.loc 1 187 0
 641 010c 28001BE5 		ldr	r0, [fp, #-40]
 642 0110 18101BE5 		ldr	r1, [fp, #-24]
 643 0114 FEFFFFEB 		bl	ENC_read_buffer_memory
 188:Ethernet.c    **** 		ENC_write_reg(B0_ERXRDPTL,BANK00,rx_next_packet,true);
 644              		.loc 1 188 0
 645 0118 BE315BE1 		ldrh	r3, [fp, #-30]
 646 011c 2C00A0E3 		mov	r0, #44
 647 0120 0010A0E3 		mov	r1, #0
 648 0124 0320A0E1 		mov	r2, r3
 649 0128 0130A0E3 		mov	r3, #1
 650 012c FEFFFFEB 		bl	ENC_write_reg
 189:Ethernet.c    **** 		ENC_bit_field_set(ECON2,ECON2_PKTDEC);
 651              		.loc 1 189 0
 652 0130 1E00A0E3 		mov	r0, #30
 653 0134 4010A0E3 		mov	r1, #64
 654 0138 FEFFFFEB 		bl	ENC_bit_field_set
 655 013c 010000EA 		b	.L32
 656              	.L31:
 190:Ethernet.c    **** 		
 191:Ethernet.c    **** 	}else{
 192:Ethernet.c    **** 		read_size = 0;
 657              		.loc 1 192 0
 658 0140 0030A0E3 		mov	r3, #0
 659 0144 18300BE5 		str	r3, [fp, #-24]
ARM GAS  /tmp/ccvvV6V2.s 			page 16


 660              	.L32:
 193:Ethernet.c    **** 	}
 194:Ethernet.c    **** 	/*return ETHERNET_OK;*/
 195:Ethernet.c    **** 	return (read_size);
 661              		.loc 1 195 0
 662 0148 18301BE5 		ldr	r3, [fp, #-24]
 663 014c 30300BE5 		str	r3, [fp, #-48]
 664              	.L28:
 665 0150 30301BE5 		ldr	r3, [fp, #-48]
 196:Ethernet.c    **** }
 666              		.loc 1 196 0
 667 0154 0300A0E1 		mov	r0, r3
 668 0158 0CD04BE2 		sub	sp, fp, #12
 669 015c 00689DE8 		ldmfd	sp, {fp, sp, lr}
 670 0160 1EFF2FE1 		bx	lr
 671              	.LFE7:
 672              		.size	Ethernet_receive, .-Ethernet_receive
 673              		.section	.bss.ethDevice,"aw",%nobits
 674              		.align	2
 675              		.type	ethDevice, %object
 676              		.size	ethDevice, 4
 677              	ethDevice:
 678 0000 00000000 		.space	4
 679              		.section	.debug_frame,"",%progbits
 680              	.Lframe0:
 681 0000 0C000000 		.4byte	.LECIE0-.LSCIE0
 682              	.LSCIE0:
 683 0004 FFFFFFFF 		.4byte	0xffffffff
 684 0008 01       		.byte	0x1
 685 0009 00       		.ascii	"\000"
 686 000a 01       		.uleb128 0x1
 687 000b 7C       		.sleb128 -4
 688 000c 0E       		.byte	0xe
 689 000d 0C       		.byte	0xc
 690 000e 0D       		.uleb128 0xd
 691 000f 00       		.uleb128 0x0
 692              		.align	2
 693              	.LECIE0:
 694              	.LSFDE0:
 695 0010 1C000000 		.4byte	.LEFDE0-.LASFDE0
 696              	.LASFDE0:
 697 0014 00000000 		.4byte	.Lframe0
 698 0018 00000000 		.4byte	.LFB2
 699 001c 50000000 		.4byte	.LFE2-.LFB2
 700 0020 44       		.byte	0x4
 701              		.4byte	.LCFI0-.LFB2
 702 0021 0D       		.byte	0xd
 703 0022 0C       		.uleb128 0xc
 704 0023 44       		.byte	0x4
 705              		.4byte	.LCFI1-.LCFI0
 706 0024 8E       		.byte	0x8e
 707 0025 02       		.uleb128 0x2
 708 0026 8D       		.byte	0x8d
 709 0027 03       		.uleb128 0x3
 710 0028 8B       		.byte	0x8b
 711 0029 04       		.uleb128 0x4
 712 002a 44       		.byte	0x4
ARM GAS  /tmp/ccvvV6V2.s 			page 17


 713              		.4byte	.LCFI2-.LCFI1
 714 002b 0C       		.byte	0xc
 715 002c 0B       		.uleb128 0xb
 716 002d 04       		.uleb128 0x4
 717 002e 0000     		.align	2
 718              	.LEFDE0:
 719              	.LSFDE2:
 720 0030 1C000000 		.4byte	.LEFDE2-.LASFDE2
 721              	.LASFDE2:
 722 0034 00000000 		.4byte	.Lframe0
 723 0038 00000000 		.4byte	.LFB3
 724 003c E0020000 		.4byte	.LFE3-.LFB3
 725 0040 44       		.byte	0x4
 726              		.4byte	.LCFI4-.LFB3
 727 0041 0D       		.byte	0xd
 728 0042 0C       		.uleb128 0xc
 729 0043 44       		.byte	0x4
 730              		.4byte	.LCFI5-.LCFI4
 731 0044 8E       		.byte	0x8e
 732 0045 02       		.uleb128 0x2
 733 0046 8D       		.byte	0x8d
 734 0047 03       		.uleb128 0x3
 735 0048 8B       		.byte	0x8b
 736 0049 04       		.uleb128 0x4
 737 004a 44       		.byte	0x4
 738              		.4byte	.LCFI6-.LCFI5
 739 004b 0C       		.byte	0xc
 740 004c 0B       		.uleb128 0xb
 741 004d 04       		.uleb128 0x4
 742 004e 0000     		.align	2
 743              	.LEFDE2:
 744              	.LSFDE4:
 745 0050 1C000000 		.4byte	.LEFDE4-.LASFDE4
 746              	.LASFDE4:
 747 0054 00000000 		.4byte	.Lframe0
 748 0058 00000000 		.4byte	.LFB6
 749 005c 70010000 		.4byte	.LFE6-.LFB6
 750 0060 44       		.byte	0x4
 751              		.4byte	.LCFI8-.LFB6
 752 0061 0D       		.byte	0xd
 753 0062 0C       		.uleb128 0xc
 754 0063 44       		.byte	0x4
 755              		.4byte	.LCFI9-.LCFI8
 756 0064 8E       		.byte	0x8e
 757 0065 02       		.uleb128 0x2
 758 0066 8D       		.byte	0x8d
 759 0067 03       		.uleb128 0x3
 760 0068 8B       		.byte	0x8b
 761 0069 04       		.uleb128 0x4
 762 006a 44       		.byte	0x4
 763              		.4byte	.LCFI10-.LCFI9
 764 006b 0C       		.byte	0xc
 765 006c 0B       		.uleb128 0xb
 766 006d 04       		.uleb128 0x4
 767 006e 0000     		.align	2
 768              	.LEFDE4:
 769              	.LSFDE6:
ARM GAS  /tmp/ccvvV6V2.s 			page 18


 770 0070 1C000000 		.4byte	.LEFDE6-.LASFDE6
 771              	.LASFDE6:
 772 0074 00000000 		.4byte	.Lframe0
 773 0078 00000000 		.4byte	.LFB4
 774 007c 9C000000 		.4byte	.LFE4-.LFB4
 775 0080 44       		.byte	0x4
 776              		.4byte	.LCFI12-.LFB4
 777 0081 0D       		.byte	0xd
 778 0082 0C       		.uleb128 0xc
 779 0083 44       		.byte	0x4
 780              		.4byte	.LCFI13-.LCFI12
 781 0084 8E       		.byte	0x8e
 782 0085 02       		.uleb128 0x2
 783 0086 8D       		.byte	0x8d
 784 0087 03       		.uleb128 0x3
 785 0088 8B       		.byte	0x8b
 786 0089 04       		.uleb128 0x4
 787 008a 44       		.byte	0x4
 788              		.4byte	.LCFI14-.LCFI13
 789 008b 0C       		.byte	0xc
 790 008c 0B       		.uleb128 0xb
 791 008d 04       		.uleb128 0x4
 792 008e 0000     		.align	2
 793              	.LEFDE6:
 794              	.LSFDE8:
 795 0090 1C000000 		.4byte	.LEFDE8-.LASFDE8
 796              	.LASFDE8:
 797 0094 00000000 		.4byte	.Lframe0
 798 0098 00000000 		.4byte	.LFB5
 799 009c 48000000 		.4byte	.LFE5-.LFB5
 800 00a0 44       		.byte	0x4
 801              		.4byte	.LCFI16-.LFB5
 802 00a1 0D       		.byte	0xd
 803 00a2 0C       		.uleb128 0xc
 804 00a3 44       		.byte	0x4
 805              		.4byte	.LCFI17-.LCFI16
 806 00a4 8E       		.byte	0x8e
 807 00a5 02       		.uleb128 0x2
 808 00a6 8D       		.byte	0x8d
 809 00a7 03       		.uleb128 0x3
 810 00a8 8B       		.byte	0x8b
 811 00a9 04       		.uleb128 0x4
 812 00aa 44       		.byte	0x4
 813              		.4byte	.LCFI18-.LCFI17
 814 00ab 0C       		.byte	0xc
 815 00ac 0B       		.uleb128 0xb
 816 00ad 04       		.uleb128 0x4
 817 00ae 0000     		.align	2
 818              	.LEFDE8:
 819              	.LSFDE10:
 820 00b0 1C000000 		.4byte	.LEFDE10-.LASFDE10
 821              	.LASFDE10:
 822 00b4 00000000 		.4byte	.Lframe0
 823 00b8 00000000 		.4byte	.LFB7
 824 00bc 64010000 		.4byte	.LFE7-.LFB7
 825 00c0 44       		.byte	0x4
 826              		.4byte	.LCFI19-.LFB7
ARM GAS  /tmp/ccvvV6V2.s 			page 19


 827 00c1 0D       		.byte	0xd
 828 00c2 0C       		.uleb128 0xc
 829 00c3 44       		.byte	0x4
 830              		.4byte	.LCFI20-.LCFI19
 831 00c4 8E       		.byte	0x8e
 832 00c5 02       		.uleb128 0x2
 833 00c6 8D       		.byte	0x8d
 834 00c7 03       		.uleb128 0x3
 835 00c8 8B       		.byte	0x8b
 836 00c9 04       		.uleb128 0x4
 837 00ca 44       		.byte	0x4
 838              		.4byte	.LCFI21-.LCFI20
 839 00cb 0C       		.byte	0xc
 840 00cc 0B       		.uleb128 0xb
 841 00cd 04       		.uleb128 0x4
 842 00ce 0000     		.align	2
 843              	.LEFDE10:
 844              		.text
 845              	.Letext0:
 846              		.section	.debug_loc,"",%progbits
 847              	.Ldebug_loc0:
 848              	.LLST0:
 849 0000 00000000 		.4byte	.LFB2
 850 0004 04000000 		.4byte	.LCFI0
 851 0008 0100     		.2byte	0x1
 852 000a 5D       		.byte	0x5d
 853 000b 04000000 		.4byte	.LCFI0
 854 000f 0C000000 		.4byte	.LCFI2
 855 0013 0100     		.2byte	0x1
 856 0015 5C       		.byte	0x5c
 857 0016 0C000000 		.4byte	.LCFI2
 858 001a 50000000 		.4byte	.LFE2
 859 001e 0200     		.2byte	0x2
 860 0020 7B       		.byte	0x7b
 861 0021 04       		.sleb128 4
 862 0022 00000000 		.4byte	0x0
 863 0026 00000000 		.4byte	0x0
 864              	.LLST1:
 865 002a 00000000 		.4byte	.LFB3
 866 002e 04000000 		.4byte	.LCFI4
 867 0032 0100     		.2byte	0x1
 868 0034 5D       		.byte	0x5d
 869 0035 04000000 		.4byte	.LCFI4
 870 0039 0C000000 		.4byte	.LCFI6
 871 003d 0100     		.2byte	0x1
 872 003f 5C       		.byte	0x5c
 873 0040 0C000000 		.4byte	.LCFI6
 874 0044 E0020000 		.4byte	.LFE3
 875 0048 0200     		.2byte	0x2
 876 004a 7B       		.byte	0x7b
 877 004b 04       		.sleb128 4
 878 004c 00000000 		.4byte	0x0
 879 0050 00000000 		.4byte	0x0
 880              	.LLST2:
 881 0054 00000000 		.4byte	.LFB6
 882 0058 04000000 		.4byte	.LCFI8
 883 005c 0100     		.2byte	0x1
ARM GAS  /tmp/ccvvV6V2.s 			page 20


 884 005e 5D       		.byte	0x5d
 885 005f 04000000 		.4byte	.LCFI8
 886 0063 0C000000 		.4byte	.LCFI10
 887 0067 0100     		.2byte	0x1
 888 0069 5C       		.byte	0x5c
 889 006a 0C000000 		.4byte	.LCFI10
 890 006e 70010000 		.4byte	.LFE6
 891 0072 0200     		.2byte	0x2
 892 0074 7B       		.byte	0x7b
 893 0075 04       		.sleb128 4
 894 0076 00000000 		.4byte	0x0
 895 007a 00000000 		.4byte	0x0
 896              	.LLST3:
 897 007e 00000000 		.4byte	.LFB4
 898 0082 04000000 		.4byte	.LCFI12
 899 0086 0100     		.2byte	0x1
 900 0088 5D       		.byte	0x5d
 901 0089 04000000 		.4byte	.LCFI12
 902 008d 0C000000 		.4byte	.LCFI14
 903 0091 0100     		.2byte	0x1
 904 0093 5C       		.byte	0x5c
 905 0094 0C000000 		.4byte	.LCFI14
 906 0098 9C000000 		.4byte	.LFE4
 907 009c 0200     		.2byte	0x2
 908 009e 7B       		.byte	0x7b
 909 009f 04       		.sleb128 4
 910 00a0 00000000 		.4byte	0x0
 911 00a4 00000000 		.4byte	0x0
 912              	.LLST4:
 913 00a8 00000000 		.4byte	.LFB5
 914 00ac 04000000 		.4byte	.LCFI16
 915 00b0 0100     		.2byte	0x1
 916 00b2 5D       		.byte	0x5d
 917 00b3 04000000 		.4byte	.LCFI16
 918 00b7 0C000000 		.4byte	.LCFI18
 919 00bb 0100     		.2byte	0x1
 920 00bd 5C       		.byte	0x5c
 921 00be 0C000000 		.4byte	.LCFI18
 922 00c2 48000000 		.4byte	.LFE5
 923 00c6 0200     		.2byte	0x2
 924 00c8 7B       		.byte	0x7b
 925 00c9 04       		.sleb128 4
 926 00ca 00000000 		.4byte	0x0
 927 00ce 00000000 		.4byte	0x0
 928              	.LLST5:
 929 00d2 00000000 		.4byte	.LFB7
 930 00d6 04000000 		.4byte	.LCFI19
 931 00da 0100     		.2byte	0x1
 932 00dc 5D       		.byte	0x5d
 933 00dd 04000000 		.4byte	.LCFI19
 934 00e1 0C000000 		.4byte	.LCFI21
 935 00e5 0100     		.2byte	0x1
 936 00e7 5C       		.byte	0x5c
 937 00e8 0C000000 		.4byte	.LCFI21
 938 00ec 64010000 		.4byte	.LFE7
 939 00f0 0200     		.2byte	0x2
 940 00f2 7B       		.byte	0x7b
ARM GAS  /tmp/ccvvV6V2.s 			page 21


 941 00f3 04       		.sleb128 4
 942 00f4 00000000 		.4byte	0x0
 943 00f8 00000000 		.4byte	0x0
 944              		.file 2 "./../../../../code/src/eCos//include/cyg/infra/cyg_type.h"
 945              		.file 3 "./../../../../code/src/eCos//include/cyg/kernel/kapi.h"
 946              		.file 4 "./../../../../code/src/eCos//include/cyg/kernel/kapidata.h"
 947              		.file 5 "./../../../../code/src/eCos//include/cyg/io/spi.h"
 948              		.file 6 "./../../../../code/src/eCos//include/cyg/io/spi_lpc2xxx.h"
 949              		.file 7 "./../../../../code/src/include/TYPES.h"
 950              		.file 8 "ENC28J60.h"
 951              		.file 9 "Ethernet.h"
 952              		.section	.debug_info
 953 0000 EA0F0000 		.4byte	0xfea
 954 0004 0200     		.2byte	0x2
 955 0006 00000000 		.4byte	.Ldebug_abbrev0
 956 000a 04       		.byte	0x4
 957 000b 01       		.uleb128 0x1
 958 000c C3070000 		.4byte	.LASF274
 959 0010 01       		.byte	0x1
 960 0011 69000000 		.4byte	.LASF275
 961 0015 76080000 		.4byte	.LASF276
 962 0019 00000000 		.4byte	0x0
 963 001d 00000000 		.4byte	0x0
 964 0021 00000000 		.4byte	.Ldebug_ranges0+0x0
 965 0025 00000000 		.4byte	.Ldebug_line0
 966 0029 02       		.uleb128 0x2
 967 002a 04       		.byte	0x4
 968 002b 05       		.byte	0x5
 969 002c 696E7400 		.ascii	"int\000"
 970 0030 03       		.uleb128 0x3
 971 0031 04       		.byte	0x4
 972 0032 07       		.byte	0x7
 973 0033 1C010000 		.4byte	.LASF0
 974 0037 04       		.uleb128 0x4
 975 0038 B9050000 		.4byte	.LASF3
 976 003c 02       		.byte	0x2
 977 003d D5       		.byte	0xd5
 978 003e 42000000 		.4byte	0x42
 979 0042 03       		.uleb128 0x3
 980 0043 01       		.byte	0x1
 981 0044 08       		.byte	0x8
 982 0045 9D0A0000 		.4byte	.LASF1
 983 0049 03       		.uleb128 0x3
 984 004a 01       		.byte	0x1
 985 004b 06       		.byte	0x6
 986 004c E30B0000 		.4byte	.LASF2
 987 0050 04       		.uleb128 0x4
 988 0051 B4090000 		.4byte	.LASF4
 989 0055 02       		.byte	0x2
 990 0056 D8       		.byte	0xd8
 991 0057 5B000000 		.4byte	0x5b
 992 005b 03       		.uleb128 0x3
 993 005c 02       		.byte	0x2
 994 005d 07       		.byte	0x7
 995 005e FC0B0000 		.4byte	.LASF5
 996 0062 03       		.uleb128 0x3
 997 0063 02       		.byte	0x2
ARM GAS  /tmp/ccvvV6V2.s 			page 22


 998 0064 05       		.byte	0x5
 999 0065 BF010000 		.4byte	.LASF6
 1000 0069 04       		.uleb128 0x4
 1001 006a 880B0000 		.4byte	.LASF7
 1002 006e 02       		.byte	0x2
 1003 006f DB       		.byte	0xdb
 1004 0070 30000000 		.4byte	0x30
 1005 0074 04       		.uleb128 0x4
 1006 0075 2E010000 		.4byte	.LASF8
 1007 0079 02       		.byte	0x2
 1008 007a DE       		.byte	0xde
 1009 007b 7F000000 		.4byte	0x7f
 1010 007f 03       		.uleb128 0x3
 1011 0080 08       		.byte	0x8
 1012 0081 07       		.byte	0x7
 1013 0082 C3030000 		.4byte	.LASF9
 1014 0086 03       		.uleb128 0x3
 1015 0087 08       		.byte	0x8
 1016 0088 05       		.byte	0x5
 1017 0089 54060000 		.4byte	.LASF10
 1018 008d 04       		.uleb128 0x4
 1019 008e 76010000 		.4byte	.LASF11
 1020 0092 02       		.byte	0x2
 1021 0093 E1       		.byte	0xe1
 1022 0094 29000000 		.4byte	0x29
 1023 0098 04       		.uleb128 0x4
 1024 0099 46070000 		.4byte	.LASF12
 1025 009d 02       		.byte	0x2
 1026 009e EE       		.byte	0xee
 1027 009f 30000000 		.4byte	0x30
 1028 00a3 04       		.uleb128 0x4
 1029 00a4 51000000 		.4byte	.LASF13
 1030 00a8 02       		.byte	0x2
 1031 00a9 EF       		.byte	0xef
 1032 00aa 29000000 		.4byte	0x29
 1033 00ae 05       		.uleb128 0x5
 1034 00af 42000000 		.4byte	0x42
 1035 00b3 06       		.uleb128 0x6
 1036 00b4 38040000 		.4byte	.LASF14
 1037 00b8 02       		.byte	0x2
 1038 00b9 0001     		.2byte	0x100
 1039 00bb 37000000 		.4byte	0x37
 1040 00bf 06       		.uleb128 0x6
 1041 00c0 AF020000 		.4byte	.LASF15
 1042 00c4 02       		.byte	0x2
 1043 00c5 0101     		.2byte	0x101
 1044 00c7 50000000 		.4byte	0x50
 1045 00cb 06       		.uleb128 0x6
 1046 00cc DC020000 		.4byte	.LASF16
 1047 00d0 02       		.byte	0x2
 1048 00d1 0201     		.2byte	0x102
 1049 00d3 69000000 		.4byte	0x69
 1050 00d7 06       		.uleb128 0x6
 1051 00d8 34020000 		.4byte	.LASF17
 1052 00dc 02       		.byte	0x2
 1053 00dd 0501     		.2byte	0x105
 1054 00df 69000000 		.4byte	0x69
ARM GAS  /tmp/ccvvV6V2.s 			page 23


 1055 00e3 06       		.uleb128 0x6
 1056 00e4 65090000 		.4byte	.LASF18
 1057 00e8 02       		.byte	0x2
 1058 00e9 0601     		.2byte	0x106
 1059 00eb 69000000 		.4byte	0x69
 1060 00ef 04       		.uleb128 0x4
 1061 00f0 DF090000 		.4byte	.LASF19
 1062 00f4 03       		.byte	0x3
 1063 00f5 4A       		.byte	0x4a
 1064 00f6 E3000000 		.4byte	0xe3
 1065 00fa 04       		.uleb128 0x4
 1066 00fb C90B0000 		.4byte	.LASF20
 1067 00ff 03       		.byte	0x3
 1068 0100 4B       		.byte	0x4b
 1069 0101 EF000000 		.4byte	0xef
 1070 0105 04       		.uleb128 0x4
 1071 0106 D70C0000 		.4byte	.LASF21
 1072 010a 03       		.byte	0x3
 1073 010b 4C       		.byte	0x4c
 1074 010c 69000000 		.4byte	0x69
 1075 0110 04       		.uleb128 0x4
 1076 0111 D60B0000 		.4byte	.LASF22
 1077 0115 03       		.byte	0x3
 1078 0116 4E       		.byte	0x4e
 1079 0117 69000000 		.4byte	0x69
 1080 011b 04       		.uleb128 0x4
 1081 011c 4B040000 		.4byte	.LASF23
 1082 0120 03       		.byte	0x3
 1083 0121 51       		.byte	0x51
 1084 0122 74000000 		.4byte	0x74
 1085 0126 04       		.uleb128 0x4
 1086 0127 B4010000 		.4byte	.LASF24
 1087 012b 03       		.byte	0x3
 1088 012c 5E       		.byte	0x5e
 1089 012d 31010000 		.4byte	0x131
 1090 0131 07       		.uleb128 0x7
 1091 0132 B4010000 		.4byte	.LASF24
 1092 0136 9C       		.byte	0x9c
 1093 0137 03       		.byte	0x3
 1094 0138 5D       		.byte	0x5d
 1095 0139 C6020000 		.4byte	0x2c6
 1096 013d 08       		.uleb128 0x8
 1097 013e 97060000 		.4byte	.LASF25
 1098 0142 04       		.byte	0x4
 1099 0143 DA01     		.2byte	0x1da
 1100 0145 D7000000 		.4byte	0xd7
 1101 0149 02       		.byte	0x2
 1102 014a 23       		.byte	0x23
 1103 014b 00       		.uleb128 0x0
 1104 014c 08       		.uleb128 0x8
 1105 014d 610C0000 		.4byte	.LASF26
 1106 0151 04       		.byte	0x4
 1107 0152 DA01     		.2byte	0x1da
 1108 0154 69000000 		.4byte	0x69
 1109 0158 02       		.byte	0x2
 1110 0159 23       		.byte	0x23
 1111 015a 04       		.uleb128 0x4
ARM GAS  /tmp/ccvvV6V2.s 			page 24


 1112 015b 08       		.uleb128 0x8
 1113 015c 05070000 		.4byte	.LASF27
 1114 0160 04       		.byte	0x4
 1115 0161 DA01     		.2byte	0x1da
 1116 0163 D7000000 		.4byte	0xd7
 1117 0167 02       		.byte	0x2
 1118 0168 23       		.byte	0x23
 1119 0169 08       		.uleb128 0x8
 1120 016a 08       		.uleb128 0x8
 1121 016b 750B0000 		.4byte	.LASF28
 1122 016f 04       		.byte	0x4
 1123 0170 DA01     		.2byte	0x1da
 1124 0172 D7000000 		.4byte	0xd7
 1125 0176 02       		.byte	0x2
 1126 0177 23       		.byte	0x23
 1127 0178 0C       		.uleb128 0xc
 1128 0179 08       		.uleb128 0x8
 1129 017a 5D000000 		.4byte	.LASF29
 1130 017e 04       		.byte	0x4
 1131 017f DA01     		.2byte	0x1da
 1132 0181 75050000 		.4byte	0x575
 1133 0185 02       		.byte	0x2
 1134 0186 23       		.byte	0x23
 1135 0187 10       		.uleb128 0x10
 1136 0188 08       		.uleb128 0x8
 1137 0189 78060000 		.4byte	.LASF30
 1138 018d 04       		.byte	0x4
 1139 018e DA01     		.2byte	0x1da
 1140 0190 E3000000 		.4byte	0xe3
 1141 0194 02       		.byte	0x2
 1142 0195 23       		.byte	0x23
 1143 0196 14       		.uleb128 0x14
 1144 0197 08       		.uleb128 0x8
 1145 0198 9E0C0000 		.4byte	.LASF31
 1146 019c 04       		.byte	0x4
 1147 019d DA01     		.2byte	0x1da
 1148 019f 10050000 		.4byte	0x510
 1149 01a3 02       		.byte	0x2
 1150 01a4 23       		.byte	0x23
 1151 01a5 18       		.uleb128 0x18
 1152 01a6 08       		.uleb128 0x8
 1153 01a7 29010000 		.4byte	.LASF32
 1154 01ab 04       		.byte	0x4
 1155 01ac DA01     		.2byte	0x1da
 1156 01ae 29050000 		.4byte	0x529
 1157 01b2 02       		.byte	0x2
 1158 01b3 23       		.byte	0x23
 1159 01b4 1C       		.uleb128 0x1c
 1160 01b5 08       		.uleb128 0x8
 1161 01b6 09020000 		.4byte	.LASF33
 1162 01ba 04       		.byte	0x4
 1163 01bb DA01     		.2byte	0x1da
 1164 01bd 29050000 		.4byte	0x529
 1165 01c1 02       		.byte	0x2
 1166 01c2 23       		.byte	0x23
 1167 01c3 20       		.uleb128 0x20
 1168 01c4 08       		.uleb128 0x8
ARM GAS  /tmp/ccvvV6V2.s 			page 25


 1169 01c5 5C090000 		.4byte	.LASF34
 1170 01c9 04       		.byte	0x4
 1171 01ca DA01     		.2byte	0x1da
 1172 01cc 05010000 		.4byte	0x105
 1173 01d0 02       		.byte	0x2
 1174 01d1 23       		.byte	0x23
 1175 01d2 24       		.uleb128 0x24
 1176 01d3 08       		.uleb128 0x8
 1177 01d4 FF020000 		.4byte	.LASF35
 1178 01d8 04       		.byte	0x4
 1179 01d9 DA01     		.2byte	0x1da
 1180 01db 98000000 		.4byte	0x98
 1181 01df 02       		.byte	0x2
 1182 01e0 23       		.byte	0x23
 1183 01e1 28       		.uleb128 0x28
 1184 01e2 08       		.uleb128 0x8
 1185 01e3 190A0000 		.4byte	.LASF36
 1186 01e7 04       		.byte	0x4
 1187 01e8 DA01     		.2byte	0x1da
 1188 01ea 7B050000 		.4byte	0x57b
 1189 01ee 02       		.byte	0x2
 1190 01ef 23       		.byte	0x23
 1191 01f0 2C       		.uleb128 0x2c
 1192 01f1 08       		.uleb128 0x8
 1193 01f2 1A050000 		.4byte	.LASF37
 1194 01f6 04       		.byte	0x4
 1195 01f7 DA01     		.2byte	0x1da
 1196 01f9 A3000000 		.4byte	0xa3
 1197 01fd 02       		.byte	0x2
 1198 01fe 23       		.byte	0x23
 1199 01ff 30       		.uleb128 0x30
 1200 0200 08       		.uleb128 0x8
 1201 0201 A8060000 		.4byte	.LASF38
 1202 0205 04       		.byte	0x4
 1203 0206 DA01     		.2byte	0x1da
 1204 0208 05010000 		.4byte	0x105
 1205 020c 02       		.byte	0x2
 1206 020d 23       		.byte	0x23
 1207 020e 34       		.uleb128 0x34
 1208 020f 08       		.uleb128 0x8
 1209 0210 410B0000 		.4byte	.LASF39
 1210 0214 04       		.byte	0x4
 1211 0215 DA01     		.2byte	0x1da
 1212 0217 8D000000 		.4byte	0x8d
 1213 021b 02       		.byte	0x2
 1214 021c 23       		.byte	0x23
 1215 021d 38       		.uleb128 0x38
 1216 021e 08       		.uleb128 0x8
 1217 021f 540B0000 		.4byte	.LASF40
 1218 0223 04       		.byte	0x4
 1219 0224 DA01     		.2byte	0x1da
 1220 0226 69000000 		.4byte	0x69
 1221 022a 02       		.byte	0x2
 1222 022b 23       		.byte	0x23
 1223 022c 3C       		.uleb128 0x3c
 1224 022d 08       		.uleb128 0x8
 1225 022e CD040000 		.4byte	.LASF41
ARM GAS  /tmp/ccvvV6V2.s 			page 26


 1226 0232 04       		.byte	0x4
 1227 0233 DA01     		.2byte	0x1da
 1228 0235 98000000 		.4byte	0x98
 1229 0239 02       		.byte	0x2
 1230 023a 23       		.byte	0x23
 1231 023b 40       		.uleb128 0x40
 1232 023c 08       		.uleb128 0x8
 1233 023d 19020000 		.4byte	.LASF42
 1234 0241 04       		.byte	0x4
 1235 0242 DA01     		.2byte	0x1da
 1236 0244 98000000 		.4byte	0x98
 1237 0248 02       		.byte	0x2
 1238 0249 23       		.byte	0x23
 1239 024a 44       		.uleb128 0x44
 1240 024b 08       		.uleb128 0x8
 1241 024c 39010000 		.4byte	.LASF43
 1242 0250 04       		.byte	0x4
 1243 0251 DA01     		.2byte	0x1da
 1244 0253 E3000000 		.4byte	0xe3
 1245 0257 02       		.byte	0x2
 1246 0258 23       		.byte	0x23
 1247 0259 48       		.uleb128 0x48
 1248 025a 08       		.uleb128 0x8
 1249 025b B9070000 		.4byte	.LASF44
 1250 025f 04       		.byte	0x4
 1251 0260 DA01     		.2byte	0x1da
 1252 0262 50000000 		.4byte	0x50
 1253 0266 02       		.byte	0x2
 1254 0267 23       		.byte	0x23
 1255 0268 4C       		.uleb128 0x4c
 1256 0269 08       		.uleb128 0x8
 1257 026a 8A0C0000 		.4byte	.LASF45
 1258 026e 04       		.byte	0x4
 1259 026f DA01     		.2byte	0x1da
 1260 0271 12060000 		.4byte	0x612
 1261 0275 02       		.byte	0x2
 1262 0276 23       		.byte	0x23
 1263 0277 4E       		.uleb128 0x4e
 1264 0278 08       		.uleb128 0x8
 1265 0279 D3010000 		.4byte	.LASF46
 1266 027d 04       		.byte	0x4
 1267 027e DA01     		.2byte	0x1da
 1268 0280 58060000 		.4byte	0x658
 1269 0284 02       		.byte	0x2
 1270 0285 23       		.byte	0x23
 1271 0286 7A       		.uleb128 0x7a
 1272 0287 08       		.uleb128 0x8
 1273 0288 5E050000 		.4byte	.LASF47
 1274 028c 04       		.byte	0x4
 1275 028d DA01     		.2byte	0x1da
 1276 028f 58060000 		.4byte	0x658
 1277 0293 02       		.byte	0x2
 1278 0294 23       		.byte	0x23
 1279 0295 7B       		.uleb128 0x7b
 1280 0296 08       		.uleb128 0x8
 1281 0297 E9010000 		.4byte	.LASF48
 1282 029b 04       		.byte	0x4
ARM GAS  /tmp/ccvvV6V2.s 			page 27


 1283 029c DA01     		.2byte	0x1da
 1284 029e 64060000 		.4byte	0x664
 1285 02a2 02       		.byte	0x2
 1286 02a3 23       		.byte	0x23
 1287 02a4 7C       		.uleb128 0x7c
 1288 02a5 08       		.uleb128 0x8
 1289 02a6 1C000000 		.4byte	.LASF49
 1290 02aa 04       		.byte	0x4
 1291 02ab DA01     		.2byte	0x1da
 1292 02ad A3040000 		.4byte	0x4a3
 1293 02b1 03       		.byte	0x3
 1294 02b2 23       		.byte	0x23
 1295 02b3 9401     		.uleb128 0x94
 1296 02b5 08       		.uleb128 0x8
 1297 02b6 1C0B0000 		.4byte	.LASF50
 1298 02ba 04       		.byte	0x4
 1299 02bb DA01     		.2byte	0x1da
 1300 02bd 29050000 		.4byte	0x529
 1301 02c1 03       		.byte	0x3
 1302 02c2 23       		.byte	0x23
 1303 02c3 9801     		.uleb128 0x98
 1304 02c5 00       		.byte	0x0
 1305 02c6 04       		.uleb128 0x4
 1306 02c7 0A040000 		.4byte	.LASF51
 1307 02cb 03       		.byte	0x3
 1308 02cc 61       		.byte	0x61
 1309 02cd D1020000 		.4byte	0x2d1
 1310 02d1 07       		.uleb128 0x7
 1311 02d2 0A040000 		.4byte	.LASF51
 1312 02d6 1C       		.byte	0x1c
 1313 02d7 03       		.byte	0x3
 1314 02d8 60       		.byte	0x60
 1315 02d9 40030000 		.4byte	0x340
 1316 02dd 09       		.uleb128 0x9
 1317 02de DA030000 		.4byte	.LASF52
 1318 02e2 04       		.byte	0x4
 1319 02e3 8B       		.byte	0x8b
 1320 02e4 10010000 		.4byte	0x110
 1321 02e8 02       		.byte	0x2
 1322 02e9 23       		.byte	0x23
 1323 02ea 00       		.uleb128 0x0
 1324 02eb 09       		.uleb128 0x9
 1325 02ec 5C090000 		.4byte	.LASF34
 1326 02f0 04       		.byte	0x4
 1327 02f1 8C       		.byte	0x8c
 1328 02f2 05010000 		.4byte	0x105
 1329 02f6 02       		.byte	0x2
 1330 02f7 23       		.byte	0x23
 1331 02f8 04       		.uleb128 0x4
 1332 02f9 0A       		.uleb128 0xa
 1333 02fa 69737200 		.ascii	"isr\000"
 1334 02fe 04       		.byte	0x4
 1335 02ff 8D       		.byte	0x8d
 1336 0300 3A050000 		.4byte	0x53a
 1337 0304 02       		.byte	0x2
 1338 0305 23       		.byte	0x23
 1339 0306 08       		.uleb128 0x8
ARM GAS  /tmp/ccvvV6V2.s 			page 28


 1340 0307 0A       		.uleb128 0xa
 1341 0308 64737200 		.ascii	"dsr\000"
 1342 030c 04       		.byte	0x4
 1343 030d 8E       		.byte	0x8e
 1344 030e 40050000 		.4byte	0x540
 1345 0312 02       		.byte	0x2
 1346 0313 23       		.byte	0x23
 1347 0314 0C       		.uleb128 0xc
 1348 0315 09       		.uleb128 0x9
 1349 0316 D1050000 		.4byte	.LASF53
 1350 031a 04       		.byte	0x4
 1351 031b 8F       		.byte	0x8f
 1352 031c E3000000 		.4byte	0xe3
 1353 0320 02       		.byte	0x2
 1354 0321 23       		.byte	0x23
 1355 0322 10       		.uleb128 0x10
 1356 0323 09       		.uleb128 0x9
 1357 0324 DA0A0000 		.4byte	.LASF54
 1358 0328 04       		.byte	0x4
 1359 0329 92       		.byte	0x92
 1360 032a 98000000 		.4byte	0x98
 1361 032e 02       		.byte	0x2
 1362 032f 23       		.byte	0x23
 1363 0330 14       		.uleb128 0x14
 1364 0331 09       		.uleb128 0x9
 1365 0332 0A000000 		.4byte	.LASF55
 1366 0336 04       		.byte	0x4
 1367 0337 93       		.byte	0x93
 1368 0338 46050000 		.4byte	0x546
 1369 033c 02       		.byte	0x2
 1370 033d 23       		.byte	0x23
 1371 033e 18       		.uleb128 0x18
 1372 033f 00       		.byte	0x0
 1373 0340 04       		.uleb128 0x4
 1374 0341 84030000 		.4byte	.LASF56
 1375 0345 03       		.byte	0x3
 1376 0346 64       		.byte	0x64
 1377 0347 4B030000 		.4byte	0x34b
 1378 034b 07       		.uleb128 0x7
 1379 034c 84030000 		.4byte	.LASF56
 1380 0350 10       		.byte	0x10
 1381 0351 03       		.byte	0x3
 1382 0352 63       		.byte	0x63
 1383 0353 82030000 		.4byte	0x382
 1384 0357 09       		.uleb128 0x9
 1385 0358 62060000 		.4byte	.LASF57
 1386 035c 04       		.byte	0x4
 1387 035d AF       		.byte	0xaf
 1388 035e 4C050000 		.4byte	0x54c
 1389 0362 02       		.byte	0x2
 1390 0363 23       		.byte	0x23
 1391 0364 00       		.uleb128 0x0
 1392 0365 09       		.uleb128 0x9
 1393 0366 66040000 		.4byte	.LASF58
 1394 036a 04       		.byte	0x4
 1395 036b AF       		.byte	0xaf
 1396 036c 1B010000 		.4byte	0x11b
ARM GAS  /tmp/ccvvV6V2.s 			page 29


 1397 0370 02       		.byte	0x2
 1398 0371 23       		.byte	0x23
 1399 0372 04       		.uleb128 0x4
 1400 0373 09       		.uleb128 0x9
 1401 0374 0A050000 		.4byte	.LASF59
 1402 0378 04       		.byte	0x4
 1403 0379 AF       		.byte	0xaf
 1404 037a 69000000 		.4byte	0x69
 1405 037e 02       		.byte	0x2
 1406 037f 23       		.byte	0x23
 1407 0380 0C       		.uleb128 0xc
 1408 0381 00       		.byte	0x0
 1409 0382 04       		.uleb128 0x4
 1410 0383 A40B0000 		.4byte	.LASF60
 1411 0387 03       		.byte	0x3
 1412 0388 6A       		.byte	0x6a
 1413 0389 8D030000 		.4byte	0x38d
 1414 038d 07       		.uleb128 0x7
 1415 038e A40B0000 		.4byte	.LASF60
 1416 0392 28       		.byte	0x28
 1417 0393 03       		.byte	0x3
 1418 0394 69       		.byte	0x69
 1419 0395 0A040000 		.4byte	0x40a
 1420 0399 09       		.uleb128 0x9
 1421 039a 29010000 		.4byte	.LASF32
 1422 039e 04       		.byte	0x4
 1423 039f D1       		.byte	0xd1
 1424 03a0 4C050000 		.4byte	0x54c
 1425 03a4 02       		.byte	0x2
 1426 03a5 23       		.byte	0x23
 1427 03a6 00       		.uleb128 0x0
 1428 03a7 09       		.uleb128 0x9
 1429 03a8 09020000 		.4byte	.LASF33
 1430 03ac 04       		.byte	0x4
 1431 03ad D1       		.byte	0xd1
 1432 03ae 4C050000 		.4byte	0x54c
 1433 03b2 02       		.byte	0x2
 1434 03b3 23       		.byte	0x23
 1435 03b4 04       		.uleb128 0x4
 1436 03b5 09       		.uleb128 0x9
 1437 03b6 66040000 		.4byte	.LASF58
 1438 03ba 04       		.byte	0x4
 1439 03bb D1       		.byte	0xd1
 1440 03bc 52050000 		.4byte	0x552
 1441 03c0 02       		.byte	0x2
 1442 03c1 23       		.byte	0x23
 1443 03c2 08       		.uleb128 0x8
 1444 03c3 09       		.uleb128 0x9
 1445 03c4 A2060000 		.4byte	.LASF61
 1446 03c8 04       		.byte	0x4
 1447 03c9 D1       		.byte	0xd1
 1448 03ca 58050000 		.4byte	0x558
 1449 03ce 02       		.byte	0x2
 1450 03cf 23       		.byte	0x23
 1451 03d0 0C       		.uleb128 0xc
 1452 03d1 09       		.uleb128 0x9
 1453 03d2 D1050000 		.4byte	.LASF53
ARM GAS  /tmp/ccvvV6V2.s 			page 30


 1454 03d6 04       		.byte	0x4
 1455 03d7 D1       		.byte	0xd1
 1456 03d8 E3000000 		.4byte	0xe3
 1457 03dc 02       		.byte	0x2
 1458 03dd 23       		.byte	0x23
 1459 03de 10       		.uleb128 0x10
 1460 03df 09       		.uleb128 0x9
 1461 03e0 88070000 		.4byte	.LASF62
 1462 03e4 04       		.byte	0x4
 1463 03e5 D1       		.byte	0xd1
 1464 03e6 1B010000 		.4byte	0x11b
 1465 03ea 02       		.byte	0x2
 1466 03eb 23       		.byte	0x23
 1467 03ec 14       		.uleb128 0x14
 1468 03ed 09       		.uleb128 0x9
 1469 03ee 13000000 		.4byte	.LASF63
 1470 03f2 04       		.byte	0x4
 1471 03f3 D1       		.byte	0xd1
 1472 03f4 1B010000 		.4byte	0x11b
 1473 03f8 02       		.byte	0x2
 1474 03f9 23       		.byte	0x23
 1475 03fa 1C       		.uleb128 0x1c
 1476 03fb 09       		.uleb128 0x9
 1477 03fc 56080000 		.4byte	.LASF64
 1478 0400 04       		.byte	0x4
 1479 0401 D1       		.byte	0xd1
 1480 0402 8D000000 		.4byte	0x8d
 1481 0406 02       		.byte	0x2
 1482 0407 23       		.byte	0x23
 1483 0408 24       		.uleb128 0x24
 1484 0409 00       		.byte	0x0
 1485 040a 04       		.uleb128 0x4
 1486 040b BA0A0000 		.4byte	.LASF65
 1487 040f 03       		.byte	0x3
 1488 0410 76       		.byte	0x76
 1489 0411 15040000 		.4byte	0x415
 1490 0415 07       		.uleb128 0x7
 1491 0416 BA0A0000 		.4byte	.LASF65
 1492 041a 0E       		.byte	0xe
 1493 041b 03       		.byte	0x3
 1494 041c 75       		.byte	0x75
 1495 041d 6D040000 		.4byte	0x46d
 1496 0421 08       		.uleb128 0x8
 1497 0422 06060000 		.4byte	.LASF66
 1498 0426 04       		.byte	0x4
 1499 0427 0502     		.2byte	0x205
 1500 0429 AE000000 		.4byte	0xae
 1501 042d 02       		.byte	0x2
 1502 042e 23       		.byte	0x23
 1503 042f 00       		.uleb128 0x0
 1504 0430 08       		.uleb128 0x8
 1505 0431 28040000 		.4byte	.LASF67
 1506 0435 04       		.byte	0x4
 1507 0436 0602     		.2byte	0x206
 1508 0438 29050000 		.4byte	0x529
 1509 043c 02       		.byte	0x2
 1510 043d 23       		.byte	0x23
ARM GAS  /tmp/ccvvV6V2.s 			page 31


 1511 043e 01       		.uleb128 0x1
 1512 043f 08       		.uleb128 0x8
 1513 0440 190A0000 		.4byte	.LASF36
 1514 0444 04       		.byte	0x4
 1515 0445 0702     		.2byte	0x207
 1516 0447 2F050000 		.4byte	0x52f
 1517 044b 02       		.byte	0x2
 1518 044c 23       		.byte	0x23
 1519 044d 05       		.uleb128 0x5
 1520 044e 08       		.uleb128 0x8
 1521 044f E0010000 		.4byte	.LASF68
 1522 0453 04       		.byte	0x4
 1523 0454 0A02     		.2byte	0x20a
 1524 0456 93060000 		.4byte	0x693
 1525 045a 02       		.byte	0x2
 1526 045b 23       		.byte	0x23
 1527 045c 09       		.uleb128 0x9
 1528 045d 08       		.uleb128 0x8
 1529 045e 4C060000 		.4byte	.LASF69
 1530 0462 04       		.byte	0x4
 1531 0463 0D02     		.2byte	0x20d
 1532 0465 05010000 		.4byte	0x105
 1533 0469 02       		.byte	0x2
 1534 046a 23       		.byte	0x23
 1535 046b 0A       		.uleb128 0xa
 1536 046c 00       		.byte	0x0
 1537 046d 04       		.uleb128 0x4
 1538 046e F2060000 		.4byte	.LASF70
 1539 0472 03       		.byte	0x3
 1540 0473 79       		.byte	0x79
 1541 0474 78040000 		.4byte	0x478
 1542 0478 07       		.uleb128 0x7
 1543 0479 F2060000 		.4byte	.LASF70
 1544 047d 08       		.byte	0x8
 1545 047e 03       		.byte	0x3
 1546 047f 78       		.byte	0x78
 1547 0480 A3040000 		.4byte	0x4a3
 1548 0484 08       		.uleb128 0x8
 1549 0485 60030000 		.4byte	.LASF71
 1550 0489 04       		.byte	0x4
 1551 048a 1602     		.2byte	0x216
 1552 048c 9F060000 		.4byte	0x69f
 1553 0490 02       		.byte	0x2
 1554 0491 23       		.byte	0x23
 1555 0492 00       		.uleb128 0x0
 1556 0493 08       		.uleb128 0x8
 1557 0494 190A0000 		.4byte	.LASF36
 1558 0498 04       		.byte	0x4
 1559 0499 1702     		.2byte	0x217
 1560 049b 2F050000 		.4byte	0x52f
 1561 049f 02       		.byte	0x2
 1562 04a0 23       		.byte	0x23
 1563 04a1 04       		.uleb128 0x4
 1564 04a2 00       		.byte	0x0
 1565 04a3 0B       		.uleb128 0xb
 1566 04a4 04       		.byte	0x4
 1567 04a5 A9040000 		.4byte	0x4a9
ARM GAS  /tmp/ccvvV6V2.s 			page 32


 1568 04a9 03       		.uleb128 0x3
 1569 04aa 01       		.byte	0x1
 1570 04ab 08       		.byte	0x8
 1571 04ac 7C050000 		.4byte	.LASF72
 1572 04b0 06       		.uleb128 0x6
 1573 04b1 F7070000 		.4byte	.LASF73
 1574 04b5 03       		.byte	0x3
 1575 04b6 2601     		.2byte	0x126
 1576 04b8 BC040000 		.4byte	0x4bc
 1577 04bc 0C       		.uleb128 0xc
 1578 04bd 01       		.byte	0x1
 1579 04be 69000000 		.4byte	0x69
 1580 04c2 D1040000 		.4byte	0x4d1
 1581 04c6 0D       		.uleb128 0xd
 1582 04c7 10010000 		.4byte	0x110
 1583 04cb 0D       		.uleb128 0xd
 1584 04cc EF000000 		.4byte	0xef
 1585 04d0 00       		.byte	0x0
 1586 04d1 06       		.uleb128 0x6
 1587 04d2 54050000 		.4byte	.LASF74
 1588 04d6 03       		.byte	0x3
 1589 04d7 2701     		.2byte	0x127
 1590 04d9 DD040000 		.4byte	0x4dd
 1591 04dd 0E       		.uleb128 0xe
 1592 04de 01       		.byte	0x1
 1593 04df F3040000 		.4byte	0x4f3
 1594 04e3 0D       		.uleb128 0xd
 1595 04e4 10010000 		.4byte	0x110
 1596 04e8 0D       		.uleb128 0xd
 1597 04e9 98000000 		.4byte	0x98
 1598 04ed 0D       		.uleb128 0xd
 1599 04ee EF000000 		.4byte	0xef
 1600 04f2 00       		.byte	0x0
 1601 04f3 06       		.uleb128 0x6
 1602 04f4 70050000 		.4byte	.LASF75
 1603 04f8 03       		.byte	0x3
 1604 04f9 AF01     		.2byte	0x1af
 1605 04fb FF040000 		.4byte	0x4ff
 1606 04ff 0E       		.uleb128 0xe
 1607 0500 01       		.byte	0x1
 1608 0501 10050000 		.4byte	0x510
 1609 0505 0D       		.uleb128 0xd
 1610 0506 FA000000 		.4byte	0xfa
 1611 050a 0D       		.uleb128 0xd
 1612 050b EF000000 		.4byte	0xef
 1613 050f 00       		.byte	0x0
 1614 0510 0F       		.uleb128 0xf
 1615 0511 04       		.byte	0x4
 1616 0512 10       		.uleb128 0x10
 1617 0513 04       		.byte	0x4
 1618 0514 04       		.byte	0x4
 1619 0515 73       		.byte	0x73
 1620 0516 29050000 		.4byte	0x529
 1621 051a 09       		.uleb128 0x9
 1622 051b 190A0000 		.4byte	.LASF36
 1623 051f 04       		.byte	0x4
 1624 0520 7A       		.byte	0x7a
ARM GAS  /tmp/ccvvV6V2.s 			page 33


 1625 0521 29050000 		.4byte	0x529
 1626 0525 02       		.byte	0x2
 1627 0526 23       		.byte	0x23
 1628 0527 00       		.uleb128 0x0
 1629 0528 00       		.byte	0x0
 1630 0529 0B       		.uleb128 0xb
 1631 052a 04       		.byte	0x4
 1632 052b 26010000 		.4byte	0x126
 1633 052f 04       		.uleb128 0x4
 1634 0530 660A0000 		.4byte	.LASF76
 1635 0534 04       		.byte	0x4
 1636 0535 85       		.byte	0x85
 1637 0536 12050000 		.4byte	0x512
 1638 053a 0B       		.uleb128 0xb
 1639 053b 04       		.byte	0x4
 1640 053c B0040000 		.4byte	0x4b0
 1641 0540 0B       		.uleb128 0xb
 1642 0541 04       		.byte	0x4
 1643 0542 D1040000 		.4byte	0x4d1
 1644 0546 0B       		.uleb128 0xb
 1645 0547 04       		.byte	0x4
 1646 0548 C6020000 		.4byte	0x2c6
 1647 054c 0B       		.uleb128 0xb
 1648 054d 04       		.byte	0x4
 1649 054e 82030000 		.4byte	0x382
 1650 0552 0B       		.uleb128 0xb
 1651 0553 04       		.byte	0x4
 1652 0554 40030000 		.4byte	0x340
 1653 0558 0B       		.uleb128 0xb
 1654 0559 04       		.byte	0x4
 1655 055a F3040000 		.4byte	0x4f3
 1656 055e 04       		.uleb128 0x4
 1657 055f 4B090000 		.4byte	.LASF77
 1658 0563 04       		.byte	0x4
 1659 0564 FC       		.byte	0xfc
 1660 0565 69050000 		.4byte	0x569
 1661 0569 0E       		.uleb128 0xe
 1662 056a 01       		.byte	0x1
 1663 056b 75050000 		.4byte	0x575
 1664 056f 0D       		.uleb128 0xd
 1665 0570 E3000000 		.4byte	0xe3
 1666 0574 00       		.byte	0x0
 1667 0575 0B       		.uleb128 0xb
 1668 0576 04       		.byte	0x4
 1669 0577 5E050000 		.4byte	0x55e
 1670 057b 0B       		.uleb128 0xb
 1671 057c 04       		.byte	0x4
 1672 057d 2F050000 		.4byte	0x52f
 1673 0581 11       		.uleb128 0x11
 1674 0582 2C       		.byte	0x2c
 1675 0583 04       		.byte	0x4
 1676 0584 8001     		.2byte	0x180
 1677 0586 12060000 		.4byte	0x612
 1678 058a 08       		.uleb128 0x8
 1679 058b 29010000 		.4byte	.LASF32
 1680 058f 04       		.byte	0x4
 1681 0590 8101     		.2byte	0x181
ARM GAS  /tmp/ccvvV6V2.s 			page 34


 1682 0592 4C050000 		.4byte	0x54c
 1683 0596 02       		.byte	0x2
 1684 0597 23       		.byte	0x23
 1685 0598 00       		.uleb128 0x0
 1686 0599 08       		.uleb128 0x8
 1687 059a 09020000 		.4byte	.LASF33
 1688 059e 04       		.byte	0x4
 1689 059f 8101     		.2byte	0x181
 1690 05a1 4C050000 		.4byte	0x54c
 1691 05a5 02       		.byte	0x2
 1692 05a6 23       		.byte	0x23
 1693 05a7 04       		.uleb128 0x4
 1694 05a8 08       		.uleb128 0x8
 1695 05a9 66040000 		.4byte	.LASF58
 1696 05ad 04       		.byte	0x4
 1697 05ae 8101     		.2byte	0x181
 1698 05b0 52050000 		.4byte	0x552
 1699 05b4 02       		.byte	0x2
 1700 05b5 23       		.byte	0x23
 1701 05b6 08       		.uleb128 0x8
 1702 05b7 08       		.uleb128 0x8
 1703 05b8 A2060000 		.4byte	.LASF61
 1704 05bc 04       		.byte	0x4
 1705 05bd 8101     		.2byte	0x181
 1706 05bf 58050000 		.4byte	0x558
 1707 05c3 02       		.byte	0x2
 1708 05c4 23       		.byte	0x23
 1709 05c5 0C       		.uleb128 0xc
 1710 05c6 08       		.uleb128 0x8
 1711 05c7 D1050000 		.4byte	.LASF53
 1712 05cb 04       		.byte	0x4
 1713 05cc 8101     		.2byte	0x181
 1714 05ce E3000000 		.4byte	0xe3
 1715 05d2 02       		.byte	0x2
 1716 05d3 23       		.byte	0x23
 1717 05d4 10       		.uleb128 0x10
 1718 05d5 08       		.uleb128 0x8
 1719 05d6 88070000 		.4byte	.LASF62
 1720 05da 04       		.byte	0x4
 1721 05db 8101     		.2byte	0x181
 1722 05dd 1B010000 		.4byte	0x11b
 1723 05e1 02       		.byte	0x2
 1724 05e2 23       		.byte	0x23
 1725 05e3 14       		.uleb128 0x14
 1726 05e4 08       		.uleb128 0x8
 1727 05e5 13000000 		.4byte	.LASF63
 1728 05e9 04       		.byte	0x4
 1729 05ea 8101     		.2byte	0x181
 1730 05ec 1B010000 		.4byte	0x11b
 1731 05f0 02       		.byte	0x2
 1732 05f1 23       		.byte	0x23
 1733 05f2 1C       		.uleb128 0x1c
 1734 05f3 08       		.uleb128 0x8
 1735 05f4 56080000 		.4byte	.LASF64
 1736 05f8 04       		.byte	0x4
 1737 05f9 8101     		.2byte	0x181
 1738 05fb 8D000000 		.4byte	0x8d
ARM GAS  /tmp/ccvvV6V2.s 			page 35


 1739 05ff 02       		.byte	0x2
 1740 0600 23       		.byte	0x23
 1741 0601 24       		.uleb128 0x24
 1742 0602 08       		.uleb128 0x8
 1743 0603 260A0000 		.4byte	.LASF78
 1744 0607 04       		.byte	0x4
 1745 0608 8101     		.2byte	0x181
 1746 060a 29050000 		.4byte	0x529
 1747 060e 02       		.byte	0x2
 1748 060f 23       		.byte	0x23
 1749 0610 28       		.uleb128 0x28
 1750 0611 00       		.byte	0x0
 1751 0612 06       		.uleb128 0x6
 1752 0613 E60C0000 		.4byte	.LASF79
 1753 0617 04       		.byte	0x4
 1754 0618 8201     		.2byte	0x182
 1755 061a 81050000 		.4byte	0x581
 1756 061e 12       		.uleb128 0x12
 1757 061f 01       		.byte	0x1
 1758 0620 04       		.byte	0x4
 1759 0621 8601     		.2byte	0x186
 1760 0623 58060000 		.4byte	0x658
 1761 0627 13       		.uleb128 0x13
 1762 0628 EC050000 		.4byte	.LASF80
 1763 062c 00       		.sleb128 0
 1764 062d 13       		.uleb128 0x13
 1765 062e CF090000 		.4byte	.LASF81
 1766 0632 01       		.sleb128 1
 1767 0633 13       		.uleb128 0x13
 1768 0634 2B080000 		.4byte	.LASF82
 1769 0638 02       		.sleb128 2
 1770 0639 13       		.uleb128 0x13
 1771 063a 60020000 		.4byte	.LASF83
 1772 063e 03       		.sleb128 3
 1773 063f 13       		.uleb128 0x13
 1774 0640 E1000000 		.4byte	.LASF84
 1775 0644 04       		.sleb128 4
 1776 0645 13       		.uleb128 0x13
 1777 0646 F6040000 		.4byte	.LASF85
 1778 064a 05       		.sleb128 5
 1779 064b 13       		.uleb128 0x13
 1780 064c 510C0000 		.4byte	.LASF86
 1781 0650 06       		.sleb128 6
 1782 0651 13       		.uleb128 0x13
 1783 0652 F5080000 		.4byte	.LASF87
 1784 0656 07       		.sleb128 7
 1785 0657 00       		.byte	0x0
 1786 0658 06       		.uleb128 0x6
 1787 0659 0A0D0000 		.4byte	.LASF88
 1788 065d 04       		.byte	0x4
 1789 065e 8F01     		.2byte	0x18f
 1790 0660 1E060000 		.4byte	0x61e
 1791 0664 14       		.uleb128 0x14
 1792 0665 E3000000 		.4byte	0xe3
 1793 0669 74060000 		.4byte	0x674
 1794 066d 15       		.uleb128 0x15
 1795 066e 74060000 		.4byte	0x674
ARM GAS  /tmp/ccvvV6V2.s 			page 36


 1796 0672 05       		.byte	0x5
 1797 0673 00       		.byte	0x0
 1798 0674 16       		.uleb128 0x16
 1799 0675 04       		.byte	0x4
 1800 0676 07       		.byte	0x7
 1801 0677 12       		.uleb128 0x12
 1802 0678 01       		.byte	0x1
 1803 0679 04       		.byte	0x4
 1804 067a FD01     		.2byte	0x1fd
 1805 067c 93060000 		.4byte	0x693
 1806 0680 13       		.uleb128 0x13
 1807 0681 5E080000 		.4byte	.LASF89
 1808 0685 00       		.sleb128 0
 1809 0686 13       		.uleb128 0x13
 1810 0687 5A0B0000 		.4byte	.LASF90
 1811 068b 01       		.sleb128 1
 1812 068c 13       		.uleb128 0x13
 1813 068d 43010000 		.4byte	.LASF91
 1814 0691 02       		.sleb128 2
 1815 0692 00       		.byte	0x0
 1816 0693 06       		.uleb128 0x6
 1817 0694 6F030000 		.4byte	.LASF92
 1818 0698 04       		.byte	0x4
 1819 0699 0102     		.2byte	0x201
 1820 069b 77060000 		.4byte	0x677
 1821 069f 0B       		.uleb128 0xb
 1822 06a0 04       		.byte	0x4
 1823 06a1 0A040000 		.4byte	0x40a
 1824 06a5 0B       		.uleb128 0xb
 1825 06a6 04       		.byte	0x4
 1826 06a7 37000000 		.4byte	0x37
 1827 06ab 0B       		.uleb128 0xb
 1828 06ac 04       		.byte	0x4
 1829 06ad 69000000 		.4byte	0x69
 1830 06b1 07       		.uleb128 0x7
 1831 06b2 3F030000 		.4byte	.LASF93
 1832 06b6 04       		.byte	0x4
 1833 06b7 05       		.byte	0x5
 1834 06b8 38       		.byte	0x38
 1835 06b9 CC060000 		.4byte	0x6cc
 1836 06bd 09       		.uleb128 0x9
 1837 06be 6E040000 		.4byte	.LASF94
 1838 06c2 05       		.byte	0x5
 1839 06c3 39       		.byte	0x39
 1840 06c4 3B070000 		.4byte	0x73b
 1841 06c8 02       		.byte	0x2
 1842 06c9 23       		.byte	0x23
 1843 06ca 00       		.uleb128 0x0
 1844 06cb 00       		.byte	0x0
 1845 06cc 07       		.uleb128 0x7
 1846 06cd 90030000 		.4byte	.LASF95
 1847 06d1 26       		.byte	0x26
 1848 06d2 05       		.byte	0x5
 1849 06d3 39       		.byte	0x39
 1850 06d4 3B070000 		.4byte	0x73b
 1851 06d8 09       		.uleb128 0x9
 1852 06d9 F2000000 		.4byte	.LASF96
ARM GAS  /tmp/ccvvV6V2.s 			page 37


 1853 06dd 05       		.byte	0x5
 1854 06de 3D       		.byte	0x3d
 1855 06df 0A040000 		.4byte	0x40a
 1856 06e3 02       		.byte	0x2
 1857 06e4 23       		.byte	0x23
 1858 06e5 00       		.uleb128 0x0
 1859 06e6 09       		.uleb128 0x9
 1860 06e7 32050000 		.4byte	.LASF97
 1861 06eb 05       		.byte	0x5
 1862 06ec 41       		.byte	0x41
 1863 06ed 5E070000 		.4byte	0x75e
 1864 06f1 02       		.byte	0x2
 1865 06f2 23       		.byte	0x23
 1866 06f3 0E       		.uleb128 0xe
 1867 06f4 09       		.uleb128 0x9
 1868 06f5 11070000 		.4byte	.LASF98
 1869 06f9 05       		.byte	0x5
 1870 06fa 42       		.byte	0x42
 1871 06fb 94070000 		.4byte	0x794
 1872 06ff 02       		.byte	0x2
 1873 0700 23       		.byte	0x23
 1874 0701 12       		.uleb128 0x12
 1875 0702 09       		.uleb128 0x9
 1876 0703 D1060000 		.4byte	.LASF99
 1877 0707 05       		.byte	0x5
 1878 0708 43       		.byte	0x43
 1879 0709 B0070000 		.4byte	0x7b0
 1880 070d 02       		.byte	0x2
 1881 070e 23       		.byte	0x23
 1882 070f 16       		.uleb128 0x16
 1883 0710 09       		.uleb128 0x9
 1884 0711 A5050000 		.4byte	.LASF100
 1885 0715 05       		.byte	0x5
 1886 0716 44       		.byte	0x44
 1887 0717 5E070000 		.4byte	0x75e
 1888 071b 02       		.byte	0x2
 1889 071c 23       		.byte	0x23
 1890 071d 1A       		.uleb128 0x1a
 1891 071e 09       		.uleb128 0x9
 1892 071f 91090000 		.4byte	.LASF101
 1893 0723 05       		.byte	0x5
 1894 0724 45       		.byte	0x45
 1895 0725 D5070000 		.4byte	0x7d5
 1896 0729 02       		.byte	0x2
 1897 072a 23       		.byte	0x23
 1898 072b 1E       		.uleb128 0x1e
 1899 072c 09       		.uleb128 0x9
 1900 072d 53070000 		.4byte	.LASF102
 1901 0731 05       		.byte	0x5
 1902 0732 46       		.byte	0x46
 1903 0733 01080000 		.4byte	0x801
 1904 0737 02       		.byte	0x2
 1905 0738 23       		.byte	0x23
 1906 0739 22       		.uleb128 0x22
 1907 073a 00       		.byte	0x0
 1908 073b 0B       		.uleb128 0xb
 1909 073c 04       		.byte	0x4
ARM GAS  /tmp/ccvvV6V2.s 			page 38


 1910 073d CC060000 		.4byte	0x6cc
 1911 0741 04       		.uleb128 0x4
 1912 0742 3F030000 		.4byte	.LASF93
 1913 0746 05       		.byte	0x5
 1914 0747 3A       		.byte	0x3a
 1915 0748 B1060000 		.4byte	0x6b1
 1916 074c 0E       		.uleb128 0xe
 1917 074d 01       		.byte	0x1
 1918 074e 58070000 		.4byte	0x758
 1919 0752 0D       		.uleb128 0xd
 1920 0753 58070000 		.4byte	0x758
 1921 0757 00       		.byte	0x0
 1922 0758 0B       		.uleb128 0xb
 1923 0759 04       		.byte	0x4
 1924 075a 41070000 		.4byte	0x741
 1925 075e 0B       		.uleb128 0xb
 1926 075f 04       		.byte	0x4
 1927 0760 4C070000 		.4byte	0x74c
 1928 0764 0E       		.uleb128 0xe
 1929 0765 01       		.byte	0x1
 1930 0766 89070000 		.4byte	0x789
 1931 076a 0D       		.uleb128 0xd
 1932 076b 58070000 		.4byte	0x758
 1933 076f 0D       		.uleb128 0xd
 1934 0770 8D000000 		.4byte	0x8d
 1935 0774 0D       		.uleb128 0xd
 1936 0775 69000000 		.4byte	0x69
 1937 0779 0D       		.uleb128 0xd
 1938 077a 89070000 		.4byte	0x789
 1939 077e 0D       		.uleb128 0xd
 1940 077f A5060000 		.4byte	0x6a5
 1941 0783 0D       		.uleb128 0xd
 1942 0784 8D000000 		.4byte	0x8d
 1943 0788 00       		.byte	0x0
 1944 0789 0B       		.uleb128 0xb
 1945 078a 04       		.byte	0x4
 1946 078b 8F070000 		.4byte	0x78f
 1947 078f 17       		.uleb128 0x17
 1948 0790 37000000 		.4byte	0x37
 1949 0794 0B       		.uleb128 0xb
 1950 0795 04       		.byte	0x4
 1951 0796 64070000 		.4byte	0x764
 1952 079a 0E       		.uleb128 0xe
 1953 079b 01       		.byte	0x1
 1954 079c B0070000 		.4byte	0x7b0
 1955 07a0 0D       		.uleb128 0xd
 1956 07a1 58070000 		.4byte	0x758
 1957 07a5 0D       		.uleb128 0xd
 1958 07a6 8D000000 		.4byte	0x8d
 1959 07aa 0D       		.uleb128 0xd
 1960 07ab 69000000 		.4byte	0x69
 1961 07af 00       		.byte	0x0
 1962 07b0 0B       		.uleb128 0xb
 1963 07b1 04       		.byte	0x4
 1964 07b2 9A070000 		.4byte	0x79a
 1965 07b6 0C       		.uleb128 0xc
 1966 07b7 01       		.byte	0x1
ARM GAS  /tmp/ccvvV6V2.s 			page 39


 1967 07b8 29000000 		.4byte	0x29
 1968 07bc D5070000 		.4byte	0x7d5
 1969 07c0 0D       		.uleb128 0xd
 1970 07c1 58070000 		.4byte	0x758
 1971 07c5 0D       		.uleb128 0xd
 1972 07c6 69000000 		.4byte	0x69
 1973 07ca 0D       		.uleb128 0xd
 1974 07cb 10050000 		.4byte	0x510
 1975 07cf 0D       		.uleb128 0xd
 1976 07d0 AB060000 		.4byte	0x6ab
 1977 07d4 00       		.byte	0x0
 1978 07d5 0B       		.uleb128 0xb
 1979 07d6 04       		.byte	0x4
 1980 07d7 B6070000 		.4byte	0x7b6
 1981 07db 0C       		.uleb128 0xc
 1982 07dc 01       		.byte	0x1
 1983 07dd 29000000 		.4byte	0x29
 1984 07e1 FA070000 		.4byte	0x7fa
 1985 07e5 0D       		.uleb128 0xd
 1986 07e6 58070000 		.4byte	0x758
 1987 07ea 0D       		.uleb128 0xd
 1988 07eb 69000000 		.4byte	0x69
 1989 07ef 0D       		.uleb128 0xd
 1990 07f0 FA070000 		.4byte	0x7fa
 1991 07f4 0D       		.uleb128 0xd
 1992 07f5 AB060000 		.4byte	0x6ab
 1993 07f9 00       		.byte	0x0
 1994 07fa 0B       		.uleb128 0xb
 1995 07fb 04       		.byte	0x4
 1996 07fc 00080000 		.4byte	0x800
 1997 0800 18       		.uleb128 0x18
 1998 0801 0B       		.uleb128 0xb
 1999 0802 04       		.byte	0x4
 2000 0803 DB070000 		.4byte	0x7db
 2001 0807 04       		.uleb128 0x4
 2002 0808 90030000 		.4byte	.LASF95
 2003 080c 05       		.byte	0x5
 2004 080d 47       		.byte	0x47
 2005 080e CC060000 		.4byte	0x6cc
 2006 0812 0E       		.uleb128 0xe
 2007 0813 01       		.byte	0x1
 2008 0814 1E080000 		.4byte	0x81e
 2009 0818 0D       		.uleb128 0xd
 2010 0819 29000000 		.4byte	0x29
 2011 081d 00       		.byte	0x0
 2012 081e 0B       		.uleb128 0xb
 2013 081f 04       		.byte	0x4
 2014 0820 12080000 		.4byte	0x812
 2015 0824 07       		.uleb128 0x7
 2016 0825 B1000000 		.4byte	.LASF103
 2017 0829 20       		.byte	0x20
 2018 082a 06       		.byte	0x6
 2019 082b 3F       		.byte	0x3f
 2020 082c 9E080000 		.4byte	0x89e
 2021 0830 09       		.uleb128 0x9
 2022 0831 C60A0000 		.4byte	.LASF104
 2023 0835 06       		.byte	0x6
ARM GAS  /tmp/ccvvV6V2.s 			page 40


 2024 0836 40       		.byte	0x40
 2025 0837 9E080000 		.4byte	0x89e
 2026 083b 02       		.byte	0x2
 2027 083c 23       		.byte	0x23
 2028 083d 00       		.uleb128 0x0
 2029 083e 09       		.uleb128 0x9
 2030 083f 9F0B0000 		.4byte	.LASF105
 2031 0843 06       		.byte	0x6
 2032 0844 41       		.byte	0x41
 2033 0845 9E080000 		.4byte	0x89e
 2034 0849 02       		.byte	0x2
 2035 084a 23       		.byte	0x23
 2036 084b 04       		.uleb128 0x4
 2037 084c 09       		.uleb128 0x9
 2038 084d 7C0C0000 		.4byte	.LASF106
 2039 0851 06       		.byte	0x6
 2040 0852 42       		.byte	0x42
 2041 0853 9E080000 		.4byte	0x89e
 2042 0857 02       		.byte	0x2
 2043 0858 23       		.byte	0x23
 2044 0859 08       		.uleb128 0x8
 2045 085a 09       		.uleb128 0x9
 2046 085b 22040000 		.4byte	.LASF107
 2047 085f 06       		.byte	0x6
 2048 0860 43       		.byte	0x43
 2049 0861 9E080000 		.4byte	0x89e
 2050 0865 02       		.byte	0x2
 2051 0866 23       		.byte	0x23
 2052 0867 0C       		.uleb128 0xc
 2053 0868 0A       		.uleb128 0xa
 2054 0869 643100   		.ascii	"d1\000"
 2055 086c 06       		.byte	0x6
 2056 086d 44       		.byte	0x44
 2057 086e 69000000 		.4byte	0x69
 2058 0872 02       		.byte	0x2
 2059 0873 23       		.byte	0x23
 2060 0874 10       		.uleb128 0x10
 2061 0875 0A       		.uleb128 0xa
 2062 0876 643200   		.ascii	"d2\000"
 2063 0879 06       		.byte	0x6
 2064 087a 44       		.byte	0x44
 2065 087b 69000000 		.4byte	0x69
 2066 087f 02       		.byte	0x2
 2067 0880 23       		.byte	0x23
 2068 0881 14       		.uleb128 0x14
 2069 0882 0A       		.uleb128 0xa
 2070 0883 643300   		.ascii	"d3\000"
 2071 0886 06       		.byte	0x6
 2072 0887 44       		.byte	0x44
 2073 0888 69000000 		.4byte	0x69
 2074 088c 02       		.byte	0x2
 2075 088d 23       		.byte	0x23
 2076 088e 18       		.uleb128 0x18
 2077 088f 09       		.uleb128 0x9
 2078 0890 14050000 		.4byte	.LASF108
 2079 0894 06       		.byte	0x6
 2080 0895 45       		.byte	0x45
ARM GAS  /tmp/ccvvV6V2.s 			page 41


 2081 0896 9E080000 		.4byte	0x89e
 2082 089a 02       		.byte	0x2
 2083 089b 23       		.byte	0x23
 2084 089c 1C       		.uleb128 0x1c
 2085 089d 00       		.byte	0x0
 2086 089e 05       		.uleb128 0x5
 2087 089f 69000000 		.4byte	0x69
 2088 08a3 10       		.uleb128 0x10
 2089 08a4 74       		.byte	0x74
 2090 08a5 06       		.byte	0x6
 2091 08a6 48       		.byte	0x48
 2092 08a7 44090000 		.4byte	0x944
 2093 08ab 09       		.uleb128 0x9
 2094 08ac 6E040000 		.4byte	.LASF94
 2095 08b0 06       		.byte	0x6
 2096 08b1 49       		.byte	0x49
 2097 08b2 07080000 		.4byte	0x807
 2098 08b6 02       		.byte	0x2
 2099 08b7 23       		.byte	0x23
 2100 08b8 00       		.uleb128 0x0
 2101 08b9 09       		.uleb128 0x9
 2102 08ba C4000000 		.4byte	.LASF109
 2103 08be 06       		.byte	0x6
 2104 08bf 4B       		.byte	0x4b
 2105 08c0 C6020000 		.4byte	0x2c6
 2106 08c4 02       		.byte	0x2
 2107 08c5 23       		.byte	0x23
 2108 08c6 26       		.uleb128 0x26
 2109 08c7 09       		.uleb128 0x9
 2110 08c8 180C0000 		.4byte	.LASF110
 2111 08cc 06       		.byte	0x6
 2112 08cd 4C       		.byte	0x4c
 2113 08ce FA000000 		.4byte	0xfa
 2114 08d2 02       		.byte	0x2
 2115 08d3 23       		.byte	0x23
 2116 08d4 42       		.uleb128 0x42
 2117 08d5 09       		.uleb128 0x9
 2118 08d6 7F0B0000 		.4byte	.LASF111
 2119 08da 06       		.byte	0x6
 2120 08db 4D       		.byte	0x4d
 2121 08dc 10010000 		.4byte	0x110
 2122 08e0 02       		.byte	0x2
 2123 08e1 23       		.byte	0x23
 2124 08e2 46       		.uleb128 0x46
 2125 08e3 09       		.uleb128 0x9
 2126 08e4 810C0000 		.4byte	.LASF112
 2127 08e8 06       		.byte	0x6
 2128 08e9 4E       		.byte	0x4e
 2129 08ea 05010000 		.4byte	0x105
 2130 08ee 02       		.byte	0x2
 2131 08ef 23       		.byte	0x23
 2132 08f0 4A       		.uleb128 0x4a
 2133 08f1 09       		.uleb128 0x9
 2134 08f2 F2000000 		.4byte	.LASF96
 2135 08f6 06       		.byte	0x6
 2136 08f7 4F       		.byte	0x4f
 2137 08f8 0A040000 		.4byte	0x40a
ARM GAS  /tmp/ccvvV6V2.s 			page 42


 2138 08fc 02       		.byte	0x2
 2139 08fd 23       		.byte	0x23
 2140 08fe 4E       		.uleb128 0x4e
 2141 08ff 09       		.uleb128 0x9
 2142 0900 E7030000 		.4byte	.LASF113
 2143 0904 06       		.byte	0x6
 2144 0905 50       		.byte	0x50
 2145 0906 6D040000 		.4byte	0x46d
 2146 090a 02       		.byte	0x2
 2147 090b 23       		.byte	0x23
 2148 090c 5C       		.uleb128 0x5c
 2149 090d 09       		.uleb128 0x9
 2150 090e B1000000 		.4byte	.LASF103
 2151 0912 06       		.byte	0x6
 2152 0913 52       		.byte	0x52
 2153 0914 44090000 		.4byte	0x944
 2154 0918 02       		.byte	0x2
 2155 0919 23       		.byte	0x23
 2156 091a 64       		.uleb128 0x64
 2157 091b 09       		.uleb128 0x9
 2158 091c 6A050000 		.4byte	.LASF114
 2159 0920 06       		.byte	0x6
 2160 0921 54       		.byte	0x54
 2161 0922 9E080000 		.4byte	0x89e
 2162 0926 02       		.byte	0x2
 2163 0927 23       		.byte	0x23
 2164 0928 68       		.uleb128 0x68
 2165 0929 0A       		.uleb128 0xa
 2166 092a 747800   		.ascii	"tx\000"
 2167 092d 06       		.byte	0x6
 2168 092e 55       		.byte	0x55
 2169 092f 4A090000 		.4byte	0x94a
 2170 0933 02       		.byte	0x2
 2171 0934 23       		.byte	0x23
 2172 0935 6C       		.uleb128 0x6c
 2173 0936 0A       		.uleb128 0xa
 2174 0937 727800   		.ascii	"rx\000"
 2175 093a 06       		.byte	0x6
 2176 093b 56       		.byte	0x56
 2177 093c 5A090000 		.4byte	0x95a
 2178 0940 02       		.byte	0x2
 2179 0941 23       		.byte	0x23
 2180 0942 70       		.uleb128 0x70
 2181 0943 00       		.byte	0x0
 2182 0944 0B       		.uleb128 0xb
 2183 0945 04       		.byte	0x4
 2184 0946 24080000 		.4byte	0x824
 2185 094a 0B       		.uleb128 0xb
 2186 094b 04       		.byte	0x4
 2187 094c 50090000 		.4byte	0x950
 2188 0950 17       		.uleb128 0x17
 2189 0951 55090000 		.4byte	0x955
 2190 0955 05       		.uleb128 0x5
 2191 0956 37000000 		.4byte	0x37
 2192 095a 0B       		.uleb128 0xb
 2193 095b 04       		.byte	0x4
 2194 095c 55090000 		.4byte	0x955
ARM GAS  /tmp/ccvvV6V2.s 			page 43


 2195 0960 04       		.uleb128 0x4
 2196 0961 9C030000 		.4byte	.LASF115
 2197 0965 06       		.byte	0x6
 2198 0966 57       		.byte	0x57
 2199 0967 A3080000 		.4byte	0x8a3
 2200 096b 10       		.uleb128 0x10
 2201 096c 0F       		.byte	0xf
 2202 096d 06       		.byte	0x6
 2203 096e 59       		.byte	0x59
 2204 096f C8090000 		.4byte	0x9c8
 2205 0973 09       		.uleb128 0x9
 2206 0974 8F050000 		.4byte	.LASF116
 2207 0978 06       		.byte	0x6
 2208 0979 5A       		.byte	0x5a
 2209 097a 41070000 		.4byte	0x741
 2210 097e 02       		.byte	0x2
 2211 097f 23       		.byte	0x23
 2212 0980 00       		.uleb128 0x0
 2213 0981 09       		.uleb128 0x9
 2214 0982 7F070000 		.4byte	.LASF117
 2215 0986 06       		.byte	0x6
 2216 0987 5C       		.byte	0x5c
 2217 0988 37000000 		.4byte	0x37
 2218 098c 02       		.byte	0x2
 2219 098d 23       		.byte	0x23
 2220 098e 04       		.uleb128 0x4
 2221 098f 09       		.uleb128 0x9
 2222 0990 E3050000 		.4byte	.LASF118
 2223 0994 06       		.byte	0x6
 2224 0995 5D       		.byte	0x5d
 2225 0996 37000000 		.4byte	0x37
 2226 099a 02       		.byte	0x2
 2227 099b 23       		.byte	0x23
 2228 099c 05       		.uleb128 0x5
 2229 099d 09       		.uleb128 0x9
 2230 099e 6C070000 		.4byte	.LASF119
 2231 09a2 06       		.byte	0x6
 2232 09a3 5E       		.byte	0x5e
 2233 09a4 37000000 		.4byte	0x37
 2234 09a8 02       		.byte	0x2
 2235 09a9 23       		.byte	0x23
 2236 09aa 06       		.uleb128 0x6
 2237 09ab 09       		.uleb128 0x9
 2238 09ac 0F0C0000 		.4byte	.LASF120
 2239 09b0 06       		.byte	0x6
 2240 09b1 5F       		.byte	0x5f
 2241 09b2 69000000 		.4byte	0x69
 2242 09b6 02       		.byte	0x2
 2243 09b7 23       		.byte	0x23
 2244 09b8 07       		.uleb128 0x7
 2245 09b9 09       		.uleb128 0x9
 2246 09ba 750C0000 		.4byte	.LASF121
 2247 09be 06       		.byte	0x6
 2248 09bf 61       		.byte	0x61
 2249 09c0 1E080000 		.4byte	0x81e
 2250 09c4 02       		.byte	0x2
 2251 09c5 23       		.byte	0x23
ARM GAS  /tmp/ccvvV6V2.s 			page 44


 2252 09c6 0B       		.uleb128 0xb
 2253 09c7 00       		.byte	0x0
 2254 09c8 04       		.uleb128 0x4
 2255 09c9 AD040000 		.4byte	.LASF122
 2256 09cd 06       		.byte	0x6
 2257 09ce 62       		.byte	0x62
 2258 09cf 6B090000 		.4byte	0x96b
 2259 09d3 19       		.uleb128 0x19
 2260 09d4 55333200 		.ascii	"U32\000"
 2261 09d8 07       		.byte	0x7
 2262 09d9 1A       		.byte	0x1a
 2263 09da CB000000 		.4byte	0xcb
 2264 09de 19       		.uleb128 0x19
 2265 09df 55313600 		.ascii	"U16\000"
 2266 09e3 07       		.byte	0x7
 2267 09e4 1B       		.byte	0x1b
 2268 09e5 BF000000 		.4byte	0xbf
 2269 09e9 19       		.uleb128 0x19
 2270 09ea 553800   		.ascii	"U8\000"
 2271 09ed 07       		.byte	0x7
 2272 09ee 1C       		.byte	0x1c
 2273 09ef B3000000 		.4byte	0xb3
 2274 09f3 0B       		.uleb128 0xb
 2275 09f4 04       		.byte	0x4
 2276 09f5 E9090000 		.4byte	0x9e9
 2277 09f9 1A       		.uleb128 0x1a
 2278 09fa 01       		.byte	0x1
 2279 09fb 08       		.byte	0x8
 2280 09fc 2D       		.byte	0x2d
 2281 09fd 1A0A0000 		.4byte	0xa1a
 2282 0a01 13       		.uleb128 0x13
 2283 0a02 760A0000 		.4byte	.LASF123
 2284 0a06 00       		.sleb128 0
 2285 0a07 13       		.uleb128 0x13
 2286 0a08 7D0A0000 		.4byte	.LASF124
 2287 0a0c 01       		.sleb128 1
 2288 0a0d 13       		.uleb128 0x13
 2289 0a0e 840A0000 		.4byte	.LASF125
 2290 0a12 02       		.sleb128 2
 2291 0a13 13       		.uleb128 0x13
 2292 0a14 8B0A0000 		.4byte	.LASF126
 2293 0a18 03       		.sleb128 3
 2294 0a19 00       		.byte	0x0
 2295 0a1a 1A       		.uleb128 0x1a
 2296 0a1b 01       		.byte	0x1
 2297 0a1c 08       		.byte	0x8
 2298 0a1d 34       		.byte	0x34
 2299 0a1e B30A0000 		.4byte	0xab3
 2300 0a22 13       		.uleb128 0x13
 2301 0a23 ED070000 		.4byte	.LASF127
 2302 0a27 20       		.sleb128 32
 2303 0a28 13       		.uleb128 0x13
 2304 0a29 C9010000 		.4byte	.LASF128
 2305 0a2d 21       		.sleb128 33
 2306 0a2e 13       		.uleb128 0x13
 2307 0a2f 0D060000 		.4byte	.LASF129
 2308 0a33 22       		.sleb128 34
ARM GAS  /tmp/ccvvV6V2.s 			page 45


 2309 0a34 13       		.uleb128 0x13
 2310 0a35 FC050000 		.4byte	.LASF130
 2311 0a39 23       		.sleb128 35
 2312 0a3a 13       		.uleb128 0x13
 2313 0a3b 56020000 		.4byte	.LASF131
 2314 0a3f 24       		.sleb128 36
 2315 0a40 13       		.uleb128 0x13
 2316 0a41 40020000 		.4byte	.LASF132
 2317 0a45 25       		.sleb128 37
 2318 0a46 13       		.uleb128 0x13
 2319 0a47 21080000 		.4byte	.LASF133
 2320 0a4b 26       		.sleb128 38
 2321 0a4c 13       		.uleb128 0x13
 2322 0a4d 01080000 		.4byte	.LASF134
 2323 0a51 27       		.sleb128 39
 2324 0a52 13       		.uleb128 0x13
 2325 0a53 260B0000 		.4byte	.LASF135
 2326 0a57 28       		.sleb128 40
 2327 0a58 13       		.uleb128 0x13
 2328 0a59 070B0000 		.4byte	.LASF136
 2329 0a5d 29       		.sleb128 41
 2330 0a5e 13       		.uleb128 0x13
 2331 0a5f 62070000 		.4byte	.LASF137
 2332 0a63 2A       		.sleb128 42
 2333 0a64 13       		.uleb128 0x13
 2334 0a65 5C0A0000 		.4byte	.LASF138
 2335 0a69 2B       		.sleb128 43
 2336 0a6a 13       		.uleb128 0x13
 2337 0a6b F3020000 		.4byte	.LASF139
 2338 0a6f 2C       		.sleb128 44
 2339 0a70 13       		.uleb128 0x13
 2340 0a71 E7020000 		.4byte	.LASF140
 2341 0a75 2D       		.sleb128 45
 2342 0a76 13       		.uleb128 0x13
 2343 0a77 E6060000 		.4byte	.LASF141
 2344 0a7b 2E       		.sleb128 46
 2345 0a7c 13       		.uleb128 0x13
 2346 0a7d C5060000 		.4byte	.LASF142
 2347 0a81 2F       		.sleb128 47
 2348 0a82 13       		.uleb128 0x13
 2349 0a83 FB000000 		.4byte	.LASF143
 2350 0a87 30       		.sleb128 48
 2351 0a88 13       		.uleb128 0x13
 2352 0a89 D6000000 		.4byte	.LASF144
 2353 0a8d 31       		.sleb128 49
 2354 0a8e 13       		.uleb128 0x13
 2355 0a8f 46000000 		.4byte	.LASF145
 2356 0a93 32       		.sleb128 50
 2357 0a94 13       		.uleb128 0x13
 2358 0a95 21000000 		.4byte	.LASF146
 2359 0a99 33       		.sleb128 51
 2360 0a9a 13       		.uleb128 0x13
 2361 0a9b B9000000 		.4byte	.LASF147
 2362 0a9f 34       		.sleb128 52
 2363 0aa0 13       		.uleb128 0x13
 2364 0aa1 380A0000 		.4byte	.LASF148
 2365 0aa5 35       		.sleb128 53
ARM GAS  /tmp/ccvvV6V2.s 			page 46


 2366 0aa6 13       		.uleb128 0x13
 2367 0aa7 16080000 		.4byte	.LASF149
 2368 0aab 36       		.sleb128 54
 2369 0aac 13       		.uleb128 0x13
 2370 0aad 0B080000 		.4byte	.LASF150
 2371 0ab1 37       		.sleb128 55
 2372 0ab2 00       		.byte	0x0
 2373 0ab3 1A       		.uleb128 0x1a
 2374 0ab4 01       		.byte	0x1
 2375 0ab5 08       		.byte	0x8
 2376 0ab6 4F       		.byte	0x4f
 2377 0ab7 400B0000 		.4byte	0xb40
 2378 0abb 13       		.uleb128 0x13
 2379 0abc 440A0000 		.4byte	.LASF151
 2380 0ac0 20       		.sleb128 32
 2381 0ac1 13       		.uleb128 0x13
 2382 0ac2 4C0A0000 		.4byte	.LASF152
 2383 0ac6 21       		.sleb128 33
 2384 0ac7 13       		.uleb128 0x13
 2385 0ac8 540A0000 		.4byte	.LASF153
 2386 0acc 22       		.sleb128 34
 2387 0acd 13       		.uleb128 0x13
 2388 0ace D5080000 		.4byte	.LASF154
 2389 0ad2 23       		.sleb128 35
 2390 0ad3 13       		.uleb128 0x13
 2391 0ad4 DD080000 		.4byte	.LASF155
 2392 0ad8 24       		.sleb128 36
 2393 0ad9 13       		.uleb128 0x13
 2394 0ada E5080000 		.4byte	.LASF156
 2395 0ade 25       		.sleb128 37
 2396 0adf 13       		.uleb128 0x13
 2397 0ae0 ED080000 		.4byte	.LASF157
 2398 0ae4 26       		.sleb128 38
 2399 0ae5 13       		.uleb128 0x13
 2400 0ae6 FD060000 		.4byte	.LASF158
 2401 0aea 27       		.sleb128 39
 2402 0aeb 13       		.uleb128 0x13
 2403 0aec 9F000000 		.4byte	.LASF159
 2404 0af0 28       		.sleb128 40
 2405 0af1 13       		.uleb128 0x13
 2406 0af2 A8000000 		.4byte	.LASF160
 2407 0af6 29       		.sleb128 41
 2408 0af7 13       		.uleb128 0x13
 2409 0af8 210C0000 		.4byte	.LASF161
 2410 0afc 2A       		.sleb128 42
 2411 0afd 13       		.uleb128 0x13
 2412 0afe 360C0000 		.4byte	.LASF162
 2413 0b02 2B       		.sleb128 43
 2414 0b03 13       		.uleb128 0x13
 2415 0b04 3F0C0000 		.4byte	.LASF163
 2416 0b08 2C       		.sleb128 44
 2417 0b09 13       		.uleb128 0x13
 2418 0b0a 480C0000 		.4byte	.LASF164
 2419 0b0e 2D       		.sleb128 45
 2420 0b0f 13       		.uleb128 0x13
 2421 0b10 CD000000 		.4byte	.LASF165
 2422 0b14 2E       		.sleb128 46
ARM GAS  /tmp/ccvvV6V2.s 			page 47


 2423 0b15 13       		.uleb128 0x13
 2424 0b16 6C0C0000 		.4byte	.LASF166
 2425 0b1a 2F       		.sleb128 47
 2426 0b1b 13       		.uleb128 0x13
 2427 0b1c A5020000 		.4byte	.LASF167
 2428 0b20 30       		.sleb128 48
 2429 0b21 13       		.uleb128 0x13
 2430 0b22 8C020000 		.4byte	.LASF168
 2431 0b26 31       		.sleb128 49
 2432 0b27 13       		.uleb128 0x13
 2433 0b28 66030000 		.4byte	.LASF169
 2434 0b2c 34       		.sleb128 52
 2435 0b2d 13       		.uleb128 0x13
 2436 0b2e 4E030000 		.4byte	.LASF170
 2437 0b32 35       		.sleb128 53
 2438 0b33 13       		.uleb128 0x13
 2439 0b34 0E020000 		.4byte	.LASF171
 2440 0b38 38       		.sleb128 56
 2441 0b39 13       		.uleb128 0x13
 2442 0b3a BA060000 		.4byte	.LASF172
 2443 0b3e 39       		.sleb128 57
 2444 0b3f 00       		.byte	0x0
 2445 0b40 1A       		.uleb128 0x1a
 2446 0b41 01       		.byte	0x1
 2447 0b42 08       		.byte	0x8
 2448 0b43 68       		.byte	0x68
 2449 0b44 B90B0000 		.4byte	0xbb9
 2450 0b48 13       		.uleb128 0x13
 2451 0b49 41040000 		.4byte	.LASF173
 2452 0b4d C000     		.sleb128 64
 2453 0b4f 13       		.uleb128 0x13
 2454 0b50 95010000 		.4byte	.LASF174
 2455 0b54 C200     		.sleb128 66
 2456 0b56 13       		.uleb128 0x13
 2457 0b57 5C040000 		.4byte	.LASF175
 2458 0b5b C300     		.sleb128 67
 2459 0b5d 13       		.uleb128 0x13
 2460 0b5e 2C000000 		.4byte	.LASF176
 2461 0b62 C400     		.sleb128 68
 2462 0b64 13       		.uleb128 0x13
 2463 0b65 87090000 		.4byte	.LASF177
 2464 0b69 C600     		.sleb128 70
 2465 0b6b 13       		.uleb128 0x13
 2466 0b6c 7D090000 		.4byte	.LASF178
 2467 0b70 C700     		.sleb128 71
 2468 0b72 13       		.uleb128 0x13
 2469 0b73 5E010000 		.4byte	.LASF179
 2470 0b77 C800     		.sleb128 72
 2471 0b79 13       		.uleb128 0x13
 2472 0b7a 6A010000 		.4byte	.LASF180
 2473 0b7e C900     		.sleb128 73
 2474 0b80 13       		.uleb128 0x13
 2475 0b81 920A0000 		.4byte	.LASF181
 2476 0b85 CA00     		.sleb128 74
 2477 0b87 13       		.uleb128 0x13
 2478 0b88 17060000 		.4byte	.LASF182
 2479 0b8c CB00     		.sleb128 75
ARM GAS  /tmp/ccvvV6V2.s 			page 48


 2480 0b8e 13       		.uleb128 0x13
 2481 0b8f F30A0000 		.4byte	.LASF183
 2482 0b93 D200     		.sleb128 82
 2483 0b95 13       		.uleb128 0x13
 2484 0b96 A8010000 		.4byte	.LASF184
 2485 0b9a D400     		.sleb128 84
 2486 0b9c 13       		.uleb128 0x13
 2487 0b9d 9F010000 		.4byte	.LASF185
 2488 0ba1 D600     		.sleb128 86
 2489 0ba3 13       		.uleb128 0x13
 2490 0ba4 A1070000 		.4byte	.LASF186
 2491 0ba8 D700     		.sleb128 87
 2492 0baa 13       		.uleb128 0x13
 2493 0bab 57030000 		.4byte	.LASF187
 2494 0baf D800     		.sleb128 88
 2495 0bb1 13       		.uleb128 0x13
 2496 0bb2 C6090000 		.4byte	.LASF188
 2497 0bb6 D900     		.sleb128 89
 2498 0bb8 00       		.byte	0x0
 2499 0bb9 1A       		.uleb128 0x1a
 2500 0bba 01       		.byte	0x1
 2501 0bbb 08       		.byte	0x8
 2502 0bbc 7B       		.byte	0x7b
 2503 0bbd 290C0000 		.4byte	0xc29
 2504 0bc1 13       		.uleb128 0x13
 2505 0bc2 C3040000 		.4byte	.LASF189
 2506 0bc6 C000     		.sleb128 64
 2507 0bc8 13       		.uleb128 0x13
 2508 0bc9 AA090000 		.4byte	.LASF190
 2509 0bcd C100     		.sleb128 65
 2510 0bcf 13       		.uleb128 0x13
 2511 0bd0 A3040000 		.4byte	.LASF191
 2512 0bd4 C200     		.sleb128 66
 2513 0bd6 13       		.uleb128 0x13
 2514 0bd7 A0090000 		.4byte	.LASF192
 2515 0bdb C300     		.sleb128 67
 2516 0bdd 13       		.uleb128 0x13
 2517 0bde 8F040000 		.4byte	.LASF193
 2518 0be2 C400     		.sleb128 68
 2519 0be4 13       		.uleb128 0x13
 2520 0be5 99040000 		.4byte	.LASF194
 2521 0be9 C500     		.sleb128 69
 2522 0beb 13       		.uleb128 0x13
 2523 0bec 00000000 		.4byte	.LASF195
 2524 0bf0 26       		.sleb128 38
 2525 0bf1 13       		.uleb128 0x13
 2526 0bf2 FC0A0000 		.4byte	.LASF196
 2527 0bf6 27       		.sleb128 39
 2528 0bf7 13       		.uleb128 0x13
 2529 0bf8 8A010000 		.4byte	.LASF197
 2530 0bfc 28       		.sleb128 40
 2531 0bfd 13       		.uleb128 0x13
 2532 0bfe 7F010000 		.4byte	.LASF198
 2533 0c02 29       		.sleb128 41
 2534 0c03 13       		.uleb128 0x13
 2535 0c04 C6020000 		.4byte	.LASF199
 2536 0c08 CA00     		.sleb128 74
ARM GAS  /tmp/ccvvV6V2.s 			page 49


 2537 0c0a 13       		.uleb128 0x13
 2538 0c0b 3B060000 		.4byte	.LASF200
 2539 0c0f 32       		.sleb128 50
 2540 0c10 13       		.uleb128 0x13
 2541 0c11 18040000 		.4byte	.LASF201
 2542 0c15 35       		.sleb128 53
 2543 0c16 13       		.uleb128 0x13
 2544 0c17 110B0000 		.4byte	.LASF202
 2545 0c1b 37       		.sleb128 55
 2546 0c1c 13       		.uleb128 0x13
 2547 0c1d FF010000 		.4byte	.LASF203
 2548 0c21 38       		.sleb128 56
 2549 0c22 13       		.uleb128 0x13
 2550 0c23 F5010000 		.4byte	.LASF204
 2551 0c27 39       		.sleb128 57
 2552 0c28 00       		.byte	0x0
 2553 0c29 1A       		.uleb128 0x1a
 2554 0c2a 01       		.byte	0x1
 2555 0c2b 08       		.byte	0x8
 2556 0c2c 8E       		.byte	0x8e
 2557 0c2d 500C0000 		.4byte	0xc50
 2558 0c31 1B       		.uleb128 0x1b
 2559 0c32 45494500 		.ascii	"EIE\000"
 2560 0c36 1B       		.sleb128 27
 2561 0c37 1B       		.uleb128 0x1b
 2562 0c38 45495200 		.ascii	"EIR\000"
 2563 0c3c 1C       		.sleb128 28
 2564 0c3d 13       		.uleb128 0x13
 2565 0c3e E1030000 		.4byte	.LASF205
 2566 0c42 1D       		.sleb128 29
 2567 0c43 13       		.uleb128 0x13
 2568 0c44 C0020000 		.4byte	.LASF206
 2569 0c48 1E       		.sleb128 30
 2570 0c49 13       		.uleb128 0x13
 2571 0c4a BA020000 		.4byte	.LASF207
 2572 0c4e 1F       		.sleb128 31
 2573 0c4f 00       		.byte	0x0
 2574 0c50 1A       		.uleb128 0x1a
 2575 0c51 01       		.byte	0x1
 2576 0c52 08       		.byte	0x8
 2577 0c53 C7       		.byte	0xc7
 2578 0c54 850C0000 		.4byte	0xc85
 2579 0c58 13       		.uleb128 0x13
 2580 0c59 2E040000 		.4byte	.LASF208
 2581 0c5d C000     		.sleb128 64
 2582 0c5f 13       		.uleb128 0x13
 2583 0c60 C10C0000 		.4byte	.LASF209
 2584 0c64 20       		.sleb128 32
 2585 0c65 13       		.uleb128 0x13
 2586 0c66 6D060000 		.4byte	.LASF210
 2587 0c6a 10       		.sleb128 16
 2588 0c6b 13       		.uleb128 0x13
 2589 0c6c 170D0000 		.4byte	.LASF211
 2590 0c70 08       		.sleb128 8
 2591 0c71 13       		.uleb128 0x13
 2592 0c72 2D0A0000 		.4byte	.LASF212
 2593 0c76 02       		.sleb128 2
ARM GAS  /tmp/ccvvV6V2.s 			page 50


 2594 0c77 13       		.uleb128 0x13
 2595 0c78 30060000 		.4byte	.LASF213
 2596 0c7c 01       		.sleb128 1
 2597 0c7d 13       		.uleb128 0x13
 2598 0c7e E9040000 		.4byte	.LASF214
 2599 0c82 8001     		.sleb128 128
 2600 0c84 00       		.byte	0x0
 2601 0c85 1A       		.uleb128 0x1a
 2602 0c86 01       		.byte	0x1
 2603 0c87 08       		.byte	0x8
 2604 0c88 DC       		.byte	0xdc
 2605 0c89 B40C0000 		.4byte	0xcb4
 2606 0c8d 13       		.uleb128 0x13
 2607 0c8e DB040000 		.4byte	.LASF215
 2608 0c92 8001     		.sleb128 128
 2609 0c94 13       		.uleb128 0x13
 2610 0c95 D6050000 		.4byte	.LASF216
 2611 0c99 C000     		.sleb128 64
 2612 0c9b 13       		.uleb128 0x13
 2613 0c9c 74000000 		.4byte	.LASF217
 2614 0ca0 20       		.sleb128 32
 2615 0ca1 13       		.uleb128 0x13
 2616 0ca2 96020000 		.4byte	.LASF218
 2617 0ca6 10       		.sleb128 16
 2618 0ca7 13       		.uleb128 0x13
 2619 0ca8 72090000 		.4byte	.LASF219
 2620 0cac 08       		.sleb128 8
 2621 0cad 13       		.uleb128 0x13
 2622 0cae 76040000 		.4byte	.LASF220
 2623 0cb2 07       		.sleb128 7
 2624 0cb3 00       		.byte	0x0
 2625 0cb4 1A       		.uleb128 0x1a
 2626 0cb5 01       		.byte	0x1
 2627 0cb6 08       		.byte	0x8
 2628 0cb7 E5       		.byte	0xe5
 2629 0cb8 EF0C0000 		.4byte	0xcef
 2630 0cbc 13       		.uleb128 0x13
 2631 0cbd 0F030000 		.4byte	.LASF221
 2632 0cc1 8001     		.sleb128 128
 2633 0cc3 13       		.uleb128 0x13
 2634 0cc4 BD0B0000 		.4byte	.LASF222
 2635 0cc8 C000     		.sleb128 64
 2636 0cca 13       		.uleb128 0x13
 2637 0ccb 30090000 		.4byte	.LASF223
 2638 0ccf 20       		.sleb128 32
 2639 0cd0 13       		.uleb128 0x13
 2640 0cd1 39070000 		.4byte	.LASF224
 2641 0cd5 10       		.sleb128 16
 2642 0cd6 13       		.uleb128 0x13
 2643 0cd7 F0030000 		.4byte	.LASF225
 2644 0cdb 08       		.sleb128 8
 2645 0cdc 13       		.uleb128 0x13
 2646 0cdd 9A050000 		.4byte	.LASF226
 2647 0ce1 04       		.sleb128 4
 2648 0ce2 13       		.uleb128 0x13
 2649 0ce3 26050000 		.4byte	.LASF227
 2650 0ce7 02       		.sleb128 2
ARM GAS  /tmp/ccvvV6V2.s 			page 51


 2651 0ce8 13       		.uleb128 0x13
 2652 0ce9 2A0C0000 		.4byte	.LASF228
 2653 0ced 01       		.sleb128 1
 2654 0cee 00       		.byte	0x0
 2655 0cef 1A       		.uleb128 0x1a
 2656 0cf0 01       		.byte	0x1
 2657 0cf1 08       		.byte	0x8
 2658 0cf2 FB       		.byte	0xfb
 2659 0cf3 100D0000 		.4byte	0xd10
 2660 0cf7 13       		.uleb128 0x13
 2661 0cf8 C3050000 		.4byte	.LASF229
 2662 0cfc 08       		.sleb128 8
 2663 0cfd 13       		.uleb128 0x13
 2664 0cfe 26020000 		.4byte	.LASF230
 2665 0d02 04       		.sleb128 4
 2666 0d03 13       		.uleb128 0x13
 2667 0d04 AB0A0000 		.4byte	.LASF231
 2668 0d08 02       		.sleb128 2
 2669 0d09 13       		.uleb128 0x13
 2670 0d0a 81050000 		.4byte	.LASF232
 2671 0d0e 01       		.sleb128 1
 2672 0d0f 00       		.byte	0x0
 2673 0d10 12       		.uleb128 0x12
 2674 0d11 01       		.byte	0x1
 2675 0d12 08       		.byte	0x8
 2676 0d13 0201     		.2byte	0x102
 2677 0d15 4C0D0000 		.4byte	0xd4c
 2678 0d19 13       		.uleb128 0x13
 2679 0d1a 1B030000 		.4byte	.LASF233
 2680 0d1e 8001     		.sleb128 128
 2681 0d20 13       		.uleb128 0x13
 2682 0d21 37000000 		.4byte	.LASF234
 2683 0d25 C000     		.sleb128 64
 2684 0d27 13       		.uleb128 0x13
 2685 0d28 AA070000 		.4byte	.LASF235
 2686 0d2c 20       		.sleb128 32
 2687 0d2d 13       		.uleb128 0x13
 2688 0d2e CB0A0000 		.4byte	.LASF236
 2689 0d32 10       		.sleb128 16
 2690 0d33 13       		.uleb128 0x13
 2691 0d34 0E010000 		.4byte	.LASF237
 2692 0d38 08       		.sleb128 8
 2693 0d39 13       		.uleb128 0x13
 2694 0d3a 900C0000 		.4byte	.LASF238
 2695 0d3e 04       		.sleb128 4
 2696 0d3f 13       		.uleb128 0x13
 2697 0d40 E40A0000 		.4byte	.LASF239
 2698 0d44 02       		.sleb128 2
 2699 0d45 13       		.uleb128 0x13
 2700 0d46 FC030000 		.4byte	.LASF240
 2701 0d4a 01       		.sleb128 1
 2702 0d4b 00       		.byte	0x0
 2703 0d4c 12       		.uleb128 0x12
 2704 0d4d 01       		.byte	0x1
 2705 0d4e 08       		.byte	0x8
 2706 0d4f 0D01     		.2byte	0x10d
 2707 0d51 690D0000 		.4byte	0xd69
ARM GAS  /tmp/ccvvV6V2.s 			page 52


 2708 0d55 13       		.uleb128 0x13
 2709 0d56 EF0B0000 		.4byte	.LASF241
 2710 0d5a C000     		.sleb128 64
 2711 0d5c 13       		.uleb128 0x13
 2712 0d5d 4A020000 		.4byte	.LASF242
 2713 0d61 20       		.sleb128 32
 2714 0d62 13       		.uleb128 0x13
 2715 0d63 2A070000 		.4byte	.LASF243
 2716 0d67 10       		.sleb128 16
 2717 0d68 00       		.byte	0x0
 2718 0d69 1A       		.uleb128 0x1a
 2719 0d6a 01       		.byte	0x1
 2720 0d6b 09       		.byte	0x9
 2721 0d6c 14       		.byte	0x14
 2722 0d6d 960D0000 		.4byte	0xd96
 2723 0d71 13       		.uleb128 0x13
 2724 0d72 930B0000 		.4byte	.LASF244
 2725 0d76 00       		.sleb128 0
 2726 0d77 13       		.uleb128 0x13
 2727 0d78 1A090000 		.4byte	.LASF245
 2728 0d7c 01       		.sleb128 1
 2729 0d7d 13       		.uleb128 0x13
 2730 0d7e 3C080000 		.4byte	.LASF246
 2731 0d82 02       		.sleb128 2
 2732 0d83 13       		.uleb128 0x13
 2733 0d84 73020000 		.4byte	.LASF247
 2734 0d88 03       		.sleb128 3
 2735 0d89 13       		.uleb128 0x13
 2736 0d8a FF090000 		.4byte	.LASF248
 2737 0d8e 04       		.sleb128 4
 2738 0d8f 13       		.uleb128 0x13
 2739 0d90 87000000 		.4byte	.LASF249
 2740 0d94 05       		.sleb128 5
 2741 0d95 00       		.byte	0x0
 2742 0d96 1A       		.uleb128 0x1a
 2743 0d97 01       		.byte	0x1
 2744 0d98 09       		.byte	0x9
 2745 0d99 1D       		.byte	0x1d
 2746 0d9a AB0D0000 		.4byte	0xdab
 2747 0d9e 13       		.uleb128 0x13
 2748 0d9f 05090000 		.4byte	.LASF250
 2749 0da3 00       		.sleb128 0
 2750 0da4 13       		.uleb128 0x13
 2751 0da5 AC0C0000 		.4byte	.LASF251
 2752 0da9 01       		.sleb128 1
 2753 0daa 00       		.byte	0x0
 2754 0dab 04       		.uleb128 0x4
 2755 0dac 83060000 		.4byte	.LASF252
 2756 0db0 09       		.byte	0x9
 2757 0db1 20       		.byte	0x20
 2758 0db2 960D0000 		.4byte	0xd96
 2759 0db6 10       		.uleb128 0x10
 2760 0db7 0B       		.byte	0xb
 2761 0db8 09       		.byte	0x9
 2762 0db9 22       		.byte	0x22
 2763 0dba E90D0000 		.4byte	0xde9
 2764 0dbe 09       		.uleb128 0x9
ARM GAS  /tmp/ccvvV6V2.s 			page 53


 2765 0dbf AE0B0000 		.4byte	.LASF253
 2766 0dc3 09       		.byte	0x9
 2767 0dc4 23       		.byte	0x23
 2768 0dc5 E90D0000 		.4byte	0xde9
 2769 0dc9 02       		.byte	0x2
 2770 0dca 23       		.byte	0x23
 2771 0dcb 00       		.uleb128 0x0
 2772 0dcc 09       		.uleb128 0x9
 2773 0dcd 45060000 		.4byte	.LASF254
 2774 0dd1 09       		.byte	0x9
 2775 0dd2 24       		.byte	0x24
 2776 0dd3 AB0D0000 		.4byte	0xdab
 2777 0dd7 02       		.byte	0x2
 2778 0dd8 23       		.byte	0x23
 2779 0dd9 04       		.uleb128 0x4
 2780 0dda 0A       		.uleb128 0xa
 2781 0ddb 6D616300 		.ascii	"mac\000"
 2782 0ddf 09       		.byte	0x9
 2783 0de0 25       		.byte	0x25
 2784 0de1 EF0D0000 		.4byte	0xdef
 2785 0de5 02       		.byte	0x2
 2786 0de6 23       		.byte	0x23
 2787 0de7 05       		.uleb128 0x5
 2788 0de8 00       		.byte	0x0
 2789 0de9 0B       		.uleb128 0xb
 2790 0dea 04       		.byte	0x4
 2791 0deb C8090000 		.4byte	0x9c8
 2792 0def 14       		.uleb128 0x14
 2793 0df0 37000000 		.4byte	0x37
 2794 0df4 FF0D0000 		.4byte	0xdff
 2795 0df8 15       		.uleb128 0x15
 2796 0df9 74060000 		.4byte	0x674
 2797 0dfd 05       		.byte	0x5
 2798 0dfe 00       		.byte	0x0
 2799 0dff 04       		.uleb128 0x4
 2800 0e00 EE090000 		.4byte	.LASF255
 2801 0e04 09       		.byte	0x9
 2802 0e05 26       		.byte	0x26
 2803 0e06 0A0E0000 		.4byte	0xe0a
 2804 0e0a 0B       		.uleb128 0xb
 2805 0e0b 04       		.byte	0x4
 2806 0e0c B60D0000 		.4byte	0xdb6
 2807 0e10 1C       		.uleb128 0x1c
 2808 0e11 CB0C0000 		.4byte	.LASF262
 2809 0e15 01       		.byte	0x1
 2810 0e16 20       		.byte	0x20
 2811 0e17 01       		.byte	0x1
 2812 0e18 00000000 		.4byte	.LFB2
 2813 0e1c 50000000 		.4byte	.LFE2
 2814 0e20 00000000 		.4byte	.LLST0
 2815 0e24 370E0000 		.4byte	0xe37
 2816 0e28 1D       		.uleb128 0x1d
 2817 0e29 BF090000 		.4byte	.LASF256
 2818 0e2d 01       		.byte	0x1
 2819 0e2e 20       		.byte	0x20
 2820 0e2f 29000000 		.4byte	0x29
 2821 0e33 02       		.byte	0x2
ARM GAS  /tmp/ccvvV6V2.s 			page 54


 2822 0e34 91       		.byte	0x91
 2823 0e35 6C       		.sleb128 -20
 2824 0e36 00       		.byte	0x0
 2825 0e37 1E       		.uleb128 0x1e
 2826 0e38 01       		.byte	0x1
 2827 0e39 22060000 		.4byte	.LASF257
 2828 0e3d 01       		.byte	0x1
 2829 0e3e 36       		.byte	0x36
 2830 0e3f 01       		.byte	0x1
 2831 0e40 E9090000 		.4byte	0x9e9
 2832 0e44 00000000 		.4byte	.LFB3
 2833 0e48 E0020000 		.4byte	.LFE3
 2834 0e4c 2A000000 		.4byte	.LLST1
 2835 0e50 630E0000 		.4byte	0xe63
 2836 0e54 1D       		.uleb128 0x1d
 2837 0e55 AE0B0000 		.4byte	.LASF253
 2838 0e59 01       		.byte	0x1
 2839 0e5a 36       		.byte	0x36
 2840 0e5b FF0D0000 		.4byte	0xdff
 2841 0e5f 02       		.byte	0x2
 2842 0e60 91       		.byte	0x91
 2843 0e61 6C       		.sleb128 -20
 2844 0e62 00       		.byte	0x0
 2845 0e63 1E       		.uleb128 0x1e
 2846 0e64 01       		.byte	0x1
 2847 0e65 FC0C0000 		.4byte	.LASF258
 2848 0e69 01       		.byte	0x1
 2849 0e6a 89       		.byte	0x89
 2850 0e6b 01       		.byte	0x1
 2851 0e6c E9090000 		.4byte	0x9e9
 2852 0e70 00000000 		.4byte	.LFB6
 2853 0e74 70010000 		.4byte	.LFE6
 2854 0e78 54000000 		.4byte	.LLST2
 2855 0e7c C70E0000 		.4byte	0xec7
 2856 0e80 1D       		.uleb128 0x1d
 2857 0e81 1F0A0000 		.4byte	.LASF259
 2858 0e85 01       		.byte	0x1
 2859 0e86 89       		.byte	0x89
 2860 0e87 F3090000 		.4byte	0x9f3
 2861 0e8b 02       		.byte	0x2
 2862 0e8c 91       		.byte	0x91
 2863 0e8d 5C       		.sleb128 -36
 2864 0e8e 1D       		.uleb128 0x1d
 2865 0e8f CF070000 		.4byte	.LASF260
 2866 0e93 01       		.byte	0x1
 2867 0e94 89       		.byte	0x89
 2868 0e95 DE090000 		.4byte	0x9de
 2869 0e99 02       		.byte	0x2
 2870 0e9a 91       		.byte	0x91
 2871 0e9b 5A       		.sleb128 -38
 2872 0e9c 1F       		.uleb128 0x1f
 2873 0e9d 74737600 		.ascii	"tsv\000"
 2874 0ea1 01       		.byte	0x1
 2875 0ea2 8A       		.byte	0x8a
 2876 0ea3 C70E0000 		.4byte	0xec7
 2877 0ea7 02       		.byte	0x2
 2878 0ea8 91       		.byte	0x91
ARM GAS  /tmp/ccvvV6V2.s 			page 55


 2879 0ea9 67       		.sleb128 -25
 2880 0eaa 1F       		.uleb128 0x1f
 2881 0eab 61757800 		.ascii	"aux\000"
 2882 0eaf 01       		.byte	0x1
 2883 0eb0 8A       		.byte	0x8a
 2884 0eb1 E9090000 		.4byte	0x9e9
 2885 0eb5 02       		.byte	0x2
 2886 0eb6 91       		.byte	0x91
 2887 0eb7 6E       		.sleb128 -18
 2888 0eb8 20       		.uleb128 0x20
 2889 0eb9 F60C0000 		.4byte	.LASF261
 2890 0ebd 01       		.byte	0x1
 2891 0ebe 8B       		.byte	0x8b
 2892 0ebf E9090000 		.4byte	0x9e9
 2893 0ec3 02       		.byte	0x2
 2894 0ec4 91       		.byte	0x91
 2895 0ec5 6F       		.sleb128 -17
 2896 0ec6 00       		.byte	0x0
 2897 0ec7 14       		.uleb128 0x14
 2898 0ec8 E9090000 		.4byte	0x9e9
 2899 0ecc D70E0000 		.4byte	0xed7
 2900 0ed0 15       		.uleb128 0x15
 2901 0ed1 74060000 		.4byte	0x674
 2902 0ed5 06       		.byte	0x6
 2903 0ed6 00       		.byte	0x0
 2904 0ed7 1C       		.uleb128 0x1c
 2905 0ed8 90070000 		.4byte	.LASF263
 2906 0edc 01       		.byte	0x1
 2907 0edd 76       		.byte	0x76
 2908 0ede 01       		.byte	0x1
 2909 0edf 00000000 		.4byte	.LFB4
 2910 0ee3 9C000000 		.4byte	.LFE4
 2911 0ee7 7E000000 		.4byte	.LLST3
 2912 0eeb 1A0F0000 		.4byte	0xf1a
 2913 0eef 1D       		.uleb128 0x1d
 2914 0ef0 1F0A0000 		.4byte	.LASF259
 2915 0ef4 01       		.byte	0x1
 2916 0ef5 76       		.byte	0x76
 2917 0ef6 F3090000 		.4byte	0x9f3
 2918 0efa 02       		.byte	0x2
 2919 0efb 91       		.byte	0x91
 2920 0efc 64       		.sleb128 -28
 2921 0efd 1D       		.uleb128 0x1d
 2922 0efe CF070000 		.4byte	.LASF260
 2923 0f02 01       		.byte	0x1
 2924 0f03 76       		.byte	0x76
 2925 0f04 DE090000 		.4byte	0x9de
 2926 0f08 02       		.byte	0x2
 2927 0f09 91       		.byte	0x91
 2928 0f0a 62       		.sleb128 -30
 2929 0f0b 20       		.uleb128 0x20
 2930 0f0c 06010000 		.4byte	.LASF264
 2931 0f10 01       		.byte	0x1
 2932 0f11 77       		.byte	0x77
 2933 0f12 E9090000 		.4byte	0x9e9
 2934 0f16 02       		.byte	0x2
 2935 0f17 91       		.byte	0x91
ARM GAS  /tmp/ccvvV6V2.s 			page 56


 2936 0f18 6F       		.sleb128 -17
 2937 0f19 00       		.byte	0x0
 2938 0f1a 21       		.uleb128 0x21
 2939 0f1b DB070000 		.4byte	.LASF277
 2940 0f1f 01       		.byte	0x1
 2941 0f20 7E       		.byte	0x7e
 2942 0f21 00000000 		.4byte	.LFB5
 2943 0f25 48000000 		.4byte	.LFE5
 2944 0f29 A8000000 		.4byte	.LLST4
 2945 0f2d 1E       		.uleb128 0x1e
 2946 0f2e 01       		.byte	0x1
 2947 0f2f B2030000 		.4byte	.LASF265
 2948 0f33 01       		.byte	0x1
 2949 0f34 A5       		.byte	0xa5
 2950 0f35 01       		.byte	0x1
 2951 0f36 D3090000 		.4byte	0x9d3
 2952 0f3a 00000000 		.4byte	.LFB7
 2953 0f3e 64010000 		.4byte	.LFE7
 2954 0f42 D2000000 		.4byte	.LLST5
 2955 0f46 AD0F0000 		.4byte	0xfad
 2956 0f4a 1D       		.uleb128 0x1d
 2957 0f4b 80000000 		.4byte	.LASF266
 2958 0f4f 01       		.byte	0x1
 2959 0f50 A5       		.byte	0xa5
 2960 0f51 F3090000 		.4byte	0x9f3
 2961 0f55 02       		.byte	0x2
 2962 0f56 91       		.byte	0x91
 2963 0f57 54       		.sleb128 -44
 2964 0f58 1D       		.uleb128 0x1d
 2965 0f59 D0020000 		.4byte	.LASF267
 2966 0f5d 01       		.byte	0x1
 2967 0f5e A5       		.byte	0xa5
 2968 0f5f D3090000 		.4byte	0x9d3
 2969 0f63 02       		.byte	0x2
 2970 0f64 91       		.byte	0x91
 2971 0f65 50       		.sleb128 -48
 2972 0f66 20       		.uleb128 0x20
 2973 0f67 85040000 		.4byte	.LASF268
 2974 0f6b 01       		.byte	0x1
 2975 0f6c A6       		.byte	0xa6
 2976 0f6d D3090000 		.4byte	0x9d3
 2977 0f71 02       		.byte	0x2
 2978 0f72 91       		.byte	0x91
 2979 0f73 64       		.sleb128 -28
 2980 0f74 1F       		.uleb128 0x1f
 2981 0f75 72737600 		.ascii	"rsv\000"
 2982 0f79 01       		.byte	0x1
 2983 0f7a A7       		.byte	0xa7
 2984 0f7b AD0F0000 		.4byte	0xfad
 2985 0f7f 02       		.byte	0x2
 2986 0f80 91       		.byte	0x91
 2987 0f81 60       		.sleb128 -32
 2988 0f82 20       		.uleb128 0x20
 2989 0f83 CF070000 		.4byte	.LASF260
 2990 0f87 01       		.byte	0x1
 2991 0f88 A8       		.byte	0xa8
 2992 0f89 D3090000 		.4byte	0x9d3
ARM GAS  /tmp/ccvvV6V2.s 			page 57


 2993 0f8d 02       		.byte	0x2
 2994 0f8e 91       		.byte	0x91
 2995 0f8f 68       		.sleb128 -24
 2996 0f90 20       		.uleb128 0x20
 2997 0f91 3C090000 		.4byte	.LASF269
 2998 0f95 01       		.byte	0x1
 2999 0f96 A9       		.byte	0xa9
 3000 0f97 DE090000 		.4byte	0x9de
 3001 0f9b 02       		.byte	0x2
 3002 0f9c 91       		.byte	0x91
 3003 0f9d 5E       		.sleb128 -34
 3004 0f9e 20       		.uleb128 0x20
 3005 0f9f 48050000 		.4byte	.LASF270
 3006 0fa3 01       		.byte	0x1
 3007 0fa4 AA       		.byte	0xaa
 3008 0fa5 D3090000 		.4byte	0x9d3
 3009 0fa9 02       		.byte	0x2
 3010 0faa 91       		.byte	0x91
 3011 0fab 6C       		.sleb128 -20
 3012 0fac 00       		.byte	0x0
 3013 0fad 14       		.uleb128 0x14
 3014 0fae E9090000 		.4byte	0x9e9
 3015 0fb2 BD0F0000 		.4byte	0xfbd
 3016 0fb6 15       		.uleb128 0x15
 3017 0fb7 74060000 		.4byte	0x674
 3018 0fbb 03       		.byte	0x3
 3019 0fbc 00       		.byte	0x0
 3020 0fbd 20       		.uleb128 0x20
 3021 0fbe 75070000 		.4byte	.LASF271
 3022 0fc2 01       		.byte	0x1
 3023 0fc3 1D       		.byte	0x1d
 3024 0fc4 FF0D0000 		.4byte	0xdff
 3025 0fc8 05       		.byte	0x5
 3026 0fc9 03       		.byte	0x3
 3027 0fca 00000000 		.4byte	ethDevice
 3028 0fce 22       		.uleb128 0x22
 3029 0fcf 2A030000 		.4byte	.LASF272
 3030 0fd3 06       		.byte	0x6
 3031 0fd4 65       		.byte	0x65
 3032 0fd5 60090000 		.4byte	0x960
 3033 0fd9 01       		.byte	0x1
 3034 0fda 01       		.byte	0x1
 3035 0fdb 23       		.uleb128 0x23
 3036 0fdc 300B0000 		.4byte	.LASF273
 3037 0fe0 01       		.byte	0x1
 3038 0fe1 29       		.byte	0x29
 3039 0fe2 C8090000 		.4byte	0x9c8
 3040 0fe6 01       		.byte	0x1
 3041 0fe7 05       		.byte	0x5
 3042 0fe8 03       		.byte	0x3
 3043 0fe9 00000000 		.4byte	spi_enc28j60_dev
 3044 0fed 00       		.byte	0x0
 3045              		.section	.debug_abbrev
 3046 0000 01       		.uleb128 0x1
 3047 0001 11       		.uleb128 0x11
 3048 0002 01       		.byte	0x1
 3049 0003 25       		.uleb128 0x25
ARM GAS  /tmp/ccvvV6V2.s 			page 58


 3050 0004 0E       		.uleb128 0xe
 3051 0005 13       		.uleb128 0x13
 3052 0006 0B       		.uleb128 0xb
 3053 0007 03       		.uleb128 0x3
 3054 0008 0E       		.uleb128 0xe
 3055 0009 1B       		.uleb128 0x1b
 3056 000a 0E       		.uleb128 0xe
 3057 000b 11       		.uleb128 0x11
 3058 000c 01       		.uleb128 0x1
 3059 000d 52       		.uleb128 0x52
 3060 000e 01       		.uleb128 0x1
 3061 000f 55       		.uleb128 0x55
 3062 0010 06       		.uleb128 0x6
 3063 0011 10       		.uleb128 0x10
 3064 0012 06       		.uleb128 0x6
 3065 0013 00       		.byte	0x0
 3066 0014 00       		.byte	0x0
 3067 0015 02       		.uleb128 0x2
 3068 0016 24       		.uleb128 0x24
 3069 0017 00       		.byte	0x0
 3070 0018 0B       		.uleb128 0xb
 3071 0019 0B       		.uleb128 0xb
 3072 001a 3E       		.uleb128 0x3e
 3073 001b 0B       		.uleb128 0xb
 3074 001c 03       		.uleb128 0x3
 3075 001d 08       		.uleb128 0x8
 3076 001e 00       		.byte	0x0
 3077 001f 00       		.byte	0x0
 3078 0020 03       		.uleb128 0x3
 3079 0021 24       		.uleb128 0x24
 3080 0022 00       		.byte	0x0
 3081 0023 0B       		.uleb128 0xb
 3082 0024 0B       		.uleb128 0xb
 3083 0025 3E       		.uleb128 0x3e
 3084 0026 0B       		.uleb128 0xb
 3085 0027 03       		.uleb128 0x3
 3086 0028 0E       		.uleb128 0xe
 3087 0029 00       		.byte	0x0
 3088 002a 00       		.byte	0x0
 3089 002b 04       		.uleb128 0x4
 3090 002c 16       		.uleb128 0x16
 3091 002d 00       		.byte	0x0
 3092 002e 03       		.uleb128 0x3
 3093 002f 0E       		.uleb128 0xe
 3094 0030 3A       		.uleb128 0x3a
 3095 0031 0B       		.uleb128 0xb
 3096 0032 3B       		.uleb128 0x3b
 3097 0033 0B       		.uleb128 0xb
 3098 0034 49       		.uleb128 0x49
 3099 0035 13       		.uleb128 0x13
 3100 0036 00       		.byte	0x0
 3101 0037 00       		.byte	0x0
 3102 0038 05       		.uleb128 0x5
 3103 0039 35       		.uleb128 0x35
 3104 003a 00       		.byte	0x0
 3105 003b 49       		.uleb128 0x49
 3106 003c 13       		.uleb128 0x13
ARM GAS  /tmp/ccvvV6V2.s 			page 59


 3107 003d 00       		.byte	0x0
 3108 003e 00       		.byte	0x0
 3109 003f 06       		.uleb128 0x6
 3110 0040 16       		.uleb128 0x16
 3111 0041 00       		.byte	0x0
 3112 0042 03       		.uleb128 0x3
 3113 0043 0E       		.uleb128 0xe
 3114 0044 3A       		.uleb128 0x3a
 3115 0045 0B       		.uleb128 0xb
 3116 0046 3B       		.uleb128 0x3b
 3117 0047 05       		.uleb128 0x5
 3118 0048 49       		.uleb128 0x49
 3119 0049 13       		.uleb128 0x13
 3120 004a 00       		.byte	0x0
 3121 004b 00       		.byte	0x0
 3122 004c 07       		.uleb128 0x7
 3123 004d 13       		.uleb128 0x13
 3124 004e 01       		.byte	0x1
 3125 004f 03       		.uleb128 0x3
 3126 0050 0E       		.uleb128 0xe
 3127 0051 0B       		.uleb128 0xb
 3128 0052 0B       		.uleb128 0xb
 3129 0053 3A       		.uleb128 0x3a
 3130 0054 0B       		.uleb128 0xb
 3131 0055 3B       		.uleb128 0x3b
 3132 0056 0B       		.uleb128 0xb
 3133 0057 01       		.uleb128 0x1
 3134 0058 13       		.uleb128 0x13
 3135 0059 00       		.byte	0x0
 3136 005a 00       		.byte	0x0
 3137 005b 08       		.uleb128 0x8
 3138 005c 0D       		.uleb128 0xd
 3139 005d 00       		.byte	0x0
 3140 005e 03       		.uleb128 0x3
 3141 005f 0E       		.uleb128 0xe
 3142 0060 3A       		.uleb128 0x3a
 3143 0061 0B       		.uleb128 0xb
 3144 0062 3B       		.uleb128 0x3b
 3145 0063 05       		.uleb128 0x5
 3146 0064 49       		.uleb128 0x49
 3147 0065 13       		.uleb128 0x13
 3148 0066 38       		.uleb128 0x38
 3149 0067 0A       		.uleb128 0xa
 3150 0068 00       		.byte	0x0
 3151 0069 00       		.byte	0x0
 3152 006a 09       		.uleb128 0x9
 3153 006b 0D       		.uleb128 0xd
 3154 006c 00       		.byte	0x0
 3155 006d 03       		.uleb128 0x3
 3156 006e 0E       		.uleb128 0xe
 3157 006f 3A       		.uleb128 0x3a
 3158 0070 0B       		.uleb128 0xb
 3159 0071 3B       		.uleb128 0x3b
 3160 0072 0B       		.uleb128 0xb
 3161 0073 49       		.uleb128 0x49
 3162 0074 13       		.uleb128 0x13
 3163 0075 38       		.uleb128 0x38
ARM GAS  /tmp/ccvvV6V2.s 			page 60


 3164 0076 0A       		.uleb128 0xa
 3165 0077 00       		.byte	0x0
 3166 0078 00       		.byte	0x0
 3167 0079 0A       		.uleb128 0xa
 3168 007a 0D       		.uleb128 0xd
 3169 007b 00       		.byte	0x0
 3170 007c 03       		.uleb128 0x3
 3171 007d 08       		.uleb128 0x8
 3172 007e 3A       		.uleb128 0x3a
 3173 007f 0B       		.uleb128 0xb
 3174 0080 3B       		.uleb128 0x3b
 3175 0081 0B       		.uleb128 0xb
 3176 0082 49       		.uleb128 0x49
 3177 0083 13       		.uleb128 0x13
 3178 0084 38       		.uleb128 0x38
 3179 0085 0A       		.uleb128 0xa
 3180 0086 00       		.byte	0x0
 3181 0087 00       		.byte	0x0
 3182 0088 0B       		.uleb128 0xb
 3183 0089 0F       		.uleb128 0xf
 3184 008a 00       		.byte	0x0
 3185 008b 0B       		.uleb128 0xb
 3186 008c 0B       		.uleb128 0xb
 3187 008d 49       		.uleb128 0x49
 3188 008e 13       		.uleb128 0x13
 3189 008f 00       		.byte	0x0
 3190 0090 00       		.byte	0x0
 3191 0091 0C       		.uleb128 0xc
 3192 0092 15       		.uleb128 0x15
 3193 0093 01       		.byte	0x1
 3194 0094 27       		.uleb128 0x27
 3195 0095 0C       		.uleb128 0xc
 3196 0096 49       		.uleb128 0x49
 3197 0097 13       		.uleb128 0x13
 3198 0098 01       		.uleb128 0x1
 3199 0099 13       		.uleb128 0x13
 3200 009a 00       		.byte	0x0
 3201 009b 00       		.byte	0x0
 3202 009c 0D       		.uleb128 0xd
 3203 009d 05       		.uleb128 0x5
 3204 009e 00       		.byte	0x0
 3205 009f 49       		.uleb128 0x49
 3206 00a0 13       		.uleb128 0x13
 3207 00a1 00       		.byte	0x0
 3208 00a2 00       		.byte	0x0
 3209 00a3 0E       		.uleb128 0xe
 3210 00a4 15       		.uleb128 0x15
 3211 00a5 01       		.byte	0x1
 3212 00a6 27       		.uleb128 0x27
 3213 00a7 0C       		.uleb128 0xc
 3214 00a8 01       		.uleb128 0x1
 3215 00a9 13       		.uleb128 0x13
 3216 00aa 00       		.byte	0x0
 3217 00ab 00       		.byte	0x0
 3218 00ac 0F       		.uleb128 0xf
 3219 00ad 0F       		.uleb128 0xf
 3220 00ae 00       		.byte	0x0
ARM GAS  /tmp/ccvvV6V2.s 			page 61


 3221 00af 0B       		.uleb128 0xb
 3222 00b0 0B       		.uleb128 0xb
 3223 00b1 00       		.byte	0x0
 3224 00b2 00       		.byte	0x0
 3225 00b3 10       		.uleb128 0x10
 3226 00b4 13       		.uleb128 0x13
 3227 00b5 01       		.byte	0x1
 3228 00b6 0B       		.uleb128 0xb
 3229 00b7 0B       		.uleb128 0xb
 3230 00b8 3A       		.uleb128 0x3a
 3231 00b9 0B       		.uleb128 0xb
 3232 00ba 3B       		.uleb128 0x3b
 3233 00bb 0B       		.uleb128 0xb
 3234 00bc 01       		.uleb128 0x1
 3235 00bd 13       		.uleb128 0x13
 3236 00be 00       		.byte	0x0
 3237 00bf 00       		.byte	0x0
 3238 00c0 11       		.uleb128 0x11
 3239 00c1 13       		.uleb128 0x13
 3240 00c2 01       		.byte	0x1
 3241 00c3 0B       		.uleb128 0xb
 3242 00c4 0B       		.uleb128 0xb
 3243 00c5 3A       		.uleb128 0x3a
 3244 00c6 0B       		.uleb128 0xb
 3245 00c7 3B       		.uleb128 0x3b
 3246 00c8 05       		.uleb128 0x5
 3247 00c9 01       		.uleb128 0x1
 3248 00ca 13       		.uleb128 0x13
 3249 00cb 00       		.byte	0x0
 3250 00cc 00       		.byte	0x0
 3251 00cd 12       		.uleb128 0x12
 3252 00ce 04       		.uleb128 0x4
 3253 00cf 01       		.byte	0x1
 3254 00d0 0B       		.uleb128 0xb
 3255 00d1 0B       		.uleb128 0xb
 3256 00d2 3A       		.uleb128 0x3a
 3257 00d3 0B       		.uleb128 0xb
 3258 00d4 3B       		.uleb128 0x3b
 3259 00d5 05       		.uleb128 0x5
 3260 00d6 01       		.uleb128 0x1
 3261 00d7 13       		.uleb128 0x13
 3262 00d8 00       		.byte	0x0
 3263 00d9 00       		.byte	0x0
 3264 00da 13       		.uleb128 0x13
 3265 00db 28       		.uleb128 0x28
 3266 00dc 00       		.byte	0x0
 3267 00dd 03       		.uleb128 0x3
 3268 00de 0E       		.uleb128 0xe
 3269 00df 1C       		.uleb128 0x1c
 3270 00e0 0D       		.uleb128 0xd
 3271 00e1 00       		.byte	0x0
 3272 00e2 00       		.byte	0x0
 3273 00e3 14       		.uleb128 0x14
 3274 00e4 01       		.uleb128 0x1
 3275 00e5 01       		.byte	0x1
 3276 00e6 49       		.uleb128 0x49
 3277 00e7 13       		.uleb128 0x13
ARM GAS  /tmp/ccvvV6V2.s 			page 62


 3278 00e8 01       		.uleb128 0x1
 3279 00e9 13       		.uleb128 0x13
 3280 00ea 00       		.byte	0x0
 3281 00eb 00       		.byte	0x0
 3282 00ec 15       		.uleb128 0x15
 3283 00ed 21       		.uleb128 0x21
 3284 00ee 00       		.byte	0x0
 3285 00ef 49       		.uleb128 0x49
 3286 00f0 13       		.uleb128 0x13
 3287 00f1 2F       		.uleb128 0x2f
 3288 00f2 0B       		.uleb128 0xb
 3289 00f3 00       		.byte	0x0
 3290 00f4 00       		.byte	0x0
 3291 00f5 16       		.uleb128 0x16
 3292 00f6 24       		.uleb128 0x24
 3293 00f7 00       		.byte	0x0
 3294 00f8 0B       		.uleb128 0xb
 3295 00f9 0B       		.uleb128 0xb
 3296 00fa 3E       		.uleb128 0x3e
 3297 00fb 0B       		.uleb128 0xb
 3298 00fc 00       		.byte	0x0
 3299 00fd 00       		.byte	0x0
 3300 00fe 17       		.uleb128 0x17
 3301 00ff 26       		.uleb128 0x26
 3302 0100 00       		.byte	0x0
 3303 0101 49       		.uleb128 0x49
 3304 0102 13       		.uleb128 0x13
 3305 0103 00       		.byte	0x0
 3306 0104 00       		.byte	0x0
 3307 0105 18       		.uleb128 0x18
 3308 0106 26       		.uleb128 0x26
 3309 0107 00       		.byte	0x0
 3310 0108 00       		.byte	0x0
 3311 0109 00       		.byte	0x0
 3312 010a 19       		.uleb128 0x19
 3313 010b 16       		.uleb128 0x16
 3314 010c 00       		.byte	0x0
 3315 010d 03       		.uleb128 0x3
 3316 010e 08       		.uleb128 0x8
 3317 010f 3A       		.uleb128 0x3a
 3318 0110 0B       		.uleb128 0xb
 3319 0111 3B       		.uleb128 0x3b
 3320 0112 0B       		.uleb128 0xb
 3321 0113 49       		.uleb128 0x49
 3322 0114 13       		.uleb128 0x13
 3323 0115 00       		.byte	0x0
 3324 0116 00       		.byte	0x0
 3325 0117 1A       		.uleb128 0x1a
 3326 0118 04       		.uleb128 0x4
 3327 0119 01       		.byte	0x1
 3328 011a 0B       		.uleb128 0xb
 3329 011b 0B       		.uleb128 0xb
 3330 011c 3A       		.uleb128 0x3a
 3331 011d 0B       		.uleb128 0xb
 3332 011e 3B       		.uleb128 0x3b
 3333 011f 0B       		.uleb128 0xb
 3334 0120 01       		.uleb128 0x1
ARM GAS  /tmp/ccvvV6V2.s 			page 63


 3335 0121 13       		.uleb128 0x13
 3336 0122 00       		.byte	0x0
 3337 0123 00       		.byte	0x0
 3338 0124 1B       		.uleb128 0x1b
 3339 0125 28       		.uleb128 0x28
 3340 0126 00       		.byte	0x0
 3341 0127 03       		.uleb128 0x3
 3342 0128 08       		.uleb128 0x8
 3343 0129 1C       		.uleb128 0x1c
 3344 012a 0D       		.uleb128 0xd
 3345 012b 00       		.byte	0x0
 3346 012c 00       		.byte	0x0
 3347 012d 1C       		.uleb128 0x1c
 3348 012e 2E       		.uleb128 0x2e
 3349 012f 01       		.byte	0x1
 3350 0130 03       		.uleb128 0x3
 3351 0131 0E       		.uleb128 0xe
 3352 0132 3A       		.uleb128 0x3a
 3353 0133 0B       		.uleb128 0xb
 3354 0134 3B       		.uleb128 0x3b
 3355 0135 0B       		.uleb128 0xb
 3356 0136 27       		.uleb128 0x27
 3357 0137 0C       		.uleb128 0xc
 3358 0138 11       		.uleb128 0x11
 3359 0139 01       		.uleb128 0x1
 3360 013a 12       		.uleb128 0x12
 3361 013b 01       		.uleb128 0x1
 3362 013c 40       		.uleb128 0x40
 3363 013d 06       		.uleb128 0x6
 3364 013e 01       		.uleb128 0x1
 3365 013f 13       		.uleb128 0x13
 3366 0140 00       		.byte	0x0
 3367 0141 00       		.byte	0x0
 3368 0142 1D       		.uleb128 0x1d
 3369 0143 05       		.uleb128 0x5
 3370 0144 00       		.byte	0x0
 3371 0145 03       		.uleb128 0x3
 3372 0146 0E       		.uleb128 0xe
 3373 0147 3A       		.uleb128 0x3a
 3374 0148 0B       		.uleb128 0xb
 3375 0149 3B       		.uleb128 0x3b
 3376 014a 0B       		.uleb128 0xb
 3377 014b 49       		.uleb128 0x49
 3378 014c 13       		.uleb128 0x13
 3379 014d 02       		.uleb128 0x2
 3380 014e 0A       		.uleb128 0xa
 3381 014f 00       		.byte	0x0
 3382 0150 00       		.byte	0x0
 3383 0151 1E       		.uleb128 0x1e
 3384 0152 2E       		.uleb128 0x2e
 3385 0153 01       		.byte	0x1
 3386 0154 3F       		.uleb128 0x3f
 3387 0155 0C       		.uleb128 0xc
 3388 0156 03       		.uleb128 0x3
 3389 0157 0E       		.uleb128 0xe
 3390 0158 3A       		.uleb128 0x3a
 3391 0159 0B       		.uleb128 0xb
ARM GAS  /tmp/ccvvV6V2.s 			page 64


 3392 015a 3B       		.uleb128 0x3b
 3393 015b 0B       		.uleb128 0xb
 3394 015c 27       		.uleb128 0x27
 3395 015d 0C       		.uleb128 0xc
 3396 015e 49       		.uleb128 0x49
 3397 015f 13       		.uleb128 0x13
 3398 0160 11       		.uleb128 0x11
 3399 0161 01       		.uleb128 0x1
 3400 0162 12       		.uleb128 0x12
 3401 0163 01       		.uleb128 0x1
 3402 0164 40       		.uleb128 0x40
 3403 0165 06       		.uleb128 0x6
 3404 0166 01       		.uleb128 0x1
 3405 0167 13       		.uleb128 0x13
 3406 0168 00       		.byte	0x0
 3407 0169 00       		.byte	0x0
 3408 016a 1F       		.uleb128 0x1f
 3409 016b 34       		.uleb128 0x34
 3410 016c 00       		.byte	0x0
 3411 016d 03       		.uleb128 0x3
 3412 016e 08       		.uleb128 0x8
 3413 016f 3A       		.uleb128 0x3a
 3414 0170 0B       		.uleb128 0xb
 3415 0171 3B       		.uleb128 0x3b
 3416 0172 0B       		.uleb128 0xb
 3417 0173 49       		.uleb128 0x49
 3418 0174 13       		.uleb128 0x13
 3419 0175 02       		.uleb128 0x2
 3420 0176 0A       		.uleb128 0xa
 3421 0177 00       		.byte	0x0
 3422 0178 00       		.byte	0x0
 3423 0179 20       		.uleb128 0x20
 3424 017a 34       		.uleb128 0x34
 3425 017b 00       		.byte	0x0
 3426 017c 03       		.uleb128 0x3
 3427 017d 0E       		.uleb128 0xe
 3428 017e 3A       		.uleb128 0x3a
 3429 017f 0B       		.uleb128 0xb
 3430 0180 3B       		.uleb128 0x3b
 3431 0181 0B       		.uleb128 0xb
 3432 0182 49       		.uleb128 0x49
 3433 0183 13       		.uleb128 0x13
 3434 0184 02       		.uleb128 0x2
 3435 0185 0A       		.uleb128 0xa
 3436 0186 00       		.byte	0x0
 3437 0187 00       		.byte	0x0
 3438 0188 21       		.uleb128 0x21
 3439 0189 2E       		.uleb128 0x2e
 3440 018a 00       		.byte	0x0
 3441 018b 03       		.uleb128 0x3
 3442 018c 0E       		.uleb128 0xe
 3443 018d 3A       		.uleb128 0x3a
 3444 018e 0B       		.uleb128 0xb
 3445 018f 3B       		.uleb128 0x3b
 3446 0190 0B       		.uleb128 0xb
 3447 0191 11       		.uleb128 0x11
 3448 0192 01       		.uleb128 0x1
ARM GAS  /tmp/ccvvV6V2.s 			page 65


 3449 0193 12       		.uleb128 0x12
 3450 0194 01       		.uleb128 0x1
 3451 0195 40       		.uleb128 0x40
 3452 0196 06       		.uleb128 0x6
 3453 0197 00       		.byte	0x0
 3454 0198 00       		.byte	0x0
 3455 0199 22       		.uleb128 0x22
 3456 019a 34       		.uleb128 0x34
 3457 019b 00       		.byte	0x0
 3458 019c 03       		.uleb128 0x3
 3459 019d 0E       		.uleb128 0xe
 3460 019e 3A       		.uleb128 0x3a
 3461 019f 0B       		.uleb128 0xb
 3462 01a0 3B       		.uleb128 0x3b
 3463 01a1 0B       		.uleb128 0xb
 3464 01a2 49       		.uleb128 0x49
 3465 01a3 13       		.uleb128 0x13
 3466 01a4 3F       		.uleb128 0x3f
 3467 01a5 0C       		.uleb128 0xc
 3468 01a6 3C       		.uleb128 0x3c
 3469 01a7 0C       		.uleb128 0xc
 3470 01a8 00       		.byte	0x0
 3471 01a9 00       		.byte	0x0
 3472 01aa 23       		.uleb128 0x23
 3473 01ab 34       		.uleb128 0x34
 3474 01ac 00       		.byte	0x0
 3475 01ad 03       		.uleb128 0x3
 3476 01ae 0E       		.uleb128 0xe
 3477 01af 3A       		.uleb128 0x3a
 3478 01b0 0B       		.uleb128 0xb
 3479 01b1 3B       		.uleb128 0x3b
 3480 01b2 0B       		.uleb128 0xb
 3481 01b3 49       		.uleb128 0x49
 3482 01b4 13       		.uleb128 0x13
 3483 01b5 3F       		.uleb128 0x3f
 3484 01b6 0C       		.uleb128 0xc
 3485 01b7 02       		.uleb128 0x2
 3486 01b8 0A       		.uleb128 0xa
 3487 01b9 00       		.byte	0x0
 3488 01ba 00       		.byte	0x0
 3489 01bb 00       		.byte	0x0
 3490              		.section	.debug_pubnames,"",%progbits
 3491 0000 5C000000 		.4byte	0x5c
 3492 0004 0200     		.2byte	0x2
 3493 0006 00000000 		.4byte	.Ldebug_info0
 3494 000a EE0F0000 		.4byte	0xfee
 3495 000e 370E0000 		.4byte	0xe37
 3496 0012 45746865 		.ascii	"Ethernet_init\000"
 3496      726E6574 
 3496      5F696E69 
 3496      7400
 3497 0020 630E0000 		.4byte	0xe63
 3498 0024 45746865 		.ascii	"Ethernet_send\000"
 3498      726E6574 
 3498      5F73656E 
 3498      6400
 3499 0032 2D0F0000 		.4byte	0xf2d
ARM GAS  /tmp/ccvvV6V2.s 			page 66


 3500 0036 45746865 		.ascii	"Ethernet_receive\000"
 3500      726E6574 
 3500      5F726563 
 3500      65697665 
 3500      00
 3501 0047 DB0F0000 		.4byte	0xfdb
 3502 004b 7370695F 		.ascii	"spi_enc28j60_dev\000"
 3502      656E6332 
 3502      386A3630 
 3502      5F646576 
 3502      00
 3503 005c 00000000 		.4byte	0x0
 3504              		.section	.debug_aranges,"",%progbits
 3505 0000 44000000 		.4byte	0x44
 3506 0004 0200     		.2byte	0x2
 3507 0006 00000000 		.4byte	.Ldebug_info0
 3508 000a 04       		.byte	0x4
 3509 000b 00       		.byte	0x0
 3510 000c 0000     		.2byte	0x0
 3511 000e 0000     		.2byte	0x0
 3512 0010 00000000 		.4byte	.LFB2
 3513 0014 50000000 		.4byte	.LFE2-.LFB2
 3514 0018 00000000 		.4byte	.LFB3
 3515 001c E0020000 		.4byte	.LFE3-.LFB3
 3516 0020 00000000 		.4byte	.LFB6
 3517 0024 70010000 		.4byte	.LFE6-.LFB6
 3518 0028 00000000 		.4byte	.LFB4
 3519 002c 9C000000 		.4byte	.LFE4-.LFB4
 3520 0030 00000000 		.4byte	.LFB5
 3521 0034 48000000 		.4byte	.LFE5-.LFB5
 3522 0038 00000000 		.4byte	.LFB7
 3523 003c 64010000 		.4byte	.LFE7-.LFB7
 3524 0040 00000000 		.4byte	0x0
 3525 0044 00000000 		.4byte	0x0
 3526              		.section	.debug_ranges,"",%progbits
 3527              	.Ldebug_ranges0:
 3528 0000 00000000 		.4byte	.Ltext0
 3529 0004 00000000 		.4byte	.Letext0
 3530 0008 00000000 		.4byte	.LFB2
 3531 000c 50000000 		.4byte	.LFE2
 3532 0010 00000000 		.4byte	.LFB3
 3533 0014 E0020000 		.4byte	.LFE3
 3534 0018 00000000 		.4byte	.LFB6
 3535 001c 70010000 		.4byte	.LFE6
 3536 0020 00000000 		.4byte	.LFB4
 3537 0024 9C000000 		.4byte	.LFE4
 3538 0028 00000000 		.4byte	.LFB5
 3539 002c 48000000 		.4byte	.LFE5
 3540 0030 00000000 		.4byte	.LFB7
 3541 0034 64010000 		.4byte	.LFE7
 3542 0038 00000000 		.4byte	0x0
 3543 003c 00000000 		.4byte	0x0
 3544              		.section	.debug_str,"MS",%progbits,1
 3545              	.LASF195:
 3546 0000 42335F45 		.ascii	"B3_EBSTSD\000"
 3546      42535453 
 3546      4400
ARM GAS  /tmp/ccvvV6V2.s 			page 67


 3547              	.LASF55:
 3548 000a 6E657874 		.ascii	"next_dsr\000"
 3548      5F647372 
 3548      00
 3549              	.LASF63:
 3550 0013 696E7465 		.ascii	"interval\000"
 3550      7276616C 
 3550      00
 3551              	.LASF49:
 3552 001c 6E616D65 		.ascii	"name\000"
 3552      00
 3553              	.LASF146:
 3554 0021 42305F45 		.ascii	"B0_EDMANDH\000"
 3554      444D414E 
 3554      444800
 3555              	.LASF176:
 3556 002c 42325F4D 		.ascii	"B2_MABBIPG\000"
 3556      41424249 
 3556      504700
 3557              	.LASF234:
 3558 0037 4D41434F 		.ascii	"MACON3_PADCFG1\000"
 3558      4E335F50 
 3558      41444346 
 3558      473100
 3559              	.LASF145:
 3560 0046 42305F45 		.ascii	"B0_EDMANDL\000"
 3560      444D414E 
 3560      444C00
 3561              	.LASF13:
 3562 0051 6379675F 		.ascii	"cyg_count32\000"
 3562      636F756E 
 3562      74333200 
 3563              	.LASF29:
 3564 005d 656E7472 		.ascii	"entry_point\000"
 3564      795F706F 
 3564      696E7400 
 3565              	.LASF275:
 3566 0069 45746865 		.ascii	"Ethernet.c\000"
 3566      726E6574 
 3566      2E6300
 3567              	.LASF217:
 3568 0074 45434F4E 		.ascii	"ECON2_PWRSV\000"
 3568      325F5057 
 3568      52535600 
 3569              	.LASF266:
 3570 0080 62756666 		.ascii	"buffer\000"
 3570      657200
 3571              	.LASF249:
 3572 0087 45544845 		.ascii	"ETHERNET_SPI_INIT_ERROR\000"
 3572      524E4554 
 3572      5F535049 
 3572      5F494E49 
 3572      545F4552 
 3573              	.LASF159:
 3574 009f 42315F45 		.ascii	"B1_EPMM0\000"
 3574      504D4D30 
 3574      00
ARM GAS  /tmp/ccvvV6V2.s 			page 68


 3575              	.LASF160:
 3576 00a8 42315F45 		.ascii	"B1_EPMM1\000"
 3576      504D4D31 
 3576      00
 3577              	.LASF103:
 3578 00b1 7370695F 		.ascii	"spi_dev\000"
 3578      64657600 
 3579              	.LASF147:
 3580 00b9 42305F45 		.ascii	"B0_EDMADST\000"
 3580      444D4144 
 3580      535400
 3581              	.LASF109:
 3582 00c4 7370695F 		.ascii	"spi_intr\000"
 3582      696E7472 
 3582      00
 3583              	.LASF165:
 3584 00cd 42315F45 		.ascii	"B1_EPMM6\000"
 3584      504D4D36 
 3584      00
 3585              	.LASF144:
 3586 00d6 42305F45 		.ascii	"B0_EDMASTH\000"
 3586      444D4153 
 3586      544800
 3587              	.LASF84:
 3588 00e1 4359475F 		.ascii	"CYG_REASON_BREAK\000"
 3588      52454153 
 3588      4F4E5F42 
 3588      5245414B 
 3588      00
 3589              	.LASF96:
 3590 00f2 7370695F 		.ascii	"spi_lock\000"
 3590      6C6F636B 
 3590      00
 3591              	.LASF143:
 3592 00fb 42305F45 		.ascii	"B0_EDMASTL\000"
 3592      444D4153 
 3592      544C00
 3593              	.LASF264:
 3594 0106 636F6E74 		.ascii	"control\000"
 3594      726F6C00 
 3595              	.LASF237:
 3596 010e 4D41434F 		.ascii	"MACON3_PHDREN\000"
 3596      4E335F50 
 3596      48445245 
 3596      4E00
 3597              	.LASF0:
 3598 011c 756E7369 		.ascii	"unsigned int\000"
 3598      676E6564 
 3598      20696E74 
 3598      00
 3599              	.LASF32:
 3600 0129 6E657874 		.ascii	"next\000"
 3600      00
 3601              	.LASF8:
 3602 012e 6379675F 		.ascii	"cyg_uint64\000"
 3602      75696E74 
 3602      363400
ARM GAS  /tmp/ccvvV6V2.s 			page 69


 3603              	.LASF43:
 3604 0139 77616974 		.ascii	"wait_info\000"
 3604      5F696E66 
 3604      6F00
 3605              	.LASF91:
 3606 0143 4359475F 		.ascii	"CYG_MUTEX_PROTOCOL_CEILING\000"
 3606      4D555445 
 3606      585F5052 
 3606      4F544F43 
 3606      4F4C5F43 
 3607              	.LASF179:
 3608 015e 42325F4D 		.ascii	"B2_MACLCON1\000"
 3608      41434C43 
 3608      4F4E3100 
 3609              	.LASF180:
 3610 016a 42325F4D 		.ascii	"B2_MACLCON2\000"
 3610      41434C43 
 3610      4F4E3200 
 3611              	.LASF11:
 3612 0176 6379675F 		.ascii	"cyg_bool\000"
 3612      626F6F6C 
 3612      00
 3613              	.LASF198:
 3614 017f 42335F45 		.ascii	"B3_EBSTCSH\000"
 3614      42535443 
 3614      534800
 3615              	.LASF197:
 3616 018a 42335F45 		.ascii	"B3_EBSTCSL\000"
 3616      42535443 
 3616      534C00
 3617              	.LASF174:
 3618 0195 42325F4D 		.ascii	"B2_MACON3\000"
 3618      41434F4E 
 3618      3300
 3619              	.LASF185:
 3620 019f 42325F4D 		.ascii	"B2_MIWRL\000"
 3620      4957524C 
 3620      00
 3621              	.LASF184:
 3622 01a8 42325F4D 		.ascii	"B2_MIREGADR\000"
 3622      49524547 
 3622      41445200 
 3623              	.LASF24:
 3624 01b4 6379675F 		.ascii	"cyg_thread\000"
 3624      74687265 
 3624      616400
 3625              	.LASF6:
 3626 01bf 73686F72 		.ascii	"short int\000"
 3626      7420696E 
 3626      7400
 3627              	.LASF128:
 3628 01c9 42305F45 		.ascii	"B0_ERDPTH\000"
 3628      52445054 
 3628      4800
 3629              	.LASF46:
 3630 01d3 736C6565 		.ascii	"sleep_reason\000"
 3630      705F7265 
ARM GAS  /tmp/ccvvV6V2.s 			page 70


 3630      61736F6E 
 3630      00
 3631              	.LASF68:
 3632 01e0 70726F74 		.ascii	"protocol\000"
 3632      6F636F6C 
 3632      00
 3633              	.LASF48:
 3634 01e9 74687265 		.ascii	"thread_data\000"
 3634      61645F64 
 3634      61746100 
 3635              	.LASF204:
 3636 01f5 42335F45 		.ascii	"B3_EPAUSH\000"
 3636      50415553 
 3636      4800
 3637              	.LASF203:
 3638 01ff 42335F45 		.ascii	"B3_EPAUSL\000"
 3638      50415553 
 3638      4C00
 3639              	.LASF33:
 3640 0209 70726576 		.ascii	"prev\000"
 3640      00
 3641              	.LASF171:
 3642 020e 42315F45 		.ascii	"B1_ERXFCON\000"
 3642      52584643 
 3642      4F4E00
 3643              	.LASF42:
 3644 0219 77616B65 		.ascii	"wakeup_count\000"
 3644      75705F63 
 3644      6F756E74 
 3644      00
 3645              	.LASF230:
 3646 0226 4D41434F 		.ascii	"MACON1_RXPAUS\000"
 3646      4E315F52 
 3646      58504155 
 3646      5300
 3647              	.LASF17:
 3648 0234 4359475F 		.ascii	"CYG_ADDRESS\000"
 3648      41444452 
 3648      45535300 
 3649              	.LASF132:
 3650 0240 42305F45 		.ascii	"B0_ETXSTH\000"
 3650      54585354 
 3650      4800
 3651              	.LASF242:
 3652 024a 4D41434F 		.ascii	"MACON4_BPEN\000"
 3652      4E345F42 
 3652      50454E00 
 3653              	.LASF131:
 3654 0256 42305F45 		.ascii	"B0_ETXSTL\000"
 3654      54585354 
 3654      4C00
 3655              	.LASF83:
 3656 0260 4359475F 		.ascii	"CYG_REASON_TIMEOUT\000"
 3656      52454153 
 3656      4F4E5F54 
 3656      494D454F 
 3656      555400
ARM GAS  /tmp/ccvvV6V2.s 			page 71


 3657              	.LASF247:
 3658 0273 45544845 		.ascii	"ETHERNET_PACKET_TOO_LONG\000"
 3658      524E4554 
 3658      5F504143 
 3658      4B45545F 
 3658      544F4F5F 
 3659              	.LASF168:
 3660 028c 42315F45 		.ascii	"B1_EPMCSH\000"
 3660      504D4353 
 3660      4800
 3661              	.LASF218:
 3662 0296 45434F4E 		.ascii	"ECON2_RESERVED\000"
 3662      325F5245 
 3662      53455256 
 3662      454400
 3663              	.LASF167:
 3664 02a5 42315F45 		.ascii	"B1_EPMCSL\000"
 3664      504D4353 
 3664      4C00
 3665              	.LASF15:
 3666 02af 4359475F 		.ascii	"CYG_WORD16\000"
 3666      574F5244 
 3666      313600
 3667              	.LASF207:
 3668 02ba 45434F4E 		.ascii	"ECON1\000"
 3668      3100
 3669              	.LASF206:
 3670 02c0 45434F4E 		.ascii	"ECON2\000"
 3670      3200
 3671              	.LASF199:
 3672 02c6 42335F4D 		.ascii	"B3_MISTAT\000"
 3672      49535441 
 3672      5400
 3673              	.LASF267:
 3674 02d0 62756666 		.ascii	"buffer_size\000"
 3674      65725F73 
 3674      697A6500 
 3675              	.LASF16:
 3676 02dc 4359475F 		.ascii	"CYG_WORD32\000"
 3676      574F5244 
 3676      333200
 3677              	.LASF140:
 3678 02e7 42305F45 		.ascii	"B0_ERXRDPTH\000"
 3678      52585244 
 3678      50544800 
 3679              	.LASF139:
 3680 02f3 42305F45 		.ascii	"B0_ERXRDPTL\000"
 3680      52585244 
 3680      50544C00 
 3681              	.LASF35:
 3682 02ff 74696D65 		.ascii	"timeslice_count\000"
 3682      736C6963 
 3682      655F636F 
 3682      756E7400 
 3683              	.LASF221:
 3684 030f 45434F4E 		.ascii	"ECON1_TXRST\000"
 3684      315F5458 
ARM GAS  /tmp/ccvvV6V2.s 			page 72


 3684      52535400 
 3685              	.LASF233:
 3686 031b 4D41434F 		.ascii	"MACON3_PADCFG2\000"
 3686      4E335F50 
 3686      41444346 
 3686      473200
 3687              	.LASF272:
 3688 032a 6379675F 		.ascii	"cyg_spi_lpc2xxx_bus0\000"
 3688      7370695F 
 3688      6C706332 
 3688      7878785F 
 3688      62757330 
 3689              	.LASF93:
 3690 033f 6379675F 		.ascii	"cyg_spi_device\000"
 3690      7370695F 
 3690      64657669 
 3690      636500
 3691              	.LASF170:
 3692 034e 42315F45 		.ascii	"B1_EPMOH\000"
 3692      504D4F48 
 3692      00
 3693              	.LASF187:
 3694 0357 42325F4D 		.ascii	"B2_MIRDL\000"
 3694      4952444C 
 3694      00
 3695              	.LASF71:
 3696 0360 6D757465 		.ascii	"mutex\000"
 3696      7800
 3697              	.LASF169:
 3698 0366 42315F45 		.ascii	"B1_EPMOL\000"
 3698      504D4F4C 
 3698      00
 3699              	.LASF92:
 3700 036f 6379675F 		.ascii	"cyg_mutex_protocol_t\000"
 3700      6D757465 
 3700      785F7072 
 3700      6F746F63 
 3700      6F6C5F74 
 3701              	.LASF56:
 3702 0384 6379675F 		.ascii	"cyg_counter\000"
 3702      636F756E 
 3702      74657200 
 3703              	.LASF95:
 3704 0390 6379675F 		.ascii	"cyg_spi_bus\000"
 3704      7370695F 
 3704      62757300 
 3705              	.LASF115:
 3706 039c 6379675F 		.ascii	"cyg_spi_lpc2xxx_bus_t\000"
 3706      7370695F 
 3706      6C706332 
 3706      7878785F 
 3706      6275735F 
 3707              	.LASF265:
 3708 03b2 45746865 		.ascii	"Ethernet_receive\000"
 3708      726E6574 
 3708      5F726563 
 3708      65697665 
ARM GAS  /tmp/ccvvV6V2.s 			page 73


 3708      00
 3709              	.LASF9:
 3710 03c3 6C6F6E67 		.ascii	"long long unsigned int\000"
 3710      206C6F6E 
 3710      6720756E 
 3710      7369676E 
 3710      65642069 
 3711              	.LASF52:
 3712 03da 76656374 		.ascii	"vector\000"
 3712      6F7200
 3713              	.LASF205:
 3714 03e1 45535441 		.ascii	"ESTAT\000"
 3714      5400
 3715              	.LASF113:
 3716 03e7 7370695F 		.ascii	"spi_wait\000"
 3716      77616974 
 3716      00
 3717              	.LASF225:
 3718 03f0 45434F4E 		.ascii	"ECON1_TXRTS\000"
 3718      315F5458 
 3718      52545300 
 3719              	.LASF240:
 3720 03fc 4D41434F 		.ascii	"MACON3_FULDPX\000"
 3720      4E335F46 
 3720      554C4450 
 3720      5800
 3721              	.LASF51:
 3722 040a 6379675F 		.ascii	"cyg_interrupt\000"
 3722      696E7465 
 3722      72727570 
 3722      7400
 3723              	.LASF201:
 3724 0418 42335F45 		.ascii	"B3_ECOCON\000"
 3724      434F434F 
 3724      4E00
 3725              	.LASF107:
 3726 0422 73706363 		.ascii	"spccr\000"
 3726      7200
 3727              	.LASF67:
 3728 0428 6F776E65 		.ascii	"owner\000"
 3728      7200
 3729              	.LASF208:
 3730 042e 4549525F 		.ascii	"EIR_PKTIF\000"
 3730      504B5449 
 3730      4600
 3731              	.LASF14:
 3732 0438 4359475F 		.ascii	"CYG_BYTE\000"
 3732      42595445 
 3732      00
 3733              	.LASF173:
 3734 0441 42325F4D 		.ascii	"B2_MACON1\000"
 3734      41434F4E 
 3734      3100
 3735              	.LASF23:
 3736 044b 6379675F 		.ascii	"cyg_tick_count_t\000"
 3736      7469636B 
 3736      5F636F75 
ARM GAS  /tmp/ccvvV6V2.s 			page 74


 3736      6E745F74 
 3736      00
 3737              	.LASF175:
 3738 045c 42325F4D 		.ascii	"B2_MACON4\000"
 3738      41434F4E 
 3738      3400
 3739              	.LASF58:
 3740 0466 636F756E 		.ascii	"counter\000"
 3740      74657200 
 3741              	.LASF94:
 3742 046e 7370695F 		.ascii	"spi_bus\000"
 3742      62757300 
 3743              	.LASF220:
 3744 0476 45434F4E 		.ascii	"ECON2_NOT_USED\000"
 3744      325F4E4F 
 3744      545F5553 
 3744      454400
 3745              	.LASF268:
 3746 0485 72656164 		.ascii	"read_size\000"
 3746      5F73697A 
 3746      6500
 3747              	.LASF193:
 3748 048f 42335F4D 		.ascii	"B3_MAADR1\000"
 3748      41414452 
 3748      3100
 3749              	.LASF194:
 3750 0499 42335F4D 		.ascii	"B3_MAADR2\000"
 3750      41414452 
 3750      3200
 3751              	.LASF191:
 3752 04a3 42335F4D 		.ascii	"B3_MAADR3\000"
 3752      41414452 
 3752      3300
 3753              	.LASF122:
 3754 04ad 6379675F 		.ascii	"cyg_spi_lpc2xxx_dev_t\000"
 3754      7370695F 
 3754      6C706332 
 3754      7878785F 
 3754      6465765F 
 3755              	.LASF189:
 3756 04c3 42335F4D 		.ascii	"B3_MAADR5\000"
 3756      41414452 
 3756      3500
 3757              	.LASF41:
 3758 04cd 73757370 		.ascii	"suspend_count\000"
 3758      656E645F 
 3758      636F756E 
 3758      7400
 3759              	.LASF215:
 3760 04db 45434F4E 		.ascii	"ECON2_AUTOINC\000"
 3760      325F4155 
 3760      544F494E 
 3760      4300
 3761              	.LASF214:
 3762 04e9 4549525F 		.ascii	"EIR_NOT_USED\000"
 3762      4E4F545F 
 3762      55534544 
ARM GAS  /tmp/ccvvV6V2.s 			page 75


 3762      00
 3763              	.LASF85:
 3764 04f6 4359475F 		.ascii	"CYG_REASON_DESTRUCT\000"
 3764      52454153 
 3764      4F4E5F44 
 3764      45535452 
 3764      55435400 
 3765              	.LASF59:
 3766 050a 696E6372 		.ascii	"increment\000"
 3766      656D656E 
 3766      7400
 3767              	.LASF108:
 3768 0514 7370696E 		.ascii	"spint\000"
 3768      7400
 3769              	.LASF37:
 3770 051a 6D757465 		.ascii	"mutex_count\000"
 3770      785F636F 
 3770      756E7400 
 3771              	.LASF227:
 3772 0526 45434F4E 		.ascii	"ECON1_BSEL1\000"
 3772      315F4253 
 3772      454C3100 
 3773              	.LASF97:
 3774 0532 7370695F 		.ascii	"spi_transaction_begin\000"
 3774      7472616E 
 3774      73616374 
 3774      696F6E5F 
 3774      62656769 
 3775              	.LASF270:
 3776 0548 6E62725F 		.ascii	"nbr_packets\000"
 3776      7061636B 
 3776      65747300 
 3777              	.LASF74:
 3778 0554 6379675F 		.ascii	"cyg_DSR_t\000"
 3778      4453525F 
 3778      7400
 3779              	.LASF47:
 3780 055e 77616B65 		.ascii	"wake_reason\000"
 3780      5F726561 
 3780      736F6E00 
 3781              	.LASF114:
 3782 056a 636F756E 		.ascii	"count\000"
 3782      7400
 3783              	.LASF75:
 3784 0570 6379675F 		.ascii	"cyg_alarm_t\000"
 3784      616C6172 
 3784      6D5F7400 
 3785              	.LASF72:
 3786 057c 63686172 		.ascii	"char\000"
 3786      00
 3787              	.LASF232:
 3788 0581 4D41434F 		.ascii	"MACON1_MARXEN\000"
 3788      4E315F4D 
 3788      41525845 
 3788      4E00
 3789              	.LASF116:
 3790 058f 7370695F 		.ascii	"spi_device\000"
ARM GAS  /tmp/ccvvV6V2.s 			page 76


 3790      64657669 
 3790      636500
 3791              	.LASF226:
 3792 059a 45434F4E 		.ascii	"ECON1_RXEN\000"
 3792      315F5258 
 3792      454E00
 3793              	.LASF100:
 3794 05a5 7370695F 		.ascii	"spi_transaction_end\000"
 3794      7472616E 
 3794      73616374 
 3794      696F6E5F 
 3794      656E6400 
 3795              	.LASF3:
 3796 05b9 6379675F 		.ascii	"cyg_uint8\000"
 3796      75696E74 
 3796      3800
 3797              	.LASF229:
 3798 05c3 4D41434F 		.ascii	"MACON1_TXPAUS\000"
 3798      4E315F54 
 3798      58504155 
 3798      5300
 3799              	.LASF53:
 3800 05d1 64617461 		.ascii	"data\000"
 3800      00
 3801              	.LASF216:
 3802 05d6 45434F4E 		.ascii	"ECON2_PKTDEC\000"
 3802      325F504B 
 3802      54444543 
 3802      00
 3803              	.LASF118:
 3804 05e3 7370695F 		.ascii	"spi_cpol\000"
 3804      63706F6C 
 3804      00
 3805              	.LASF80:
 3806 05ec 4359475F 		.ascii	"CYG_REASON_NONE\000"
 3806      52454153 
 3806      4F4E5F4E 
 3806      4F4E4500 
 3807              	.LASF130:
 3808 05fc 42305F45 		.ascii	"B0_EWRPTH\000"
 3808      57525054 
 3808      4800
 3809              	.LASF66:
 3810 0606 6C6F636B 		.ascii	"locked\000"
 3810      656400
 3811              	.LASF129:
 3812 060d 42305F45 		.ascii	"B0_EWRPTL\000"
 3812      57525054 
 3812      4C00
 3813              	.LASF182:
 3814 0617 42325F4D 		.ascii	"B2_MAMXFLH\000"
 3814      414D5846 
 3814      4C4800
 3815              	.LASF257:
 3816 0622 45746865 		.ascii	"Ethernet_init\000"
 3816      726E6574 
 3816      5F696E69 
ARM GAS  /tmp/ccvvV6V2.s 			page 77


 3816      7400
 3817              	.LASF213:
 3818 0630 4549525F 		.ascii	"EIR_RXERIF\000"
 3818      52584552 
 3818      494600
 3819              	.LASF200:
 3820 063b 42335F45 		.ascii	"B3_EREVID\000"
 3820      52455649 
 3820      4400
 3821              	.LASF254:
 3822 0645 6475706C 		.ascii	"duplex\000"
 3822      657800
 3823              	.LASF69:
 3824 064c 6365696C 		.ascii	"ceiling\000"
 3824      696E6700 
 3825              	.LASF10:
 3826 0654 6C6F6E67 		.ascii	"long long int\000"
 3826      206C6F6E 
 3826      6720696E 
 3826      7400
 3827              	.LASF57:
 3828 0662 616C6172 		.ascii	"alarm_list\000"
 3828      6D5F6C69 
 3828      737400
 3829              	.LASF210:
 3830 066d 4549525F 		.ascii	"EIR_LINKIF\000"
 3830      4C494E4B 
 3830      494600
 3831              	.LASF30:
 3832 0678 656E7472 		.ascii	"entry_data\000"
 3832      795F6461 
 3832      746100
 3833              	.LASF252:
 3834 0683 45544845 		.ascii	"ETHERNET_COM_SYSTEM\000"
 3834      524E4554 
 3834      5F434F4D 
 3834      5F535953 
 3834      54454D00 
 3835              	.LASF25:
 3836 0697 73746163 		.ascii	"stack_base\000"
 3836      6B5F6261 
 3836      736500
 3837              	.LASF61:
 3838 06a2 616C6172 		.ascii	"alarm\000"
 3838      6D00
 3839              	.LASF38:
 3840 06a8 6F726967 		.ascii	"original_priority\000"
 3840      696E616C 
 3840      5F707269 
 3840      6F726974 
 3840      7900
 3841              	.LASF172:
 3842 06ba 42315F45 		.ascii	"B1_EPKTCNT\000"
 3842      504B5443 
 3842      4E5400
 3843              	.LASF142:
 3844 06c5 42305F45 		.ascii	"B0_ERXWRPTH\000"
ARM GAS  /tmp/ccvvV6V2.s 			page 78


 3844      52585752 
 3844      50544800 
 3845              	.LASF99:
 3846 06d1 7370695F 		.ascii	"spi_transaction_tick\000"
 3846      7472616E 
 3846      73616374 
 3846      696F6E5F 
 3846      7469636B 
 3847              	.LASF141:
 3848 06e6 42305F45 		.ascii	"B0_ERXWRPTL\000"
 3848      52585752 
 3848      50544C00 
 3849              	.LASF70:
 3850 06f2 6379675F 		.ascii	"cyg_cond_t\000"
 3850      636F6E64 
 3850      5F7400
 3851              	.LASF158:
 3852 06fd 42315F45 		.ascii	"B1_EHT7\000"
 3852      48543700 
 3853              	.LASF27:
 3854 0705 73746163 		.ascii	"stack_limit\000"
 3854      6B5F6C69 
 3854      6D697400 
 3855              	.LASF98:
 3856 0711 7370695F 		.ascii	"spi_transaction_transfer\000"
 3856      7472616E 
 3856      73616374 
 3856      696F6E5F 
 3856      7472616E 
 3857              	.LASF243:
 3858 072a 4D41434F 		.ascii	"MACON4_NOBKOFF\000"
 3858      4E345F4E 
 3858      4F424B4F 
 3858      464600
 3859              	.LASF224:
 3860 0739 45434F4E 		.ascii	"ECON1_CSUMEN\000"
 3860      315F4353 
 3860      554D454E 
 3860      00
 3861              	.LASF12:
 3862 0746 6379675F 		.ascii	"cyg_ucount32\000"
 3862      75636F75 
 3862      6E743332 
 3862      00
 3863              	.LASF102:
 3864 0753 7370695F 		.ascii	"spi_set_config\000"
 3864      7365745F 
 3864      636F6E66 
 3864      696700
 3865              	.LASF137:
 3866 0762 42305F45 		.ascii	"B0_ERXNDL\000"
 3866      52584E44 
 3866      4C00
 3867              	.LASF119:
 3868 076c 7370695F 		.ascii	"spi_lsbf\000"
 3868      6C736266 
 3868      00
ARM GAS  /tmp/ccvvV6V2.s 			page 79


 3869              	.LASF271:
 3870 0775 65746844 		.ascii	"ethDevice\000"
 3870      65766963 
 3870      6500
 3871              	.LASF117:
 3872 077f 7370695F 		.ascii	"spi_cpha\000"
 3872      63706861 
 3872      00
 3873              	.LASF62:
 3874 0788 74726967 		.ascii	"trigger\000"
 3874      67657200 
 3875              	.LASF263:
 3876 0790 45746865 		.ascii	"Ethernet_prepare\000"
 3876      726E6574 
 3876      5F707265 
 3876      70617265 
 3876      00
 3877              	.LASF186:
 3878 07a1 42325F4D 		.ascii	"B2_MIWRH\000"
 3878      49575248 
 3878      00
 3879              	.LASF235:
 3880 07aa 4D41434F 		.ascii	"MACON3_PADCFG0\000"
 3880      4E335F50 
 3880      41444346 
 3880      473000
 3881              	.LASF44:
 3882 07b9 756E6971 		.ascii	"unique_id\000"
 3882      75655F69 
 3882      6400
 3883              	.LASF274:
 3884 07c3 474E5520 		.ascii	"GNU C 4.3.2\000"
 3884      4320342E 
 3884      332E3200 
 3885              	.LASF260:
 3886 07cf 7061636B 		.ascii	"packet_size\000"
 3886      65745F73 
 3886      697A6500 
 3887              	.LASF277:
 3888 07db 45746865 		.ascii	"Ethernet_start_tx\000"
 3888      726E6574 
 3888      5F737461 
 3888      72745F74 
 3888      7800
 3889              	.LASF127:
 3890 07ed 42305F45 		.ascii	"B0_ERDPTL\000"
 3890      52445054 
 3890      4C00
 3891              	.LASF73:
 3892 07f7 6379675F 		.ascii	"cyg_ISR_t\000"
 3892      4953525F 
 3892      7400
 3893              	.LASF134:
 3894 0801 42305F45 		.ascii	"B0_ETXNDH\000"
 3894      54584E44 
 3894      4800
 3895              	.LASF150:
ARM GAS  /tmp/ccvvV6V2.s 			page 80


 3896 080b 42305F45 		.ascii	"B0_EDMACSH\000"
 3896      444D4143 
 3896      534800
 3897              	.LASF149:
 3898 0816 42305F45 		.ascii	"B0_EDMACSL\000"
 3898      444D4143 
 3898      534C00
 3899              	.LASF133:
 3900 0821 42305F45 		.ascii	"B0_ETXNDL\000"
 3900      54584E44 
 3900      4C00
 3901              	.LASF82:
 3902 082b 4359475F 		.ascii	"CYG_REASON_DELAY\000"
 3902      52454153 
 3902      4F4E5F44 
 3902      454C4159 
 3902      00
 3903              	.LASF246:
 3904 083c 45544845 		.ascii	"ETHERNET_ZERO_SIZE_PACKET\000"
 3904      524E4554 
 3904      5F5A4552 
 3904      4F5F5349 
 3904      5A455F50 
 3905              	.LASF64:
 3906 0856 656E6162 		.ascii	"enabled\000"
 3906      6C656400 
 3907              	.LASF89:
 3908 085e 4359475F 		.ascii	"CYG_MUTEX_PROTOCOL_NONE\000"
 3908      4D555445 
 3908      585F5052 
 3908      4F544F43 
 3908      4F4C5F4E 
 3909              	.LASF276:
 3910 0876 2F686F6D 		.ascii	"/home/masterzdran/WorkingArea/Isel/semestre6/SE2/wo"
 3910      652F6D61 
 3910      73746572 
 3910      7A647261 
 3910      6E2F576F 
 3911 08a9 726B706C 		.ascii	"rkplace/code/src/peripherical/ENC28J60_eCos\000"
 3911      6163652F 
 3911      636F6465 
 3911      2F737263 
 3911      2F706572 
 3912              	.LASF154:
 3913 08d5 42315F45 		.ascii	"B1_EHT3\000"
 3913      48543300 
 3914              	.LASF155:
 3915 08dd 42315F45 		.ascii	"B1_EHT4\000"
 3915      48543400 
 3916              	.LASF156:
 3917 08e5 42315F45 		.ascii	"B1_EHT5\000"
 3917      48543500 
 3918              	.LASF157:
 3919 08ed 42315F45 		.ascii	"B1_EHT6\000"
 3919      48543600 
 3920              	.LASF87:
 3921 08f5 4359475F 		.ascii	"CYG_REASON_DONE\000"
ARM GAS  /tmp/ccvvV6V2.s 			page 81


 3921      52454153 
 3921      4F4E5F44 
 3921      4F4E4500 
 3922              	.LASF250:
 3923 0905 45544845 		.ascii	"ETHERNET_HALF_DUPLEX\000"
 3923      524E4554 
 3923      5F48414C 
 3923      465F4455 
 3923      504C4558 
 3924              	.LASF245:
 3925 091a 45544845 		.ascii	"ETHERNET_NULL_POINTER\000"
 3925      524E4554 
 3925      5F4E554C 
 3925      4C5F504F 
 3925      494E5445 
 3926              	.LASF223:
 3927 0930 45434F4E 		.ascii	"ECON1_DMAST\000"
 3927      315F444D 
 3927      41535400 
 3928              	.LASF269:
 3929 093c 72785F6E 		.ascii	"rx_next_packet\000"
 3929      6578745F 
 3929      7061636B 
 3929      657400
 3930              	.LASF77:
 3931 094b 6379675F 		.ascii	"cyg_thread_entry\000"
 3931      74687265 
 3931      61645F65 
 3931      6E747279 
 3931      00
 3932              	.LASF34:
 3933 095c 7072696F 		.ascii	"priority\000"
 3933      72697479 
 3933      00
 3934              	.LASF18:
 3935 0965 4359475F 		.ascii	"CYG_ADDRWORD\000"
 3935      41444452 
 3935      574F5244 
 3935      00
 3936              	.LASF219:
 3937 0972 45434F4E 		.ascii	"ECON2_VRPS\000"
 3937      325F5652 
 3937      505300
 3938              	.LASF178:
 3939 097d 42325F4D 		.ascii	"B2_MAIPGH\000"
 3939      41495047 
 3939      4800
 3940              	.LASF177:
 3941 0987 42325F4D 		.ascii	"B2_MAIPGL\000"
 3941      41495047 
 3941      4C00
 3942              	.LASF101:
 3943 0991 7370695F 		.ascii	"spi_get_config\000"
 3943      6765745F 
 3943      636F6E66 
 3943      696700
 3944              	.LASF192:
ARM GAS  /tmp/ccvvV6V2.s 			page 82


 3945 09a0 42335F4D 		.ascii	"B3_MAADR4\000"
 3945      41414452 
 3945      3400
 3946              	.LASF190:
 3947 09aa 42335F4D 		.ascii	"B3_MAADR6\000"
 3947      41414452 
 3947      3600
 3948              	.LASF4:
 3949 09b4 6379675F 		.ascii	"cyg_uint16\000"
 3949      75696E74 
 3949      313600
 3950              	.LASF256:
 3951 09bf 73656C65 		.ascii	"select\000"
 3951      637400
 3952              	.LASF188:
 3953 09c6 42325F4D 		.ascii	"B2_MIRDH\000"
 3953      49524448 
 3953      00
 3954              	.LASF81:
 3955 09cf 4359475F 		.ascii	"CYG_REASON_WAIT\000"
 3955      52454153 
 3955      4F4E5F57 
 3955      41495400 
 3956              	.LASF19:
 3957 09df 6379675F 		.ascii	"cyg_addrword_t\000"
 3957      61646472 
 3957      776F7264 
 3957      5F7400
 3958              	.LASF255:
 3959 09ee 70455448 		.ascii	"pETHERNET_Device\000"
 3959      45524E45 
 3959      545F4465 
 3959      76696365 
 3959      00
 3960              	.LASF248:
 3961 09ff 45544845 		.ascii	"ETHERNET_MAC_NULL_POINTER\000"
 3961      524E4554 
 3961      5F4D4143 
 3961      5F4E554C 
 3961      4C5F504F 
 3962              	.LASF36:
 3963 0a19 71756575 		.ascii	"queue\000"
 3963      6500
 3964              	.LASF259:
 3965 0a1f 7061636B 		.ascii	"packet\000"
 3965      657400
 3966              	.LASF78:
 3967 0a26 74687265 		.ascii	"thread\000"
 3967      616400
 3968              	.LASF212:
 3969 0a2d 4549525F 		.ascii	"EIR_TXERIF\000"
 3969      54584552 
 3969      494600
 3970              	.LASF148:
 3971 0a38 42305F45 		.ascii	"B0_EDMADSTH\000"
 3971      444D4144 
 3971      53544800 
ARM GAS  /tmp/ccvvV6V2.s 			page 83


 3972              	.LASF151:
 3973 0a44 42315F45 		.ascii	"B1_EHT0\000"
 3973      48543000 
 3974              	.LASF152:
 3975 0a4c 42315F45 		.ascii	"B1_EHT1\000"
 3975      48543100 
 3976              	.LASF153:
 3977 0a54 42315F45 		.ascii	"B1_EHT2\000"
 3977      48543200 
 3978              	.LASF138:
 3979 0a5c 42305F45 		.ascii	"B0_ERXNDH\000"
 3979      52584E44 
 3979      4800
 3980              	.LASF76:
 3981 0a66 6379675F 		.ascii	"cyg_threadqueue\000"
 3981      74687265 
 3981      61647175 
 3981      65756500 
 3982              	.LASF123:
 3983 0a76 42414E4B 		.ascii	"BANK00\000"
 3983      303000
 3984              	.LASF124:
 3985 0a7d 42414E4B 		.ascii	"BANK01\000"
 3985      303100
 3986              	.LASF125:
 3987 0a84 42414E4B 		.ascii	"BANK02\000"
 3987      303200
 3988              	.LASF126:
 3989 0a8b 42414E4B 		.ascii	"BANK03\000"
 3989      303300
 3990              	.LASF181:
 3991 0a92 42325F4D 		.ascii	"B2_MAMXFLL\000"
 3991      414D5846 
 3991      4C4C00
 3992              	.LASF1:
 3993 0a9d 756E7369 		.ascii	"unsigned char\000"
 3993      676E6564 
 3993      20636861 
 3993      7200
 3994              	.LASF231:
 3995 0aab 4D41434F 		.ascii	"MACON1_PASSALL\000"
 3995      4E315F50 
 3995      41535341 
 3995      4C4C00
 3996              	.LASF65:
 3997 0aba 6379675F 		.ascii	"cyg_mutex_t\000"
 3997      6D757465 
 3997      785F7400 
 3998              	.LASF104:
 3999 0ac6 73706372 		.ascii	"spcr\000"
 3999      00
 4000              	.LASF236:
 4001 0acb 4D41434F 		.ascii	"MACON3_TXCRCEN\000"
 4001      4E335F54 
 4001      58435243 
 4001      454E00
 4002              	.LASF54:
ARM GAS  /tmp/ccvvV6V2.s 			page 84


 4003 0ada 6473725F 		.ascii	"dsr_count\000"
 4003      636F756E 
 4003      7400
 4004              	.LASF239:
 4005 0ae4 4D41434F 		.ascii	"MACON3_FRMLNEN\000"
 4005      4E335F46 
 4005      524D4C4E 
 4005      454E00
 4006              	.LASF183:
 4007 0af3 42325F4D 		.ascii	"B2_MICMD\000"
 4007      49434D44 
 4007      00
 4008              	.LASF196:
 4009 0afc 42335F45 		.ascii	"B3_EBSTCON\000"
 4009      42535443 
 4009      4F4E00
 4010              	.LASF136:
 4011 0b07 42305F45 		.ascii	"B0_ERXSTH\000"
 4011      52585354 
 4011      4800
 4012              	.LASF202:
 4013 0b11 42335F45 		.ascii	"B3_EFLOCON\000"
 4013      464C4F43 
 4013      4F4E00
 4014              	.LASF50:
 4015 0b1c 6C697374 		.ascii	"list_next\000"
 4015      5F6E6578 
 4015      7400
 4016              	.LASF135:
 4017 0b26 42305F45 		.ascii	"B0_ERXSTL\000"
 4017      52585354 
 4017      4C00
 4018              	.LASF273:
 4019 0b30 7370695F 		.ascii	"spi_enc28j60_dev\000"
 4019      656E6332 
 4019      386A3630 
 4019      5F646576 
 4019      00
 4020              	.LASF39:
 4021 0b41 7072696F 		.ascii	"priority_inherited\000"
 4021      72697479 
 4021      5F696E68 
 4021      65726974 
 4021      656400
 4022              	.LASF40:
 4023 0b54 73746174 		.ascii	"state\000"
 4023      6500
 4024              	.LASF90:
 4025 0b5a 4359475F 		.ascii	"CYG_MUTEX_PROTOCOL_INHERIT\000"
 4025      4D555445 
 4025      585F5052 
 4025      4F544F43 
 4025      4F4C5F49 
 4026              	.LASF28:
 4027 0b75 73746163 		.ascii	"stack_ptr\000"
 4027      6B5F7074 
 4027      7200
ARM GAS  /tmp/ccvvV6V2.s 			page 85


 4028              	.LASF111:
 4029 0b7f 7370695F 		.ascii	"spi_vect\000"
 4029      76656374 
 4029      00
 4030              	.LASF7:
 4031 0b88 6379675F 		.ascii	"cyg_uint32\000"
 4031      75696E74 
 4031      333200
 4032              	.LASF244:
 4033 0b93 45544845 		.ascii	"ETHERNET_OK\000"
 4033      524E4554 
 4033      5F4F4B00 
 4034              	.LASF105:
 4035 0b9f 73707372 		.ascii	"spsr\000"
 4035      00
 4036              	.LASF60:
 4037 0ba4 6379675F 		.ascii	"cyg_alarm\000"
 4037      616C6172 
 4037      6D00
 4038              	.LASF253:
 4039 0bae 65746865 		.ascii	"ethernetDevice\000"
 4039      726E6574 
 4039      44657669 
 4039      636500
 4040              	.LASF222:
 4041 0bbd 45434F4E 		.ascii	"ECON1_RXRST\000"
 4041      315F5258 
 4041      52535400 
 4042              	.LASF20:
 4043 0bc9 6379675F 		.ascii	"cyg_handle_t\000"
 4043      68616E64 
 4043      6C655F74 
 4043      00
 4044              	.LASF22:
 4045 0bd6 6379675F 		.ascii	"cyg_vector_t\000"
 4045      76656374 
 4045      6F725F74 
 4045      00
 4046              	.LASF2:
 4047 0be3 7369676E 		.ascii	"signed char\000"
 4047      65642063 
 4047      68617200 
 4048              	.LASF241:
 4049 0bef 4D41434F 		.ascii	"MACON4_DEFER\000"
 4049      4E345F44 
 4049      45464552 
 4049      00
 4050              	.LASF5:
 4051 0bfc 73686F72 		.ascii	"short unsigned int\000"
 4051      7420756E 
 4051      7369676E 
 4051      65642069 
 4051      6E7400
 4052              	.LASF120:
 4053 0c0f 7370695F 		.ascii	"spi_baud\000"
 4053      62617564 
 4053      00
ARM GAS  /tmp/ccvvV6V2.s 			page 86


 4054              	.LASF110:
 4055 0c18 7370695F 		.ascii	"spi_hand\000"
 4055      68616E64 
 4055      00
 4056              	.LASF161:
 4057 0c21 42315F45 		.ascii	"B1_EPMM2\000"
 4057      504D4D32 
 4057      00
 4058              	.LASF228:
 4059 0c2a 45434F4E 		.ascii	"ECON1_BSEL0\000"
 4059      315F4253 
 4059      454C3000 
 4060              	.LASF162:
 4061 0c36 42315F45 		.ascii	"B1_EPMM3\000"
 4061      504D4D33 
 4061      00
 4062              	.LASF163:
 4063 0c3f 42315F45 		.ascii	"B1_EPMM4\000"
 4063      504D4D34 
 4063      00
 4064              	.LASF164:
 4065 0c48 42315F45 		.ascii	"B1_EPMM5\000"
 4065      504D4D35 
 4065      00
 4066              	.LASF86:
 4067 0c51 4359475F 		.ascii	"CYG_REASON_EXIT\000"
 4067      52454153 
 4067      4F4E5F45 
 4067      58495400 
 4068              	.LASF26:
 4069 0c61 73746163 		.ascii	"stack_size\000"
 4069      6B5F7369 
 4069      7A6500
 4070              	.LASF166:
 4071 0c6c 42315F45 		.ascii	"B1_EPMM7\000"
 4071      504D4D37 
 4071      00
 4072              	.LASF121:
 4073 0c75 7370695F 		.ascii	"spi_cs\000"
 4073      637300
 4074              	.LASF106:
 4075 0c7c 73706472 		.ascii	"spdr\000"
 4075      00
 4076              	.LASF112:
 4077 0c81 7370695F 		.ascii	"spi_prio\000"
 4077      7072696F 
 4077      00
 4078              	.LASF45:
 4079 0c8a 74696D65 		.ascii	"timer\000"
 4079      7200
 4080              	.LASF238:
 4081 0c90 4D41434F 		.ascii	"MACON3_HFRMEN\000"
 4081      4E335F48 
 4081      46524D45 
 4081      4E00
 4082              	.LASF31:
 4083 0c9e 73617665 		.ascii	"saved_context\000"
ARM GAS  /tmp/ccvvV6V2.s 			page 87


 4083      645F636F 
 4083      6E746578 
 4083      7400
 4084              	.LASF251:
 4085 0cac 45544845 		.ascii	"ETHERNET_FULL_DUPLEX\000"
 4085      524E4554 
 4085      5F46554C 
 4085      4C5F4455 
 4085      504C4558 
 4086              	.LASF209:
 4087 0cc1 4549525F 		.ascii	"EIR_DMAIF\000"
 4087      444D4149 
 4087      4600
 4088              	.LASF262:
 4089 0ccb 656E6332 		.ascii	"enc28j60_cs\000"
 4089      386A3630 
 4089      5F637300 
 4090              	.LASF21:
 4091 0cd7 6379675F 		.ascii	"cyg_priority_t\000"
 4091      7072696F 
 4091      72697479 
 4091      5F7400
 4092              	.LASF79:
 4093 0ce6 6379675F 		.ascii	"cyg_threadtimer\000"
 4093      74687265 
 4093      61647469 
 4093      6D657200 
 4094              	.LASF261:
 4095 0cf6 72657472 		.ascii	"retry\000"
 4095      7900
 4096              	.LASF258:
 4097 0cfc 45746865 		.ascii	"Ethernet_send\000"
 4097      726E6574 
 4097      5F73656E 
 4097      6400
 4098              	.LASF88:
 4099 0d0a 6379675F 		.ascii	"cyg_reason_t\000"
 4099      72656173 
 4099      6F6E5F74 
 4099      00
 4100              	.LASF211:
 4101 0d17 4549525F 		.ascii	"EIR_TXIF\000"
 4101      54584946 
 4101      00
 4102              		.ident	"GCC: (eCosCentric GNU tools 4.3.2-sw) 4.3.2"
ARM GAS  /tmp/ccvvV6V2.s 			page 88


DEFINED SYMBOLS
                            *ABS*:00000000 Ethernet.c
     /tmp/ccvvV6V2.s:23     .text.enc28j60_cs:00000000 enc28j60_cs
     /tmp/ccvvV6V2.s:30     .text.enc28j60_cs:00000000 $a
     /tmp/ccvvV6V2.s:66     .ecos.table.spibus_0.data:00000000 spi_enc28j60_dev
     /tmp/ccvvV6V2.s:67     .ecos.table.spibus_0.data:00000000 $d
     /tmp/ccvvV6V2.s:77     .text.Ethernet_init:00000000 Ethernet_init
     /tmp/ccvvV6V2.s:83     .text.Ethernet_init:00000000 $a
     /tmp/ccvvV6V2.s:304    .text.Ethernet_init:000002d8 $d
     /tmp/ccvvV6V2.s:677    .bss.ethDevice:00000000 ethDevice
     /tmp/ccvvV6V2.s:312    .text.Ethernet_send:00000000 Ethernet_send
     /tmp/ccvvV6V2.s:318    .text.Ethernet_send:00000000 $a
     /tmp/ccvvV6V2.s:444    .text.Ethernet_prepare:00000000 Ethernet_prepare
     /tmp/ccvvV6V2.s:505    .text.Ethernet_start_tx:00000000 Ethernet_start_tx
     /tmp/ccvvV6V2.s:450    .text.Ethernet_prepare:00000000 $a
     /tmp/ccvvV6V2.s:511    .text.Ethernet_start_tx:00000000 $a
     /tmp/ccvvV6V2.s:543    .text.Ethernet_receive:00000000 Ethernet_receive
     /tmp/ccvvV6V2.s:549    .text.Ethernet_receive:00000000 $a
     /tmp/ccvvV6V2.s:681    .debug_frame:00000000 $d
     /tmp/ccvvV6V2.s:849    .debug_loc:00000000 $d

UNDEFINED SYMBOLS
cyg_spi_lpc2xxx_bus0
ENC_init
ENC_system_reset_command
ENC_write_reg
ENC_read_reg
ENC_bit_field_clear
ENC_read_buffer_memory
ENC_write_buffer_memory
ENC_bit_field_set
