ARM GAS  /tmp/ccvvV6V2.s 			page 1


   1              		.cpu arm7tdmi
   2              		.fpu softvfp
   3              		.eabi_attribute 20, 1
   4              		.eabi_attribute 21, 1
   5              		.eabi_attribute 23, 3
   6              		.eabi_attribute 24, 1
   7              		.eabi_attribute 25, 1
   8              		.eabi_attribute 26, 1
   9              		.eabi_attribute 30, 6
  10              		.eabi_attribute 18, 4
  11              		.file	"Ethernet.c"
  18 0000 F4010000 		.text
  18      02003201 
  18      00000201 
  18      FB0E0D00 
  18      01010101 
  19              	.Ltext0:
  20              		.section	.text.enc28j60_cs,"ax",%progbits
  21              		.align	2
  22              		.type	enc28j60_cs, %function
  23              	enc28j60_cs:
  24              	.LFB2:
  25              		.file 1 "Ethernet.c"
   1:Ethernet.c    **** /*
   2:Ethernet.c    ****  * TODO ethernet for eCos
   3:Ethernet.c    ****  * initialize SPI with eCos SPI
   4:Ethernet.c    ****  *
   5:Ethernet.c    ****  *
   6:Ethernet.c    ****  */
   7:Ethernet.c    **** 
   8:Ethernet.c    **** 
   9:Ethernet.c    **** #include "Ethernet.h"
  10:Ethernet.c    **** #include "ENC28J60.h"
  11:Ethernet.c    **** #include "GPIO.h"
  12:Ethernet.c    **** 
  13:Ethernet.c    **** 
  14:Ethernet.c    **** #define SINGLE_BYTE	1
  15:Ethernet.c    **** #define DOUBLE_BYTE 2
  16:Ethernet.c    **** #define TSV_SIZE 7
  17:Ethernet.c    **** #define RSV_SIZE 4
  18:Ethernet.c    **** #define TRANSMITE_LATE_COLLITION_BUG(A)		((A)[3] & (1 << 5))	
  19:Ethernet.c    **** #define MAX_TX_RETRIES				10
  20:Ethernet.c    **** #define PROMISCUOUS_MODE 0      /*ERXFCON_REGISTER Enumerator shoul be used to filter packets*/
  21:Ethernet.c    **** #define FULL_DUPLEX  0x15
  22:Ethernet.c    **** #define HALF_DUPLEX  0x12
  23:Ethernet.c    **** #define MAIPGH_HALF_DUPLEX	0x0C12
  24:Ethernet.c    **** #define MAIPGH_FULL_DUPLEX	0x12
  25:Ethernet.c    **** 
  26:Ethernet.c    **** #define __BUFFER_RX_SIZE__		512
  27:Ethernet.c    **** #define __BUFFER_TX_SIZE__		512
  28:Ethernet.c    **** 
ARM GAS  /tmp/ccvvV6V2.s 			page 2


  29:Ethernet.c    **** static pETHERNET_Device ethDevice;
  30:Ethernet.c    **** 
  31:Ethernet.c    **** 
  32:Ethernet.c    **** static void enc28j60_cs(int select) {
  26              		.loc 1 32 0
  27              		@ Function supports interworking.
  28              		@ args = 0, pretend = 0, frame = 8
  29              		@ frame_needed = 1, uses_anonymous_args = 0
  30 0000 0DC0A0E1 		mov	ip, sp
  31              	.LCFI0:
  32 0004 00D82DE9 		stmfd	sp!, {fp, ip, lr, pc}
  33              	.LCFI1:
  34 0008 04B04CE2 		sub	fp, ip, #4
  35              	.LCFI2:
  36 000c 08D04DE2 		sub	sp, sp, #8
  37              	.LCFI3:
  38 0010 10000BE5 		str	r0, [fp, #-16]
  33:Ethernet.c    **** 	if (select)
  39              		.loc 1 33 0
  40 0014 10301BE5 		ldr	r3, [fp, #-16]
  41 0018 000053E3 		cmp	r3, #0
  42 001c 0400000A 		beq	.L2
  34:Ethernet.c    **** 		HAL_WRITE_UINT32(CYGARC_HAL_LPC2XXX_REG_IO_BASE +
  43              		.loc 1 34 0
  44 0020 CE32A0E3 		mov	r3, #-536870900
  45 0024 0A3983E2 		add	r3, r3, #163840
  46 0028 012CA0E3 		mov	r2, #256
  47 002c 002083E5 		str	r2, [r3, #0]
  48 0030 030000EA 		b	.L4
  49              	.L2:
  35:Ethernet.c    **** 				CYGARC_HAL_LPC2XXX_REG_IOCLR, CS_PIN);
  36:Ethernet.c    **** 	else
  37:Ethernet.c    **** 		HAL_WRITE_UINT32(CYGARC_HAL_LPC2XXX_REG_IO_BASE +
  50              		.loc 1 37 0
  51 0034 4E32A0E3 		mov	r3, #-536870908
  52 0038 0A3983E2 		add	r3, r3, #163840
  53 003c 012CA0E3 		mov	r2, #256
  54 0040 002083E5 		str	r2, [r3, #0]
  55              	.L4:
  38:Ethernet.c    **** 				CYGARC_HAL_LPC2XXX_REG_IOSET, CS_PIN);
  39:Ethernet.c    **** }
  56              		.loc 1 39 0
  57 0044 0CD04BE2 		sub	sp, fp, #12
  58 0048 00689DE8 		ldmfd	sp, {fp, sp, lr}
  59 004c 1EFF2FE1 		bx	lr
  60              	.LFE2:
  61              		.size	enc28j60_cs, .-enc28j60_cs
  62              		.global	spi_enc28j60_dev
  63              		.section	.ecos.table.spibus_0.data,"aw",%progbits
  64              		.type	spi_enc28j60_dev, %object
  65              		.size	spi_enc28j60_dev, 15
  66              	spi_enc28j60_dev:
  67 0000 00000000 		.4byte	cyg_spi_lpc2xxx_bus0
  68 0004 00       		.byte	0
  69 0005 00       		.byte	0
  70 0006 00       		.byte	0
  71 0007 10270000 		.4byte	10000
ARM GAS  /tmp/ccvvV6V2.s 			page 3


  72 000b 00000000 		.4byte	enc28j60_cs
  73              		.section	.text.Ethernet_init,"ax",%progbits
  74              		.align	2
  75              		.global	Ethernet_init
  76              		.type	Ethernet_init, %function
  77              	Ethernet_init:
  78              	.LFB3:
  40:Ethernet.c    **** 
  41:Ethernet.c    **** cyg_spi_lpc2xxx_dev_t spi_enc28j60_dev CYG_SPI_DEVICE_ON_BUS(0) =
  42:Ethernet.c    **** {
  43:Ethernet.c    **** 	.spi_device.spi_bus = &cyg_spi_lpc2xxx_bus0.spi_bus,
  44:Ethernet.c    **** 	.spi_cpha = 0, //Clock phase (0 or 1)
  45:Ethernet.c    **** 	.spi_cpol = 0, // Clock polarity (0 or 1)
  46:Ethernet.c    **** 	.spi_lsbf = 0, // MSBF
  47:Ethernet.c    **** 	.spi_baud = 10000, // Clock baud rate
  48:Ethernet.c    **** 	.spi_cs = enc28j60_cs
  49:Ethernet.c    **** };
  50:Ethernet.c    **** 
  51:Ethernet.c    **** /**
  52:Ethernet.c    ****  * @brief 
  53:Ethernet.c    ****  * */
  54:Ethernet.c    **** U8 Ethernet_init(pETHERNET_Device ethernetDevice){
  79              		.loc 1 54 0
  80              		@ Function supports interworking.
  81              		@ args = 0, pretend = 0, frame = 8
  82              		@ frame_needed = 1, uses_anonymous_args = 0
  83 0000 0DC0A0E1 		mov	ip, sp
  84              	.LCFI4:
  85 0004 00D82DE9 		stmfd	sp!, {fp, ip, lr, pc}
  86              	.LCFI5:
  87 0008 04B04CE2 		sub	fp, ip, #4
  88              	.LCFI6:
  89 000c 08D04DE2 		sub	sp, sp, #8
  90              	.LCFI7:
  91 0010 10000BE5 		str	r0, [fp, #-16]
  55:Ethernet.c    **** 	if (&(ethernetDevice->mac) == 0)
  92              		.loc 1 55 0
  93 0014 10301BE5 		ldr	r3, [fp, #-16]
  94 0018 053083E2 		add	r3, r3, #5
  95 001c 000053E3 		cmp	r3, #0
  96 0020 0200001A 		bne	.L6
  56:Ethernet.c    **** 		return ETHERNET_MAC_NULL_POINTER;
  97              		.loc 1 56 0
  98 0024 0430A0E3 		mov	r3, #4
  99 0028 14300BE5 		str	r3, [fp, #-20]
 100 002c A40000EA 		b	.L7
 101              	.L6:
  57:Ethernet.c    **** 	
  58:Ethernet.c    ****     ethDevice = ethernetDevice;
 102              		.loc 1 58 0
 103 0030 A0229FE5 		ldr	r2, .L11
 104 0034 10301BE5 		ldr	r3, [fp, #-16]
 105 0038 003082E5 		str	r3, [r2, #0]
  59:Ethernet.c    **** 
  60:Ethernet.c    ****     ethDevice->ethernetDevice=&spi_enc28j60_dev;
 106              		.loc 1 60 0
 107 003c 94329FE5 		ldr	r3, .L11
ARM GAS  /tmp/ccvvV6V2.s 			page 4


 108 0040 00C093E5 		ldr	ip, [r3, #0]
 109 0044 90029FE5 		ldr	r0, .L11+4
 110 0048 FF1000E2 		and	r1, r0, #255
 111 004c 0030A0E3 		mov	r3, #0
 112 0050 0320A0E1 		mov	r2, r3
 113 0054 0130A0E1 		mov	r3, r1
 114 0058 033082E1 		orr	r3, r2, r3
 115 005c 0030CCE5 		strb	r3, [ip, #0]
 116 0060 2034A0E1 		mov	r3, r0, lsr #8
 117 0064 FF1003E2 		and	r1, r3, #255
 118 0068 0030A0E3 		mov	r3, #0
 119 006c 0320A0E1 		mov	r2, r3
 120 0070 0130A0E1 		mov	r3, r1
 121 0074 033082E1 		orr	r3, r2, r3
 122 0078 0130CCE5 		strb	r3, [ip, #1]
 123 007c 2038A0E1 		mov	r3, r0, lsr #16
 124 0080 FF1003E2 		and	r1, r3, #255
 125 0084 0030A0E3 		mov	r3, #0
 126 0088 0320A0E1 		mov	r2, r3
 127 008c 0130A0E1 		mov	r3, r1
 128 0090 033082E1 		orr	r3, r2, r3
 129 0094 0230CCE5 		strb	r3, [ip, #2]
 130 0098 201CA0E1 		mov	r1, r0, lsr #24
 131 009c 0030A0E3 		mov	r3, #0
 132 00a0 0320A0E1 		mov	r2, r3
 133 00a4 0130A0E1 		mov	r3, r1
 134 00a8 033082E1 		orr	r3, r2, r3
 135 00ac 0330CCE5 		strb	r3, [ip, #3]
  61:Ethernet.c    **** 
  62:Ethernet.c    ****     ENC_init((cyg_spi_lpc2xxx_dev_t*)(ethDevice->ethernetDevice));
 136              		.loc 1 62 0
 137 00b0 20329FE5 		ldr	r3, .L11
 138 00b4 002093E5 		ldr	r2, [r3, #0]
 139 00b8 0010D2E5 		ldrb	r1, [r2, #0]	@ zero_extendqisi2
 140 00bc 0130D2E5 		ldrb	r3, [r2, #1]	@ zero_extendqisi2
 141 00c0 0334A0E1 		mov	r3, r3, asl #8
 142 00c4 011083E1 		orr	r1, r3, r1
 143 00c8 0230D2E5 		ldrb	r3, [r2, #2]	@ zero_extendqisi2
 144 00cc 0338A0E1 		mov	r3, r3, asl #16
 145 00d0 011083E1 		orr	r1, r3, r1
 146 00d4 0330D2E5 		ldrb	r3, [r2, #3]	@ zero_extendqisi2
 147 00d8 033CA0E1 		mov	r3, r3, asl #24
 148 00dc 013083E1 		orr	r3, r3, r1
 149 00e0 0300A0E1 		mov	r0, r3
 150 00e4 FEFFFFEB 		bl	ENC_init
  63:Ethernet.c    **** 
  64:Ethernet.c    ****     /*Reset Enc28j60 to default values*/
  65:Ethernet.c    ****     ENC_system_reset_command();
 151              		.loc 1 65 0
 152 00e8 FEFFFFEB 		bl	ENC_system_reset_command
  66:Ethernet.c    ****     /*6.1 Receive Buffer*/
  67:Ethernet.c    ****     /*
  68:Ethernet.c    **** 	ENC_write_reg(B0_ERXSTL,BANK00,__ETHERNET_RX_START_PTR__,true);
  69:Ethernet.c    **** 	ENC_write_reg(B0_ERXNDL,BANK00,__ETHERNET_RX_END_PTR__,true);
  70:Ethernet.c    **** 	ENC_write_reg(B0_ERXRDPTL,BANK00,__ETHERNET_RX_END_PTR__,true);
  71:Ethernet.c    **** 	*/
  72:Ethernet.c    **** 	ENC_WRITE_REG16(B0_ERXSTL,BANK00,__ETHERNET_RX_START_PTR__);
ARM GAS  /tmp/ccvvV6V2.s 			page 5


 153              		.loc 1 72 0
 154 00ec 2800A0E3 		mov	r0, #40
 155 00f0 0010A0E3 		mov	r1, #0
 156 00f4 0020A0E3 		mov	r2, #0
 157 00f8 0130A0E3 		mov	r3, #1
 158 00fc FEFFFFEB 		bl	ENC_write_reg
  73:Ethernet.c    **** 	ENC_WRITE_REG16(B0_ERXNDL,BANK00,__ETHERNET_RX_END_PTR__);
 159              		.loc 1 73 0
 160 0100 2A00A0E3 		mov	r0, #42
 161 0104 0010A0E3 		mov	r1, #0
 162 0108 FF2EA0E3 		mov	r2, #4080
 163 010c 0F2082E2 		add	r2, r2, #15
 164 0110 0130A0E3 		mov	r3, #1
 165 0114 FEFFFFEB 		bl	ENC_write_reg
  74:Ethernet.c    **** 	ENC_WRITE_REG16(B0_ERXRDPTL,BANK00,__ETHERNET_RX_END_PTR__);
 166              		.loc 1 74 0
 167 0118 2C00A0E3 		mov	r0, #44
 168 011c 0010A0E3 		mov	r1, #0
 169 0120 FF2EA0E3 		mov	r2, #4080
 170 0124 0F2082E2 		add	r2, r2, #15
 171 0128 0130A0E3 		mov	r3, #1
 172 012c FEFFFFEB 		bl	ENC_write_reg
  75:Ethernet.c    ****     
  76:Ethernet.c    ****     /*6.3 Receive Filters*/
  77:Ethernet.c    ****     ENC_WRITE_REG8(B1_ERXFCON,BANK01,PROMISCUOUS_MODE);
 173              		.loc 1 77 0
 174 0130 3800A0E3 		mov	r0, #56
 175 0134 0110A0E3 		mov	r1, #1
 176 0138 0020A0E3 		mov	r2, #0
 177 013c 0030A0E3 		mov	r3, #0
 178 0140 FEFFFFEB 		bl	ENC_write_reg
  78:Ethernet.c    **** 
  79:Ethernet.c    ****     /*6.5 MAC Initialization Settings*/
  80:Ethernet.c    **** 	ENC_WRITE_REG8(B3_MAADR1,BANK03,ethernetDevice->mac[0]);
 179              		.loc 1 80 0
 180 0144 10301BE5 		ldr	r3, [fp, #-16]
 181 0148 0530D3E5 		ldrb	r3, [r3, #5]	@ zero_extendqisi2
 182 014c 4400A0E3 		mov	r0, #68
 183 0150 0310A0E3 		mov	r1, #3
 184 0154 0320A0E1 		mov	r2, r3
 185 0158 0030A0E3 		mov	r3, #0
 186 015c FEFFFFEB 		bl	ENC_write_reg
  81:Ethernet.c    **** 	ENC_WRITE_REG8(B3_MAADR2,BANK03,ethernetDevice->mac[1]);
 187              		.loc 1 81 0
 188 0160 10301BE5 		ldr	r3, [fp, #-16]
 189 0164 0630D3E5 		ldrb	r3, [r3, #6]	@ zero_extendqisi2
 190 0168 4500A0E3 		mov	r0, #69
 191 016c 0310A0E3 		mov	r1, #3
 192 0170 0320A0E1 		mov	r2, r3
 193 0174 0030A0E3 		mov	r3, #0
 194 0178 FEFFFFEB 		bl	ENC_write_reg
  82:Ethernet.c    **** 	ENC_WRITE_REG8(B3_MAADR3,BANK03,ethernetDevice->mac[2]);
 195              		.loc 1 82 0
 196 017c 10301BE5 		ldr	r3, [fp, #-16]
 197 0180 0730D3E5 		ldrb	r3, [r3, #7]	@ zero_extendqisi2
 198 0184 4200A0E3 		mov	r0, #66
 199 0188 0310A0E3 		mov	r1, #3
ARM GAS  /tmp/ccvvV6V2.s 			page 6


 200 018c 0320A0E1 		mov	r2, r3
 201 0190 0030A0E3 		mov	r3, #0
 202 0194 FEFFFFEB 		bl	ENC_write_reg
  83:Ethernet.c    **** 	ENC_WRITE_REG8(B3_MAADR4,BANK03,ethernetDevice->mac[3]);
 203              		.loc 1 83 0
 204 0198 10301BE5 		ldr	r3, [fp, #-16]
 205 019c 0830D3E5 		ldrb	r3, [r3, #8]	@ zero_extendqisi2
 206 01a0 4300A0E3 		mov	r0, #67
 207 01a4 0310A0E3 		mov	r1, #3
 208 01a8 0320A0E1 		mov	r2, r3
 209 01ac 0030A0E3 		mov	r3, #0
 210 01b0 FEFFFFEB 		bl	ENC_write_reg
  84:Ethernet.c    **** 	ENC_WRITE_REG8(B3_MAADR5,BANK03,ethernetDevice->mac[4]);
 211              		.loc 1 84 0
 212 01b4 10301BE5 		ldr	r3, [fp, #-16]
 213 01b8 0930D3E5 		ldrb	r3, [r3, #9]	@ zero_extendqisi2
 214 01bc 4000A0E3 		mov	r0, #64
 215 01c0 0310A0E3 		mov	r1, #3
 216 01c4 0320A0E1 		mov	r2, r3
 217 01c8 0030A0E3 		mov	r3, #0
 218 01cc FEFFFFEB 		bl	ENC_write_reg
  85:Ethernet.c    **** 	ENC_WRITE_REG8(B3_MAADR6,BANK03,ethernetDevice->mac[5]);
 219              		.loc 1 85 0
 220 01d0 10301BE5 		ldr	r3, [fp, #-16]
 221 01d4 0A30D3E5 		ldrb	r3, [r3, #10]	@ zero_extendqisi2
 222 01d8 4100A0E3 		mov	r0, #65
 223 01dc 0310A0E3 		mov	r1, #3
 224 01e0 0320A0E1 		mov	r2, r3
 225 01e4 0030A0E3 		mov	r3, #0
 226 01e8 FEFFFFEB 		bl	ENC_write_reg
  86:Ethernet.c    **** 
  87:Ethernet.c    **** 	ENC_WRITE_REG8(B2_MACON1,BANK02,MACON1_MARXEN);
 227              		.loc 1 87 0
 228 01ec 4000A0E3 		mov	r0, #64
 229 01f0 0210A0E3 		mov	r1, #2
 230 01f4 0120A0E3 		mov	r2, #1
 231 01f8 0030A0E3 		mov	r3, #0
 232 01fc FEFFFFEB 		bl	ENC_write_reg
  88:Ethernet.c    **** 	ENC_WRITE_REG8(B2_MACON3,BANK02,MACON3_FRMLNEN + MACON3_TXCRCEN + MACON3_PADCFG0);
 233              		.loc 1 88 0
 234 0200 4200A0E3 		mov	r0, #66
 235 0204 0210A0E3 		mov	r1, #2
 236 0208 3220A0E3 		mov	r2, #50
 237 020c 0030A0E3 		mov	r3, #0
 238 0210 FEFFFFEB 		bl	ENC_write_reg
  89:Ethernet.c    **** 	ENC_WRITE_REG8(B2_MACON4,BANK02,MACON4_DEFER);
 239              		.loc 1 89 0
 240 0214 4300A0E3 		mov	r0, #67
 241 0218 0210A0E3 		mov	r1, #2
 242 021c 4020A0E3 		mov	r2, #64
 243 0220 0030A0E3 		mov	r3, #0
 244 0224 FEFFFFEB 		bl	ENC_write_reg
  90:Ethernet.c    **** 
  91:Ethernet.c    **** 	/*ENC_write_reg(B2_MAMXFLL,BANK02,MAX_FRAME_LEN,true);*/
  92:Ethernet.c    ****     ENC_WRITE_REG16(B2_MAMXFLL,BANK02,MAX_FRAME_LEN);
 245              		.loc 1 92 0
 246 0228 4A00A0E3 		mov	r0, #74
ARM GAS  /tmp/ccvvV6V2.s 			page 7


 247 022c 0210A0E3 		mov	r1, #2
 248 0230 5E2EA0E3 		mov	r2, #1504
 249 0234 0E2082E2 		add	r2, r2, #14
 250 0238 0130A0E3 		mov	r3, #1
 251 023c FEFFFFEB 		bl	ENC_write_reg
  93:Ethernet.c    **** 
  94:Ethernet.c    ****     /**
  95:Ethernet.c    ****      * @todo
  96:Ethernet.c    ****      * Config Full Duplex     
  97:Ethernet.c    ****      * */
  98:Ethernet.c    ****     if ( ethernetDevice->duplex == ETHERNET_FULL_DUPLEX){
 252              		.loc 1 98 0
 253 0240 10301BE5 		ldr	r3, [fp, #-16]
 254 0244 0430D3E5 		ldrb	r3, [r3, #4]	@ zero_extendqisi2
 255 0248 010053E3 		cmp	r3, #1
 256 024c 0A00001A 		bne	.L8
  99:Ethernet.c    ****         ENC_WRITE_REG8(B2_MABBIPG,BANK02,FULL_DUPLEX);
 257              		.loc 1 99 0
 258 0250 4400A0E3 		mov	r0, #68
 259 0254 0210A0E3 		mov	r1, #2
 260 0258 1520A0E3 		mov	r2, #21
 261 025c 0030A0E3 		mov	r3, #0
 262 0260 FEFFFFEB 		bl	ENC_write_reg
 100:Ethernet.c    ****         ENC_WRITE_REG16(B2_MAIPGL,BANK02,MAIPGH_FULL_DUPLEX);
 263              		.loc 1 100 0
 264 0264 4600A0E3 		mov	r0, #70
 265 0268 0210A0E3 		mov	r1, #2
 266 026c 1220A0E3 		mov	r2, #18
 267 0270 0130A0E3 		mov	r3, #1
 268 0274 FEFFFFEB 		bl	ENC_write_reg
 269 0278 0A0000EA 		b	.L9
 270              	.L8:
 101:Ethernet.c    **** 	}else{
 102:Ethernet.c    ****         ENC_WRITE_REG8(B2_MABBIPG,BANK02,HALF_DUPLEX);
 271              		.loc 1 102 0
 272 027c 4400A0E3 		mov	r0, #68
 273 0280 0210A0E3 		mov	r1, #2
 274 0284 1220A0E3 		mov	r2, #18
 275 0288 0030A0E3 		mov	r3, #0
 276 028c FEFFFFEB 		bl	ENC_write_reg
 103:Ethernet.c    ****         ENC_WRITE_REG16(B2_MAIPGL,BANK02,MAIPGH_HALF_DUPLEX);
 277              		.loc 1 103 0
 278 0290 4600A0E3 		mov	r0, #70
 279 0294 0210A0E3 		mov	r1, #2
 280 0298 C12EA0E3 		mov	r2, #3088
 281 029c 022082E2 		add	r2, r2, #2
 282 02a0 0130A0E3 		mov	r3, #1
 283 02a4 FEFFFFEB 		bl	ENC_write_reg
 284              	.L9:
 104:Ethernet.c    ****     }
 105:Ethernet.c    **** 
 106:Ethernet.c    ****     ENC_WRITE_REG8(ECON1,BANK02,ECON1_RXEN);
 285              		.loc 1 106 0
 286 02a8 1F00A0E3 		mov	r0, #31
 287 02ac 0210A0E3 		mov	r1, #2
 288 02b0 0420A0E3 		mov	r2, #4
 289 02b4 0030A0E3 		mov	r3, #0
ARM GAS  /tmp/ccvvV6V2.s 			page 8


 290 02b8 FEFFFFEB 		bl	ENC_write_reg
 107:Ethernet.c    **** 	
 108:Ethernet.c    ****     /*
 109:Ethernet.c    **** 	 * Prepare Software Buffer.
 110:Ethernet.c    **** 	 * */
 111:Ethernet.c    ****    /*buffer_init(&rx_Buffer,&rx_Buffer_Space,__ETHERNET_RX_BUFFER_SIZE__);
 112:Ethernet.c    **** 	 buffer_init(&tx_Buffer,&tx_Buffer_Space,__ETHERNET_TX_BUFFER_SIZE__);
 113:Ethernet.c    **** 	 */
 114:Ethernet.c    **** 	 
 115:Ethernet.c    **** 	return ETHERNET_OK;
 291              		.loc 1 115 0
 292 02bc 0030A0E3 		mov	r3, #0
 293 02c0 14300BE5 		str	r3, [fp, #-20]
 294              	.L7:
 295 02c4 14301BE5 		ldr	r3, [fp, #-20]
 116:Ethernet.c    **** }
 296              		.loc 1 116 0
 297 02c8 0300A0E1 		mov	r0, r3
 298 02cc 0CD04BE2 		sub	sp, fp, #12
 299 02d0 00689DE8 		ldmfd	sp, {fp, sp, lr}
 300 02d4 1EFF2FE1 		bx	lr
 301              	.L12:
 302              		.align	2
 303              	.L11:
 304 02d8 00000000 		.word	ethDevice
 305 02dc 00000000 		.word	spi_enc28j60_dev
 306              	.LFE3:
 307              		.size	Ethernet_init, .-Ethernet_init
 308              		.section	.text.Ethernet_send,"ax",%progbits
 309              		.align	2
 310              		.global	Ethernet_send
 311              		.type	Ethernet_send, %function
 312              	Ethernet_send:
 313              	.LFB6:
 117:Ethernet.c    **** 
 118:Ethernet.c    **** static inline void Ethernet_prepare(U8* packet, U16 packet_size){
 119:Ethernet.c    **** 	U8 control = 0x0;
 120:Ethernet.c    **** 	ENC_write_reg(B0_ETXSTL,BANK00,__ETHERNET_TX_START_PTR__,true);
 121:Ethernet.c    **** 	ENC_write_reg(B0_ETXNDL,BANK00,__ETHERNET_TX_START_PTR__+ packet_size,true);
 122:Ethernet.c    **** 	ENC_write_reg(B0_EWRPTL,BANK00,__ETHERNET_TX_START_PTR__,true);
 123:Ethernet.c    **** 	ENC_write_buffer_memory(&control,SINGLE_BYTE);
 124:Ethernet.c    **** 	ENC_write_buffer_memory(packet,packet_size);	
 125:Ethernet.c    **** }
 126:Ethernet.c    **** static inline void Ethernet_start_tx(){
 127:Ethernet.c    **** 	ENC_bit_field_set(ECON1,ECON1_TXRST);
 128:Ethernet.c    **** 	ENC_bit_field_clear(ECON1,ECON1_TXRST);
 129:Ethernet.c    **** 	ENC_bit_field_clear(EIR,EIR_TXERIF|EIR_TXIF);
 130:Ethernet.c    **** 	ENC_bit_field_set(ECON1,ECON1_TXRTS);	
 131:Ethernet.c    **** }
 132:Ethernet.c    **** 
 133:Ethernet.c    **** /**
 134:Ethernet.c    ****  * @todo Use of software buffers to add bytes from both buffers.
 135:Ethernet.c    ****  * */
 136:Ethernet.c    **** 
 137:Ethernet.c    **** U8 Ethernet_send(U8* packet, U16 packet_size){
 314              		.loc 1 137 0
 315              		@ Function supports interworking.
ARM GAS  /tmp/ccvvV6V2.s 			page 9


 316              		@ args = 0, pretend = 0, frame = 32
 317              		@ frame_needed = 1, uses_anonymous_args = 0
 318 0000 0DC0A0E1 		mov	ip, sp
 319              	.LCFI8:
 320 0004 00D82DE9 		stmfd	sp!, {fp, ip, lr, pc}
 321              	.LCFI9:
 322 0008 04B04CE2 		sub	fp, ip, #4
 323              	.LCFI10:
 324 000c 20D04DE2 		sub	sp, sp, #32
 325              	.LCFI11:
 326 0010 20000BE5 		str	r0, [fp, #-32]
 327 0014 0130A0E1 		mov	r3, r1
 328 0018 B2324BE1 		strh	r3, [fp, #-34]	@ movhi
 138:Ethernet.c    **** 	U8 tsv[TSV_SIZE],aux;
 139:Ethernet.c    **** 	U8 retry = 0;
 329              		.loc 1 139 0
 330 001c 0030A0E3 		mov	r3, #0
 331 0020 0D304BE5 		strb	r3, [fp, #-13]
 140:Ethernet.c    **** 
 141:Ethernet.c    **** 	if (packet == 0)
 332              		.loc 1 141 0
 333 0024 20301BE5 		ldr	r3, [fp, #-32]
 334 0028 000053E3 		cmp	r3, #0
 335 002c 0200001A 		bne	.L14
 142:Ethernet.c    **** 		return ETHERNET_NULL_POINTER;
 336              		.loc 1 142 0
 337 0030 0130A0E3 		mov	r3, #1
 338 0034 28300BE5 		str	r3, [fp, #-40]
 339 0038 470000EA 		b	.L15
 340              	.L14:
 143:Ethernet.c    **** 	if(packet_size == 0 )
 341              		.loc 1 143 0
 342 003c B2325BE1 		ldrh	r3, [fp, #-34]
 343 0040 000053E3 		cmp	r3, #0
 344 0044 0200001A 		bne	.L16
 144:Ethernet.c    **** 		return ETHERNET_NULL_POINTER;
 345              		.loc 1 144 0
 346 0048 0130A0E3 		mov	r3, #1
 347 004c 28300BE5 		str	r3, [fp, #-40]
 348 0050 410000EA 		b	.L15
 349              	.L16:
 145:Ethernet.c    **** 	if (packet_size > MAX_FRAME_LEN)
 350              		.loc 1 145 0
 351 0054 B2225BE1 		ldrh	r2, [fp, #-34]
 352 0058 5E3EA0E3 		mov	r3, #1504
 353 005c 0E3083E2 		add	r3, r3, #14
 354 0060 030052E1 		cmp	r2, r3
 355 0064 0200009A 		bls	.L17
 146:Ethernet.c    **** 		return ETHERNET_PACKET_TOO_LONG;
 356              		.loc 1 146 0
 357 0068 0330A0E3 		mov	r3, #3
 358 006c 28300BE5 		str	r3, [fp, #-40]
 359 0070 390000EA 		b	.L15
 360              	.L17:
 147:Ethernet.c    **** 		
 148:Ethernet.c    **** 	Ethernet_prepare(packet,packet_size);
 361              		.loc 1 148 0
ARM GAS  /tmp/ccvvV6V2.s 			page 10


 362 0074 B2325BE1 		ldrh	r3, [fp, #-34]
 363 0078 20001BE5 		ldr	r0, [fp, #-32]
 364 007c 0310A0E1 		mov	r1, r3
 365 0080 FEFFFFEB 		bl	Ethernet_prepare
 366              	.L20:
 149:Ethernet.c    **** 	
 150:Ethernet.c    **** 	do{
 151:Ethernet.c    **** 		Ethernet_start_tx();
 367              		.loc 1 151 0
 368 0084 FEFFFFEB 		bl	Ethernet_start_tx
 369              	.L18:
 152:Ethernet.c    **** 		do{			
 153:Ethernet.c    ****             aux = ENC_READ_REG8(EIR,BANK00);
 370              		.loc 1 153 0
 371 0088 1C00A0E3 		mov	r0, #28
 372 008c 0010A0E3 		mov	r1, #0
 373 0090 0020A0E3 		mov	r2, #0
 374 0094 FEFFFFEB 		bl	ENC_read_reg
 375 0098 0030A0E1 		mov	r3, r0
 376 009c 0E304BE5 		strb	r3, [fp, #-14]
 154:Ethernet.c    **** 		}while((aux & EIR_TXIF) == 0);
 377              		.loc 1 154 0
 378 00a0 0E305BE5 		ldrb	r3, [fp, #-14]	@ zero_extendqisi2
 379 00a4 083003E2 		and	r3, r3, #8
 380 00a8 000053E3 		cmp	r3, #0
 381 00ac F5FFFF0A 		beq	.L18
 155:Ethernet.c    **** 
 156:Ethernet.c    **** 		ENC_bit_field_clear(ECON1,ECON1_TXRTS);
 382              		.loc 1 156 0
 383 00b0 1F00A0E3 		mov	r0, #31
 384 00b4 0810A0E3 		mov	r1, #8
 385 00b8 FEFFFFEB 		bl	ENC_bit_field_clear
 157:Ethernet.c    **** 		ENC_WRITE_REG16(B0_ERDPTL,BANK00,__ETHERNET_TX_START_PTR__ + packet_size + 1);
 386              		.loc 1 157 0
 387 00bc B2325BE1 		ldrh	r3, [fp, #-34]	@ movhi
 388 00c0 013A83E2 		add	r3, r3, #4096
 389 00c4 013083E2 		add	r3, r3, #1
 390 00c8 0338A0E1 		mov	r3, r3, asl #16
 391 00cc 2338A0E1 		mov	r3, r3, lsr #16
 392 00d0 2000A0E3 		mov	r0, #32
 393 00d4 0010A0E3 		mov	r1, #0
 394 00d8 0320A0E1 		mov	r2, r3
 395 00dc 0130A0E3 		mov	r3, #1
 396 00e0 FEFFFFEB 		bl	ENC_write_reg
 158:Ethernet.c    **** 		ENC_read_buffer_memory(tsv,TSV_SIZE);
 397              		.loc 1 158 0
 398 00e4 15304BE2 		sub	r3, fp, #21
 399 00e8 0300A0E1 		mov	r0, r3
 400 00ec 0710A0E3 		mov	r1, #7
 401 00f0 FEFFFFEB 		bl	ENC_read_buffer_memory
 159:Ethernet.c    **** 
 160:Ethernet.c    ****         aux =  ENC_READ_REG8(EIR,BANK00);
 402              		.loc 1 160 0
 403 00f4 1C00A0E3 		mov	r0, #28
 404 00f8 0010A0E3 		mov	r1, #0
 405 00fc 0020A0E3 		mov	r2, #0
 406 0100 FEFFFFEB 		bl	ENC_read_reg
ARM GAS  /tmp/ccvvV6V2.s 			page 11


 407 0104 0030A0E1 		mov	r3, r0
 408 0108 0E304BE5 		strb	r3, [fp, #-14]
 161:Ethernet.c    **** 	}while((aux & EIR_TXERIF) && TRANSMITE_LATE_COLLITION_BUG(tsv) && (retry++ < MAX_TX_RETRIES) )	;
 409              		.loc 1 161 0
 410 010c 0E305BE5 		ldrb	r3, [fp, #-14]	@ zero_extendqisi2
 411 0110 023003E2 		and	r3, r3, #2
 412 0114 000053E3 		cmp	r3, #0
 413 0118 0D00000A 		beq	.L19
 414 011c 12305BE5 		ldrb	r3, [fp, #-18]	@ zero_extendqisi2
 415 0120 203003E2 		and	r3, r3, #32
 416 0124 000053E3 		cmp	r3, #0
 417 0128 0900000A 		beq	.L19
 418 012c 0D305BE5 		ldrb	r3, [fp, #-13]	@ zero_extendqisi2
 419 0130 090053E3 		cmp	r3, #9
 420 0134 0030A083 		movhi	r3, #0
 421 0138 0130A093 		movls	r3, #1
 422 013c FF2003E2 		and	r2, r3, #255
 423 0140 0D305BE5 		ldrb	r3, [fp, #-13]
 424 0144 013083E2 		add	r3, r3, #1
 425 0148 0D304BE5 		strb	r3, [fp, #-13]
 426 014c 000052E3 		cmp	r2, #0
 427 0150 CBFFFF1A 		bne	.L20
 428              	.L19:
 162:Ethernet.c    **** 	return ETHERNET_OK;
 429              		.loc 1 162 0
 430 0154 0030A0E3 		mov	r3, #0
 431 0158 28300BE5 		str	r3, [fp, #-40]
 432              	.L15:
 433 015c 28301BE5 		ldr	r3, [fp, #-40]
 163:Ethernet.c    **** }
 434              		.loc 1 163 0
 435 0160 0300A0E1 		mov	r0, r3
 436 0164 0CD04BE2 		sub	sp, fp, #12
 437 0168 00689DE8 		ldmfd	sp, {fp, sp, lr}
 438 016c 1EFF2FE1 		bx	lr
 439              	.LFE6:
 440              		.size	Ethernet_send, .-Ethernet_send
 441              		.section	.text.Ethernet_prepare,"ax",%progbits
 442              		.align	2
 443              		.type	Ethernet_prepare, %function
 444              	Ethernet_prepare:
 445              	.LFB4:
 446              		.loc 1 118 0
 447              		@ Function supports interworking.
 448              		@ args = 0, pretend = 0, frame = 16
 449              		@ frame_needed = 1, uses_anonymous_args = 0
 450 0000 0DC0A0E1 		mov	ip, sp
 451              	.LCFI12:
 452 0004 00D82DE9 		stmfd	sp!, {fp, ip, lr, pc}
 453              	.LCFI13:
 454 0008 04B04CE2 		sub	fp, ip, #4
 455              	.LCFI14:
 456 000c 10D04DE2 		sub	sp, sp, #16
 457              	.LCFI15:
 458 0010 18000BE5 		str	r0, [fp, #-24]
 459 0014 0130A0E1 		mov	r3, r1
 460 0018 BA314BE1 		strh	r3, [fp, #-26]	@ movhi
ARM GAS  /tmp/ccvvV6V2.s 			page 12


 461              		.loc 1 119 0
 462 001c 0030A0E3 		mov	r3, #0
 463 0020 0D304BE5 		strb	r3, [fp, #-13]
 464              		.loc 1 120 0
 465 0024 2400A0E3 		mov	r0, #36
 466 0028 0010A0E3 		mov	r1, #0
 467 002c 012AA0E3 		mov	r2, #4096
 468 0030 0130A0E3 		mov	r3, #1
 469 0034 FEFFFFEB 		bl	ENC_write_reg
 470              		.loc 1 121 0
 471 0038 BA315BE1 		ldrh	r3, [fp, #-26]	@ movhi
 472 003c 013A83E2 		add	r3, r3, #4096
 473 0040 0338A0E1 		mov	r3, r3, asl #16
 474 0044 2338A0E1 		mov	r3, r3, lsr #16
 475 0048 2600A0E3 		mov	r0, #38
 476 004c 0010A0E3 		mov	r1, #0
 477 0050 0320A0E1 		mov	r2, r3
 478 0054 0130A0E3 		mov	r3, #1
 479 0058 FEFFFFEB 		bl	ENC_write_reg
 480              		.loc 1 122 0
 481 005c 2200A0E3 		mov	r0, #34
 482 0060 0010A0E3 		mov	r1, #0
 483 0064 012AA0E3 		mov	r2, #4096
 484 0068 0130A0E3 		mov	r3, #1
 485 006c FEFFFFEB 		bl	ENC_write_reg
 486              		.loc 1 123 0
 487 0070 0D304BE2 		sub	r3, fp, #13
 488 0074 0300A0E1 		mov	r0, r3
 489 0078 0110A0E3 		mov	r1, #1
 490 007c FEFFFFEB 		bl	ENC_write_buffer_memory
 491              		.loc 1 124 0
 492 0080 BA315BE1 		ldrh	r3, [fp, #-26]
 493 0084 18001BE5 		ldr	r0, [fp, #-24]
 494 0088 0310A0E1 		mov	r1, r3
 495 008c FEFFFFEB 		bl	ENC_write_buffer_memory
 496              		.loc 1 125 0
 497 0090 0CD04BE2 		sub	sp, fp, #12
 498 0094 00689DE8 		ldmfd	sp, {fp, sp, lr}
 499 0098 1EFF2FE1 		bx	lr
 500              	.LFE4:
 501              		.size	Ethernet_prepare, .-Ethernet_prepare
 502              		.section	.text.Ethernet_start_tx,"ax",%progbits
 503              		.align	2
 504              		.type	Ethernet_start_tx, %function
 505              	Ethernet_start_tx:
 506              	.LFB5:
 507              		.loc 1 126 0
 508              		@ Function supports interworking.
 509              		@ args = 0, pretend = 0, frame = 0
 510              		@ frame_needed = 1, uses_anonymous_args = 0
 511 0000 0DC0A0E1 		mov	ip, sp
 512              	.LCFI16:
 513 0004 00D82DE9 		stmfd	sp!, {fp, ip, lr, pc}
 514              	.LCFI17:
 515 0008 04B04CE2 		sub	fp, ip, #4
 516              	.LCFI18:
 517              		.loc 1 127 0
ARM GAS  /tmp/ccvvV6V2.s 			page 13


 518 000c 1F00A0E3 		mov	r0, #31
 519 0010 8010A0E3 		mov	r1, #128
 520 0014 FEFFFFEB 		bl	ENC_bit_field_set
 521              		.loc 1 128 0
 522 0018 1F00A0E3 		mov	r0, #31
 523 001c 8010A0E3 		mov	r1, #128
 524 0020 FEFFFFEB 		bl	ENC_bit_field_clear
 525              		.loc 1 129 0
 526 0024 1C00A0E3 		mov	r0, #28
 527 0028 0A10A0E3 		mov	r1, #10
 528 002c FEFFFFEB 		bl	ENC_bit_field_clear
 529              		.loc 1 130 0
 530 0030 1F00A0E3 		mov	r0, #31
 531 0034 0810A0E3 		mov	r1, #8
 532 0038 FEFFFFEB 		bl	ENC_bit_field_set
 533              		.loc 1 131 0
 534 003c 0CD04BE2 		sub	sp, fp, #12
 535 0040 00689DE8 		ldmfd	sp, {fp, sp, lr}
 536 0044 1EFF2FE1 		bx	lr
 537              	.LFE5:
 538              		.size	Ethernet_start_tx, .-Ethernet_start_tx
 539              		.section	.text.Ethernet_receive,"ax",%progbits
 540              		.align	2
 541              		.global	Ethernet_receive
 542              		.type	Ethernet_receive, %function
 543              	Ethernet_receive:
 544              	.LFB7:
 164:Ethernet.c    **** /*U32 Ethernet_receive(U8* buffer, U32 buffer_size,U32* read_size){*/
 165:Ethernet.c    **** U32 Ethernet_receive(U8* buffer, U32 buffer_size){
 545              		.loc 1 165 0
 546              		@ Function supports interworking.
 547              		@ args = 0, pretend = 0, frame = 40
 548              		@ frame_needed = 1, uses_anonymous_args = 0
 549 0000 0DC0A0E1 		mov	ip, sp
 550              	.LCFI19:
 551 0004 00D82DE9 		stmfd	sp!, {fp, ip, lr, pc}
 552              	.LCFI20:
 553 0008 04B04CE2 		sub	fp, ip, #4
 554              	.LCFI21:
 555 000c 28D04DE2 		sub	sp, sp, #40
 556              	.LCFI22:
 557 0010 28000BE5 		str	r0, [fp, #-40]
 558 0014 2C100BE5 		str	r1, [fp, #-44]
 166:Ethernet.c    **** 	U32 read_size=0;
 559              		.loc 1 166 0
 560 0018 0030A0E3 		mov	r3, #0
 561 001c 18300BE5 		str	r3, [fp, #-24]
 167:Ethernet.c    **** 	U8 rsv[RSV_SIZE];
 168:Ethernet.c    **** 	U32 packet_size = 0;
 562              		.loc 1 168 0
 563 0020 0030A0E3 		mov	r3, #0
 564 0024 14300BE5 		str	r3, [fp, #-20]
 169:Ethernet.c    **** 	U16 rx_next_packet = __ETHERNET_RX_START_PTR__;
 565              		.loc 1 169 0
 566 0028 0030A0E3 		mov	r3, #0
 567 002c BE314BE1 		strh	r3, [fp, #-30]	@ movhi
 170:Ethernet.c    **** 	U32 nbr_packets = 0;
ARM GAS  /tmp/ccvvV6V2.s 			page 14


 568              		.loc 1 170 0
 569 0030 0030A0E3 		mov	r3, #0
 570 0034 10300BE5 		str	r3, [fp, #-16]
 171:Ethernet.c    **** 	
 172:Ethernet.c    **** 	if (buffer== 0)
 571              		.loc 1 172 0
 572 0038 28301BE5 		ldr	r3, [fp, #-40]
 573 003c 000053E3 		cmp	r3, #0
 574 0040 0200001A 		bne	.L27
 173:Ethernet.c    **** 		return ETHERNET_NULL_POINTER;
 575              		.loc 1 173 0
 576 0044 0130A0E3 		mov	r3, #1
 577 0048 30300BE5 		str	r3, [fp, #-48]
 578 004c 3F0000EA 		b	.L28
 579              	.L27:
 174:Ethernet.c    **** 	if(buffer_size == 0 )
 580              		.loc 1 174 0
 581 0050 2C301BE5 		ldr	r3, [fp, #-44]
 582 0054 000053E3 		cmp	r3, #0
 583 0058 0200001A 		bne	.L29
 175:Ethernet.c    **** 		return ETHERNET_NULL_POINTER;
 584              		.loc 1 175 0
 585 005c 0130A0E3 		mov	r3, #1
 586 0060 30300BE5 		str	r3, [fp, #-48]
 587 0064 390000EA 		b	.L28
 588              	.L29:
 176:Ethernet.c    **** 	if (buffer_size > MAX_FRAME_LEN)
 589              		.loc 1 176 0
 590 0068 2C201BE5 		ldr	r2, [fp, #-44]
 591 006c 5E3EA0E3 		mov	r3, #1504
 592 0070 0E3083E2 		add	r3, r3, #14
 593 0074 030052E1 		cmp	r2, r3
 594 0078 0200009A 		bls	.L30
 177:Ethernet.c    **** 		return ETHERNET_PACKET_TOO_LONG;	
 595              		.loc 1 177 0
 596 007c 0330A0E3 		mov	r3, #3
 597 0080 30300BE5 		str	r3, [fp, #-48]
 598 0084 310000EA 		b	.L28
 599              	.L30:
 178:Ethernet.c    **** 	/*Evaluate parameters. Then spent time*/
 179:Ethernet.c    **** 	nbr_packets = ENC_read_reg(B1_EPKTCNT,BANK01,false);
 600              		.loc 1 179 0
 601 0088 3900A0E3 		mov	r0, #57
 602 008c 0110A0E3 		mov	r1, #1
 603 0090 0020A0E3 		mov	r2, #0
 604 0094 FEFFFFEB 		bl	ENC_read_reg
 605 0098 0030A0E1 		mov	r3, r0
 606 009c 10300BE5 		str	r3, [fp, #-16]
 180:Ethernet.c    **** 	
 181:Ethernet.c    **** 	if (nbr_packets > 0){
 607              		.loc 1 181 0
 608 00a0 10301BE5 		ldr	r3, [fp, #-16]
 609 00a4 000053E3 		cmp	r3, #0
 610 00a8 2400000A 		beq	.L31
 182:Ethernet.c    **** 		ENC_write_reg(B0_ERDPTL,BANK00,rx_next_packet,true);
 611              		.loc 1 182 0
 612 00ac BE315BE1 		ldrh	r3, [fp, #-30]
ARM GAS  /tmp/ccvvV6V2.s 			page 15


 613 00b0 2000A0E3 		mov	r0, #32
 614 00b4 0010A0E3 		mov	r1, #0
 615 00b8 0320A0E1 		mov	r2, r3
 616 00bc 0130A0E3 		mov	r3, #1
 617 00c0 FEFFFFEB 		bl	ENC_write_reg
 183:Ethernet.c    **** 		ENC_read_buffer_memory((U8*)&rx_next_packet,DOUBLE_BYTE);
 618              		.loc 1 183 0
 619 00c4 1E304BE2 		sub	r3, fp, #30
 620 00c8 0300A0E1 		mov	r0, r3
 621 00cc 0210A0E3 		mov	r1, #2
 622 00d0 FEFFFFEB 		bl	ENC_read_buffer_memory
 184:Ethernet.c    **** 		ENC_read_buffer_memory(rsv,RSV_SIZE);
 623              		.loc 1 184 0
 624 00d4 1C304BE2 		sub	r3, fp, #28
 625 00d8 0300A0E1 		mov	r0, r3
 626 00dc 0410A0E3 		mov	r1, #4
 627 00e0 FEFFFFEB 		bl	ENC_read_buffer_memory
 185:Ethernet.c    **** 		packet_size = ((U16)rsv[1] << 8) + rsv[0];
 628              		.loc 1 185 0
 629 00e4 1B305BE5 		ldrb	r3, [fp, #-27]	@ zero_extendqisi2
 630 00e8 0324A0E1 		mov	r2, r3, asl #8
 631 00ec 1C305BE5 		ldrb	r3, [fp, #-28]	@ zero_extendqisi2
 632 00f0 033082E0 		add	r3, r2, r3
 633 00f4 14300BE5 		str	r3, [fp, #-20]
 186:Ethernet.c    **** 		read_size = ((buffer_size<packet_size)?buffer_size:packet_size);
 634              		.loc 1 186 0
 635 00f8 14201BE5 		ldr	r2, [fp, #-20]
 636 00fc 2C301BE5 		ldr	r3, [fp, #-44]
 637 0100 030052E1 		cmp	r2, r3
 638 0104 0230A031 		movcc	r3, r2
 639 0108 18300BE5 		str	r3, [fp, #-24]
 187:Ethernet.c    **** 		ENC_read_buffer_memory(buffer,read_size);
 640              		.loc 1 187 0
 641 010c 28001BE5 		ldr	r0, [fp, #-40]
 642 0110 18101BE5 		ldr	r1, [fp, #-24]
 643 0114 FEFFFFEB 		bl	ENC_read_buffer_memory
 188:Ethernet.c    **** 		ENC_write_reg(B0_ERXRDPTL,BANK00,rx_next_packet,true);
 644              		.loc 1 188 0
 645 0118 BE315BE1 		ldrh	r3, [fp, #-30]
 646 011c 2C00A0E3 		mov	r0, #44
 647 0120 0010A0E3 		mov	r1, #0
 648 0124 0320A0E1 		mov	r2, r3
 649 0128 0130A0E3 		mov	r3, #1
 650 012c FEFFFFEB 		bl	ENC_write_reg
 189:Ethernet.c    **** 		ENC_bit_field_set(ECON2,ECON2_PKTDEC);
 651              		.loc 1 189 0
 652 0130 1E00A0E3 		mov	r0, #30
 653 0134 4010A0E3 		mov	r1, #64
 654 0138 FEFFFFEB 		bl	ENC_bit_field_set
 655 013c 010000EA 		b	.L32
 656              	.L31:
 190:Ethernet.c    **** 		
 191:Ethernet.c    **** 	}else{
 192:Ethernet.c    **** 		read_size = 0;
 657              		.loc 1 192 0
 658 0140 0030A0E3 		mov	r3, #0
 659 0144 18300BE5 		str	r3, [fp, #-24]
ARM GAS  /tmp/ccvvV6V2.s 			page 16


 660              	.L32:
 193:Ethernet.c    **** 	}
 194:Ethernet.c    **** 	/*return ETHERNET_OK;*/
 195:Ethernet.c    **** 	return (read_size);
 661              		.loc 1 195 0
 662 0148 18301BE5 		ldr	r3, [fp, #-24]
 663 014c 30300BE5 		str	r3, [fp, #-48]
 664              	.L28:
 665 0150 30301BE5 		ldr	r3, [fp, #-48]
 196:Ethernet.c    **** }
 666              		.loc 1 196 0
 667 0154 0300A0E1 		mov	r0, r3
 668 0158 0CD04BE2 		sub	sp, fp, #12
 669 015c 00689DE8 		ldmfd	sp, {fp, sp, lr}
 670 0160 1EFF2FE1 		bx	lr
 671              	.LFE7:
 672              		.size	Ethernet_receive, .-Ethernet_receive
 673              		.section	.bss.ethDevice,"aw",%nobits
 674              		.align	2
 675              		.type	ethDevice, %object
 676              		.size	ethDevice, 4
 677              	ethDevice:
 678 0000 00000000 		.space	4
 679              		.section	.debug_frame,"",%progbits
 680              	.Lframe0:
 681 0000 0C000000 		.4byte	.LECIE0-.LSCIE0
 682              	.LSCIE0:
 683 0004 FFFFFFFF 		.4byte	0xffffffff
 684 0008 01       		.byte	0x1
 685 0009 00       		.ascii	"\000"
 686 000a 01       		.uleb128 0x1
 687 000b 7C       		.sleb128 -4
 688 000c 0E       		.byte	0xe
 689 000d 0C       		.byte	0xc
 690 000e 0D       		.uleb128 0xd
 691 000f 00       		.uleb128 0x0
 692              		.align	2
 693              	.LECIE0:
 694              	.LSFDE0:
 695 0010 1C000000 		.4byte	.LEFDE0-.LASFDE0
 696              	.LASFDE0:
 697 0014 00000000 		.4byte	.Lframe0
 698 0018 00000000 		.4byte	.LFB2
 699 001c 50000000 		.4byte	.LFE2-.LFB2
 700 0020 44       		.byte	0x4
 701              		.4byte	.LCFI0-.LFB2
 702 0021 0D       		.byte	0xd
 703 0022 0C       		.uleb128 0xc
 704 0023 44       		.byte	0x4
 705              		.4byte	.LCFI1-.LCFI0
 706 0024 8E       		.byte	0x8e
 707 0025 02       		.uleb128 0x2
 708 0026 8D       		.byte	0x8d
 709 0027 03       		.uleb128 0x3
 710 0028 8B       		.byte	0x8b
 711 0029 04       		.uleb128 0x4
 712 002a 44       		.byte	0x4
ARM GAS  /tmp/ccvvV6V2.s 			page 17


 713              		.4byte	.LCFI2-.LCFI1
 714 002b 0C       		.byte	0xc
 715 002c 0B       		.uleb128 0xb
 716 002d 04       		.uleb128 0x4
 717 002e 0000     		.align	2
 718              	.LEFDE0:
 719              	.LSFDE2:
 720 0030 1C000000 		.4byte	.LEFDE2-.LASFDE2
 721              	.LASFDE2:
 722 0034 00000000 		.4byte	.Lframe0
 723 0038 00000000 		.4byte	.LFB3
 724 003c E0020000 		.4byte	.LFE3-.LFB3
 725 0040 44       		.byte	0x4
 726              		.4byte	.LCFI4-.LFB3
 727 0041 0D       		.byte	0xd
 728 0042 0C       		.uleb128 0xc
 729 0043 44       		.byte	0x4
 730              		.4byte	.LCFI5-.LCFI4
 731 0044 8E       		.byte	0x8e
 732 0045 02       		.uleb128 0x2
 733 0046 8D       		.byte	0x8d
 734 0047 03       		.uleb128 0x3
 735 0048 8B       		.byte	0x8b
 736 0049 04       		.uleb128 0x4
 737 004a 44       		.byte	0x4
 738              		.4byte	.LCFI6-.LCFI5
 739 004b 0C       		.byte	0xc
 740 004c 0B       		.uleb128 0xb
 741 004d 04       		.uleb128 0x4
 742 004e 0000     		.align	2
 743              	.LEFDE2:
 744              	.LSFDE4:
 745 0050 1C000000 		.4byte	.LEFDE4-.LASFDE4
 746              	.LASFDE4:
 747 0054 00000000 		.4byte	.Lframe0
 748 0058 00000000 		.4byte	.LFB6
 749 005c 70010000 		.4byte	.LFE6-.LFB6
 750 0060 44       		.byte	0x4
 751              		.4byte	.LCFI8-.LFB6
 752 0061 0D       		.byte	0xd
 753 0062 0C       		.uleb128 0xc
 754 0063 44       		.byte	0x4
 755              		.4byte	.LCFI9-.LCFI8
 756 0064 8E       		.byte	0x8e
 757 0065 02       		.uleb128 0x2
 758 0066 8D       		.byte	0x8d
 759 0067 03       		.uleb128 0x3
 760 0068 8B       		.byte	0x8b
 761 0069 04       		.uleb128 0x4
 762 006a 44       		.byte	0x4
 763              		.4byte	.LCFI10-.LCFI9
 764 006b 0C       		.byte	0xc
 765 006c 0B       		.uleb128 0xb
 766 006d 04       		.uleb128 0x4
 767 006e 0000     		.align	2
 768              	.LEFDE4:
 769              	.LSFDE6:
ARM GAS  /tmp/ccvvV6V2.s 			page 18


 770 0070 1C000000 		.4byte	.LEFDE6-.LASFDE6
 771              	.LASFDE6:
 772 0074 00000000 		.4byte	.Lframe0
 773 0078 00000000 		.4byte	.LFB4
 774 007c 9C000000 		.4byte	.LFE4-.LFB4
 775 0080 44       		.byte	0x4
 776              		.4byte	.LCFI12-.LFB4
 777 0081 0D       		.byte	0xd
 778 0082 0C       		.uleb128 0xc
 779 0083 44       		.byte	0x4
 780              		.4byte	.LCFI13-.LCFI12
 781 0084 8E       		.byte	0x8e
 782 0085 02       		.uleb128 0x2
 783 0086 8D       		.byte	0x8d
 784 0087 03       		.uleb128 0x3
 785 0088 8B       		.byte	0x8b
 786 0089 04       		.uleb128 0x4
 787 008a 44       		.byte	0x4
 788              		.4byte	.LCFI14-.LCFI13
 789 008b 0C       		.byte	0xc
 790 008c 0B       		.uleb128 0xb
 791 008d 04       		.uleb128 0x4
 792 008e 0000     		.align	2
 793              	.LEFDE6:
 794              	.LSFDE8:
 795 0090 1C000000 		.4byte	.LEFDE8-.LASFDE8
 796              	.LASFDE8:
 797 0094 00000000 		.4byte	.Lframe0
 798 0098 00000000 		.4byte	.LFB5
 799 009c 48000000 		.4byte	.LFE5-.LFB5
 800 00a0 44       		.byte	0x4
 801              		.4byte	.LCFI16-.LFB5
 802 00a1 0D       		.byte	0xd
 803 00a2 0C       		.uleb128 0xc
 804 00a3 44       		.byte	0x4
 805              		.4byte	.LCFI17-.LCFI16
 806 00a4 8E       		.byte	0x8e
 807 00a5 02       		.uleb128 0x2
 808 00a6 8D       		.byte	0x8d
 809 00a7 03       		.uleb128 0x3
 810 00a8 8B       		.byte	0x8b
 811 00a9 04       		.uleb128 0x4
 812 00aa 44       		.byte	0x4
 813              		.4byte	.LCFI18-.LCFI17
 814 00ab 0C       		.byte	0xc
 815 00ac 0B       		.uleb128 0xb
 816 00ad 04       		.uleb128 0x4
 817 00ae 0000     		.align	2
 818              	.LEFDE8:
 819              	.LSFDE10:
 820 00b0 1C000000 		.4byte	.LEFDE10-.LASFDE10
 821              	.LASFDE10:
 822 00b4 00000000 		.4byte	.Lframe0
 823 00b8 00000000 		.4byte	.LFB7
 824 00bc 64010000 		.4byte	.LFE7-.LFB7
 825 00c0 44       		.byte	0x4
 826              		.4byte	.LCFI19-.LFB7
ARM GAS  /tmp/ccvvV6V2.s 			page 19


 827 00c1 0D       		.byte	0xd
 828 00c2 0C       		.uleb128 0xc
 829 00c3 44       		.byte	0x4
 830              		.4byte	.LCFI20-.LCFI19
 831 00c4 8E       		.byte	0x8e
 832 00c5 02       		.uleb128 0x2
 833 00c6 8D       		.byte	0x8d
 834 00c7 03       		.uleb128 0x3
 835 00c8 8B       		.byte	0x8b
 836 00c9 04       		.uleb128 0x4
 837 00ca 44       		.byte	0x4
 838              		.4byte	.LCFI21-.LCFI20
 839 00cb 0C       		.byte	0xc
 840 00cc 0B       		.uleb128 0xb
 841 00cd 04       		.uleb128 0x4
 842 00ce 0000     		.align	2
 843              	.LEFDE10:
 844              		.text
 845              	.Letext0: