ARM GAS  /tmp/ccAinKOE.s 			page 1


   1              		.cpu arm7tdmi
   2              		.fpu softvfp
   3              		.eabi_attribute 20, 1
   4              		.eabi_attribute 21, 1
   5              		.eabi_attribute 23, 3
   6              		.eabi_attribute 24, 1
   7              		.eabi_attribute 25, 1
   8              		.eabi_attribute 26, 1
   9              		.eabi_attribute 30, 6
  10              		.eabi_attribute 18, 4
  11              		.file	"TIMER_LPC.c"
  18 0000 6D010000 		.text
  18      0200A200 
  18      00000201 
  18      FB0E0D00 
  18      01010101 
  19              	.Ltext0:
  20              		.section	.text.TIMER_LPC_init,"ax",%progbits
  21              		.align	2
  22              		.global	TIMER_LPC_init
  23              		.type	TIMER_LPC_init, %function
  24              	TIMER_LPC_init:
  25              	.LFB2:
  26              		.file 1 "TIMER_LPC.c"
   1:TIMER_LPC.c   **** /*
   2:TIMER_LPC.c   **** #=======================================================================
   3:TIMER_LPC.c   **** # SE1   - Sistemas Embebidos 1
   4:TIMER_LPC.c   **** #-----------------------------------------------------------------------
   5:TIMER_LPC.c   **** # Turma:	LI51N
   6:TIMER_LPC.c   **** # Semestre:	Inverno 2010/2011
   7:TIMER_LPC.c   **** # Data:		Novembro/2010
   8:TIMER_LPC.c   **** #-----------------------------------------------------------------------
   9:TIMER_LPC.c   **** # Nome: 	Nuno Cancelo
  10:TIMER_LPC.c   **** # Numero:	31401
  11:TIMER_LPC.c   **** #-----------------------------------------------------------------------
  12:TIMER_LPC.c   **** # Nome:		Nuno Sousa
  13:TIMER_LPC.c   **** # Numero:	33595
  14:TIMER_LPC.c   **** #-----------------------------------------------------------------------
  15:TIMER_LPC.c   **** # LEIC  - Licenciatura em Engenharia Informática e Computadores
  16:TIMER_LPC.c   **** # DEETC - Dep. de Eng. Electrónica e Telecomunicações e Computadores
  17:TIMER_LPC.c   **** # ISEL  - Instituto Superior de Engenharia de Lisboa
  18:TIMER_LPC.c   **** #=======================================================================
  19:TIMER_LPC.c   **** **/ 
  20:TIMER_LPC.c   **** #include "SCB.h"
  21:TIMER_LPC.c   **** #include "TIMER_LPC.h"
  22:TIMER_LPC.c   **** 
  23:TIMER_LPC.c   **** /**
  24:TIMER_LPC.c   ****  * @defgroup TIMER_CONTROL_VALUES
  25:TIMER_LPC.c   ****  * @{
  26:TIMER_LPC.c   ****  */
  27:TIMER_LPC.c   **** #define _Timer0_Capture_MAX 3
ARM GAS  /tmp/ccAinKOE.s 			page 2


  28:TIMER_LPC.c   **** #define _Timer1_Capture_MAX 2
  29:TIMER_LPC.c   **** #define _Timer0_Match_MAX 2
  30:TIMER_LPC.c   **** #define _Timer1_Match_MAX 2
  31:TIMER_LPC.c   **** /**
  32:TIMER_LPC.c   ****  * @}
  33:TIMER_LPC.c   ****  */
  34:TIMER_LPC.c   **** 
  35:TIMER_LPC.c   **** 
  36:TIMER_LPC.c   **** 
  37:TIMER_LPC.c   **** /**
  38:TIMER_LPC.c   ****  * @brief Initialization of the timer
  39:TIMER_LPC.c   ****  * @param timer: pointer to timer structure
  40:TIMER_LPC.c   ****  * @param countNbr: value in whitch the timer pr is counting
  41:TIMER_LPC.c   ****  * */
  42:TIMER_LPC.c   **** void TIMER_LPC_init(pLPC_TIMER timer, U32 countNbr){
  27              		.loc 1 42 0
  28              		@ Function supports interworking.
  29              		@ args = 0, pretend = 0, frame = 8
  30              		@ frame_needed = 1, uses_anonymous_args = 0
  31 0000 0DC0A0E1 		mov	ip, sp
  32              	.LCFI0:
  33 0004 00D82DE9 		stmfd	sp!, {fp, ip, lr, pc}
  34              	.LCFI1:
  35 0008 04B04CE2 		sub	fp, ip, #4
  36              	.LCFI2:
  37 000c 08D04DE2 		sub	sp, sp, #8
  38              	.LCFI3:
  39 0010 10000BE5 		str	r0, [fp, #-16]
  40 0014 14100BE5 		str	r1, [fp, #-20]
  43:TIMER_LPC.c   ****   timer->TCR    = __TCR_DISABLE__|__TCR_RESET_ENABLE__;
  41              		.loc 1 43 0
  42 0018 10201BE5 		ldr	r2, [fp, #-16]
  43 001c 0230A0E3 		mov	r3, #2
  44 0020 043082E5 		str	r3, [r2, #4]
  44:TIMER_LPC.c   ****   timer->CTCR   |= __CTCR_MODE_0__;
  45              		.loc 1 44 0
  46 0024 10301BE5 		ldr	r3, [fp, #-16]
  47 0028 702093E5 		ldr	r2, [r3, #112]
  48 002c 10301BE5 		ldr	r3, [fp, #-16]
  49 0030 702083E5 		str	r2, [r3, #112]
  45:TIMER_LPC.c   ****   timer->PR     = countNbr;                           
  50              		.loc 1 45 0
  51 0034 10201BE5 		ldr	r2, [fp, #-16]
  52 0038 14301BE5 		ldr	r3, [fp, #-20]
  53 003c 0C3082E5 		str	r3, [r2, #12]
  46:TIMER_LPC.c   ****   timer->TCR    = __TCR_ENABLE__|__TCR_RESET_DISABLE__; 
  54              		.loc 1 46 0
  55 0040 10201BE5 		ldr	r2, [fp, #-16]
  56 0044 0130A0E3 		mov	r3, #1
  57 0048 043082E5 		str	r3, [r2, #4]
  47:TIMER_LPC.c   **** }
  58              		.loc 1 47 0
  59 004c 0CD04BE2 		sub	sp, fp, #12
  60 0050 00689DE8 		ldmfd	sp, {fp, sp, lr}
  61 0054 1EFF2FE1 		bx	lr
  62              	.LFE2:
  63              		.size	TIMER_LPC_init, .-TIMER_LPC_init
ARM GAS  /tmp/ccAinKOE.s 			page 3


  64              		.section	.text.TIMER_LPC_delay,"ax",%progbits
  65              		.align	2
  66              		.global	TIMER_LPC_delay
  67              		.type	TIMER_LPC_delay, %function
  68              	TIMER_LPC_delay:
  69              	.LFB3:
  48:TIMER_LPC.c   **** 
  49:TIMER_LPC.c   **** /**
  50:TIMER_LPC.c   ****  * @brief Timer delay. Wait for some time
  51:TIMER_LPC.c   ****  * @param timer: pointer to timer structure
  52:TIMER_LPC.c   ****  * @param elapse: value to be waited
  53:TIMER_LPC.c   ****  * */
  54:TIMER_LPC.c   **** void TIMER_LPC_delay(pLPC_TIMER timer, U32 elapse){
  70              		.loc 1 54 0
  71              		@ Function supports interworking.
  72              		@ args = 0, pretend = 0, frame = 16
  73              		@ frame_needed = 1, uses_anonymous_args = 0
  74 0000 0DC0A0E1 		mov	ip, sp
  75              	.LCFI4:
  76 0004 00D82DE9 		stmfd	sp!, {fp, ip, lr, pc}
  77              	.LCFI5:
  78 0008 04B04CE2 		sub	fp, ip, #4
  79              	.LCFI6:
  80 000c 10D04DE2 		sub	sp, sp, #16
  81              	.LCFI7:
  82 0010 18000BE5 		str	r0, [fp, #-24]
  83 0014 1C100BE5 		str	r1, [fp, #-28]
  55:TIMER_LPC.c   ****     U32 time;
  56:TIMER_LPC.c   ****     timer->PC = 0;                          
  84              		.loc 1 56 0
  85 0018 18201BE5 		ldr	r2, [fp, #-24]
  86 001c 0030A0E3 		mov	r3, #0
  87 0020 103082E5 		str	r3, [r2, #16]
  57:TIMER_LPC.c   ****     time = timer_lpc_elapsed(timer,0);
  88              		.loc 1 57 0
  89 0024 18301BE5 		ldr	r3, [fp, #-24]
  90 0028 083093E5 		ldr	r3, [r3, #8]
  91 002c 10300BE5 		str	r3, [fp, #-16]
  92              	.L4:
  58:TIMER_LPC.c   ****     while(timer_lpc_elapsed(timer,time)<= elapse);
  93              		.loc 1 58 0
  94 0030 18301BE5 		ldr	r3, [fp, #-24]
  95 0034 082093E5 		ldr	r2, [r3, #8]
  96 0038 10301BE5 		ldr	r3, [fp, #-16]
  97 003c 022063E0 		rsb	r2, r3, r2
  98 0040 1C301BE5 		ldr	r3, [fp, #-28]
  99 0044 030052E1 		cmp	r2, r3
 100 0048 F8FFFF9A 		bls	.L4
  59:TIMER_LPC.c   **** }
 101              		.loc 1 59 0
 102 004c 0CD04BE2 		sub	sp, fp, #12
 103 0050 00689DE8 		ldmfd	sp, {fp, sp, lr}
 104 0054 1EFF2FE1 		bx	lr
 105              	.LFE3:
 106              		.size	TIMER_LPC_delay, .-TIMER_LPC_delay
 107              		.section	.text.TIMER_LPC_enable,"ax",%progbits
 108              		.align	2
ARM GAS  /tmp/ccAinKOE.s 			page 4


 109              		.global	TIMER_LPC_enable
 110              		.type	TIMER_LPC_enable, %function
 111              	TIMER_LPC_enable:
 112              	.LFB4:
  60:TIMER_LPC.c   **** /**
  61:TIMER_LPC.c   ****  * @brief Enable of the timer
  62:TIMER_LPC.c   ****  * @param timer: timer to be enabled
  63:TIMER_LPC.c   ****  */
  64:TIMER_LPC.c   **** void TIMER_LPC_enable(pLPC_TIMER timer){
 113              		.loc 1 64 0
 114              		@ Function supports interworking.
 115              		@ args = 0, pretend = 0, frame = 8
 116              		@ frame_needed = 1, uses_anonymous_args = 0
 117 0000 0DC0A0E1 		mov	ip, sp
 118              	.LCFI8:
 119 0004 00D82DE9 		stmfd	sp!, {fp, ip, lr, pc}
 120              	.LCFI9:
 121 0008 04B04CE2 		sub	fp, ip, #4
 122              	.LCFI10:
 123 000c 08D04DE2 		sub	sp, sp, #8
 124              	.LCFI11:
 125 0010 10000BE5 		str	r0, [fp, #-16]
  65:TIMER_LPC.c   **** 	timer->TCR    = __TCR_ENABLE__|__TCR_RESET_DISABLE__;
 126              		.loc 1 65 0
 127 0014 10201BE5 		ldr	r2, [fp, #-16]
 128 0018 0130A0E3 		mov	r3, #1
 129 001c 043082E5 		str	r3, [r2, #4]
  66:TIMER_LPC.c   **** }
 130              		.loc 1 66 0
 131 0020 0CD04BE2 		sub	sp, fp, #12
 132 0024 00689DE8 		ldmfd	sp, {fp, sp, lr}
 133 0028 1EFF2FE1 		bx	lr
 134              	.LFE4:
 135              		.size	TIMER_LPC_enable, .-TIMER_LPC_enable
 136              		.section	.rodata.C.1.1513,"a",%progbits
 137              		.align	2
 138              		.type	C.1.1513, %object
 139              		.size	C.1.1513, 8
 140              	C.1.1513:
 141 0000 00002000 		.word	2097152
 142 0004 00008000 		.word	8388608
 143              		.section	.rodata.C.0.1512,"a",%progbits
 144              		.align	2
 145              		.type	C.0.1512, %object
 146              		.size	C.0.1512, 12
 147              	C.0.1512:
 148 0000 20000000 		.word	32
 149 0004 00020000 		.word	512
 150 0008 00200000 		.word	8192
 151              		.section	.text.TIMER_LPC_capture_init,"ax",%progbits
 152              		.align	2
 153              		.global	TIMER_LPC_capture_init
 154              		.type	TIMER_LPC_capture_init, %function
 155              	TIMER_LPC_capture_init:
 156              	.LFB5:
  67:TIMER_LPC.c   **** /**
  68:TIMER_LPC.c   ****  * @brief Init of Timer capture
ARM GAS  /tmp/ccAinKOE.s 			page 5


  69:TIMER_LPC.c   ****  * @param timer: pointer to timer structure
  70:TIMER_LPC.c   ****  * @param channel: valid Timer Capture channel.0-2 in Timer 0, 0-1 in Timer 1
  71:TIMER_LPC.c   ****  * @param captureMask: Counting Method
  72:TIMER_LPC.c   ****  * @param countNbr: Number of counting
  73:TIMER_LPC.c   ****  * @param ctcrFunction: valid value of timer capture mode
  74:TIMER_LPC.c   ****  * */
  75:TIMER_LPC.c   **** 
  76:TIMER_LPC.c   **** void TIMER_LPC_capture_init(pLPC_TIMER timer,U8 channel, U32 captureMask, U32 countNbr,tCtcrFunctio
 157              		.loc 1 76 0
 158              		@ Function supports interworking.
 159              		@ args = 4, pretend = 0, frame = 48
 160              		@ frame_needed = 1, uses_anonymous_args = 0
 161 0000 0DC0A0E1 		mov	ip, sp
 162              	.LCFI12:
 163 0004 00D82DE9 		stmfd	sp!, {fp, ip, lr, pc}
 164              	.LCFI13:
 165 0008 04B04CE2 		sub	fp, ip, #4
 166              	.LCFI14:
 167 000c 30D04DE2 		sub	sp, sp, #48
 168              	.LCFI15:
 169 0010 30000BE5 		str	r0, [fp, #-48]
 170 0014 38200BE5 		str	r2, [fp, #-56]
 171 0018 3C300BE5 		str	r3, [fp, #-60]
 172 001c 0130A0E1 		mov	r3, r1
 173 0020 31304BE5 		strb	r3, [fp, #-49]
  77:TIMER_LPC.c   ****   U32 _Timer0_Capture_Mask[3]={PINSEL0_TIMER_0_CAPTURE_0_0,PINSEL0_TIMER_0_CAPTURE_0_1,PINSEL0_TIME
 174              		.loc 1 77 0
 175 0024 58319FE5 		ldr	r3, .L14
 176 0028 20C04BE2 		sub	ip, fp, #32
 177 002c 070093E8 		ldmia	r3, {r0, r1, r2}
 178 0030 07008CE8 		stmia	ip, {r0, r1, r2}
  78:TIMER_LPC.c   ****   U32 _Timer1_Capture_Mask[2]={PINSEL0_TIMER_1_CAPTURE_1_0,PINSEL0_TIMER_1_CAPTURE_1_1};
 179              		.loc 1 78 0
 180 0034 4C319FE5 		ldr	r3, .L14+4
 181 0038 28204BE2 		sub	r2, fp, #40
 182 003c 030093E8 		ldmia	r3, {r0, r1}
 183 0040 030082E8 		stmia	r2, {r0, r1}
  79:TIMER_LPC.c   **** 
  80:TIMER_LPC.c   ****   /*Enable GPIO for Timer Capture or Else*/
  81:TIMER_LPC.c   ****   if (timer  == pTIMER0 ){
 184              		.loc 1 81 0
 185 0044 30201BE5 		ldr	r2, [fp, #-48]
 186 0048 0E32A0E3 		mov	r3, #-536870912
 187 004c 013983E2 		add	r3, r3, #16384
 188 0050 030052E1 		cmp	r2, r3
 189 0054 1300001A 		bne	.L9
  82:TIMER_LPC.c   ****     if (channel >= _Timer0_Capture_MAX)
 190              		.loc 1 82 0
 191 0058 31305BE5 		ldrb	r3, [fp, #-49]	@ zero_extendqisi2
 192 005c 020053E3 		cmp	r3, #2
 193 0060 4400008A 		bhi	.L13
 194              	.LBB2:
  83:TIMER_LPC.c   ****       return;
  84:TIMER_LPC.c   ****     GPIO_INIT_PINSEL0(_Timer0_Capture_Mask[channel]);
 195              		.loc 1 84 0
 196 0064 0E32A0E3 		mov	r3, #-536870912
 197 0068 0B3983E2 		add	r3, r3, #180224
ARM GAS  /tmp/ccAinKOE.s 			page 6


 198 006c 003093E5 		ldr	r3, [r3, #0]
 199 0070 14300BE5 		str	r3, [fp, #-20]
 200 0074 0E12A0E3 		mov	r1, #-536870912
 201 0078 0B1981E2 		add	r1, r1, #180224
 202 007c 31305BE5 		ldrb	r3, [fp, #-49]	@ zero_extendqisi2
 203 0080 1320E0E3 		mvn	r2, #19
 204 0084 0331A0E1 		mov	r3, r3, asl #2
 205 0088 0C004BE2 		sub	r0, fp, #12
 206 008c 033080E0 		add	r3, r0, r3
 207 0090 023083E0 		add	r3, r3, r2
 208 0094 002093E5 		ldr	r2, [r3, #0]
 209 0098 14301BE5 		ldr	r3, [fp, #-20]
 210 009c 033002E0 		and	r3, r2, r3
 211 00a0 003081E5 		str	r3, [r1, #0]
 212 00a4 170000EA 		b	.L11
 213              	.L9:
 214              	.LBE2:
  85:TIMER_LPC.c   ****   }else if (timer == pTIMER1){
 215              		.loc 1 85 0
 216 00a8 30201BE5 		ldr	r2, [fp, #-48]
 217 00ac 0E32A0E3 		mov	r3, #-536870912
 218 00b0 023983E2 		add	r3, r3, #32768
 219 00b4 030052E1 		cmp	r2, r3
 220 00b8 2E00001A 		bne	.L13
  86:TIMER_LPC.c   ****     if (channel >= _Timer1_Capture_MAX)
 221              		.loc 1 86 0
 222 00bc 31305BE5 		ldrb	r3, [fp, #-49]	@ zero_extendqisi2
 223 00c0 010053E3 		cmp	r3, #1
 224 00c4 2B00008A 		bhi	.L13
 225              	.LBB3:
  87:TIMER_LPC.c   ****       return;
  88:TIMER_LPC.c   ****     GPIO_INIT_PINSEL0(_Timer1_Capture_Mask[channel]);
 226              		.loc 1 88 0
 227 00c8 0E32A0E3 		mov	r3, #-536870912
 228 00cc 0B3983E2 		add	r3, r3, #180224
 229 00d0 003093E5 		ldr	r3, [r3, #0]
 230 00d4 10300BE5 		str	r3, [fp, #-16]
 231 00d8 0E12A0E3 		mov	r1, #-536870912
 232 00dc 0B1981E2 		add	r1, r1, #180224
 233 00e0 31305BE5 		ldrb	r3, [fp, #-49]	@ zero_extendqisi2
 234 00e4 1B20E0E3 		mvn	r2, #27
 235 00e8 0331A0E1 		mov	r3, r3, asl #2
 236 00ec 0C004BE2 		sub	r0, fp, #12
 237 00f0 033080E0 		add	r3, r0, r3
 238 00f4 023083E0 		add	r3, r3, r2
 239 00f8 002093E5 		ldr	r2, [r3, #0]
 240 00fc 10301BE5 		ldr	r3, [fp, #-16]
 241 0100 033002E0 		and	r3, r2, r3
 242 0104 003081E5 		str	r3, [r1, #0]
 243              	.L11:
 244              	.LBE3:
  89:TIMER_LPC.c   ****   }else {
  90:TIMER_LPC.c   ****     return;
  91:TIMER_LPC.c   ****   }
  92:TIMER_LPC.c   ****   
  93:TIMER_LPC.c   ****   timer->TCR                    = __TCR_DISABLE__|__TCR_RESET_ENABLE__; 
 245              		.loc 1 93 0
ARM GAS  /tmp/ccAinKOE.s 			page 7


 246 0108 30201BE5 		ldr	r2, [fp, #-48]
 247 010c 0230A0E3 		mov	r3, #2
 248 0110 043082E5 		str	r3, [r2, #4]
  94:TIMER_LPC.c   ****   timer->CCR                    |= (captureMask)<<(3*channel);                         
 249              		.loc 1 94 0
 250 0114 30301BE5 		ldr	r3, [fp, #-48]
 251 0118 281093E5 		ldr	r1, [r3, #40]
 252 011c 31205BE5 		ldrb	r2, [fp, #-49]	@ zero_extendqisi2
 253 0120 0230A0E1 		mov	r3, r2
 254 0124 8330A0E1 		mov	r3, r3, asl #1
 255 0128 022083E0 		add	r2, r3, r2
 256 012c 38301BE5 		ldr	r3, [fp, #-56]
 257 0130 1332A0E1 		mov	r3, r3, asl r2
 258 0134 032081E1 		orr	r2, r1, r3
 259 0138 30301BE5 		ldr	r3, [fp, #-48]
 260 013c 282083E5 		str	r2, [r3, #40]
  95:TIMER_LPC.c   ****   if(captureMask & __CAPTURE_INTERRUPT__)
 261              		.loc 1 95 0
 262 0140 38301BE5 		ldr	r3, [fp, #-56]
 263 0144 043003E2 		and	r3, r3, #4
 264 0148 000053E3 		cmp	r3, #0
 265 014c 0600000A 		beq	.L12
  96:TIMER_LPC.c   **** 	  timer->IR		= (1<<(channel+4));  
 266              		.loc 1 96 0
 267 0150 31305BE5 		ldrb	r3, [fp, #-49]	@ zero_extendqisi2
 268 0154 042083E2 		add	r2, r3, #4
 269 0158 0130A0E3 		mov	r3, #1
 270 015c 1332A0E1 		mov	r3, r3, asl r2
 271 0160 0320A0E1 		mov	r2, r3
 272 0164 30301BE5 		ldr	r3, [fp, #-48]
 273 0168 002083E5 		str	r2, [r3, #0]
 274              	.L12:
  97:TIMER_LPC.c   ****   timer->TCR                    = __TCR_ENABLE__|__TCR_RESET_DISABLE__; 
 275              		.loc 1 97 0
 276 016c 30201BE5 		ldr	r2, [fp, #-48]
 277 0170 0130A0E3 		mov	r3, #1
 278 0174 043082E5 		str	r3, [r2, #4]
 279              	.L13:
  98:TIMER_LPC.c   **** }
 280              		.loc 1 98 0
 281 0178 0CD04BE2 		sub	sp, fp, #12
 282 017c 00689DE8 		ldmfd	sp, {fp, sp, lr}
 283 0180 1EFF2FE1 		bx	lr
 284              	.L15:
 285              		.align	2
 286              	.L14:
 287 0184 00000000 		.word	C.0.1512
 288 0188 00000000 		.word	C.1.1513
 289              	.LFE5:
 290              		.size	TIMER_LPC_capture_init, .-TIMER_LPC_capture_init
 291              		.section	.rodata.C.3.1555,"a",%progbits
 292              		.align	2
 293              		.type	C.3.1555, %object
 294              		.size	C.3.1555, 8
 295              	C.3.1555:
 296 0000 80000000 		.word	128
 297 0004 00080000 		.word	2048
ARM GAS  /tmp/ccAinKOE.s 			page 8


 298              		.section	.rodata.C.2.1554,"a",%progbits
 299              		.align	2
 300              		.type	C.2.1554, %object
 301              		.size	C.2.1554, 8
 302              	C.2.1554:
 303 0000 00000002 		.word	33554432
 304 0004 00000008 		.word	134217728
 305              		.section	.text.TIMER_LPC_ext_match_init,"ax",%progbits
 306              		.align	2
 307              		.global	TIMER_LPC_ext_match_init
 308              		.type	TIMER_LPC_ext_match_init, %function
 309              	TIMER_LPC_ext_match_init:
 310              	.LFB6:
  99:TIMER_LPC.c   **** /**
 100:TIMER_LPC.c   ****  * @brief Enable of External Match
 101:TIMER_LPC.c   ****  * @param timer: pointer to timer structure
 102:TIMER_LPC.c   ****  * @param channel: valid Timer Match channel.0-1 in Timer 0, 0-1 in Timer 1
 103:TIMER_LPC.c   ****  * @param MatchMask: Counting Method
 104:TIMER_LPC.c   ****  * @param countNbr: Number of counting 
 105:TIMER_LPC.c   ****  * @param emrFunction: valid value of timer match mode
 106:TIMER_LPC.c   ****  * @todo : Working, need to be Generic...
 107:TIMER_LPC.c   ****  * 
 108:TIMER_LPC.c   ****  * */
 109:TIMER_LPC.c   **** void TIMER_LPC_ext_match_init(pLPC_TIMER timer,U8 channel, U32 MatchMask, U32 countNbr,tEmrFunction
 311              		.loc 1 109 0
 312              		@ Function supports interworking.
 313              		@ args = 4, pretend = 0, frame = 40
 314              		@ frame_needed = 1, uses_anonymous_args = 0
 315 0000 0DC0A0E1 		mov	ip, sp
 316              	.LCFI16:
 317 0004 00D82DE9 		stmfd	sp!, {fp, ip, lr, pc}
 318              	.LCFI17:
 319 0008 04B04CE2 		sub	fp, ip, #4
 320              	.LCFI18:
 321 000c 28D04DE2 		sub	sp, sp, #40
 322              	.LCFI19:
 323 0010 28000BE5 		str	r0, [fp, #-40]
 324 0014 30200BE5 		str	r2, [fp, #-48]
 325 0018 34300BE5 		str	r3, [fp, #-52]
 326 001c 0130A0E1 		mov	r3, r1
 327 0020 29304BE5 		strb	r3, [fp, #-41]
 110:TIMER_LPC.c   ****   U32 _Timer1_Match_Mask[2]={PINSEL0_TIMER_1_MATCH_1_0,PINSEL0_TIMER_1_MATCH_1_1};
 328              		.loc 1 110 0
 329 0024 A0319FE5 		ldr	r3, .L21
 330 0028 1C204BE2 		sub	r2, fp, #28
 331 002c 030093E8 		ldmia	r3, {r0, r1}
 332 0030 030082E8 		stmia	r2, {r0, r1}
 111:TIMER_LPC.c   ****   U32 _Timer0_Match_Mask[2]={PINSEL0_TIMER_0_MATCH_0_0,PINSEL0_TIMER_0_MATCH_0_1};
 333              		.loc 1 111 0
 334 0034 94319FE5 		ldr	r3, .L21+4
 335 0038 24204BE2 		sub	r2, fp, #36
 336 003c 030093E8 		ldmia	r3, {r0, r1}
 337 0040 030082E8 		stmia	r2, {r0, r1}
 112:TIMER_LPC.c   ****   if (timer  == pTIMER0 ){
 338              		.loc 1 112 0
 339 0044 28201BE5 		ldr	r2, [fp, #-40]
 340 0048 0E32A0E3 		mov	r3, #-536870912
ARM GAS  /tmp/ccAinKOE.s 			page 9


 341 004c 013983E2 		add	r3, r3, #16384
 342 0050 030052E1 		cmp	r2, r3
 343 0054 1300001A 		bne	.L17
 113:TIMER_LPC.c   ****     if (channel >= _Timer0_Match_MAX)
 344              		.loc 1 113 0
 345 0058 29305BE5 		ldrb	r3, [fp, #-41]	@ zero_extendqisi2
 346 005c 010053E3 		cmp	r3, #1
 347 0060 5600008A 		bhi	.L20
 348              	.LBB4:
 114:TIMER_LPC.c   ****       return;
 115:TIMER_LPC.c   ****     GPIO_INIT_PINSEL0(_Timer0_Match_Mask[channel]);
 349              		.loc 1 115 0
 350 0064 0E32A0E3 		mov	r3, #-536870912
 351 0068 0B3983E2 		add	r3, r3, #180224
 352 006c 003093E5 		ldr	r3, [r3, #0]
 353 0070 14300BE5 		str	r3, [fp, #-20]
 354 0074 0E12A0E3 		mov	r1, #-536870912
 355 0078 0B1981E2 		add	r1, r1, #180224
 356 007c 29305BE5 		ldrb	r3, [fp, #-41]	@ zero_extendqisi2
 357 0080 1720E0E3 		mvn	r2, #23
 358 0084 0331A0E1 		mov	r3, r3, asl #2
 359 0088 0C004BE2 		sub	r0, fp, #12
 360 008c 033080E0 		add	r3, r0, r3
 361 0090 023083E0 		add	r3, r3, r2
 362 0094 002093E5 		ldr	r2, [r3, #0]
 363 0098 14301BE5 		ldr	r3, [fp, #-20]
 364 009c 033002E0 		and	r3, r2, r3
 365 00a0 003081E5 		str	r3, [r1, #0]
 366 00a4 170000EA 		b	.L19
 367              	.L17:
 368              	.LBE4:
 116:TIMER_LPC.c   ****   }else if (timer == pTIMER1){
 369              		.loc 1 116 0
 370 00a8 28201BE5 		ldr	r2, [fp, #-40]
 371 00ac 0E32A0E3 		mov	r3, #-536870912
 372 00b0 023983E2 		add	r3, r3, #32768
 373 00b4 030052E1 		cmp	r2, r3
 374 00b8 4000001A 		bne	.L20
 117:TIMER_LPC.c   ****     if (channel >= _Timer1_Match_MAX)
 375              		.loc 1 117 0
 376 00bc 29305BE5 		ldrb	r3, [fp, #-41]	@ zero_extendqisi2
 377 00c0 010053E3 		cmp	r3, #1
 378 00c4 3D00008A 		bhi	.L20
 379              	.LBB5:
 118:TIMER_LPC.c   ****       return;
 119:TIMER_LPC.c   ****     GPIO_INIT_PINSEL1(_Timer1_Match_Mask[channel]);
 380              		.loc 1 119 0
 381 00c8 0E32A0E3 		mov	r3, #-536870912
 382 00cc 0B3983E2 		add	r3, r3, #180224
 383 00d0 003093E5 		ldr	r3, [r3, #0]
 384 00d4 10300BE5 		str	r3, [fp, #-16]
 385 00d8 0E12A0E3 		mov	r1, #-536870912
 386 00dc 0B1981E2 		add	r1, r1, #180224
 387 00e0 29305BE5 		ldrb	r3, [fp, #-41]	@ zero_extendqisi2
 388 00e4 0F20E0E3 		mvn	r2, #15
 389 00e8 0331A0E1 		mov	r3, r3, asl #2
 390 00ec 0C004BE2 		sub	r0, fp, #12
ARM GAS  /tmp/ccAinKOE.s 			page 10


 391 00f0 033080E0 		add	r3, r0, r3
 392 00f4 023083E0 		add	r3, r3, r2
 393 00f8 002093E5 		ldr	r2, [r3, #0]
 394 00fc 10301BE5 		ldr	r3, [fp, #-16]
 395 0100 033002E0 		and	r3, r2, r3
 396 0104 003081E5 		str	r3, [r1, #0]
 397              	.L19:
 398              	.LBE5:
 120:TIMER_LPC.c   ****   }else{
 121:TIMER_LPC.c   ****     return;
 122:TIMER_LPC.c   ****   }
 123:TIMER_LPC.c   **** 
 124:TIMER_LPC.c   ****   timer->TCR    = __TCR_DISABLE__|__TCR_RESET_ENABLE__;
 399              		.loc 1 124 0
 400 0108 28201BE5 		ldr	r2, [fp, #-40]
 401 010c 0230A0E3 		mov	r3, #2
 402 0110 043082E5 		str	r3, [r2, #4]
 125:TIMER_LPC.c   ****   *(&(timer->MR0) + channel)    = countNbr;  
 403              		.loc 1 125 0
 404 0114 28301BE5 		ldr	r3, [fp, #-40]
 405 0118 182083E2 		add	r2, r3, #24
 406 011c 29305BE5 		ldrb	r3, [fp, #-41]	@ zero_extendqisi2
 407 0120 0331A0E1 		mov	r3, r3, asl #2
 408 0124 032082E0 		add	r2, r2, r3
 409 0128 34301BE5 		ldr	r3, [fp, #-52]
 410 012c 003082E5 		str	r3, [r2, #0]
 126:TIMER_LPC.c   ****   timer->MCR    |= (MatchMask)<<(3*channel);
 411              		.loc 1 126 0
 412 0130 28301BE5 		ldr	r3, [fp, #-40]
 413 0134 141093E5 		ldr	r1, [r3, #20]
 414 0138 29205BE5 		ldrb	r2, [fp, #-41]	@ zero_extendqisi2
 415 013c 0230A0E1 		mov	r3, r2
 416 0140 8330A0E1 		mov	r3, r3, asl #1
 417 0144 022083E0 		add	r2, r3, r2
 418 0148 30301BE5 		ldr	r3, [fp, #-48]
 419 014c 1332A0E1 		mov	r3, r3, asl r2
 420 0150 032081E1 		orr	r2, r1, r3
 421 0154 28301BE5 		ldr	r3, [fp, #-40]
 422 0158 142083E5 		str	r2, [r3, #20]
 127:TIMER_LPC.c   ****   timer->EMR    |= (1<<channel) | ((emrFunction << 2*channel)<<4) ;                              
 423              		.loc 1 127 0
 424 015c 28301BE5 		ldr	r3, [fp, #-40]
 425 0160 3C0093E5 		ldr	r0, [r3, #60]
 426 0164 29205BE5 		ldrb	r2, [fp, #-41]	@ zero_extendqisi2
 427 0168 0130A0E3 		mov	r3, #1
 428 016c 1312A0E1 		mov	r1, r3, asl r2
 429 0170 0420DBE5 		ldrb	r2, [fp, #4]	@ zero_extendqisi2
 430 0174 29305BE5 		ldrb	r3, [fp, #-41]	@ zero_extendqisi2
 431 0178 8330A0E1 		mov	r3, r3, asl #1
 432 017c 1233A0E1 		mov	r3, r2, asl r3
 433 0180 0332A0E1 		mov	r3, r3, asl #4
 434 0184 033081E1 		orr	r3, r1, r3
 435 0188 032080E1 		orr	r2, r0, r3
 436 018c 28301BE5 		ldr	r3, [fp, #-40]
 437 0190 3C2083E5 		str	r2, [r3, #60]
 128:TIMER_LPC.c   ****   if(MatchMask & __MATCH_INTERRUPT__)
 438              		.loc 1 128 0
ARM GAS  /tmp/ccAinKOE.s 			page 11


 439 0194 30301BE5 		ldr	r3, [fp, #-48]
 440 0198 013003E2 		and	r3, r3, #1
 441 019c FF3003E2 		and	r3, r3, #255
 442 01a0 000053E3 		cmp	r3, #0
 443 01a4 0500000A 		beq	.L20
 129:TIMER_LPC.c   **** 	  timer->IR		= (1<<channel);
 444              		.loc 1 129 0
 445 01a8 29205BE5 		ldrb	r2, [fp, #-41]	@ zero_extendqisi2
 446 01ac 0130A0E3 		mov	r3, #1
 447 01b0 1332A0E1 		mov	r3, r3, asl r2
 448 01b4 0320A0E1 		mov	r2, r3
 449 01b8 28301BE5 		ldr	r3, [fp, #-40]
 450 01bc 002083E5 		str	r2, [r3, #0]
 451              	.L20:
 130:TIMER_LPC.c   **** }
 452              		.loc 1 130 0
 453 01c0 0CD04BE2 		sub	sp, fp, #12
 454 01c4 00689DE8 		ldmfd	sp, {fp, sp, lr}
 455 01c8 1EFF2FE1 		bx	lr
 456              	.L22:
 457              		.align	2
 458              	.L21:
 459 01cc 00000000 		.word	C.2.1554
 460 01d0 00000000 		.word	C.3.1555
 461              	.LFE6:
 462              		.size	TIMER_LPC_ext_match_init, .-TIMER_LPC_ext_match_init
 463              		.section	.text.TIMER_LPC_ext_match_stop,"ax",%progbits
 464              		.align	2
 465              		.global	TIMER_LPC_ext_match_stop
 466              		.type	TIMER_LPC_ext_match_stop, %function
 467              	TIMER_LPC_ext_match_stop:
 468              	.LFB7:
 131:TIMER_LPC.c   **** 
 132:TIMER_LPC.c   **** /**
 133:TIMER_LPC.c   ****  * @brief External Match stop
 134:TIMER_LPC.c   ****  * @param timer: pointer to timer structure
 135:TIMER_LPC.c   ****  * @param channel: valid Timer Match channel.0-1 in Timer 0, 0-1 in Timer 1
 136:TIMER_LPC.c   ****  * @param emrFunction: valid value of timer match mode
 137:TIMER_LPC.c   ****  * */
 138:TIMER_LPC.c   **** void TIMER_LPC_ext_match_stop(pLPC_TIMER timer,U8 channel, U32 emrFunction){
 469              		.loc 1 138 0
 470              		@ Function supports interworking.
 471              		@ args = 0, pretend = 0, frame = 16
 472              		@ frame_needed = 1, uses_anonymous_args = 0
 473 0000 0DC0A0E1 		mov	ip, sp
 474              	.LCFI20:
 475 0004 00D82DE9 		stmfd	sp!, {fp, ip, lr, pc}
 476              	.LCFI21:
 477 0008 04B04CE2 		sub	fp, ip, #4
 478              	.LCFI22:
 479 000c 10D04DE2 		sub	sp, sp, #16
 480              	.LCFI23:
 481 0010 10000BE5 		str	r0, [fp, #-16]
 482 0014 0130A0E1 		mov	r3, r1
 483 0018 18200BE5 		str	r2, [fp, #-24]
 484 001c 11304BE5 		strb	r3, [fp, #-17]
 139:TIMER_LPC.c   ****   timer->TCR    = __TCR_DISABLE__|__TCR_RESET_ENABLE__;
ARM GAS  /tmp/ccAinKOE.s 			page 12


 485              		.loc 1 139 0
 486 0020 10201BE5 		ldr	r2, [fp, #-16]
 487 0024 0230A0E3 		mov	r3, #2
 488 0028 043082E5 		str	r3, [r2, #4]
 140:TIMER_LPC.c   ****   timer->EMR    &= ~(1<<channel) | ~((emrFunction << 2*channel)<<4);
 489              		.loc 1 140 0
 490 002c 10301BE5 		ldr	r3, [fp, #-16]
 491 0030 3C0093E5 		ldr	r0, [r3, #60]
 492 0034 11205BE5 		ldrb	r2, [fp, #-17]	@ zero_extendqisi2
 493 0038 0130A0E3 		mov	r3, #1
 494 003c 1312A0E1 		mov	r1, r3, asl r2
 495 0040 11305BE5 		ldrb	r3, [fp, #-17]	@ zero_extendqisi2
 496 0044 8320A0E1 		mov	r2, r3, asl #1
 497 0048 18301BE5 		ldr	r3, [fp, #-24]
 498 004c 1332A0E1 		mov	r3, r3, asl r2
 499 0050 0332A0E1 		mov	r3, r3, asl #4
 500 0054 033001E0 		and	r3, r1, r3
 501 0058 0330E0E1 		mvn	r3, r3
 502 005c 032000E0 		and	r2, r0, r3
 503 0060 10301BE5 		ldr	r3, [fp, #-16]
 504 0064 3C2083E5 		str	r2, [r3, #60]
 141:TIMER_LPC.c   ****   timer->TCR    = __TCR_ENABLE__|__TCR_RESET_DISABLE__;   
 505              		.loc 1 141 0
 506 0068 10201BE5 		ldr	r2, [fp, #-16]
 507 006c 0130A0E3 		mov	r3, #1
 508 0070 043082E5 		str	r3, [r2, #4]
 142:TIMER_LPC.c   **** }
 509              		.loc 1 142 0
 510 0074 0CD04BE2 		sub	sp, fp, #12
 511 0078 00689DE8 		ldmfd	sp, {fp, sp, lr}
 512 007c 1EFF2FE1 		bx	lr
 513              	.LFE7:
 514              		.size	TIMER_LPC_ext_match_stop, .-TIMER_LPC_ext_match_stop
 515              		.section	.text.TIMER_LPC_ext_match_start,"ax",%progbits
 516              		.align	2
 517              		.global	TIMER_LPC_ext_match_start
 518              		.type	TIMER_LPC_ext_match_start, %function
 519              	TIMER_LPC_ext_match_start:
 520              	.LFB8:
 143:TIMER_LPC.c   **** /**
 144:TIMER_LPC.c   ****  * @brief External Match start
 145:TIMER_LPC.c   ****  * @param timer: pointer to timer structure
 146:TIMER_LPC.c   ****  * @param channel: valid Timer Match channel.0-1 in Timer 0, 0-1 in Timer 1
 147:TIMER_LPC.c   ****  * @param emrFunction: valid value of timer match mode
 148:TIMER_LPC.c   ****  * */
 149:TIMER_LPC.c   **** void TIMER_LPC_ext_match_start(pLPC_TIMER timer,U8 channel, U32 emrFunction){
 521              		.loc 1 149 0
 522              		@ Function supports interworking.
 523              		@ args = 0, pretend = 0, frame = 16
 524              		@ frame_needed = 1, uses_anonymous_args = 0
 525 0000 0DC0A0E1 		mov	ip, sp
 526              	.LCFI24:
 527 0004 00D82DE9 		stmfd	sp!, {fp, ip, lr, pc}
 528              	.LCFI25:
 529 0008 04B04CE2 		sub	fp, ip, #4
 530              	.LCFI26:
 531 000c 10D04DE2 		sub	sp, sp, #16
ARM GAS  /tmp/ccAinKOE.s 			page 13


 532              	.LCFI27:
 533 0010 10000BE5 		str	r0, [fp, #-16]
 534 0014 0130A0E1 		mov	r3, r1
 535 0018 18200BE5 		str	r2, [fp, #-24]
 536 001c 11304BE5 		strb	r3, [fp, #-17]
 150:TIMER_LPC.c   ****   timer->TCR    = __TCR_DISABLE__|__TCR_RESET_ENABLE__;
 537              		.loc 1 150 0
 538 0020 10201BE5 		ldr	r2, [fp, #-16]
 539 0024 0230A0E3 		mov	r3, #2
 540 0028 043082E5 		str	r3, [r2, #4]
 151:TIMER_LPC.c   ****   timer->EMR    |= (1<<channel) | ((emrFunction << 2*channel)<<4);
 541              		.loc 1 151 0
 542 002c 10301BE5 		ldr	r3, [fp, #-16]
 543 0030 3C0093E5 		ldr	r0, [r3, #60]
 544 0034 11205BE5 		ldrb	r2, [fp, #-17]	@ zero_extendqisi2
 545 0038 0130A0E3 		mov	r3, #1
 546 003c 1332A0E1 		mov	r3, r3, asl r2
 547 0040 0310A0E1 		mov	r1, r3
 548 0044 11305BE5 		ldrb	r3, [fp, #-17]	@ zero_extendqisi2
 549 0048 8320A0E1 		mov	r2, r3, asl #1
 550 004c 18301BE5 		ldr	r3, [fp, #-24]
 551 0050 1332A0E1 		mov	r3, r3, asl r2
 552 0054 0332A0E1 		mov	r3, r3, asl #4
 553 0058 033081E1 		orr	r3, r1, r3
 554 005c 032080E1 		orr	r2, r0, r3
 555 0060 10301BE5 		ldr	r3, [fp, #-16]
 556 0064 3C2083E5 		str	r2, [r3, #60]
 152:TIMER_LPC.c   ****   timer->TCR    = __TCR_ENABLE__|__TCR_RESET_DISABLE__;   
 557              		.loc 1 152 0
 558 0068 10201BE5 		ldr	r2, [fp, #-16]
 559 006c 0130A0E3 		mov	r3, #1
 560 0070 043082E5 		str	r3, [r2, #4]
 153:TIMER_LPC.c   **** }
 561              		.loc 1 153 0
 562 0074 0CD04BE2 		sub	sp, fp, #12
 563 0078 00689DE8 		ldmfd	sp, {fp, sp, lr}
 564 007c 1EFF2FE1 		bx	lr
 565              	.LFE8:
 566              		.size	TIMER_LPC_ext_match_start, .-TIMER_LPC_ext_match_start
 567              		.section	.text.TIMER_LPC_match_init,"ax",%progbits
 568              		.align	2
 569              		.global	TIMER_LPC_match_init
 570              		.type	TIMER_LPC_match_init, %function
 571              	TIMER_LPC_match_init:
 572              	.LFB9:
 154:TIMER_LPC.c   **** 
 155:TIMER_LPC.c   **** 
 156:TIMER_LPC.c   **** /**
 157:TIMER_LPC.c   ****  * @brief Timer match init
 158:TIMER_LPC.c   ****  * @param timer:  pointer to timer structure
 159:TIMER_LPC.c   ****  * @param timerMatch: Pin enable
 160:TIMER_LPC.c   ****  * @param MatchMask: Counting Method
 161:TIMER_LPC.c   ****  * @param countNbr: Number of counting 
 162:TIMER_LPC.c   ****  * @warning Not Tested:Deprecated
 163:TIMER_LPC.c   ****  * */
 164:TIMER_LPC.c   **** void TIMER_LPC_match_init(pLPC_TIMER timer,TMatch timerMatch, U32 MatchMask, U32 countNbr){
 573              		.loc 1 164 0
ARM GAS  /tmp/ccAinKOE.s 			page 14


 574              		@ Function supports interworking.
 575              		@ args = 0, pretend = 0, frame = 24
 576              		@ frame_needed = 1, uses_anonymous_args = 0
 577 0000 0DC0A0E1 		mov	ip, sp
 578              	.LCFI28:
 579 0004 00D82DE9 		stmfd	sp!, {fp, ip, lr, pc}
 580              	.LCFI29:
 581 0008 04B04CE2 		sub	fp, ip, #4
 582              	.LCFI30:
 583 000c 18D04DE2 		sub	sp, sp, #24
 584              	.LCFI31:
 585 0010 18000BE5 		str	r0, [fp, #-24]
 586 0014 1C100BE5 		str	r1, [fp, #-28]
 587 0018 20200BE5 		str	r2, [fp, #-32]
 588 001c 24300BE5 		str	r3, [fp, #-36]
 165:TIMER_LPC.c   ****   /*Enable GPIO for Timer Capture or Else*/
 166:TIMER_LPC.c   ****   if (timer  == pTIMER0 ){
 589              		.loc 1 166 0
 590 0020 18201BE5 		ldr	r2, [fp, #-24]
 591 0024 0E32A0E3 		mov	r3, #-536870912
 592 0028 013983E2 		add	r3, r3, #16384
 593 002c 030052E1 		cmp	r2, r3
 594 0030 0A00001A 		bne	.L28
 595              	.LBB6:
 167:TIMER_LPC.c   **** 	  GPIO_INIT_PINSEL0(timerMatch);
 596              		.loc 1 167 0
 597 0034 0E32A0E3 		mov	r3, #-536870912
 598 0038 0B3983E2 		add	r3, r3, #180224
 599 003c 003093E5 		ldr	r3, [r3, #0]
 600 0040 14300BE5 		str	r3, [fp, #-20]
 601 0044 0E22A0E3 		mov	r2, #-536870912
 602 0048 0B2982E2 		add	r2, r2, #180224
 603 004c 14101BE5 		ldr	r1, [fp, #-20]
 604 0050 1C301BE5 		ldr	r3, [fp, #-28]
 605 0054 033001E0 		and	r3, r1, r3
 606 0058 003082E5 		str	r3, [r2, #0]
 607 005c 0E0000EA 		b	.L29
 608              	.L28:
 609              	.LBE6:
 168:TIMER_LPC.c   ****   }else if(timer == pTIMER1){
 610              		.loc 1 168 0
 611 0060 18201BE5 		ldr	r2, [fp, #-24]
 612 0064 0E32A0E3 		mov	r3, #-536870912
 613 0068 023983E2 		add	r3, r3, #32768
 614 006c 030052E1 		cmp	r2, r3
 615 0070 1500001A 		bne	.L31
 616              	.LBB7:
 169:TIMER_LPC.c   **** 	  GPIO_INIT_PINSEL1(timerMatch);
 617              		.loc 1 169 0
 618 0074 0E32A0E3 		mov	r3, #-536870912
 619 0078 0B3983E2 		add	r3, r3, #180224
 620 007c 003093E5 		ldr	r3, [r3, #0]
 621 0080 10300BE5 		str	r3, [fp, #-16]
 622 0084 0E22A0E3 		mov	r2, #-536870912
 623 0088 0B2982E2 		add	r2, r2, #180224
 624 008c 10101BE5 		ldr	r1, [fp, #-16]
 625 0090 1C301BE5 		ldr	r3, [fp, #-28]
ARM GAS  /tmp/ccAinKOE.s 			page 15


 626 0094 033001E0 		and	r3, r1, r3
 627 0098 003082E5 		str	r3, [r2, #0]
 628              	.L29:
 629              	.LBE7:
 170:TIMER_LPC.c   ****   }else {
 171:TIMER_LPC.c   ****     return;
 172:TIMER_LPC.c   ****   }
 173:TIMER_LPC.c   ****   timer->TCR    = __TCR_DISABLE__|__TCR_RESET_ENABLE__;  
 630              		.loc 1 173 0
 631 009c 18201BE5 		ldr	r2, [fp, #-24]
 632 00a0 0230A0E3 		mov	r3, #2
 633 00a4 043082E5 		str	r3, [r2, #4]
 174:TIMER_LPC.c   ****   timer->MCR    = MatchMask;                         	
 634              		.loc 1 174 0
 635 00a8 18201BE5 		ldr	r2, [fp, #-24]
 636 00ac 20301BE5 		ldr	r3, [fp, #-32]
 637 00b0 143082E5 		str	r3, [r2, #20]
 175:TIMER_LPC.c   ****   timer->PR     = countNbr;                           
 638              		.loc 1 175 0
 639 00b4 18201BE5 		ldr	r2, [fp, #-24]
 640 00b8 24301BE5 		ldr	r3, [fp, #-36]
 641 00bc 0C3082E5 		str	r3, [r2, #12]
 176:TIMER_LPC.c   ****   timer->TCR    = __TCR_ENABLE__|__TCR_RESET_DISABLE__;
 642              		.loc 1 176 0
 643 00c0 18201BE5 		ldr	r2, [fp, #-24]
 644 00c4 0130A0E3 		mov	r3, #1
 645 00c8 043082E5 		str	r3, [r2, #4]
 646              	.L31:
 177:TIMER_LPC.c   **** }
 647              		.loc 1 177 0
 648 00cc 0CD04BE2 		sub	sp, fp, #12
 649 00d0 00689DE8 		ldmfd	sp, {fp, sp, lr}
 650 00d4 1EFF2FE1 		bx	lr
 651              	.LFE9:
 652              		.size	TIMER_LPC_match_init, .-TIMER_LPC_match_init
 653              		.section	.debug_frame,"",%progbits
 654              	.Lframe0:
 655 0000 0C000000 		.4byte	.LECIE0-.LSCIE0
 656              	.LSCIE0:
 657 0004 FFFFFFFF 		.4byte	0xffffffff
 658 0008 01       		.byte	0x1
 659 0009 00       		.ascii	"\000"
 660 000a 01       		.uleb128 0x1
 661 000b 7C       		.sleb128 -4
 662 000c 0E       		.byte	0xe
 663 000d 0C       		.byte	0xc
 664 000e 0D       		.uleb128 0xd
 665 000f 00       		.uleb128 0x0
 666              		.align	2
 667              	.LECIE0:
 668              	.LSFDE0:
 669 0010 1C000000 		.4byte	.LEFDE0-.LASFDE0
 670              	.LASFDE0:
 671 0014 00000000 		.4byte	.Lframe0
 672 0018 00000000 		.4byte	.LFB2
 673 001c 58000000 		.4byte	.LFE2-.LFB2
 674 0020 44       		.byte	0x4
ARM GAS  /tmp/ccAinKOE.s 			page 16


 675              		.4byte	.LCFI0-.LFB2
 676 0021 0D       		.byte	0xd
 677 0022 0C       		.uleb128 0xc
 678 0023 44       		.byte	0x4
 679              		.4byte	.LCFI1-.LCFI0
 680 0024 8E       		.byte	0x8e
 681 0025 02       		.uleb128 0x2
 682 0026 8D       		.byte	0x8d
 683 0027 03       		.uleb128 0x3
 684 0028 8B       		.byte	0x8b
 685 0029 04       		.uleb128 0x4
 686 002a 44       		.byte	0x4
 687              		.4byte	.LCFI2-.LCFI1
 688 002b 0C       		.byte	0xc
 689 002c 0B       		.uleb128 0xb
 690 002d 04       		.uleb128 0x4
 691 002e 0000     		.align	2
 692              	.LEFDE0:
 693              	.LSFDE2:
 694 0030 1C000000 		.4byte	.LEFDE2-.LASFDE2
 695              	.LASFDE2:
 696 0034 00000000 		.4byte	.Lframe0
 697 0038 00000000 		.4byte	.LFB3
 698 003c 58000000 		.4byte	.LFE3-.LFB3
 699 0040 44       		.byte	0x4
 700              		.4byte	.LCFI4-.LFB3
 701 0041 0D       		.byte	0xd
 702 0042 0C       		.uleb128 0xc
 703 0043 44       		.byte	0x4
 704              		.4byte	.LCFI5-.LCFI4
 705 0044 8E       		.byte	0x8e
 706 0045 02       		.uleb128 0x2
 707 0046 8D       		.byte	0x8d
 708 0047 03       		.uleb128 0x3
 709 0048 8B       		.byte	0x8b
 710 0049 04       		.uleb128 0x4
 711 004a 44       		.byte	0x4
 712              		.4byte	.LCFI6-.LCFI5
 713 004b 0C       		.byte	0xc
 714 004c 0B       		.uleb128 0xb
 715 004d 04       		.uleb128 0x4
 716 004e 0000     		.align	2
 717              	.LEFDE2:
 718              	.LSFDE4:
 719 0050 1C000000 		.4byte	.LEFDE4-.LASFDE4
 720              	.LASFDE4:
 721 0054 00000000 		.4byte	.Lframe0
 722 0058 00000000 		.4byte	.LFB4
 723 005c 2C000000 		.4byte	.LFE4-.LFB4
 724 0060 44       		.byte	0x4
 725              		.4byte	.LCFI8-.LFB4
 726 0061 0D       		.byte	0xd
 727 0062 0C       		.uleb128 0xc
 728 0063 44       		.byte	0x4
 729              		.4byte	.LCFI9-.LCFI8
 730 0064 8E       		.byte	0x8e
 731 0065 02       		.uleb128 0x2
ARM GAS  /tmp/ccAinKOE.s 			page 17


 732 0066 8D       		.byte	0x8d
 733 0067 03       		.uleb128 0x3
 734 0068 8B       		.byte	0x8b
 735 0069 04       		.uleb128 0x4
 736 006a 44       		.byte	0x4
 737              		.4byte	.LCFI10-.LCFI9
 738 006b 0C       		.byte	0xc
 739 006c 0B       		.uleb128 0xb
 740 006d 04       		.uleb128 0x4
 741 006e 0000     		.align	2
 742              	.LEFDE4:
 743              	.LSFDE6:
 744 0070 1C000000 		.4byte	.LEFDE6-.LASFDE6
 745              	.LASFDE6:
 746 0074 00000000 		.4byte	.Lframe0
 747 0078 00000000 		.4byte	.LFB5
 748 007c 8C010000 		.4byte	.LFE5-.LFB5
 749 0080 44       		.byte	0x4
 750              		.4byte	.LCFI12-.LFB5
 751 0081 0D       		.byte	0xd
 752 0082 0C       		.uleb128 0xc
 753 0083 44       		.byte	0x4
 754              		.4byte	.LCFI13-.LCFI12
 755 0084 8E       		.byte	0x8e
 756 0085 02       		.uleb128 0x2
 757 0086 8D       		.byte	0x8d
 758 0087 03       		.uleb128 0x3
 759 0088 8B       		.byte	0x8b
 760 0089 04       		.uleb128 0x4
 761 008a 44       		.byte	0x4
 762              		.4byte	.LCFI14-.LCFI13
 763 008b 0C       		.byte	0xc
 764 008c 0B       		.uleb128 0xb
 765 008d 04       		.uleb128 0x4
 766 008e 0000     		.align	2
 767              	.LEFDE6:
 768              	.LSFDE8:
 769 0090 1C000000 		.4byte	.LEFDE8-.LASFDE8
 770              	.LASFDE8:
 771 0094 00000000 		.4byte	.Lframe0
 772 0098 00000000 		.4byte	.LFB6
 773 009c D4010000 		.4byte	.LFE6-.LFB6
 774 00a0 44       		.byte	0x4
 775              		.4byte	.LCFI16-.LFB6
 776 00a1 0D       		.byte	0xd
 777 00a2 0C       		.uleb128 0xc
 778 00a3 44       		.byte	0x4
 779              		.4byte	.LCFI17-.LCFI16
 780 00a4 8E       		.byte	0x8e
 781 00a5 02       		.uleb128 0x2
 782 00a6 8D       		.byte	0x8d
 783 00a7 03       		.uleb128 0x3
 784 00a8 8B       		.byte	0x8b
 785 00a9 04       		.uleb128 0x4
 786 00aa 44       		.byte	0x4
 787              		.4byte	.LCFI18-.LCFI17
 788 00ab 0C       		.byte	0xc
ARM GAS  /tmp/ccAinKOE.s 			page 18


 789 00ac 0B       		.uleb128 0xb
 790 00ad 04       		.uleb128 0x4
 791 00ae 0000     		.align	2
 792              	.LEFDE8:
 793              	.LSFDE10:
 794 00b0 1C000000 		.4byte	.LEFDE10-.LASFDE10
 795              	.LASFDE10:
 796 00b4 00000000 		.4byte	.Lframe0
 797 00b8 00000000 		.4byte	.LFB7
 798 00bc 80000000 		.4byte	.LFE7-.LFB7
 799 00c0 44       		.byte	0x4
 800              		.4byte	.LCFI20-.LFB7
 801 00c1 0D       		.byte	0xd
 802 00c2 0C       		.uleb128 0xc
 803 00c3 44       		.byte	0x4
 804              		.4byte	.LCFI21-.LCFI20
 805 00c4 8E       		.byte	0x8e
 806 00c5 02       		.uleb128 0x2
 807 00c6 8D       		.byte	0x8d
 808 00c7 03       		.uleb128 0x3
 809 00c8 8B       		.byte	0x8b
 810 00c9 04       		.uleb128 0x4
 811 00ca 44       		.byte	0x4
 812              		.4byte	.LCFI22-.LCFI21
 813 00cb 0C       		.byte	0xc
 814 00cc 0B       		.uleb128 0xb
 815 00cd 04       		.uleb128 0x4
 816 00ce 0000     		.align	2
 817              	.LEFDE10:
 818              	.LSFDE12:
 819 00d0 1C000000 		.4byte	.LEFDE12-.LASFDE12
 820              	.LASFDE12:
 821 00d4 00000000 		.4byte	.Lframe0
 822 00d8 00000000 		.4byte	.LFB8
 823 00dc 80000000 		.4byte	.LFE8-.LFB8
 824 00e0 44       		.byte	0x4
 825              		.4byte	.LCFI24-.LFB8
 826 00e1 0D       		.byte	0xd
 827 00e2 0C       		.uleb128 0xc
 828 00e3 44       		.byte	0x4
 829              		.4byte	.LCFI25-.LCFI24
 830 00e4 8E       		.byte	0x8e
 831 00e5 02       		.uleb128 0x2
 832 00e6 8D       		.byte	0x8d
 833 00e7 03       		.uleb128 0x3
 834 00e8 8B       		.byte	0x8b
 835 00e9 04       		.uleb128 0x4
 836 00ea 44       		.byte	0x4
 837              		.4byte	.LCFI26-.LCFI25
 838 00eb 0C       		.byte	0xc
 839 00ec 0B       		.uleb128 0xb
 840 00ed 04       		.uleb128 0x4
 841 00ee 0000     		.align	2
 842              	.LEFDE12:
 843              	.LSFDE14:
 844 00f0 1C000000 		.4byte	.LEFDE14-.LASFDE14
 845              	.LASFDE14:
ARM GAS  /tmp/ccAinKOE.s 			page 19


 846 00f4 00000000 		.4byte	.Lframe0
 847 00f8 00000000 		.4byte	.LFB9
 848 00fc D8000000 		.4byte	.LFE9-.LFB9
 849 0100 44       		.byte	0x4
 850              		.4byte	.LCFI28-.LFB9
 851 0101 0D       		.byte	0xd
 852 0102 0C       		.uleb128 0xc
 853 0103 44       		.byte	0x4
 854              		.4byte	.LCFI29-.LCFI28
 855 0104 8E       		.byte	0x8e
 856 0105 02       		.uleb128 0x2
 857 0106 8D       		.byte	0x8d
 858 0107 03       		.uleb128 0x3
 859 0108 8B       		.byte	0x8b
 860 0109 04       		.uleb128 0x4
 861 010a 44       		.byte	0x4
 862              		.4byte	.LCFI30-.LCFI29
 863 010b 0C       		.byte	0xc
 864 010c 0B       		.uleb128 0xb
 865 010d 04       		.uleb128 0x4
 866 010e 0000     		.align	2
 867              	.LEFDE14:
 868              		.text
 869              	.Letext0: