
Automato.elf:     file format elf32-littlearm

Sections:
Idx Name          Size      VMA       LMA       File off  Algn
  0 .debug_aranges 00001488  00000000  00000000  00018888  2**3
                  CONTENTS, READONLY, DEBUGGING
  1 .debug_pubnames 00003579  00000000  00000000  00019d10  2**0
                  CONTENTS, READONLY, DEBUGGING
  2 .debug_info   000488de  00000000  00000000  0001d289  2**0
                  CONTENTS, READONLY, DEBUGGING
  3 .debug_abbrev 0000a5d5  00000000  00000000  00065b67  2**0
                  CONTENTS, READONLY, DEBUGGING
  4 .debug_line   0000d3b7  00000000  00000000  0007013c  2**0
                  CONTENTS, READONLY, DEBUGGING
  5 .debug_frame  00002df8  00000000  00000000  0007d4f4  2**2
                  CONTENTS, READONLY, DEBUGGING
  6 .debug_str    0000870b  00000000  00000000  000802ec  2**0
                  CONTENTS, READONLY, DEBUGGING
  7 .debug_loc    0000dbfd  00000000  00000000  000889f7  2**0
                  CONTENTS, READONLY, DEBUGGING
  8 .debug_macinfo 0000afca  00000000  00000000  000965f4  2**0
                  CONTENTS, READONLY, DEBUGGING
  9 .rom_vectors  00000040  00000000  00000000  00008000  2**0
                  CONTENTS, ALLOC, LOAD, READONLY, CODE
 10 .text         0000f538  00000040  00000040  00008040  2**3
                  CONTENTS, ALLOC, LOAD, READONLY, CODE
 11 .rodata       00000300  0000f578  0000f578  00017578  2**3
                  CONTENTS, ALLOC, LOAD, READONLY, DATA
 12 .fixed_vectors 00000140  40000400  40000400  000a15c0  2**5
                  CONTENTS, READONLY
 13 .data         00000344  40000540  0000f878  00018540  2**2
                  CONTENTS, ALLOC, LOAD, DATA
 14 .bss          0000434c  40000884  0000fbbc  00018884  2**4
                  ALLOC
 15 .ARM.attributes 0000002c  00000000  00000000  000a1700  2**0
                  CONTENTS, READONLY
 16 .debug_ranges 000045a0  00000000  00000000  000a1730  2**3
                  CONTENTS, READONLY, DEBUGGING
 17 .comment      00000a5f  00000000  00000000  000a5cd0  2**0
                  CONTENTS, READONLY

Disassembly of section .rom_vectors:

00000000 <__exception_handlers>:
   0:	ea00000e 	b	40 <__exidx_end>
   4:	e59ff018 	ldr	pc, [pc, #24]	; 24 <HAL_ARM_UNDEFINED_VECTOR_ADDR>
   8:	e59ff018 	ldr	pc, [pc, #24]	; 28 <HAL_ARM_SWI_VECTOR_ADDR>
   c:	e59ff018 	ldr	pc, [pc, #24]	; 2c <HAL_ARM_PREFETCH_VECTOR_ADDR>
  10:	e59ff018 	ldr	pc, [pc, #24]	; 30 <HAL_ARM_ABORT_VECTOR_ADDR>
  14:	b4405f62 	.word	0xb4405f62
  18:	e59ff018 	ldr	pc, [pc, #24]	; 38 <HAL_ARM_IRQ_VECTOR_ADDR>
  1c:	e59ff018 	ldr	pc, [pc, #24]	; 3c <HAL_ARM_FIQ_VECTOR_ADDR>

00000020 <vectors>:
  20:	00000040 	.word	0x00000040

00000024 <.undefined_instruction>:
  24:	00000264 	.word	0x00000264

00000028 <.software_interrupt>:
  28:	0288      	.short	0x0288
	...

0000002c <.abort_prefetch>:
  2c:	000002b4 	.word	0x000002b4

00000030 <.abort_data>:
  30:	000002d0 	.word	0x000002d0
  34:	00000000 	.word	0x00000000

00000038 <.IRQ>:
  38:	000003d0 	.word	0x000003d0

0000003c <.FIQ>:
  3c:	00000398 	.word	0x00000398

Disassembly of section .text:

00000040 <reset_vector>:
      40:	e59f0568 	ldr	r0, [pc, #1384]	; 5b0 <_eCos_id+0x14>
      44:	e3a020aa 	mov	r2, #170	; 0xaa
      48:	e3a03055 	mov	r3, #85	; 0x55
      4c:	e3a01001 	mov	r1, #1	; 0x1
      50:	e5801080 	str	r1, [r0, #128]
      54:	e3a01023 	mov	r1, #35	; 0x23
      58:	e5801084 	str	r1, [r0, #132]
      5c:	e580208c 	str	r2, [r0, #140]
      60:	e580308c 	str	r3, [r0, #140]
      64:	e5901088 	ldr	r1, [r0, #136]
      68:	e2111b01 	ands	r1, r1, #1024	; 0x400
      6c:	0afffffc 	beq	64 <ARMREG_SIZE+0x14>
      70:	e3a01003 	mov	r1, #3	; 0x3
      74:	e5801080 	str	r1, [r0, #128]
      78:	e580208c 	str	r2, [r0, #140]
      7c:	e580308c 	str	r3, [r0, #140]
      80:	e3a00000 	mov	r0, #0	; 0x0
      84:	e3a01101 	mov	r1, #1073741824	; 0x40000000
      88:	e3a02040 	mov	r2, #64	; 0x40
      8c:	e5b03004 	ldr	r3, [r0, #4]!
      90:	e5a13004 	str	r3, [r1, #4]!
      94:	e1500002 	cmp	r0, r2
      98:	1afffffb 	bne	8c <CPSR_IRQ_DISABLE+0xc>
      9c:	e59f050c 	ldr	r0, [pc, #1292]	; 5b0 <_eCos_id+0x14>
      a0:	e3a01002 	mov	r1, #2	; 0x2
      a4:	e5801040 	str	r1, [r0, #64]
      a8:	e3a01004 	mov	r1, #4	; 0x4
      ac:	e5801004 	str	r1, [r0, #4]
      b0:	e3a01002 	mov	r1, #2	; 0x2
      b4:	e5801000 	str	r1, [r0]
      b8:	e59f04f4 	ldr	r0, [pc, #1268]	; 5b4 <_eCos_id+0x18>
      bc:	e3a01116 	mov	r1, #-2147483643	; 0x80000005
      c0:	e5801000 	str	r1, [r0]
      c4:	e59f04ec 	ldr	r0, [pc, #1260]	; 5b8 <_eCos_id+0x1c>
      c8:	e3a01080 	mov	r1, #128	; 0x80
      cc:	e5801008 	str	r1, [r0, #8]

000000d0 <warm_reset>:
      d0:	04e0      	.short	0x04e0
      d2:	9f          	.byte	0x9f
      d3:	e5          	.byte	0xe5
      d4:	e3a01080 	.word	0xe3a01080
      d8:	e580100c 	.word	0xe580100c
      dc:	e3a01080 	.word	0xe3a01080
      e0:	e5801004 	.word	0xe5801004
      e4:	e3a00000 	.word	0xe3a00000
      e8:	e59f14cc 	.word	0xe59f14cc
      ec:	e5912004 	.word	0xe5912004
      f0:	e5802004 	.word	0xe5802004
      f4:	e5912024 	.word	0xe5912024
      f8:	e5802024 	.word	0xe5802024
      fc:	e5912008 	.word	0xe5912008
     100:	e5802008 	.word	0xe5802008

00000104 <start>:
     104:	e59f04ac 	ldr	r0, [pc, #1196]	; 5b8 <_eCos_id+0x1c>
     108:	e3a01080 	mov	r1, #128	; 0x80
     10c:	e580100c 	str	r1, [r0, #12]
     110:	e3a01080 	mov	r1, #128	; 0x80
     114:	e5801004 	str	r1, [r0, #4]
     118:	e3a00000 	mov	r0, #0	; 0x0
     11c:	e59f1464 	ldr	r1, [pc, #1124]	; 588 <.__exception_handlers>
     120:	e5912028 	ldr	r2, [r1, #40]
     124:	e5802028 	str	r2, [r0, #40]
     128:	e5912018 	ldr	r2, [r1, #24]
     12c:	e5802018 	str	r2, [r0, #24]
     130:	e5912038 	ldr	r2, [r1, #56]
     134:	e5802038 	str	r2, [r0, #56]
     138:	e591201c 	ldr	r2, [r1, #28]
     13c:	e580201c 	str	r2, [r0, #28]
     140:	e591203c 	ldr	r2, [r1, #60]
     144:	e580203c 	str	r2, [r0, #60]
     148:	e591200c 	ldr	r2, [r1, #12]
     14c:	e580200c 	str	r2, [r0, #12]
     150:	e591202c 	ldr	r2, [r1, #44]
     154:	e580202c 	str	r2, [r0, #44]
     158:	e5912010 	ldr	r2, [r1, #16]
     15c:	e5802010 	str	r2, [r0, #16]
     160:	e5912030 	ldr	r2, [r1, #48]
     164:	e5802030 	str	r2, [r0, #48]
     168:	e59f0448 	ldr	r0, [pc, #1096]	; 5b8 <_eCos_id+0x1c>
     16c:	e3a01080 	mov	r1, #128	; 0x80
     170:	e580100c 	str	r1, [r0, #12]
     174:	e3a01000 	mov	r1, #0	; 0x0
     178:	e5801004 	str	r1, [r0, #4]
     17c:	e3a00000 	mov	r0, #0	; 0x0
     180:	e59f1400 	ldr	r1, [pc, #1024]	; 588 <.__exception_handlers>
     184:	e5912000 	ldr	r2, [r1]
     188:	e5802000 	str	r2, [r0]
     18c:	e59f33dc 	ldr	r3, [pc, #988]	; 570 <.__rom_data_start>
     190:	e59f43dc 	ldr	r4, [pc, #988]	; 574 <.__ram_data_start>
     194:	e59f53dc 	ldr	r5, [pc, #988]	; 578 <.__ram_data_end>
     198:	e1540005 	cmp	r4, r5
     19c:	0a000005 	beq	1b8 <start+0xb4>
     1a0:	e2433004 	sub	r3, r3, #4	; 0x4
     1a4:	e2444004 	sub	r4, r4, #4	; 0x4
     1a8:	e5b30004 	ldr	r0, [r3, #4]!
     1ac:	e5a40004 	str	r0, [r4, #4]!
     1b0:	e1540005 	cmp	r4, r5
     1b4:	1afffffb 	bne	1a8 <start+0xa4>
     1b8:	e59fd398 	ldr	sp, [pc, #920]	; 558 <.__startup_stack>
     1bc:	e3a000d2 	mov	r0, #210	; 0xd2
     1c0:	e129f000 	msr	CPSR_fc, r0
     1c4:	e59fd390 	ldr	sp, [pc, #912]	; 55c <.__exception_stack>
     1c8:	e3a000db 	mov	r0, #219	; 0xdb
     1cc:	e129f000 	msr	CPSR_fc, r0
     1d0:	e59fd384 	ldr	sp, [pc, #900]	; 55c <.__exception_stack>
     1d4:	e3a000d3 	mov	r0, #211	; 0xd3
     1d8:	e129f000 	msr	CPSR_fc, r0
     1dc:	e169f000 	msr	SPSR_fc, r0
     1e0:	e59fd3b0 	ldr	sp, [pc, #944]	; 598 <.__interrupt_stack>
     1e4:	e59f1378 	ldr	r1, [pc, #888]	; 564 <.__bss_start>
     1e8:	e59f2378 	ldr	r2, [pc, #888]	; 568 <.__bss_end>
     1ec:	e3a00000 	mov	r0, #0	; 0x0
     1f0:	e1510002 	cmp	r1, r2
     1f4:	0a000002 	beq	204 <start+0x100>
     1f8:	e4810004 	str	r0, [r1], #4
     1fc:	e1520001 	cmp	r2, r1
     200:	8afffffc 	bhi	1f8 <start+0xf4>
     204:	e59f03ac 	ldr	r0, [pc, #940]	; 5b8 <_eCos_id+0x1c>
     208:	e3a01080 	mov	r1, #128	; 0x80
     20c:	e580100c 	str	r1, [r0, #12]
     210:	e3a01080 	mov	r1, #128	; 0x80
     214:	e5801004 	str	r1, [r0, #4]
     218:	eb002713 	bl	9e6c <hal_hardware_init>
     21c:	e59f0394 	ldr	r0, [pc, #916]	; 5b8 <_eCos_id+0x1c>
     220:	e3a01080 	mov	r1, #128	; 0x80
     224:	e580100c 	str	r1, [r0, #12]
     228:	e3a01000 	mov	r1, #0	; 0x0
     22c:	e5801004 	str	r1, [r0, #4]
     230:	eb00262b 	bl	9ae4 <cyg_hal_invoke_constructors>
     234:	e59f037c 	ldr	r0, [pc, #892]	; 5b8 <_eCos_id+0x1c>
     238:	e3a01080 	mov	r1, #128	; 0x80
     23c:	e580100c 	str	r1, [r0, #12]
     240:	e3a01080 	mov	r1, #128	; 0x80
     244:	e5801004 	str	r1, [r0, #4]
     248:	e59f1370 	ldr	r1, [pc, #880]	; 5c0 <_eCos_id+0x24>
     24c:	e1a0d001 	mov	sp, r1
     250:	eb000708 	bl	1e78 <cyg_start>

00000254 <_start_hang>:
     254:	eafffffe 	.word	0xeafffffe

00000258 <reset_platform>:
     258:	e3a00000 	mov	r0, #0	; 0x0
     25c:	e1a0f000 	mov	pc, r0

00000260 <init_done>:
     260:	deadb00b 	.word	0xdeadb00b

00000264 <undefined_instruction>:
     264:	e59fd2f4 	ldr	sp, [pc, #756]	; 560 <.__undef_exception_stack>
     268:	e92d003f 	push	{r0, r1, r2, r3, r4, r5}
     26c:	e14f1000 	mrs	r1, SPSR
     270:	e3110020 	tst	r1, #32	; 0x20
     274:	024e0004 	subeq	r0, lr, #4	; 0x4
     278:	124e0002 	subne	r0, lr, #2	; 0x2
     27c:	e3a02001 	mov	r2, #1	; 0x1
     280:	e1a0300d 	mov	r3, sp
     284:	ea000018 	b	2ec <call_exception_handler>

00000288 <software_interrupt>:
     288:	e92d0100 	.word	0xe92d0100
     28c:	e59f82cc 	.word	0xe59f82cc
     290:	e928003f 	.word	0xe928003f
     294:	e1a03008 	.word	0xe1a03008
     298:	e8bd0100 	.word	0xe8bd0100
     29c:	e14f1000 	.word	0xe14f1000
     2a0:	e3110020 	.word	0xe3110020
     2a4:	024e0004 	.word	0x024e0004
     2a8:	124e0002 	.word	0x124e0002
     2ac:	e3a02002 	.word	0xe3a02002
     2b0:	ea00000d 	.word	0xea00000d

000002b4 <abort_prefetch>:
     2b4:	e59fd2a4 	.word	0xe59fd2a4
     2b8:	e92d003f 	.word	0xe92d003f
     2bc:	e24e0004 	.word	0xe24e0004
     2c0:	e14f1000 	.word	0xe14f1000
     2c4:	e3a02003 	.word	0xe3a02003
     2c8:	e1a0300d 	.word	0xe1a0300d
     2cc:	ea000006 	.word	0xea000006

000002d0 <abort_data>:
     2d0:	e59fd288 	.word	0xe59fd288
     2d4:	e92d003f 	.word	0xe92d003f
     2d8:	e24e0004 	.word	0xe24e0004
     2dc:	e14f1000 	.word	0xe14f1000
     2e0:	e3a02004 	.word	0xe3a02004
     2e4:	e1a0300d 	.word	0xe1a0300d
     2e8:	eaffffff 	.word	0xeaffffff

000002ec <call_exception_handler>:
     2ec:	e10f4000 	.word	0xe10f4000
     2f0:	e3c4401f 	.word	0xe3c4401f
     2f4:	e3844013 	.word	0xe3844013
     2f8:	e129f004 	.word	0xe129f004
     2fc:	e1a0500d 	.word	0xe1a0500d
     300:	0e          	.byte	0x0e
     301:	40          	.byte	0x40
     302:	e1a0      	.short	0xe1a0
     304:	e92d0037 	.word	0xe92d0037
     308:	e1a0000d 	.word	0xe1a0000d
     30c:	e10f2000 	.word	0xe10f2000
     310:	e38110c0 	.word	0xe38110c0
     314:	e3c11020 	.word	0xe3c11020
     318:	e129f001 	.word	0xe129f001
     31c:	e9207f00 	.word	0xe9207f00
     320:	e129f002 	.word	0xe129f002
     324:	e1a0d000 	.word	0xe1a0d000
     328:	e893003f 	.word	0xe893003f
     32c:	e92d00ff 	.word	0xe92d00ff
     330:	e59d1040 	.word	0xe59d1040
     334:	e201101f 	.word	0xe201101f
     338:	e3510013 	.word	0xe3510013
     33c:	059d104c 	.word	0x059d104c
     340:	058d1034 	.word	0x058d1034
     344:	e1a0000d 	.word	0xe1a0000d
     348:	eb002609 	.word	0xeb002609

0000034c <return_from_exception>:
     34c:	e59d0040 	.word	0xe59d0040
     350:	e200101f 	.word	0xe200101f
     354:	e3510013 	.word	0xe3510013
     358:	e169f000 	.word	0xe169f000
     35c:	08ddffff 	.word	0x08ddffff
     360:	e28d2020 	.word	0xe28d2020
     364:	e10f1000 	.word	0xe10f1000
     368:	e38000c0 	.word	0xe38000c0
     36c:	e3c00020 	.word	0xe3c00020
     370:	e129f000 	.word	0xe129f000
     374:	e8927f00 	.word	0xe8927f00
     378:	e129f001 	.word	0xe129f001
     37c:	e59d004c 	.word	0xe59d004c
     380:	e58d0020 	.word	0xe58d0020
     384:	e59d0048 	.word	0xe59d0048
     388:	e58d0024 	.word	0xe58d0024
     38c:	e59d003c 	.word	0xe59d003c
     390:	e58d0028 	.word	0xe58d0028
     394:	e8dde0ff 	.word	0xe8dde0ff

00000398 <FIQ>:
     398:	e14f8000 	.word	0xe14f8000
     39c:	e208901f 	.word	0xe208901f
     3a0:	e3590012 	.word	0xe3590012
     3a4:	1a000002 	.word	0x1a000002
     3a8:	e3888040 	.word	0xe3888040
     3ac:	e169f008 	.word	0xe169f008
     3b0:	e25ef004 	.word	0xe25ef004
     3b4:	e59fd1a0 	.word	0xe59fd1a0
     3b8:	e90d4100 	.word	0xe90d4100
     3bc:	e3a080d2 	.word	0xe3a080d2
     3c0:	e129f008 	.word	0xe129f008
     3c4:	e59fd190 	.word	0xe59fd190
     3c8:	e91d6000 	.word	0xe91d6000
     3cc:	e169f00d 	.word	0xe169f00d

000003d0 <IRQ>:
     3d0:	e59fd184 	.word	0xe59fd184
     3d4:	e92d003f 	.word	0xe92d003f
     3d8:	e24e0004 	.word	0xe24e0004
     3dc:	e14f1000 	.word	0xe14f1000
     3e0:	e3a02006 	.word	0xe3a02006
     3e4:	e1a0300d 	.word	0xe1a0300d
     3e8:	e10f4000 	.word	0xe10f4000
     3ec:	e3c4401f 	.word	0xe3c4401f
     3f0:	e3844053 	.word	0xe3844053
     3f4:	e129f004 	.word	0xe129f004
     3f8:	e1a0500d 	.word	0xe1a0500d
     3fc:	e1a0400e 	.word	0xe1a0400e
     400:	e92d0037 	.word	0xe92d0037
     404:	e1a0000d 	.word	0xe1a0000d
     408:	e10f2000 	.word	0xe10f2000
     40c:	e38110c0 	.word	0xe38110c0
     410:	e3c11020 	.word	0xe3c11020
     414:	e129f001 	.word	0xe129f001
     418:	e9207f00 	.word	0xe9207f00
     41c:	e129f002 	.word	0xe129f002
     420:	e1a0d000 	.word	0xe1a0d000
     424:	e893003f 	.word	0xe893003f
     428:	e92d00ff 	.word	0xe92d00ff
     42c:	e59d1040 	.word	0xe59d1040
     430:	e201101f 	.word	0xe201101f
     434:	e3510013 	.word	0xe3510013
     438:	059d104c 	.word	0x059d104c
     43c:	058d1034 	.word	0x058d1034
     440:	e1a0900d 	.word	0xe1a0900d
     444:	e59f2148 	.word	0xe59f2148
     448:	e5920000 	.word	0xe5920000
     44c:	e2801001 	.word	0xe2801001
     450:	e5821000 	.word	0xe5821000
     454:	e3500000 	.word	0xe3500000
     458:	01a0100d 	.word	0x01a0100d
     45c:	059fd134 	.word	0x059fd134
     460:	092d0002 	.word	0x092d0002
     464:	e59f3124 	.word	0xe59f3124
     468:	e5934000 	.word	0xe5934000
     46c:	e2844001 	.word	0xe2844001
     470:	e5834000 	.word	0xe5834000
     474:	e1a00009 	.word	0xe1a00009
     478:	eb002621 	.word	0xeb002621
     47c:	e1a04000 	.word	0xe1a04000
     480:	e1a00004 	.word	0xe1a00004
     484:	e3700001 	.word	0xe3700001
     488:	1a000002 	.word	0x1a000002
     48c:	e1a00009 	.word	0xe1a00009
     490:	eb002592 	.word	0xeb002592
     494:	ea000006 	.word	0xea000006
     498:	e59f10e0 	.word	0xe59f10e0
     49c:	e7911104 	.word	0xe7911104
     4a0:	e59f20d4 	.word	0xe59f20d4
     4a4:	e7926104 	.word	0xe7926104
     4a8:	e1a02009 	.word	0xe1a02009
     4ac:	e1a0e00f 	.word	0xe1a0e00f
     4b0:	e1a0f006 	.word	0xe1a0f006

000004b4 <spurious_IRQ>:
     4b4:	e59f20d8 	.word	0xe59f20d8
     4b8:	e5923000 	.word	0xe5923000
     4bc:	e2531001 	.word	0xe2531001
     4c0:	e5821000 	.word	0xe5821000
     4c4:	059dd000 	.word	0x059dd000
     4c8:	e3740001 	.word	0xe3740001
     4cc:	0a000003 	.word	0x0a000003
     4d0:	e59f10ac 	.word	0xe59f10ac
     4d4:	e7911104 	.word	0xe7911104
     4d8:	e1a02009 	.word	0xe1a02009
     4dc:	eb001314 	.word	0xeb001314
     4e0:	eaffff99 	.word	0xeaffff99

000004e4 <hal_interrupt_stack_call_pending_DSRs>:
     4e4:	e92d4030 	push	{r4, r5, lr}
     4e8:	e10f4000 	mrs	r4, CPSR
     4ec:	e38420c0 	orr	r2, r4, #192	; 0xc0
     4f0:	e3c450c0 	bic	r5, r4, #192	; 0xc0
     4f4:	e129f002 	msr	CPSR_fc, r2
     4f8:	e1a0300d 	mov	r3, sp
     4fc:	e59fd094 	ldr	sp, [pc, #148]	; 598 <.__interrupt_stack>
     500:	e92d0008 	push	{r3}
     504:	e59f2088 	ldr	r2, [pc, #136]	; 594 <.irq_level>
     508:	e5923000 	ldr	r3, [r2]
     50c:	e2833001 	add	r3, r3, #1	; 0x1
     510:	e5823000 	str	r3, [r2]
     514:	e129f005 	msr	CPSR_fc, r5
     518:	eb00123a 	bl	4e08 <cyg_interrupt_call_pending_DSRs>
     51c:	e10f1000 	mrs	r1, CPSR
     520:	e38120c0 	orr	r2, r1, #192	; 0xc0
     524:	e129f002 	msr	CPSR_fc, r2
     528:	e59f2064 	ldr	r2, [pc, #100]	; 594 <.irq_level>
     52c:	e5923000 	ldr	r3, [r2]
     530:	e2433001 	sub	r3, r3, #1	; 0x1
     534:	e5823000 	str	r3, [r2]
     538:	e59dd000 	ldr	sp, [sp]
     53c:	e129f004 	msr	CPSR_fc, r4
     540:	e8bd8030 	pop	{r4, r5, pc}

00000544 <__gccmain>:
     544:	e1a0f00e 	.word	0xe1a0f00e

00000548 <_psr>:
     548:	e10f0000 	.word	0xe10f0000
     54c:	e1a0f00e 	.word	0xe1a0f00e

00000550 <_sp>:
     550:	e1a0000d 	.word	0xe1a0000d
     554:	e1a0f00e 	.word	0xe1a0f00e

00000558 <.__startup_stack>:
     558:	40001ba0 	.word	0x40001ba0

0000055c <.__exception_stack>:
     55c:	40000910 	.word	0x40000910

00000560 <.__undef_exception_stack>:
     560:	40000990 	.word	0x40000990

00000564 <.__bss_start>:
     564:	40000884 	.word	0x40000884

00000568 <.__bss_end>:
     568:	40004bd0 	.word	0x40004bd0

0000056c <._end>:
     56c:	40004bd0 	.word	0x40004bd0

00000570 <.__rom_data_start>:
     570:	0000f878 	.word	0x0000f878

00000574 <.__ram_data_start>:
     574:	40000540 	.word	0x40000540

00000578 <.__ram_data_end>:
     578:	40000884 	.word	0x40000884

0000057c <.hal_interrupt_handlers>:
     57c:	40000544 	.word	0x40000544

00000580 <.hal_interrupt_data>:
     580:	400005c4 	.word	0x400005c4

00000584 <.hal_interrupt_objects>:
     584:	40000644 	.word	0x40000644

00000588 <.__exception_handlers>:
     588:	00000000 	.word	0x00000000

0000058c <.init_flag>:
     58c:	40000540 	.word	0x40000540

00000590 <.cyg_scheduler_sched_lock>:
     590:	400007c8 	.word	0x400007c8

00000594 <.irq_level>:
     594:	40001990 	.word	0x40001990

00000598 <.__interrupt_stack>:
     598:	40001990 	.word	0x40001990

0000059c <_eCos_id>:
     59c:	736f4365 	.word	0x736f4365
     5a0:	00203a20 	.word	0x00203a20
     5a4:	20727041 	.word	0x20727041
     5a8:	32203620 	.word	0x32203620
     5ac:	00313130 	.word	0x00313130
     5b0:	e01fc000 	.word	0xe01fc000
     5b4:	e002c000 	.word	0xe002c000
     5b8:	e0028000 	.word	0xe0028000
     5bc:	00000000 	.word	0x00000000
     5c0:	40001ba0 	.word	0x40001ba0

000005c4 <main>:
#include <stdio.h>
#include <GPIO.h>

int main(){
     5c4:	e1a0c00d 	mov	ip, sp
     5c8:	e92dd800 	push	{fp, ip, lr, pc}
     5cc:	e24cb004 	sub	fp, ip, #4	; 0x4

	printf("HELLo eCos!");
     5d0:	e59f002c 	ldr	r0, [pc, #44]	; 604 <main+0x40>
     5d4:	eb001c34 	bl	76ac <printf>
	GPIO_CLEAR(1<<8);
     5d8:	e3a0320e 	mov	r3, #-536870912	; 0xe0000000
     5dc:	e283390a 	add	r3, r3, #163840	; 0x28000
     5e0:	e593300c 	ldr	r3, [r3, #12]
     5e4:	e1a02003 	mov	r2, r3
     5e8:	e3a03c02 	mov	r3, #512	; 0x200
     5ec:	e5823000 	str	r3, [r2]
	return 0;
     5f0:	e3a03000 	mov	r3, #0	; 0x0
}
     5f4:	e1a00003 	mov	r0, r3
     5f8:	e24bd00c 	sub	sp, fp, #12	; 0xc
     5fc:	e89d6800 	ldm	sp, {fp, sp, lr}
     600:	e12fff1e 	bx	lr
     604:	0000f578 	.word	0x0000f578

00000608 <_GLOBAL__I.49000_ioinit.cxx>:
     608:	ea000540 	b	1b10 <cyg_io_init>

0000060c <serial_select>:
     60c:	e3a00001 	mov	r0, #1	; 0x1
     610:	e12fff1e 	bx	lr

00000614 <serial_set_config>:
     614:	e92d4010 	push	{r4, lr}
     618:	e5904014 	ldr	r4, [r0, #20]
     61c:	e1a00004 	mov	r0, r4
     620:	e594c000 	ldr	ip, [r4]
     624:	e1a0e00f 	mov	lr, pc
     628:	e59cf008 	ldr	pc, [ip, #8]
     62c:	e8bd8010 	pop	{r4, pc}

00000630 <serial_rcv_char>:
     630:	e5902068 	ldr	r2, [r0, #104]
     634:	e5903064 	ldr	r3, [r0, #100]
     638:	e1520003 	cmp	r2, r3
     63c:	e1a0c001 	mov	ip, r1
     640:	aa00000c 	bge	678 <serial_rcv_char+0x48>
     644:	e590305c 	ldr	r3, [r0, #92]
     648:	e5902058 	ldr	r2, [r0, #88]
     64c:	e2831001 	add	r1, r3, #1	; 0x1
     650:	e7c2c003 	strb	ip, [r2, r3]
     654:	e580105c 	str	r1, [r0, #92]
     658:	e5902064 	ldr	r2, [r0, #100]
     65c:	e590305c 	ldr	r3, [r0, #92]
     660:	e1530002 	cmp	r3, r2
     664:	03a03000 	moveq	r3, #0	; 0x0
     668:	0580305c 	streq	r3, [r0, #92]
     66c:	e5903068 	ldr	r3, [r0, #104]
     670:	e2833001 	add	r3, r3, #1	; 0x1
     674:	e5803068 	str	r3, [r0, #104]
     678:	e590308c 	ldr	r3, [r0, #140]
     67c:	e3530000 	cmp	r3, #0	; 0x0
     680:	012fff1e 	bxeq	lr
     684:	e3a03000 	mov	r3, #0	; 0x0
     688:	e580308c 	str	r3, [r0, #140]
     68c:	e2800070 	add	r0, r0, #112	; 0x70
     690:	ea000b48 	b	33b8 <cyg_cond_broadcast>

00000694 <serial_xmt_char>:
     694:	e5903028 	ldr	r3, [r0, #40]
     698:	e3530000 	cmp	r3, #0	; 0x0
     69c:	e92d4070 	push	{r4, r5, r6, lr}
     6a0:	e1a04000 	mov	r4, r0
     6a4:	e5905000 	ldr	r5, [r0]
     6a8:	da000023 	ble	73c <serial_xmt_char+0xa8>
     6ac:	e3a06000 	mov	r6, #0	; 0x0
     6b0:	ea00000c 	b	6e8 <serial_xmt_char+0x54>
     6b4:	e5943020 	ldr	r3, [r4, #32]
     6b8:	e2833001 	add	r3, r3, #1	; 0x1
     6bc:	e5843020 	str	r3, [r4, #32]
     6c0:	e5942024 	ldr	r2, [r4, #36]
     6c4:	e5943020 	ldr	r3, [r4, #32]
     6c8:	e1530002 	cmp	r3, r2
     6cc:	05846020 	streq	r6, [r4, #32]
     6d0:	e5943028 	ldr	r3, [r4, #40]
     6d4:	e2433001 	sub	r3, r3, #1	; 0x1
     6d8:	e5843028 	str	r3, [r4, #40]
     6dc:	e5942028 	ldr	r2, [r4, #40]
     6e0:	e3520000 	cmp	r2, #0	; 0x0
     6e4:	da000014 	ble	73c <serial_xmt_char+0xa8>
     6e8:	e5942020 	ldr	r2, [r4, #32]
     6ec:	e5943018 	ldr	r3, [r4, #24]
     6f0:	e1a00004 	mov	r0, r4
     6f4:	e7d31002 	ldrb	r1, [r3, r2]
     6f8:	e1a0e00f 	mov	lr, pc
     6fc:	e595f000 	ldr	pc, [r5]
     700:	e3500000 	cmp	r0, #0	; 0x0
     704:	1affffea 	bne	6b4 <serial_xmt_char+0x20>
     708:	e5943028 	ldr	r3, [r4, #40]
     70c:	e5942024 	ldr	r2, [r4, #36]
     710:	e594102c 	ldr	r1, [r4, #44]
     714:	e0632002 	rsb	r2, r3, r2
     718:	e1520001 	cmp	r2, r1
     71c:	b8bd8070 	poplt	{r4, r5, r6, pc}
     720:	e594304c 	ldr	r3, [r4, #76]
     724:	e3530000 	cmp	r3, #0	; 0x0
     728:	08bd8070 	popeq	{r4, r5, r6, pc}
     72c:	e584004c 	str	r0, [r4, #76]
     730:	e2840030 	add	r0, r4, #48	; 0x30
     734:	e8bd4070 	pop	{r4, r5, r6, lr}
     738:	ea000b1e 	b	33b8 <cyg_cond_broadcast>
     73c:	e1a00004 	mov	r0, r4
     740:	e1a0e00f 	mov	lr, pc
     744:	e595f010 	ldr	pc, [r5, #16]
     748:	e594304c 	ldr	r3, [r4, #76]
     74c:	e3530000 	cmp	r3, #0	; 0x0
     750:	08bd8070 	popeq	{r4, r5, r6, pc}
     754:	e3a03000 	mov	r3, #0	; 0x0
     758:	e2840030 	add	r0, r4, #48	; 0x30
     75c:	e584304c 	str	r3, [r4, #76]
     760:	e8bd4070 	pop	{r4, r5, r6, lr}
     764:	ea000b13 	b	33b8 <cyg_cond_broadcast>

00000768 <serial_init>:
     768:	e92d4030 	push	{r4, r5, lr}
     76c:	e5902014 	ldr	r2, [r0, #20]
     770:	e3520000 	cmp	r2, #0	; 0x0
     774:	e24dd004 	sub	sp, sp, #4	; 0x4
     778:	e1a05000 	mov	r5, r0
     77c:	1a000007 	bne	7a0 <serial_init+0x38>
     780:	e5903024 	ldr	r3, [r0, #36]
     784:	e3530000 	cmp	r3, #0	; 0x0
     788:	1a000010 	bne	7d0 <serial_init+0x68>
     78c:	e5953064 	ldr	r3, [r5, #100]
     790:	e3530000 	cmp	r3, #0	; 0x0
     794:	1a000003 	bne	7a8 <serial_init+0x40>
     798:	e3a03001 	mov	r3, #1	; 0x1
     79c:	e5853014 	str	r3, [r5, #20]
     7a0:	e28dd004 	add	sp, sp, #4	; 0x4
     7a4:	e8bd8030 	pop	{r4, r5, pc}
     7a8:	e3a03000 	mov	r3, #0	; 0x0
     7ac:	e2854078 	add	r4, r5, #120	; 0x78
     7b0:	e1a00004 	mov	r0, r4
     7b4:	e5853090 	str	r3, [r5, #144]
     7b8:	e585308c 	str	r3, [r5, #140]
     7bc:	eb000b0a 	bl	33ec <cyg_mutex_init>
     7c0:	e1a01004 	mov	r1, r4
     7c4:	e2850070 	add	r0, r5, #112	; 0x70
     7c8:	eb000aff 	bl	33cc <cyg_cond_init>
     7cc:	eafffff1 	b	798 <serial_init+0x30>
     7d0:	e2804038 	add	r4, r0, #56	; 0x38
     7d4:	e5802050 	str	r2, [r0, #80]
     7d8:	e580204c 	str	r2, [r0, #76]
     7dc:	e5802054 	str	r2, [r0, #84]
     7e0:	e1a00004 	mov	r0, r4
     7e4:	eb000b00 	bl	33ec <cyg_mutex_init>
     7e8:	e1a01004 	mov	r1, r4
     7ec:	e2850030 	add	r0, r5, #48	; 0x30
     7f0:	eb000af5 	bl	33cc <cyg_cond_init>
     7f4:	e5953024 	ldr	r3, [r5, #36]
     7f8:	e3530000 	cmp	r3, #0	; 0x0
     7fc:	e2832003 	add	r2, r3, #3	; 0x3
     800:	b1a03002 	movlt	r3, r2
     804:	e1a03143 	asr	r3, r3, #2
     808:	e585302c 	str	r3, [r5, #44]
     80c:	e5953064 	ldr	r3, [r5, #100]
     810:	e3530000 	cmp	r3, #0	; 0x0
     814:	0affffdf 	beq	798 <serial_init+0x30>
     818:	eaffffe2 	b	7a8 <serial_init+0x40>

0000081c <serial_get_config>:
     81c:	e92d41f0 	push	{r4, r5, r6, r7, r8, lr}
     820:	e2411c01 	sub	r1, r1, #256	; 0x100
     824:	e5905014 	ldr	r5, [r0, #20]
     828:	e2411001 	sub	r1, r1, #1	; 0x1
     82c:	e1a0c003 	mov	ip, r3
     830:	e5956000 	ldr	r6, [r5]
     834:	e3510010 	cmp	r1, #16	; 0x10
     838:	979ff101 	ldrls	pc, [pc, r1, lsl #2]
     83c:	ea000010 	b	884 <serial_get_config+0x68>
     840:	000008e0 	.word	0x000008e0
     844:	00000908 	.word	0x00000908
     848:	00000920 	.word	0x00000920
     84c:	000009a8 	.word	0x000009a8
     850:	00000a10 	.word	0x00000a10
     854:	00000884 	.word	0x00000884
     858:	00000884 	.word	0x00000884
     85c:	00000884 	.word	0x00000884
     860:	00000884 	.word	0x00000884
     864:	00000884 	.word	0x00000884
     868:	00000884 	.word	0x00000884
     86c:	00000884 	.word	0x00000884
     870:	00000884 	.word	0x00000884
     874:	00000884 	.word	0x00000884
     878:	00000884 	.word	0x00000884
     87c:	00000884 	.word	0x00000884
     880:	00000890 	.word	0x00000890
     884:	e3e04015 	mvn	r4, #21	; 0x15
     888:	e1a00004 	mov	r0, r4
     88c:	e8bd81f0 	pop	{r4, r5, r6, r7, r8, pc}
     890:	e5933000 	ldr	r3, [r3]
     894:	e353000f 	cmp	r3, #15	; 0xf
     898:	9afffff9 	bls	884 <serial_get_config+0x68>
     89c:	e3a03010 	mov	r3, #16	; 0x10
     8a0:	e58c3000 	str	r3, [ip]
     8a4:	e5953064 	ldr	r3, [r5, #100]
     8a8:	e5823000 	str	r3, [r2]
     8ac:	e3530000 	cmp	r3, #0	; 0x0
     8b0:	15953068 	ldrne	r3, [r5, #104]
     8b4:	05823004 	streq	r3, [r2, #4]
     8b8:	15823004 	strne	r3, [r2, #4]
     8bc:	e5950024 	ldr	r0, [r5, #36]
     8c0:	e5820008 	str	r0, [r2, #8]
     8c4:	e3500000 	cmp	r0, #0	; 0x0
     8c8:	15953028 	ldrne	r3, [r5, #40]
     8cc:	13a04000 	movne	r4, #0	; 0x0
     8d0:	1582300c 	strne	r3, [r2, #12]
     8d4:	0582000c 	streq	r0, [r2, #12]
     8d8:	01a04000 	moveq	r4, r0
     8dc:	eaffffe9 	b	888 <serial_get_config+0x6c>
     8e0:	e5933000 	ldr	r3, [r3]
     8e4:	e3530007 	cmp	r3, #7	; 0x7
     8e8:	9affffe5 	bls	884 <serial_get_config+0x68>
     8ec:	e285300c 	add	r3, r5, #12	; 0xc
     8f0:	e8930003 	ldm	r3, {r0, r1}
     8f4:	e3a03008 	mov	r3, #8	; 0x8
     8f8:	e8820003 	stm	r2, {r0, r1}
     8fc:	e3a04000 	mov	r4, #0	; 0x0
     900:	e58c3000 	str	r3, [ip]
     904:	eaffffdf 	b	888 <serial_get_config+0x6c>
     908:	e5953024 	ldr	r3, [r5, #36]
     90c:	e3530000 	cmp	r3, #0	; 0x0
     910:	1a00004a 	bne	a40 <serial_get_config+0x224>
     914:	e3a04000 	mov	r4, #0	; 0x0
     918:	e1a00004 	mov	r0, r4
     91c:	e8bd81f0 	pop	{r4, r5, r6, r7, r8, pc}
     920:	e5953024 	ldr	r3, [r5, #36]
     924:	e3530000 	cmp	r3, #0	; 0x0
     928:	0afffff9 	beq	914 <serial_get_config+0xf8>
     92c:	e2854038 	add	r4, r5, #56	; 0x38
     930:	e1a00004 	mov	r0, r4
     934:	eb000aaa 	bl	33e4 <cyg_mutex_lock>
     938:	eb000a03 	bl	314c <cyg_scheduler_lock>
     93c:	e5953028 	ldr	r3, [r5, #40]
     940:	e3530000 	cmp	r3, #0	; 0x0
     944:	da000008 	ble	96c <serial_get_config+0x150>
     948:	e3a03000 	mov	r3, #0	; 0x0
     94c:	e5853028 	str	r3, [r5, #40]
     950:	e5952028 	ldr	r2, [r5, #40]
     954:	e585201c 	str	r2, [r5, #28]
     958:	e595301c 	ldr	r3, [r5, #28]
     95c:	e1a00005 	mov	r0, r5
     960:	e5853020 	str	r3, [r5, #32]
     964:	e1a0e00f 	mov	lr, pc
     968:	e596f010 	ldr	pc, [r6, #16]
     96c:	e3a02000 	mov	r2, #0	; 0x0
     970:	e3a01c01 	mov	r1, #256	; 0x100
     974:	e1a03002 	mov	r3, r2
     978:	e2811003 	add	r1, r1, #3	; 0x3
     97c:	e1a00005 	mov	r0, r5
     980:	e1a0e00f 	mov	lr, pc
     984:	e596f008 	ldr	pc, [r6, #8]
     988:	e595304c 	ldr	r3, [r5, #76]
     98c:	e3530000 	cmp	r3, #0	; 0x0
     990:	1a00004d 	bne	acc <serial_get_config+0x2b0>
     994:	eb000b3b 	bl	3688 <cyg_scheduler_unlock>
     998:	e1a00004 	mov	r0, r4
     99c:	eb000a8e 	bl	33dc <cyg_mutex_unlock>
     9a0:	e3a04000 	mov	r4, #0	; 0x0
     9a4:	eaffffb7 	b	888 <serial_get_config+0x6c>
     9a8:	e5953064 	ldr	r3, [r5, #100]
     9ac:	e3530000 	cmp	r3, #0	; 0x0
     9b0:	0affffd7 	beq	914 <serial_get_config+0xf8>
     9b4:	e2857078 	add	r7, r5, #120	; 0x78
     9b8:	e1a00007 	mov	r0, r7
     9bc:	eb000a88 	bl	33e4 <cyg_mutex_lock>
     9c0:	eb0009e1 	bl	314c <cyg_scheduler_lock>
     9c4:	e595308c 	ldr	r3, [r5, #140]
     9c8:	e3530000 	cmp	r3, #0	; 0x0
     9cc:	1a000037 	bne	ab0 <serial_get_config+0x294>
     9d0:	e3a04000 	mov	r4, #0	; 0x0
     9d4:	e5854068 	str	r4, [r5, #104]
     9d8:	e5953068 	ldr	r3, [r5, #104]
     9dc:	e585305c 	str	r3, [r5, #92]
     9e0:	e595205c 	ldr	r2, [r5, #92]
     9e4:	e3a01f41 	mov	r1, #260	; 0x104
     9e8:	e5852060 	str	r2, [r5, #96]
     9ec:	e1a03004 	mov	r3, r4
     9f0:	e1a02004 	mov	r2, r4
     9f4:	e1a00005 	mov	r0, r5
     9f8:	e1a0e00f 	mov	lr, pc
     9fc:	e596f008 	ldr	pc, [r6, #8]
     a00:	eb000b20 	bl	3688 <cyg_scheduler_unlock>
     a04:	e1a00007 	mov	r0, r7
     a08:	eb000a73 	bl	33dc <cyg_mutex_unlock>
     a0c:	eaffff9d 	b	888 <serial_get_config+0x6c>
     a10:	e5953064 	ldr	r3, [r5, #100]
     a14:	e3530000 	cmp	r3, #0	; 0x0
     a18:	1a00001f 	bne	a9c <serial_get_config+0x280>
     a1c:	e5953024 	ldr	r3, [r5, #36]
     a20:	e3530000 	cmp	r3, #0	; 0x0
     a24:	0affffba 	beq	914 <serial_get_config+0xf8>
     a28:	e3a03001 	mov	r3, #1	; 0x1
     a2c:	e5853050 	str	r3, [r5, #80]
     a30:	e2850030 	add	r0, r5, #48	; 0x30
     a34:	eb000a5f 	bl	33b8 <cyg_cond_broadcast>
     a38:	e3a04000 	mov	r4, #0	; 0x0
     a3c:	eaffff91 	b	888 <serial_get_config+0x6c>
     a40:	e2858038 	add	r8, r5, #56	; 0x38
     a44:	e1a00008 	mov	r0, r8
     a48:	eb000a65 	bl	33e4 <cyg_mutex_lock>
     a4c:	e2856030 	add	r6, r5, #48	; 0x30
     a50:	eb0009bd 	bl	314c <cyg_scheduler_lock>
     a54:	e3a04000 	mov	r4, #0	; 0x0
     a58:	e3a07001 	mov	r7, #1	; 0x1
     a5c:	ea000003 	b	a70 <serial_get_config+0x254>
     a60:	e585704c 	str	r7, [r5, #76]
     a64:	eb000a55 	bl	33c0 <cyg_cond_wait>
     a68:	e3500000 	cmp	r0, #0	; 0x0
     a6c:	03e04003 	mvneq	r4, #3	; 0x3
     a70:	e5953054 	ldr	r3, [r5, #84]
     a74:	e3530000 	cmp	r3, #0	; 0x0
     a78:	e1a00006 	mov	r0, r6
     a7c:	1afffff7 	bne	a60 <serial_get_config+0x244>
     a80:	e5953028 	ldr	r3, [r5, #40]
     a84:	e3530000 	cmp	r3, #0	; 0x0
     a88:	cafffff4 	bgt	a60 <serial_get_config+0x244>
     a8c:	eb000afd 	bl	3688 <cyg_scheduler_unlock>
     a90:	e1a00008 	mov	r0, r8
     a94:	eb000a50 	bl	33dc <cyg_mutex_unlock>
     a98:	eaffff7a 	b	888 <serial_get_config+0x6c>
     a9c:	e3a03001 	mov	r3, #1	; 0x1
     aa0:	e5853090 	str	r3, [r5, #144]
     aa4:	e2850070 	add	r0, r5, #112	; 0x70
     aa8:	eb000a42 	bl	33b8 <cyg_cond_broadcast>
     aac:	eaffffda 	b	a1c <serial_get_config+0x200>
     ab0:	e3a03001 	mov	r3, #1	; 0x1
     ab4:	e5853090 	str	r3, [r5, #144]
     ab8:	e2850070 	add	r0, r5, #112	; 0x70
     abc:	eb000a3d 	bl	33b8 <cyg_cond_broadcast>
     ac0:	e3a03000 	mov	r3, #0	; 0x0
     ac4:	e585308c 	str	r3, [r5, #140]
     ac8:	eaffffc0 	b	9d0 <serial_get_config+0x1b4>
     acc:	e3a03001 	mov	r3, #1	; 0x1
     ad0:	e5853050 	str	r3, [r5, #80]
     ad4:	e2850030 	add	r0, r5, #48	; 0x30
     ad8:	eb000a36 	bl	33b8 <cyg_cond_broadcast>
     adc:	e3a03000 	mov	r3, #0	; 0x0
     ae0:	e585304c 	str	r3, [r5, #76]
     ae4:	eaffffaa 	b	994 <serial_get_config+0x178>

00000ae8 <serial_read>:
     ae8:	e92d4ff0 	push	{r4, r5, r6, r7, r8, r9, sl, fp, lr}
     aec:	e5905014 	ldr	r5, [r0, #20]
     af0:	e1a09005 	mov	r9, r5
     af4:	e499a078 	ldr	sl, [r9], #120
     af8:	e24dd004 	sub	sp, sp, #4	; 0x4
     afc:	e1a00009 	mov	r0, r9
     b00:	e1a08001 	mov	r8, r1
     b04:	e1a07002 	mov	r7, r2
     b08:	eb000a35 	bl	33e4 <cyg_mutex_lock>
     b0c:	e5952064 	ldr	r2, [r5, #100]
     b10:	e3a03000 	mov	r3, #0	; 0x0
     b14:	e3520000 	cmp	r2, #0	; 0x0
     b18:	e5853090 	str	r3, [r5, #144]
     b1c:	e1a06008 	mov	r6, r8
     b20:	1a000011 	bne	b6c <serial_read+0x84>
     b24:	e5973000 	ldr	r3, [r7]
     b28:	e3530000 	cmp	r3, #0	; 0x0
     b2c:	0a000008 	beq	b54 <serial_read+0x6c>
     b30:	e1a04002 	mov	r4, r2
     b34:	e1a00005 	mov	r0, r5
     b38:	e1a0e00f 	mov	lr, pc
     b3c:	e59af004 	ldr	pc, [sl, #4]
     b40:	e7c80004 	strb	r0, [r8, r4]
     b44:	e5973000 	ldr	r3, [r7]
     b48:	e2844001 	add	r4, r4, #1	; 0x1
     b4c:	e1530004 	cmp	r3, r4
     b50:	8afffff7 	bhi	b34 <serial_read+0x4c>
     b54:	e3a04000 	mov	r4, #0	; 0x0
     b58:	e1a00009 	mov	r0, r9
     b5c:	eb000a1e 	bl	33dc <cyg_mutex_unlock>
     b60:	e1a00004 	mov	r0, r4
     b64:	e28dd004 	add	sp, sp, #4	; 0x4
     b68:	e8bd8ff0 	pop	{r4, r5, r6, r7, r8, r9, sl, fp, pc}
     b6c:	e1a04003 	mov	r4, r3
     b70:	e2858070 	add	r8, r5, #112	; 0x70
     b74:	eb000974 	bl	314c <cyg_scheduler_lock>
     b78:	e3a0b001 	mov	fp, #1	; 0x1
     b7c:	e1a0a004 	mov	sl, r4
     b80:	ea00000f 	b	bc4 <serial_read+0xdc>
     b84:	e5951060 	ldr	r1, [r5, #96]
     b88:	e5953058 	ldr	r3, [r5, #88]
     b8c:	e7d32001 	ldrb	r2, [r3, r1]
     b90:	e5c62000 	strb	r2, [r6]
     b94:	e5953060 	ldr	r3, [r5, #96]
     b98:	e2833001 	add	r3, r3, #1	; 0x1
     b9c:	e5853060 	str	r3, [r5, #96]
     ba0:	e5952064 	ldr	r2, [r5, #100]
     ba4:	e5953060 	ldr	r3, [r5, #96]
     ba8:	e1530002 	cmp	r3, r2
     bac:	0585a060 	streq	sl, [r5, #96]
     bb0:	e5953068 	ldr	r3, [r5, #104]
     bb4:	e2433001 	sub	r3, r3, #1	; 0x1
     bb8:	e5853068 	str	r3, [r5, #104]
     bbc:	e2866001 	add	r6, r6, #1	; 0x1
     bc0:	e2844001 	add	r4, r4, #1	; 0x1
     bc4:	e5973000 	ldr	r3, [r7]
     bc8:	e1540003 	cmp	r4, r3
     bcc:	2a000011 	bcs	c18 <serial_read+0x130>
     bd0:	e5953068 	ldr	r3, [r5, #104]
     bd4:	e3530000 	cmp	r3, #0	; 0x0
     bd8:	caffffe9 	bgt	b84 <serial_read+0x9c>
     bdc:	e585b08c 	str	fp, [r5, #140]
     be0:	e1a00008 	mov	r0, r8
     be4:	eb0009f5 	bl	33c0 <cyg_cond_wait>
     be8:	e3500000 	cmp	r0, #0	; 0x0
     bec:	0585b090 	streq	fp, [r5, #144]
     bf0:	e5953090 	ldr	r3, [r5, #144]
     bf4:	e3530000 	cmp	r3, #0	; 0x0
     bf8:	0afffff1 	beq	bc4 <serial_read+0xdc>
     bfc:	e3a03000 	mov	r3, #0	; 0x0
     c00:	e5874000 	str	r4, [r7]
     c04:	e585308c 	str	r3, [r5, #140]
     c08:	e5853090 	str	r3, [r5, #144]
     c0c:	e3e04003 	mvn	r4, #3	; 0x3
     c10:	eb000a9c 	bl	3688 <cyg_scheduler_unlock>
     c14:	eaffffcf 	b	b58 <serial_read+0x70>
     c18:	e3a04000 	mov	r4, #0	; 0x0
     c1c:	eb000a99 	bl	3688 <cyg_scheduler_unlock>
     c20:	eaffffcc 	b	b58 <serial_read+0x70>

00000c24 <serial_write>:
     c24:	e92d4ff0 	push	{r4, r5, r6, r7, r8, r9, sl, fp, lr}
     c28:	e5905014 	ldr	r5, [r0, #20]
     c2c:	e1a09005 	mov	r9, r5
     c30:	e4997038 	ldr	r7, [r9], #56
     c34:	e24dd004 	sub	sp, sp, #4	; 0x4
     c38:	e1a00009 	mov	r0, r9
     c3c:	e5928000 	ldr	r8, [r2]
     c40:	e1a0b002 	mov	fp, r2
     c44:	e1a06001 	mov	r6, r1
     c48:	eb0009e5 	bl	33e4 <cyg_mutex_lock>
     c4c:	e5952024 	ldr	r2, [r5, #36]
     c50:	e3a03000 	mov	r3, #0	; 0x0
     c54:	e3520000 	cmp	r2, #0	; 0x0
     c58:	e5853050 	str	r3, [r5, #80]
     c5c:	e1a04008 	mov	r4, r8
     c60:	e1a0a006 	mov	sl, r6
     c64:	1a000011 	bne	cb0 <serial_write+0x8c>
     c68:	e1580003 	cmp	r8, r3
     c6c:	da000009 	ble	c98 <serial_write+0x74>
     c70:	e1a04002 	mov	r4, r2
     c74:	e7d61004 	ldrb	r1, [r6, r4]
     c78:	e1a00005 	mov	r0, r5
     c7c:	e1a0e00f 	mov	lr, pc
     c80:	e597f000 	ldr	pc, [r7]
     c84:	e3500000 	cmp	r0, #0	; 0x0
     c88:	0afffff9 	beq	c74 <serial_write+0x50>
     c8c:	e2844001 	add	r4, r4, #1	; 0x1
     c90:	e1540008 	cmp	r4, r8
     c94:	1afffff6 	bne	c74 <serial_write+0x50>
     c98:	e3a04000 	mov	r4, #0	; 0x0
     c9c:	e1a00009 	mov	r0, r9
     ca0:	eb0009cd 	bl	33dc <cyg_mutex_unlock>
     ca4:	e1a00004 	mov	r0, r4
     ca8:	e28dd004 	add	sp, sp, #4	; 0x4
     cac:	e8bd8ff0 	pop	{r4, r5, r6, r7, r8, r9, sl, fp, pc}
     cb0:	eb000925 	bl	314c <cyg_scheduler_lock>
     cb4:	e3580000 	cmp	r8, #0	; 0x0
     cb8:	da000034 	ble	d90 <serial_write+0x16c>
     cbc:	e2858030 	add	r8, r5, #48	; 0x30
     cc0:	e3a06001 	mov	r6, #1	; 0x1
     cc4:	ea00000c 	b	cfc <serial_write+0xd8>
     cc8:	e595101c 	ldr	r1, [r5, #28]
     ccc:	e4da0001 	ldrb	r0, [sl], #1
     cd0:	e5953018 	ldr	r3, [r5, #24]
     cd4:	e2812001 	add	r2, r1, #1	; 0x1
     cd8:	e7c30001 	strb	r0, [r3, r1]
     cdc:	e585201c 	str	r2, [r5, #28]
     ce0:	e585c01c 	str	ip, [r5, #28]
     ce4:	e5953028 	ldr	r3, [r5, #40]
     ce8:	e2833001 	add	r3, r3, #1	; 0x1
     cec:	e5853028 	str	r3, [r5, #40]
     cf0:	e2444001 	sub	r4, r4, #1	; 0x1
     cf4:	e3540000 	cmp	r4, #0	; 0x0
     cf8:	da000024 	ble	d90 <serial_write+0x16c>
     cfc:	e595301c 	ldr	r3, [r5, #28]
     d00:	e5952024 	ldr	r2, [r5, #36]
     d04:	e283c001 	add	ip, r3, #1	; 0x1
     d08:	e5951028 	ldr	r1, [r5, #40]
     d0c:	e152000c 	cmp	r2, ip
     d10:	03a0c000 	moveq	ip, #0	; 0x0
     d14:	e1520001 	cmp	r2, r1
     d18:	1affffea 	bne	cc8 <serial_write+0xa4>
     d1c:	e585604c 	str	r6, [r5, #76]
     d20:	e1a00005 	mov	r0, r5
     d24:	e1a0e00f 	mov	lr, pc
     d28:	e597f00c 	ldr	pc, [r7, #12]
     d2c:	e595304c 	ldr	r3, [r5, #76]
     d30:	e3530000 	cmp	r3, #0	; 0x0
     d34:	1a00000a 	bne	d64 <serial_write+0x140>
     d38:	e5953050 	ldr	r3, [r5, #80]
     d3c:	e3530000 	cmp	r3, #0	; 0x0
     d40:	0affffeb 	beq	cf4 <serial_write+0xd0>
     d44:	e59b3000 	ldr	r3, [fp]
     d48:	e3a02000 	mov	r2, #0	; 0x0
     d4c:	e0643003 	rsb	r3, r4, r3
     d50:	e58b3000 	str	r3, [fp]
     d54:	e3e04003 	mvn	r4, #3	; 0x3
     d58:	e585204c 	str	r2, [r5, #76]
     d5c:	e5852050 	str	r2, [r5, #80]
     d60:	ea00000b 	b	d94 <serial_write+0x170>
     d64:	e5953054 	ldr	r3, [r5, #84]
     d68:	e0843003 	add	r3, r4, r3
     d6c:	e5853054 	str	r3, [r5, #84]
     d70:	e1a00008 	mov	r0, r8
     d74:	eb000991 	bl	33c0 <cyg_cond_wait>
     d78:	e3500000 	cmp	r0, #0	; 0x0
     d7c:	05856050 	streq	r6, [r5, #80]
     d80:	e5953054 	ldr	r3, [r5, #84]
     d84:	e0643003 	rsb	r3, r4, r3
     d88:	e5853054 	str	r3, [r5, #84]
     d8c:	eaffffe9 	b	d38 <serial_write+0x114>
     d90:	e3a04000 	mov	r4, #0	; 0x0
     d94:	e1a00005 	mov	r0, r5
     d98:	e1a0e00f 	mov	lr, pc
     d9c:	e597f00c 	ldr	pc, [r7, #12]
     da0:	eb000a38 	bl	3688 <cyg_scheduler_unlock>
     da4:	eaffffbc 	b	c9c <serial_write+0x78>

00000da8 <tty_init>:
     da8:	e5903014 	ldr	r3, [r0, #20]
     dac:	e3a02005 	mov	r2, #5	; 0x5
     db0:	e3a00001 	mov	r0, #1	; 0x1
     db4:	e8830005 	stm	r3, {r0, r2}
     db8:	e12fff1e 	bx	lr

00000dbc <tty_lookup>:
     dbc:	e5903000 	ldr	r3, [r0]
     dc0:	e5932014 	ldr	r2, [r3, #20]
     dc4:	e3a00000 	mov	r0, #0	; 0x0
     dc8:	e5821008 	str	r1, [r2, #8]
     dcc:	e12fff1e 	bx	lr

00000dd0 <tty_set_config>:
     dd0:	e3a0cd0a 	mov	ip, #640	; 0x280
     dd4:	e92d0030 	push	{r4, r5}
     dd8:	e28cc001 	add	ip, ip, #1	; 0x1
     ddc:	e5904014 	ldr	r4, [r0, #20]
     de0:	e151000c 	cmp	r1, ip
     de4:	e1a05002 	mov	r5, r2
     de8:	e5940008 	ldr	r0, [r4, #8]
     dec:	0a000001 	beq	df8 <tty_set_config+0x28>
     df0:	e8bd0030 	pop	{r4, r5}
     df4:	ea000401 	b	1e00 <cyg_io_set_config>
     df8:	e5933000 	ldr	r3, [r3]
     dfc:	e3530008 	cmp	r3, #8	; 0x8
     e00:	08920003 	ldmeq	r2, {r0, r1}
     e04:	13e00015 	mvnne	r0, #21	; 0x15
     e08:	08840003 	stmeq	r4, {r0, r1}
     e0c:	03a00000 	moveq	r0, #0	; 0x0
     e10:	e8bd0030 	pop	{r4, r5}
     e14:	e12fff1e 	bx	lr

00000e18 <tty_get_config>:
     e18:	e3a0cc02 	mov	ip, #512	; 0x200
     e1c:	e92d0030 	push	{r4, r5}
     e20:	e28cc001 	add	ip, ip, #1	; 0x1
     e24:	e5904014 	ldr	r4, [r0, #20]
     e28:	e151000c 	cmp	r1, ip
     e2c:	e1a05002 	mov	r5, r2
     e30:	e1a0c003 	mov	ip, r3
     e34:	e5940008 	ldr	r0, [r4, #8]
     e38:	0a000001 	beq	e44 <tty_get_config+0x2c>
     e3c:	e8bd0030 	pop	{r4, r5}
     e40:	ea0003de 	b	1dc0 <cyg_io_get_config>
     e44:	e5933000 	ldr	r3, [r3]
     e48:	e3530007 	cmp	r3, #7	; 0x7
     e4c:	88940003 	ldmhi	r4, {r0, r1}
     e50:	83a03008 	movhi	r3, #8	; 0x8
     e54:	88820003 	stmhi	r2, {r0, r1}
     e58:	93e00015 	mvnls	r0, #21	; 0x15
     e5c:	858c3000 	strhi	r3, [ip]
     e60:	83a00000 	movhi	r0, #0	; 0x0
     e64:	e8bd0030 	pop	{r4, r5}
     e68:	e12fff1e 	bx	lr

00000e6c <tty_select>:
     e6c:	e5903014 	ldr	r3, [r0, #20]
     e70:	e5930008 	ldr	r0, [r3, #8]
     e74:	ea0003c7 	b	1d98 <cyg_io_select>

00000e78 <tty_read>:
     e78:	e92d4ff0 	push	{r4, r5, r6, r7, r8, r9, sl, fp, lr}
     e7c:	e5905014 	ldr	r5, [r0, #20]
     e80:	e24dd00c 	sub	sp, sp, #12	; 0xc
     e84:	e5956008 	ldr	r6, [r5, #8]
     e88:	e1a0b001 	mov	fp, r1
     e8c:	e1a07002 	mov	r7, r2
     e90:	e3a04000 	mov	r4, #0	; 0x0
     e94:	e28d9007 	add	r9, sp, #7	; 0x7
     e98:	e1a0a00d 	mov	sl, sp
     e9c:	e5973000 	ldr	r3, [r7]
     ea0:	e1540003 	cmp	r4, r3
     ea4:	2a00001d 	bcs	f20 <tty_read+0xa8>
     ea8:	e3a03001 	mov	r3, #1	; 0x1
     eac:	e1a00006 	mov	r0, r6
     eb0:	e1a01009 	mov	r1, r9
     eb4:	e1a0200d 	mov	r2, sp
     eb8:	e58d3000 	str	r3, [sp]
     ebc:	eb000383 	bl	1cd0 <cyg_io_read>
     ec0:	e2508000 	subs	r8, r0, #0	; 0x0
     ec4:	1a00003b 	bne	fb8 <tty_read+0x140>
     ec8:	e5dd3007 	ldrb	r3, [sp, #7]
     ecc:	e7cb3004 	strb	r3, [fp, r4]
     ed0:	e5952004 	ldr	r2, [r5, #4]
     ed4:	e3120008 	tst	r2, #8	; 0x8
     ed8:	e2844001 	add	r4, r4, #1	; 0x1
     edc:	1affffee 	bne	e9c <tty_read+0x24>
     ee0:	e353000a 	cmp	r3, #10	; 0xa
     ee4:	0a000025 	beq	f80 <tty_read+0x108>
     ee8:	8a00000f 	bhi	f2c <tty_read+0xb4>
     eec:	e3530008 	cmp	r3, #8	; 0x8
     ef0:	0a000011 	beq	f3c <tty_read+0xc4>
     ef4:	e3120004 	tst	r2, #4	; 0x4
     ef8:	0affffe7 	beq	e9c <tty_read+0x24>
     efc:	e3a03001 	mov	r3, #1	; 0x1
     f00:	e1a00006 	mov	r0, r6
     f04:	e1a01009 	mov	r1, r9
     f08:	e1a0200d 	mov	r2, sp
     f0c:	e58d3000 	str	r3, [sp]
     f10:	eb00035c 	bl	1c88 <cyg_io_write>
     f14:	e5973000 	ldr	r3, [r7]
     f18:	e1540003 	cmp	r4, r3
     f1c:	3affffe1 	bcc	ea8 <tty_read+0x30>
     f20:	e5874000 	str	r4, [r7]
     f24:	e3a08000 	mov	r8, #0	; 0x0
     f28:	ea000023 	b	fbc <tty_read+0x144>
     f2c:	e353000d 	cmp	r3, #13	; 0xd
     f30:	0a00000d 	beq	f6c <tty_read+0xf4>
     f34:	e353007f 	cmp	r3, #127	; 0x7f
     f38:	1affffed 	bne	ef4 <tty_read+0x7c>
     f3c:	e2544002 	subs	r4, r4, #2	; 0x2
     f40:	43a04000 	movmi	r4, #0	; 0x0
     f44:	4affffd4 	bmi	e9c <tty_read+0x24>
     f48:	e3120004 	tst	r2, #4	; 0x4
     f4c:	0affffd2 	beq	e9c <tty_read+0x24>
     f50:	e3a03003 	mov	r3, #3	; 0x3
     f54:	e1a00006 	mov	r0, r6
     f58:	e59f1090 	ldr	r1, [pc, #144]	; ff0 <tty_read+0x178>
     f5c:	e1a0200d 	mov	r2, sp
     f60:	e58d3000 	str	r3, [sp]
     f64:	eb000347 	bl	1c88 <cyg_io_write>
     f68:	eaffffcb 	b	e9c <tty_read+0x24>
     f6c:	e3120002 	tst	r2, #2	; 0x2
     f70:	1affffc9 	bne	e9c <tty_read+0x24>
     f74:	e3120001 	tst	r2, #1	; 0x1
     f78:	13a0300a 	movne	r3, #10	; 0xa
     f7c:	15cd3007 	strbne	r3, [sp, #7]
     f80:	e3120004 	tst	r2, #4	; 0x4
     f84:	0a000008 	beq	fac <tty_read+0x134>
     f88:	e5953000 	ldr	r3, [r5]
     f8c:	e3130001 	tst	r3, #1	; 0x1
     f90:	1a00000c 	bne	fc8 <tty_read+0x150>
     f94:	e3a03001 	mov	r3, #1	; 0x1
     f98:	e1a00006 	mov	r0, r6
     f9c:	e1a01009 	mov	r1, r9
     fa0:	e1a0200d 	mov	r2, sp
     fa4:	e58d3000 	str	r3, [sp]
     fa8:	eb000336 	bl	1c88 <cyg_io_write>
     fac:	e5dd2007 	ldrb	r2, [sp, #7]
     fb0:	e08b3004 	add	r3, fp, r4
     fb4:	e5432001 	strb	r2, [r3, #-1]
     fb8:	e5874000 	str	r4, [r7]
     fbc:	e1a00008 	mov	r0, r8
     fc0:	e28dd00c 	add	sp, sp, #12	; 0xc
     fc4:	e8bd8ff0 	pop	{r4, r5, r6, r7, r8, r9, sl, fp, pc}
     fc8:	e3a03002 	mov	r3, #2	; 0x2
     fcc:	e1a0200d 	mov	r2, sp
     fd0:	e1a00006 	mov	r0, r6
     fd4:	e59f1018 	ldr	r1, [pc, #24]	; ff4 <tty_read+0x17c>
     fd8:	e58d3000 	str	r3, [sp]
     fdc:	eb000329 	bl	1c88 <cyg_io_write>
     fe0:	e5dd2007 	ldrb	r2, [sp, #7]
     fe4:	e08b3004 	add	r3, fp, r4
     fe8:	e5432001 	strb	r2, [r3, #-1]
     fec:	eafffff1 	b	fb8 <tty_read+0x140>
     ff0:	0000f584 	.word	0x0000f584
     ff4:	0000f588 	.word	0x0000f588

00000ff8 <tty_write>:
     ff8:	e92d4ff0 	push	{r4, r5, r6, r7, r8, r9, sl, fp, lr}
     ffc:	e24dd05c 	sub	sp, sp, #92	; 0x5c
    1000:	e3a03000 	mov	r3, #0	; 0x0
    1004:	e58d2004 	str	r2, [sp, #4]
    1008:	e5900014 	ldr	r0, [r0, #20]
    100c:	e1a05003 	mov	r5, r3
    1010:	e58d3054 	str	r3, [sp, #84]
    1014:	e59d3004 	ldr	r3, [sp, #4]
    1018:	e58d000c 	str	r0, [sp, #12]
    101c:	e58d1008 	str	r1, [sp, #8]
    1020:	e590b008 	ldr	fp, [r0, #8]
    1024:	e5937000 	ldr	r7, [r3]
    1028:	e1a0a005 	mov	sl, r5
    102c:	e3e08008 	mvn	r8, #8	; 0x8
    1030:	e1550007 	cmp	r5, r7
    1034:	2a00001b 	bcs	10a8 <tty_write+0xb0>
    1038:	e59d9008 	ldr	r9, [sp, #8]
    103c:	e7d96005 	ldrb	r6, [r9, r5]
    1040:	e356000a 	cmp	r6, #10	; 0xa
    1044:	0a00001a 	beq	10b4 <tty_write+0xbc>
    1048:	e59d4054 	ldr	r4, [sp, #84]
    104c:	e284c001 	add	ip, r4, #1	; 0x1
    1050:	e28d9058 	add	r9, sp, #88	; 0x58
    1054:	e0893004 	add	r3, r9, r4
    1058:	e35c003e 	cmp	ip, #62	; 0x3e
    105c:	e1a0000b 	mov	r0, fp
    1060:	e28d1014 	add	r1, sp, #20	; 0x14
    1064:	e28d2054 	add	r2, sp, #84	; 0x54
    1068:	e5436044 	strb	r6, [r3, #-68]
    106c:	e58dc054 	str	ip, [sp, #84]
    1070:	e2855001 	add	r5, r5, #1	; 0x1
    1074:	8a000001 	bhi	1080 <tty_write+0x88>
    1078:	e1570005 	cmp	r7, r5
    107c:	1affffeb 	bne	1030 <tty_write+0x38>
    1080:	eb000300 	bl	1c88 <cyg_io_write>
    1084:	e2508000 	subs	r8, r0, #0	; 0x0
    1088:	1a000014 	bne	10e0 <tty_write+0xe8>
    108c:	e59d4054 	ldr	r4, [sp, #84]
    1090:	e59d3004 	ldr	r3, [sp, #4]
    1094:	e58d8054 	str	r8, [sp, #84]
    1098:	e5937000 	ldr	r7, [r3]
    109c:	e1550007 	cmp	r5, r7
    10a0:	e08aa004 	add	sl, sl, r4
    10a4:	3affffe3 	bcc	1038 <tty_write+0x40>
    10a8:	e1a00008 	mov	r0, r8
    10ac:	e28dd05c 	add	sp, sp, #92	; 0x5c
    10b0:	e8bd8ff0 	pop	{r4, r5, r6, r7, r8, r9, sl, fp, pc}
    10b4:	e59d200c 	ldr	r2, [sp, #12]
    10b8:	e5923000 	ldr	r3, [r2]
    10bc:	e3130001 	tst	r3, #1	; 0x1
    10c0:	0affffe0 	beq	1048 <tty_write+0x50>
    10c4:	e59d4054 	ldr	r4, [sp, #84]
    10c8:	e28d9058 	add	r9, sp, #88	; 0x58
    10cc:	e0893004 	add	r3, r9, r4
    10d0:	e3a0200d 	mov	r2, #13	; 0xd
    10d4:	e5432044 	strb	r2, [r3, #-68]
    10d8:	e2844001 	add	r4, r4, #1	; 0x1
    10dc:	eaffffda 	b	104c <tty_write+0x54>
    10e0:	e59d2004 	ldr	r2, [sp, #4]
    10e4:	e582a000 	str	sl, [r2]
    10e8:	eaffffee 	b	10a8 <tty_write+0xb0>

000010ec <haldiag_init>:
    10ec:	e3a00001 	mov	r0, #1	; 0x1
    10f0:	e12fff1e 	bx	lr

000010f4 <haldiag_set_config>:
    10f4:	e52de004 	push	{lr}		; (str lr, [sp, #-4]!)
    10f8:	e3a03d06 	mov	r3, #384	; 0x180
    10fc:	e2833001 	add	r3, r3, #1	; 0x1
    1100:	e1510003 	cmp	r1, r3
    1104:	e24dd004 	sub	sp, sp, #4	; 0x4
    1108:	13e00015 	mvnne	r0, #21	; 0x15
    110c:	0a000001 	beq	1118 <haldiag_set_config+0x24>
    1110:	e28dd004 	add	sp, sp, #4	; 0x4
    1114:	e8bd8000 	pop	{pc}
    1118:	e59f000c 	ldr	r0, [pc, #12]	; 112c <haldiag_set_config+0x38>
    111c:	e59f100c 	ldr	r1, [pc, #12]	; 1130 <haldiag_set_config+0x3c>
    1120:	eb000755 	bl	2e7c <diag_printf>
    1124:	e3a00000 	mov	r0, #0	; 0x0
    1128:	eafffff8 	b	1110 <haldiag_set_config+0x1c>
    112c:	0000f5ac 	.word	0x0000f5ac
    1130:	0000f5b0 	.word	0x0000f5b0

00001134 <haldiag_getc>:
    1134:	e52de004 	push	{lr}		; (str lr, [sp, #-4]!)
    1138:	e24dd00c 	sub	sp, sp, #12	; 0xc
    113c:	e28d0007 	add	r0, sp, #7	; 0x7
    1140:	eb000135 	bl	161c <hal_if_diag_read_char>
    1144:	e5dd0007 	ldrb	r0, [sp, #7]
    1148:	e28dd00c 	add	sp, sp, #12	; 0xc
    114c:	e8bd8000 	pop	{pc}

00001150 <haldiag_putc>:
    1150:	e52de004 	push	{lr}		; (str lr, [sp, #-4]!)
    1154:	e1a00001 	mov	r0, r1
    1158:	e24dd004 	sub	sp, sp, #4	; 0x4
    115c:	eb00019f 	bl	17e0 <hal_if_diag_write_char>
    1160:	e3a00001 	mov	r0, #1	; 0x1
    1164:	e28dd004 	add	sp, sp, #4	; 0x4
    1168:	e8bd8000 	pop	{pc}

0000116c <cyg_iso_c_start>:
    116c:	e59f2018 	ldr	r2, [pc, #24]	; 118c <cyg_iso_c_start+0x20>
    1170:	e5923000 	ldr	r3, [r2]
    1174:	e3530000 	cmp	r3, #0	; 0x0
    1178:	e2833001 	add	r3, r3, #1	; 0x1
    117c:	e5823000 	str	r3, [r2]
    1180:	112fff1e 	bxne	lr
    1184:	e59f0004 	ldr	r0, [pc, #4]	; 1190 <cyg_iso_c_start+0x24>
    1188:	ea000c00 	b	4190 <_ZN10Cyg_Thread6resumeEv>
    118c:	40001bb0 	.word	0x40001bb0
    1190:	400025c8 	.word	0x400025c8

00001194 <_GLOBAL__I.56100_cyg_iso_c_start>:
    1194:	eafffff4 	b	116c <cyg_iso_c_start>

00001198 <nop_service>:
    1198:	e3a00000 	mov	r0, #0	; 0x0
    119c:	e12fff1e 	bx	lr

000011a0 <set_debug_comm>:
    11a0:	e3700002 	cmn	r0, #2	; 0x2
    11a4:	e92d4070 	push	{r4, r5, r6, lr}
    11a8:	0a000031 	beq	1274 <set_debug_comm+0xd4>
    11ac:	e3700001 	cmn	r0, #1	; 0x1
    11b0:	0a000036 	beq	1290 <set_debug_comm+0xf0>
    11b4:	e3700003 	cmn	r0, #3	; 0x3
    11b8:	12805001 	addne	r5, r0, #1	; 0x1
    11bc:	11a04285 	lslne	r4, r5, #5
    11c0:	0a000018 	beq	1228 <set_debug_comm+0x88>
    11c4:	e59f60e0 	ldr	r6, [pc, #224]	; 12ac <set_debug_comm+0x10c>
    11c8:	e5960018 	ldr	r0, [r6, #24]
    11cc:	e3500000 	cmp	r0, #0	; 0x0
    11d0:	0a00001a 	beq	1240 <set_debug_comm+0xa0>
    11d4:	e5902014 	ldr	r2, [r0, #20]
    11d8:	e3a01004 	mov	r1, #4	; 0x4
    11dc:	e5900000 	ldr	r0, [r0]
    11e0:	e1a0e00f 	mov	lr, pc
    11e4:	e12fff12 	bx	r2
    11e8:	e59f30c0 	ldr	r3, [pc, #192]	; 12b0 <set_debug_comm+0x110>
    11ec:	e0833004 	add	r3, r3, r4
    11f0:	e5863018 	str	r3, [r6, #24]
    11f4:	e59f30b8 	ldr	r3, [pc, #184]	; 12b4 <set_debug_comm+0x114>
    11f8:	e5962018 	ldr	r2, [r6, #24]
    11fc:	e3500000 	cmp	r0, #0	; 0x0
    1200:	e5835000 	str	r5, [r3]
    1204:	e1a00002 	mov	r0, r2
    1208:	0a000012 	beq	1258 <set_debug_comm+0xb8>
    120c:	e5923014 	ldr	r3, [r2, #20]
    1210:	e3a01005 	mov	r1, #5	; 0x5
    1214:	e5920000 	ldr	r0, [r2]
    1218:	e1a0e00f 	mov	lr, pc
    121c:	e12fff13 	bx	r3
    1220:	e3a00001 	mov	r0, #1	; 0x1
    1224:	e8bd8070 	pop	{r4, r5, r6, pc}
    1228:	e59f607c 	ldr	r6, [pc, #124]	; 12ac <set_debug_comm+0x10c>
    122c:	e5960018 	ldr	r0, [r6, #24]
    1230:	e3a05000 	mov	r5, #0	; 0x0
    1234:	e3500000 	cmp	r0, #0	; 0x0
    1238:	e1a04005 	mov	r4, r5
    123c:	1affffe4 	bne	11d4 <set_debug_comm+0x34>
    1240:	e59f3068 	ldr	r3, [pc, #104]	; 12b0 <set_debug_comm+0x110>
    1244:	e0833004 	add	r3, r3, r4
    1248:	e5863018 	str	r3, [r6, #24]
    124c:	e59f2060 	ldr	r2, [pc, #96]	; 12b4 <set_debug_comm+0x114>
    1250:	e5960018 	ldr	r0, [r6, #24]
    1254:	e5825000 	str	r5, [r2]
    1258:	e5903014 	ldr	r3, [r0, #20]
    125c:	e3a01004 	mov	r1, #4	; 0x4
    1260:	e5900000 	ldr	r0, [r0]
    1264:	e1a0e00f 	mov	lr, pc
    1268:	e12fff13 	bx	r3
    126c:	e3a00001 	mov	r0, #1	; 0x1
    1270:	e8bd8070 	pop	{r4, r5, r6, pc}
    1274:	e59f2030 	ldr	r2, [pc, #48]	; 12ac <set_debug_comm+0x10c>
    1278:	e59f1034 	ldr	r1, [pc, #52]	; 12b4 <set_debug_comm+0x114>
    127c:	e3a03000 	mov	r3, #0	; 0x0
    1280:	e5810000 	str	r0, [r1]
    1284:	e5823018 	str	r3, [r2, #24]
    1288:	e3a00001 	mov	r0, #1	; 0x1
    128c:	e8bd8070 	pop	{r4, r5, r6, pc}
    1290:	e59f301c 	ldr	r3, [pc, #28]	; 12b4 <set_debug_comm+0x114>
    1294:	e5930000 	ldr	r0, [r3]
    1298:	e3500000 	cmp	r0, #0	; 0x0
    129c:	c2400001 	subgt	r0, r0, #1	; 0x1
    12a0:	c8bd8070 	popgt	{r4, r5, r6, pc}
    12a4:	03e00002 	mvneq	r0, #2	; 0x2
    12a8:	e8bd8070 	pop	{r4, r5, r6, pc}
    12ac:	40000430 	.word	0x40000430
    12b0:	40001bbc 	.word	0x40001bbc
    12b4:	400007b8 	.word	0x400007b8

000012b8 <set_console_comm>:
    12b8:	e3700002 	cmn	r0, #2	; 0x2
    12bc:	0a000018 	beq	1324 <set_console_comm+0x6c>
    12c0:	e3700001 	cmn	r0, #1	; 0x1
    12c4:	0a00000e 	beq	1304 <set_console_comm+0x4c>
    12c8:	e3700003 	cmn	r0, #3	; 0x3
    12cc:	12800001 	addne	r0, r0, #1	; 0x1
    12d0:	11a02280 	lslne	r2, r0, #5
    12d4:	0a000007 	beq	12f8 <set_console_comm+0x40>
    12d8:	e59f3060 	ldr	r3, [pc, #96]	; 1340 <set_console_comm+0x88>
    12dc:	e59f1060 	ldr	r1, [pc, #96]	; 1344 <set_console_comm+0x8c>
    12e0:	e0833002 	add	r3, r3, r2
    12e4:	e59f205c 	ldr	r2, [pc, #92]	; 1348 <set_console_comm+0x90>
    12e8:	e5813014 	str	r3, [r1, #20]
    12ec:	e5820000 	str	r0, [r2]
    12f0:	e3a00001 	mov	r0, #1	; 0x1
    12f4:	e12fff1e 	bx	lr
    12f8:	e3a00000 	mov	r0, #0	; 0x0
    12fc:	e1a02000 	mov	r2, r0
    1300:	eafffff4 	b	12d8 <set_console_comm+0x20>
    1304:	e59f303c 	ldr	r3, [pc, #60]	; 1348 <set_console_comm+0x90>
    1308:	e5930000 	ldr	r0, [r3]
    130c:	e3500000 	cmp	r0, #0	; 0x0
    1310:	c2400001 	subgt	r0, r0, #1	; 0x1
    1314:	c12fff1e 	bxgt	lr
    1318:	112fff1e 	bxne	lr
    131c:	e3e00002 	mvn	r0, #2	; 0x2
    1320:	e12fff1e 	bx	lr
    1324:	e59f2018 	ldr	r2, [pc, #24]	; 1344 <set_console_comm+0x8c>
    1328:	e59f1018 	ldr	r1, [pc, #24]	; 1348 <set_console_comm+0x90>
    132c:	e3a03000 	mov	r3, #0	; 0x0
    1330:	e5810000 	str	r0, [r1]
    1334:	e5823014 	str	r3, [r2, #20]
    1338:	e3a00001 	mov	r0, #1	; 0x1
    133c:	e12fff1e 	bx	lr
    1340:	40001bbc 	.word	0x40001bbc
    1344:	40000430 	.word	0x40000430
    1348:	400007b4 	.word	0x400007b4

0000134c <cyg_hal_diag_mangler_gdb_getc>:
    134c:	e52de004 	push	{lr}		; (str lr, [sp, #-4]!)
    1350:	e59f301c 	ldr	r3, [pc, #28]	; 1374 <cyg_hal_diag_mangler_gdb_getc+0x28>
    1354:	e5932018 	ldr	r2, [r3, #24]
    1358:	e24dd004 	sub	sp, sp, #4	; 0x4
    135c:	e5920000 	ldr	r0, [r2]
    1360:	e5923010 	ldr	r3, [r2, #16]
    1364:	e1a0e00f 	mov	lr, pc
    1368:	e12fff13 	bx	r3
    136c:	e28dd004 	add	sp, sp, #4	; 0x4
    1370:	e8bd8000 	pop	{pc}
    1374:	40000430 	.word	0x40000430

00001378 <cyg_hal_diag_mangler_gdb_read>:
    1378:	e92d40f0 	push	{r4, r5, r6, r7, lr}
    137c:	e2526000 	subs	r6, r2, #0	; 0x0
    1380:	e24dd004 	sub	sp, sp, #4	; 0x4
    1384:	e1a05001 	mov	r5, r1
    1388:	0a00000a 	beq	13b8 <cyg_hal_diag_mangler_gdb_read+0x40>
    138c:	e59f702c 	ldr	r7, [pc, #44]	; 13c0 <cyg_hal_diag_mangler_gdb_read+0x48>
    1390:	e3a04000 	mov	r4, #0	; 0x0
    1394:	e5973018 	ldr	r3, [r7, #24]
    1398:	e5930000 	ldr	r0, [r3]
    139c:	e5932010 	ldr	r2, [r3, #16]
    13a0:	e1a0e00f 	mov	lr, pc
    13a4:	e12fff12 	bx	r2
    13a8:	e7c50004 	strb	r0, [r5, r4]
    13ac:	e2844001 	add	r4, r4, #1	; 0x1
    13b0:	e1540006 	cmp	r4, r6
    13b4:	1afffff6 	bne	1394 <cyg_hal_diag_mangler_gdb_read+0x1c>
    13b8:	e28dd004 	add	sp, sp, #4	; 0x4
    13bc:	e8bd80f0 	pop	{r4, r5, r6, r7, pc}
    13c0:	40000430 	.word	0x40000430

000013c4 <cyg_hal_diag_mangler_gdb_init>:
    13c4:	e92d4030 	push	{r4, r5, lr}
    13c8:	e59f4068 	ldr	r4, [pc, #104]	; 1438 <cyg_hal_diag_mangler_gdb_init+0x74>
    13cc:	e24dd004 	sub	sp, sp, #4	; 0x4
    13d0:	e5943034 	ldr	r3, [r4, #52]
    13d4:	e3e00000 	mvn	r0, #0	; 0x0
    13d8:	e1a0e00f 	mov	lr, pc
    13dc:	e12fff13 	bx	r3
    13e0:	e5943034 	ldr	r3, [r4, #52]
    13e4:	e1a05000 	mov	r5, r0
    13e8:	e3e00002 	mvn	r0, #2	; 0x2
    13ec:	e1a0e00f 	mov	lr, pc
    13f0:	e12fff13 	bx	r3
    13f4:	e5941014 	ldr	r1, [r4, #20]
    13f8:	e59f303c 	ldr	r3, [pc, #60]	; 143c <cyg_hal_diag_mangler_gdb_init+0x78>
    13fc:	e59f203c 	ldr	r2, [pc, #60]	; 1440 <cyg_hal_diag_mangler_gdb_init+0x7c>
    1400:	e5813004 	str	r3, [r1, #4]
    1404:	e59f3038 	ldr	r3, [pc, #56]	; 1444 <cyg_hal_diag_mangler_gdb_init+0x80>
    1408:	e5812008 	str	r2, [r1, #8]
    140c:	e581300c 	str	r3, [r1, #12]
    1410:	e59f2030 	ldr	r2, [pc, #48]	; 1448 <cyg_hal_diag_mangler_gdb_init+0x84>
    1414:	e59f3030 	ldr	r3, [pc, #48]	; 144c <cyg_hal_diag_mangler_gdb_init+0x88>
    1418:	e5812010 	str	r2, [r1, #16]
    141c:	e5813014 	str	r3, [r1, #20]
    1420:	e1a00005 	mov	r0, r5
    1424:	e5943034 	ldr	r3, [r4, #52]
    1428:	e1a0e00f 	mov	lr, pc
    142c:	e12fff13 	bx	r3
    1430:	e28dd004 	add	sp, sp, #4	; 0x4
    1434:	e8bd8030 	pop	{r4, r5, pc}
    1438:	40000430 	.word	0x40000430
    143c:	00001a80 	.word	0x00001a80
    1440:	00001378 	.word	0x00001378
    1444:	00001a28 	.word	0x00001a28
    1448:	0000134c 	.word	0x0000134c
    144c:	000019fc 	.word	0x000019fc

00001450 <cyg_hal_diag_mangler_null_getc>:
    1450:	e52de004 	push	{lr}		; (str lr, [sp, #-4]!)
    1454:	e59f301c 	ldr	r3, [pc, #28]	; 1478 <cyg_hal_diag_mangler_null_getc+0x28>
    1458:	e5932018 	ldr	r2, [r3, #24]
    145c:	e24dd004 	sub	sp, sp, #4	; 0x4
    1460:	e5920000 	ldr	r0, [r2]
    1464:	e5923010 	ldr	r3, [r2, #16]
    1468:	e1a0e00f 	mov	lr, pc
    146c:	e12fff13 	bx	r3
    1470:	e28dd004 	add	sp, sp, #4	; 0x4
    1474:	e8bd8000 	pop	{pc}
    1478:	40000430 	.word	0x40000430

0000147c <cyg_hal_diag_mangler_null_putc>:
    147c:	e52de004 	push	{lr}		; (str lr, [sp, #-4]!)
    1480:	e59f301c 	ldr	r3, [pc, #28]	; 14a4 <cyg_hal_diag_mangler_null_putc+0x28>
    1484:	e5932018 	ldr	r2, [r3, #24]
    1488:	e24dd004 	sub	sp, sp, #4	; 0x4
    148c:	e5920000 	ldr	r0, [r2]
    1490:	e592300c 	ldr	r3, [r2, #12]
    1494:	e1a0e00f 	mov	lr, pc
    1498:	e12fff13 	bx	r3
    149c:	e28dd004 	add	sp, sp, #4	; 0x4
    14a0:	e8bd8000 	pop	{pc}
    14a4:	40000430 	.word	0x40000430

000014a8 <cyg_hal_diag_mangler_null_write>:
    14a8:	e92d40f0 	push	{r4, r5, r6, r7, lr}
    14ac:	e2526000 	subs	r6, r2, #0	; 0x0
    14b0:	e24dd004 	sub	sp, sp, #4	; 0x4
    14b4:	e1a05001 	mov	r5, r1
    14b8:	0a00000a 	beq	14e8 <cyg_hal_diag_mangler_null_write+0x40>
    14bc:	e59f702c 	ldr	r7, [pc, #44]	; 14f0 <cyg_hal_diag_mangler_null_write+0x48>
    14c0:	e3a04000 	mov	r4, #0	; 0x0
    14c4:	e5973018 	ldr	r3, [r7, #24]
    14c8:	e7d51004 	ldrb	r1, [r5, r4]
    14cc:	e5930000 	ldr	r0, [r3]
    14d0:	e2844001 	add	r4, r4, #1	; 0x1
    14d4:	e593200c 	ldr	r2, [r3, #12]
    14d8:	e1a0e00f 	mov	lr, pc
    14dc:	e12fff12 	bx	r2
    14e0:	e1540006 	cmp	r4, r6
    14e4:	1afffff6 	bne	14c4 <cyg_hal_diag_mangler_null_write+0x1c>
    14e8:	e28dd004 	add	sp, sp, #4	; 0x4
    14ec:	e8bd80f0 	pop	{r4, r5, r6, r7, pc}
    14f0:	40000430 	.word	0x40000430

000014f4 <cyg_hal_diag_mangler_null_read>:
    14f4:	e92d40f0 	push	{r4, r5, r6, r7, lr}
    14f8:	e2526000 	subs	r6, r2, #0	; 0x0
    14fc:	e24dd004 	sub	sp, sp, #4	; 0x4
    1500:	e1a05001 	mov	r5, r1
    1504:	0a00000a 	beq	1534 <cyg_hal_diag_mangler_null_read+0x40>
    1508:	e59f702c 	ldr	r7, [pc, #44]	; 153c <cyg_hal_diag_mangler_null_read+0x48>
    150c:	e3a04000 	mov	r4, #0	; 0x0
    1510:	e5973018 	ldr	r3, [r7, #24]
    1514:	e5930000 	ldr	r0, [r3]
    1518:	e5932010 	ldr	r2, [r3, #16]
    151c:	e1a0e00f 	mov	lr, pc
    1520:	e12fff12 	bx	r2
    1524:	e7c50004 	strb	r0, [r5, r4]
    1528:	e2844001 	add	r4, r4, #1	; 0x1
    152c:	e1540006 	cmp	r4, r6
    1530:	1afffff6 	bne	1510 <cyg_hal_diag_mangler_null_read+0x1c>
    1534:	e28dd004 	add	sp, sp, #4	; 0x4
    1538:	e8bd80f0 	pop	{r4, r5, r6, r7, pc}
    153c:	40000430 	.word	0x40000430

00001540 <cyg_hal_diag_mangler_null_control>:
    1540:	e92d000e 	push	{r1, r2, r3}
    1544:	e3a00000 	mov	r0, #0	; 0x0
    1548:	e28dd00c 	add	sp, sp, #12	; 0xc
    154c:	e12fff1e 	bx	lr

00001550 <cyg_hal_diag_mangler_null_init>:
    1550:	e92d4030 	push	{r4, r5, lr}
    1554:	e59f4068 	ldr	r4, [pc, #104]	; 15c4 <cyg_hal_diag_mangler_null_init+0x74>
    1558:	e24dd004 	sub	sp, sp, #4	; 0x4
    155c:	e5943034 	ldr	r3, [r4, #52]
    1560:	e3e00000 	mvn	r0, #0	; 0x0
    1564:	e1a0e00f 	mov	lr, pc
    1568:	e12fff13 	bx	r3
    156c:	e5943034 	ldr	r3, [r4, #52]
    1570:	e1a05000 	mov	r5, r0
    1574:	e3e00002 	mvn	r0, #2	; 0x2
    1578:	e1a0e00f 	mov	lr, pc
    157c:	e12fff13 	bx	r3
    1580:	e5941014 	ldr	r1, [r4, #20]
    1584:	e59f303c 	ldr	r3, [pc, #60]	; 15c8 <cyg_hal_diag_mangler_null_init+0x78>
    1588:	e59f203c 	ldr	r2, [pc, #60]	; 15cc <cyg_hal_diag_mangler_null_init+0x7c>
    158c:	e5813004 	str	r3, [r1, #4]
    1590:	e59f3038 	ldr	r3, [pc, #56]	; 15d0 <cyg_hal_diag_mangler_null_init+0x80>
    1594:	e5812008 	str	r2, [r1, #8]
    1598:	e581300c 	str	r3, [r1, #12]
    159c:	e59f2030 	ldr	r2, [pc, #48]	; 15d4 <cyg_hal_diag_mangler_null_init+0x84>
    15a0:	e59f3030 	ldr	r3, [pc, #48]	; 15d8 <cyg_hal_diag_mangler_null_init+0x88>
    15a4:	e5812010 	str	r2, [r1, #16]
    15a8:	e5813014 	str	r3, [r1, #20]
    15ac:	e1a00005 	mov	r0, r5
    15b0:	e5943034 	ldr	r3, [r4, #52]
    15b4:	e1a0e00f 	mov	lr, pc
    15b8:	e12fff13 	bx	r3
    15bc:	e28dd004 	add	sp, sp, #4	; 0x4
    15c0:	e8bd8030 	pop	{r4, r5, pc}
    15c4:	40000430 	.word	0x40000430
    15c8:	000014a8 	.word	0x000014a8
    15cc:	000014f4 	.word	0x000014f4
    15d0:	0000147c 	.word	0x0000147c
    15d4:	00001450 	.word	0x00001450
    15d8:	00001540 	.word	0x00001540

000015dc <hal_if_diag_init>:
    15dc:	e52de004 	push	{lr}		; (str lr, [sp, #-4]!)
    15e0:	e59f202c 	ldr	r2, [pc, #44]	; 1614 <hal_if_diag_init+0x38>
    15e4:	e5d20000 	ldrb	r0, [r2]
    15e8:	e3500000 	cmp	r0, #0	; 0x0
    15ec:	e24dd004 	sub	sp, sp, #4	; 0x4
    15f0:	1a000005 	bne	160c <hal_if_diag_init+0x30>
    15f4:	e3a03001 	mov	r3, #1	; 0x1
    15f8:	e5c23000 	strb	r3, [r2]
    15fc:	e59f2014 	ldr	r2, [pc, #20]	; 1618 <hal_if_diag_init+0x3c>
    1600:	e5923034 	ldr	r3, [r2, #52]
    1604:	e1a0e00f 	mov	lr, pc
    1608:	e12fff13 	bx	r3
    160c:	e28dd004 	add	sp, sp, #4	; 0x4
    1610:	e8bd8000 	pop	{pc}
    1614:	40001bb4 	.word	0x40001bb4
    1618:	40000430 	.word	0x40000430

0000161c <hal_if_diag_read_char>:
    161c:	e59f2044 	ldr	r2, [pc, #68]	; 1668 <hal_if_diag_read_char+0x4c>
    1620:	e5923014 	ldr	r3, [r2, #20]
    1624:	e3530000 	cmp	r3, #0	; 0x0
    1628:	e92d4010 	push	{r4, lr}
    162c:	e1a04000 	mov	r4, r0
    1630:	0a000005 	beq	164c <hal_if_diag_read_char+0x30>
    1634:	e5930000 	ldr	r0, [r3]
    1638:	e5933010 	ldr	r3, [r3, #16]
    163c:	e1a0e00f 	mov	lr, pc
    1640:	e12fff13 	bx	r3
    1644:	e5c40000 	strb	r0, [r4]
    1648:	e8bd8010 	pop	{r4, pc}
    164c:	e5923018 	ldr	r3, [r2, #24]
    1650:	e5930000 	ldr	r0, [r3]
    1654:	e5932010 	ldr	r2, [r3, #16]
    1658:	e1a0e00f 	mov	lr, pc
    165c:	e12fff12 	bx	r2
    1660:	e5c40000 	strb	r0, [r4]
    1664:	e8bd8010 	pop	{r4, pc}
    1668:	40000430 	.word	0x40000430

0000166c <hal_if_init>:
    166c:	e92d4010 	push	{r4, lr}
    1670:	e59fc0b0 	ldr	ip, [pc, #176]	; 1728 <hal_if_init+0xbc>
    1674:	e59f40b0 	ldr	r4, [pc, #176]	; 172c <hal_if_init+0xc0>
    1678:	e3a03000 	mov	r3, #0	; 0x0
    167c:	e784c103 	str	ip, [r4, r3, lsl #2]
    1680:	e2833001 	add	r3, r3, #1	; 0x1
    1684:	e3530040 	cmp	r3, #64	; 0x40
    1688:	e59f009c 	ldr	r0, [pc, #156]	; 172c <hal_if_init+0xc0>
    168c:	1afffffa 	bne	167c <hal_if_init+0x10>
    1690:	e3a03702 	mov	r3, #524288	; 0x80000
    1694:	e2833017 	add	r3, r3, #23	; 0x17
    1698:	e5803000 	str	r3, [r0]
    169c:	e59f208c 	ldr	r2, [pc, #140]	; 1730 <hal_if_init+0xc4>
    16a0:	e59f308c 	ldr	r3, [pc, #140]	; 1734 <hal_if_init+0xc8>
    16a4:	e3a01000 	mov	r1, #0	; 0x0
    16a8:	e5802040 	str	r2, [r0, #64]
    16ac:	e5803048 	str	r3, [r0, #72]
    16b0:	e580104c 	str	r1, [r0, #76]
    16b4:	e5801038 	str	r1, [r0, #56]
    16b8:	e59f0078 	ldr	r0, [pc, #120]	; 1738 <hal_if_init+0xcc>
    16bc:	e1a0e001 	mov	lr, r1
    16c0:	e3a02000 	mov	r2, #0	; 0x0
    16c4:	e1a0118e 	lsl	r1, lr, #3
    16c8:	e0813002 	add	r3, r1, r2
    16cc:	e2822001 	add	r2, r2, #1	; 0x1
    16d0:	e3520008 	cmp	r2, #8	; 0x8
    16d4:	e780c103 	str	ip, [r0, r3, lsl #2]
    16d8:	1afffffa 	bne	16c8 <hal_if_init+0x5c>
    16dc:	e28ee001 	add	lr, lr, #1	; 0x1
    16e0:	e35e0002 	cmp	lr, #2	; 0x2
    16e4:	1afffff5 	bne	16c0 <hal_if_init+0x54>
    16e8:	e59f304c 	ldr	r3, [pc, #76]	; 173c <hal_if_init+0xd0>
    16ec:	e59f204c 	ldr	r2, [pc, #76]	; 1740 <hal_if_init+0xd4>
    16f0:	e3e00001 	mvn	r0, #1	; 0x1
    16f4:	e5843030 	str	r3, [r4, #48]
    16f8:	e5842034 	str	r2, [r4, #52]
    16fc:	ebfffea7 	bl	11a0 <set_debug_comm>
    1700:	e3e00001 	mvn	r0, #1	; 0x1
    1704:	ebfffeeb 	bl	12b8 <set_console_comm>
    1708:	eb0021e5 	bl	9ea4 <cyg_hal_plf_comms_init>
    170c:	e3a00000 	mov	r0, #0	; 0x0
    1710:	ebfffea2 	bl	11a0 <set_debug_comm>
    1714:	e3a00000 	mov	r0, #0	; 0x0
    1718:	ebfffee6 	bl	12b8 <set_console_comm>
    171c:	e3a03000 	mov	r3, #0	; 0x0
    1720:	e5843044 	str	r3, [r4, #68]
    1724:	e8bd8010 	pop	{r4, pc}
    1728:	00001198 	.word	0x00001198
    172c:	40000430 	.word	0x40000430
    1730:	000017cc 	.word	0x000017cc
    1734:	00001744 	.word	0x00001744
    1738:	40001bbc 	.word	0x40001bbc
    173c:	000011a0 	.word	0x000011a0
    1740:	000012b8 	.word	0x000012b8

00001744 <delay_us>:
    1744:	e92d45f0 	push	{r4, r5, r6, r7, r8, sl, lr}
    1748:	e3a07d4e 	mov	r7, #4992	; 0x1380
    174c:	e24dd00c 	sub	sp, sp, #12	; 0xc
    1750:	e59fa070 	ldr	sl, [pc, #112]	; 17c8 <delay_us+0x84>
    1754:	e1a05000 	mov	r5, r0
    1758:	e2877008 	add	r7, r7, #8	; 0x8
    175c:	e28d8004 	add	r8, sp, #4	; 0x4
    1760:	e1a0600d 	mov	r6, sp
    1764:	e1550007 	cmp	r5, r7
    1768:	d1a03285 	lslle	r3, r5, #5
    176c:	d0433105 	suble	r3, r3, r5, lsl #2
    1770:	d0833005 	addle	r3, r3, r5
    1774:	e1a00008 	mov	r0, r8
    1778:	c3a04912 	movgt	r4, #294912	; 0x48000
    177c:	d1a04083 	lslle	r4, r3, #1
    1780:	eb002130 	bl	9c48 <hal_clock_read>
    1784:	e1a0000d 	mov	r0, sp
    1788:	eb00212e 	bl	9c48 <hal_clock_read>
    178c:	e89d000c 	ldm	sp, {r2, r3}
    1790:	e0521003 	subs	r1, r2, r3
    1794:	42811809 	addmi	r1, r1, #589824	; 0x90000
    1798:	e1510004 	cmp	r1, r4
    179c:	bafffff8 	blt	1784 <delay_us+0x40>
    17a0:	e0c2319a 	smull	r3, r2, sl, r1
    17a4:	e1a03fc1 	asr	r3, r1, #31
    17a8:	e0822001 	add	r2, r2, r1
    17ac:	e07332c2 	rsbs	r3, r3, r2, asr #5
    17b0:	03a03001 	moveq	r3, #1	; 0x1
    17b4:	e0635005 	rsb	r5, r3, r5
    17b8:	e3550000 	cmp	r5, #0	; 0x0
    17bc:	caffffe8 	bgt	1764 <delay_us+0x20>
    17c0:	e28dd00c 	add	sp, sp, #12	; 0xc
    17c4:	e8bd85f0 	pop	{r4, r5, r6, r7, r8, sl, pc}
    17c8:	8d3dcb09 	.word	0x8d3dcb09

000017cc <reset>:
    17cc:	e52de004 	push	{lr}		; (str lr, [sp, #-4]!)
    17d0:	e24dd004 	sub	sp, sp, #4	; 0x4
    17d4:	eb00219a 	bl	9e44 <hal_lpc_watchdog_reset>
    17d8:	e3a03000 	mov	r3, #0	; 0x0
    17dc:	e1a0f003 	mov	pc, r3

000017e0 <hal_if_diag_write_char>:
    17e0:	e92d4010 	push	{r4, lr}
    17e4:	e59f4064 	ldr	r4, [pc, #100]	; 1850 <hal_if_diag_write_char+0x70>
    17e8:	e5943014 	ldr	r3, [r4, #20]
    17ec:	e3530000 	cmp	r3, #0	; 0x0
    17f0:	e1a01000 	mov	r1, r0
    17f4:	0a00000c 	beq	182c <hal_if_diag_write_char+0x4c>
    17f8:	e5930000 	ldr	r0, [r3]
    17fc:	e593300c 	ldr	r3, [r3, #12]
    1800:	e1a0e00f 	mov	lr, pc
    1804:	e12fff13 	bx	r3
    1808:	e5943044 	ldr	r3, [r4, #68]
    180c:	e3530000 	cmp	r3, #0	; 0x0
    1810:	08bd8010 	popeq	{r4, pc}
    1814:	e3a02000 	mov	r2, #0	; 0x0
    1818:	e59f3030 	ldr	r3, [pc, #48]	; 1850 <hal_if_diag_write_char+0x70>
    181c:	e1a00002 	mov	r0, r2
    1820:	e5832044 	str	r2, [r3, #68]
    1824:	e8bd4010 	pop	{r4, lr}
    1828:	ea0000b5 	b	1b04 <cyg_hal_user_break>
    182c:	e5943018 	ldr	r3, [r4, #24]
    1830:	e5930000 	ldr	r0, [r3]
    1834:	e593200c 	ldr	r2, [r3, #12]
    1838:	e1a0e00f 	mov	lr, pc
    183c:	e12fff12 	bx	r2
    1840:	e5943044 	ldr	r3, [r4, #68]
    1844:	e3530000 	cmp	r3, #0	; 0x0
    1848:	08bd8010 	popeq	{r4, pc}
    184c:	eafffff0 	b	1814 <hal_if_diag_write_char+0x34>
    1850:	40000430 	.word	0x40000430

00001854 <cyg_hal_diag_mangler_gdb_flush>:
    1854:	e92d4ff0 	push	{r4, r5, r6, r7, r8, r9, sl, fp, lr}
    1858:	e59f918c 	ldr	r9, [pc, #396]	; 19ec <cyg_hal_diag_mangler_gdb_flush+0x198>
    185c:	e5993000 	ldr	r3, [r9]
    1860:	e59f2188 	ldr	r2, [pc, #392]	; 19f0 <cyg_hal_diag_mangler_gdb_flush+0x19c>
    1864:	e3530000 	cmp	r3, #0	; 0x0
    1868:	e24dd014 	sub	sp, sp, #20	; 0x14
    186c:	e5927018 	ldr	r7, [r2, #24]
    1870:	0a000057 	beq	19d4 <cyg_hal_diag_mangler_gdb_flush+0x180>
    1874:	e10f3000 	mrs	r3, CPSR
    1878:	e10f4000 	mrs	r4, CPSR
    187c:	e38440c0 	orr	r4, r4, #192	; 0xc0
    1880:	e129f004 	msr	CPSR_fc, r4
    1884:	e59fa168 	ldr	sl, [pc, #360]	; 19f4 <cyg_hal_diag_mangler_gdb_flush+0x1a0>
    1888:	e58d3004 	str	r3, [sp, #4]
    188c:	e59fb164 	ldr	fp, [pc, #356]	; 19f8 <cyg_hal_diag_mangler_gdb_flush+0x1a4>
    1890:	e5970000 	ldr	r0, [r7]
    1894:	e3a01024 	mov	r1, #36	; 0x24
    1898:	e597300c 	ldr	r3, [r7, #12]
    189c:	e1a0e00f 	mov	lr, pc
    18a0:	e12fff13 	bx	r3
    18a4:	e5970000 	ldr	r0, [r7]
    18a8:	e3a0104f 	mov	r1, #79	; 0x4f
    18ac:	e597200c 	ldr	r2, [r7, #12]
    18b0:	e1a0e00f 	mov	lr, pc
    18b4:	e12fff12 	bx	r2
    18b8:	e5993000 	ldr	r3, [r9]
    18bc:	e3530000 	cmp	r3, #0	; 0x0
    18c0:	d3a05004 	movle	r5, #4	; 0x4
    18c4:	d3a0400f 	movle	r4, #15	; 0xf
    18c8:	da000019 	ble	1934 <cyg_hal_diag_mangler_gdb_flush+0xe0>
    18cc:	e3a0804f 	mov	r8, #79	; 0x4f
    18d0:	e3a06000 	mov	r6, #0	; 0x0
    18d4:	e7db3006 	ldrb	r3, [fp, r6]
    18d8:	e7da5223 	ldrb	r5, [sl, r3, lsr #4]
    18dc:	e203300f 	and	r3, r3, #15	; 0xf
    18e0:	e7da4003 	ldrb	r4, [sl, r3]
    18e4:	e5970000 	ldr	r0, [r7]
    18e8:	e1a01005 	mov	r1, r5
    18ec:	e597200c 	ldr	r2, [r7, #12]
    18f0:	e1a0e00f 	mov	lr, pc
    18f4:	e12fff12 	bx	r2
    18f8:	e5970000 	ldr	r0, [r7]
    18fc:	e1a01004 	mov	r1, r4
    1900:	e597300c 	ldr	r3, [r7, #12]
    1904:	e1a0e00f 	mov	lr, pc
    1908:	e12fff13 	bx	r3
    190c:	e0844005 	add	r4, r4, r5
    1910:	e5993000 	ldr	r3, [r9]
    1914:	e20440ff 	and	r4, r4, #255	; 0xff
    1918:	e2866001 	add	r6, r6, #1	; 0x1
    191c:	e0844008 	add	r4, r4, r8
    1920:	e1530006 	cmp	r3, r6
    1924:	e20480ff 	and	r8, r4, #255	; 0xff
    1928:	caffffe9 	bgt	18d4 <cyg_hal_diag_mangler_gdb_flush+0x80>
    192c:	e1a05228 	lsr	r5, r8, #4
    1930:	e204400f 	and	r4, r4, #15	; 0xf
    1934:	e5970000 	ldr	r0, [r7]
    1938:	e3a01023 	mov	r1, #35	; 0x23
    193c:	e597300c 	ldr	r3, [r7, #12]
    1940:	e1a0e00f 	mov	lr, pc
    1944:	e12fff13 	bx	r3
    1948:	e5970000 	ldr	r0, [r7]
    194c:	e7da1005 	ldrb	r1, [sl, r5]
    1950:	e597300c 	ldr	r3, [r7, #12]
    1954:	e1a0e00f 	mov	lr, pc
    1958:	e12fff13 	bx	r3
    195c:	e5970000 	ldr	r0, [r7]
    1960:	e7da1004 	ldrb	r1, [sl, r4]
    1964:	e597300c 	ldr	r3, [r7, #12]
    1968:	e1a0e00f 	mov	lr, pc
    196c:	e12fff13 	bx	r3
    1970:	ea000006 	b	1990 <cyg_hal_diag_mangler_gdb_flush+0x13c>
    1974:	e5cd300f 	strb	r3, [sp, #15]
    1978:	eb00004f 	bl	1abc <cyg_hal_is_break>
    197c:	e3500000 	cmp	r0, #0	; 0x0
    1980:	1a000015 	bne	19dc <cyg_hal_diag_mangler_gdb_flush+0x188>
    1984:	e5dd300f 	ldrb	r3, [sp, #15]
    1988:	e353002d 	cmp	r3, #45	; 0x2d
    198c:	0affffbf 	beq	1890 <cyg_hal_diag_mangler_gdb_flush+0x3c>
    1990:	e5970000 	ldr	r0, [r7]
    1994:	e5973010 	ldr	r3, [r7, #16]
    1998:	e1a0e00f 	mov	lr, pc
    199c:	e12fff13 	bx	r3
    19a0:	e1a03000 	mov	r3, r0
    19a4:	e353002b 	cmp	r3, #43	; 0x2b
    19a8:	e3a01001 	mov	r1, #1	; 0x1
    19ac:	e28d000f 	add	r0, sp, #15	; 0xf
    19b0:	1affffef 	bne	1974 <cyg_hal_diag_mangler_gdb_flush+0x120>
    19b4:	e3a02000 	mov	r2, #0	; 0x0
    19b8:	e5892000 	str	r2, [r9]
    19bc:	e59d2004 	ldr	r2, [sp, #4]
    19c0:	e10f3000 	mrs	r3, CPSR
    19c4:	e20240c0 	and	r4, r2, #192	; 0xc0
    19c8:	e3c330c0 	bic	r3, r3, #192	; 0xc0
    19cc:	e1833004 	orr	r3, r3, r4
    19d0:	e129f003 	msr	CPSR_fc, r3
    19d4:	e28dd014 	add	sp, sp, #20	; 0x14
    19d8:	e8bd8ff0 	pop	{r4, r5, r6, r7, r8, r9, sl, fp, pc}
    19dc:	e59f200c 	ldr	r2, [pc, #12]	; 19f0 <cyg_hal_diag_mangler_gdb_flush+0x19c>
    19e0:	e3a03001 	mov	r3, #1	; 0x1
    19e4:	e5823044 	str	r3, [r2, #68]
    19e8:	eafffff1 	b	19b4 <cyg_hal_diag_mangler_gdb_flush+0x160>
    19ec:	40001bb8 	.word	0x40001bb8
    19f0:	40000430 	.word	0x40000430
    19f4:	0000f5c4 	.word	0x0000f5c4
    19f8:	40001bfc 	.word	0x40001bfc

000019fc <cyg_hal_diag_mangler_gdb_control>:
    19fc:	e92d000e 	push	{r1, r2, r3}
    1a00:	e52de004 	push	{lr}		; (str lr, [sp, #-4]!)
    1a04:	e5dd3004 	ldrb	r3, [sp, #4]
    1a08:	e3530008 	cmp	r3, #8	; 0x8
    1a0c:	0a000003 	beq	1a20 <cyg_hal_diag_mangler_gdb_control+0x24>
    1a10:	e3a00000 	mov	r0, #0	; 0x0
    1a14:	e49de004 	pop	{lr}		; (ldr lr, [sp], #4)
    1a18:	e28dd00c 	add	sp, sp, #12	; 0xc
    1a1c:	e12fff1e 	bx	lr
    1a20:	ebffff8b 	bl	1854 <cyg_hal_diag_mangler_gdb_flush>
    1a24:	eafffff9 	b	1a10 <cyg_hal_diag_mangler_gdb_control+0x14>

00001a28 <cyg_hal_diag_mangler_gdb_putc>:
    1a28:	e351000d 	cmp	r1, #13	; 0xd
    1a2c:	e52d4004 	push	{r4}		; (str r4, [sp, #-4]!)
    1a30:	e1a0c001 	mov	ip, r1
    1a34:	e1a04000 	mov	r4, r0
    1a38:	0a000009 	beq	1a64 <cyg_hal_diag_mangler_gdb_putc+0x3c>
    1a3c:	e59f1034 	ldr	r1, [pc, #52]	; 1a78 <cyg_hal_diag_mangler_gdb_putc+0x50>
    1a40:	e5912000 	ldr	r2, [r1]
    1a44:	e59f3030 	ldr	r3, [pc, #48]	; 1a7c <cyg_hal_diag_mangler_gdb_putc+0x54>
    1a48:	e2820001 	add	r0, r2, #1	; 0x1
    1a4c:	e35c000a 	cmp	ip, #10	; 0xa
    1a50:	e7c3c002 	strb	ip, [r3, r2]
    1a54:	e5810000 	str	r0, [r1]
    1a58:	0a000003 	beq	1a6c <cyg_hal_diag_mangler_gdb_putc+0x44>
    1a5c:	e3500064 	cmp	r0, #100	; 0x64
    1a60:	0a000001 	beq	1a6c <cyg_hal_diag_mangler_gdb_putc+0x44>
    1a64:	e8bd0010 	pop	{r4}
    1a68:	e12fff1e 	bx	lr
    1a6c:	e1a00004 	mov	r0, r4
    1a70:	e8bd0010 	pop	{r4}
    1a74:	eaffff76 	b	1854 <cyg_hal_diag_mangler_gdb_flush>
    1a78:	40001bb8 	.word	0x40001bb8
    1a7c:	40001bfc 	.word	0x40001bfc

00001a80 <cyg_hal_diag_mangler_gdb_write>:
    1a80:	e92d40f0 	push	{r4, r5, r6, r7, lr}
    1a84:	e2527000 	subs	r7, r2, #0	; 0x0
    1a88:	e24dd004 	sub	sp, sp, #4	; 0x4
    1a8c:	e1a06000 	mov	r6, r0
    1a90:	e1a05001 	mov	r5, r1
    1a94:	0a000006 	beq	1ab4 <cyg_hal_diag_mangler_gdb_write+0x34>
    1a98:	e3a04000 	mov	r4, #0	; 0x0
    1a9c:	e7d51004 	ldrb	r1, [r5, r4]
    1aa0:	e1a00006 	mov	r0, r6
    1aa4:	e2844001 	add	r4, r4, #1	; 0x1
    1aa8:	ebffffde 	bl	1a28 <cyg_hal_diag_mangler_gdb_putc>
    1aac:	e1540007 	cmp	r4, r7
    1ab0:	1afffff9 	bne	1a9c <cyg_hal_diag_mangler_gdb_write+0x1c>
    1ab4:	e28dd004 	add	sp, sp, #4	; 0x4
    1ab8:	e8bd80f0 	pop	{r4, r5, r6, r7, pc}

00001abc <cyg_hal_is_break>:
    1abc:	e3510000 	cmp	r1, #0	; 0x0
    1ac0:	0a00000d 	beq	1afc <cyg_hal_is_break+0x40>
    1ac4:	e2412001 	sub	r2, r1, #1	; 0x1
    1ac8:	e7d03002 	ldrb	r3, [r0, r2]
    1acc:	e3530003 	cmp	r3, #3	; 0x3
    1ad0:	10800001 	addne	r0, r0, r1
    1ad4:	0a000006 	beq	1af4 <cyg_hal_is_break+0x38>
    1ad8:	e3520000 	cmp	r2, #0	; 0x0
    1adc:	e2422001 	sub	r2, r2, #1	; 0x1
    1ae0:	0a000005 	beq	1afc <cyg_hal_is_break+0x40>
    1ae4:	e5503002 	ldrb	r3, [r0, #-2]
    1ae8:	e3530003 	cmp	r3, #3	; 0x3
    1aec:	e2400001 	sub	r0, r0, #1	; 0x1
    1af0:	1afffff8 	bne	1ad8 <cyg_hal_is_break+0x1c>
    1af4:	e3a00001 	mov	r0, #1	; 0x1
    1af8:	e12fff1e 	bx	lr
    1afc:	e3a00000 	mov	r0, #0	; 0x0
    1b00:	e12fff1e 	bx	lr

00001b04 <cyg_hal_user_break>:
    1b04:	e7ffdefe 	.word	0xe7ffdefe
    1b08:	e12fff1e 	bx	lr

00001b0c <hal_default_isr>:
    1b0c:	ea002004 	b	9b24 <hal_arch_default_isr>

00001b10 <cyg_io_init>:
    1b10:	e92d4070 	push	{r4, r5, r6, lr}
    1b14:	e59f605c 	ldr	r6, [pc, #92]	; 1b78 <cyg_io_init+0x68>
    1b18:	e5963000 	ldr	r3, [r6]
    1b1c:	e3530000 	cmp	r3, #0	; 0x0
    1b20:	18bd8070 	popne	{r4, r5, r6, pc}
    1b24:	e59f0050 	ldr	r0, [pc, #80]	; 1b7c <cyg_io_init+0x6c>
    1b28:	e59f5050 	ldr	r5, [pc, #80]	; 1b80 <cyg_io_init+0x70>
    1b2c:	e1500005 	cmp	r0, r5
    1b30:	0a00000d 	beq	1b6c <cyg_io_init+0x5c>
    1b34:	e1a04000 	mov	r4, r0
    1b38:	e1a00004 	mov	r0, r4
    1b3c:	e1a0e00f 	mov	lr, pc
    1b40:	e594f00c 	ldr	pc, [r4, #12]
    1b44:	e3500000 	cmp	r0, #0	; 0x0
    1b48:	15943018 	ldrne	r3, [r4, #24]
    1b4c:	05943018 	ldreq	r3, [r4, #24]
    1b50:	13833001 	orrne	r3, r3, #1	; 0x1
    1b54:	03c33001 	biceq	r3, r3, #1	; 0x1
    1b58:	15843018 	strne	r3, [r4, #24]
    1b5c:	05843018 	streq	r3, [r4, #24]
    1b60:	e284401c 	add	r4, r4, #28	; 0x1c
    1b64:	e1540005 	cmp	r4, r5
    1b68:	1afffff2 	bne	1b38 <cyg_io_init+0x28>
    1b6c:	e3a03001 	mov	r3, #1	; 0x1
    1b70:	e5863000 	str	r3, [r6]
    1b74:	e8bd8070 	pop	{r4, r5, r6, pc}
    1b78:	40001c60 	.word	0x40001c60
    1b7c:	4000081c 	.word	0x4000081c
    1b80:	40000854 	.word	0x40000854

00001b84 <cyg_io_lookup>:
    1b84:	e92d41f0 	push	{r4, r5, r6, r7, r8, lr}
    1b88:	e59f30f0 	ldr	r3, [pc, #240]	; 1c80 <cyg_io_lookup+0xfc>
    1b8c:	e59f70f0 	ldr	r7, [pc, #240]	; 1c84 <cyg_io_lookup+0x100>
    1b90:	e1530007 	cmp	r3, r7
    1b94:	e24dd008 	sub	sp, sp, #8	; 0x8
    1b98:	e1a04000 	mov	r4, r0
    1b9c:	e1a08001 	mov	r8, r1
    1ba0:	0a00002a 	beq	1c50 <cyg_io_lookup+0xcc>
    1ba4:	e58d3000 	str	r3, [sp]
    1ba8:	e1a05003 	mov	r5, r3
    1bac:	e595c000 	ldr	ip, [r5]
    1bb0:	e3a03000 	mov	r3, #0	; 0x0
    1bb4:	e7d41003 	ldrb	r1, [r4, r3]
    1bb8:	e3510000 	cmp	r1, #0	; 0x0
    1bbc:	e08c0003 	add	r0, ip, r3
    1bc0:	e0846003 	add	r6, r4, r3
    1bc4:	0a000029 	beq	1c70 <cyg_io_lookup+0xec>
    1bc8:	e7dc2003 	ldrb	r2, [ip, r3]
    1bcc:	e3520000 	cmp	r2, #0	; 0x0
    1bd0:	e2833001 	add	r3, r3, #1	; 0x1
    1bd4:	0a000006 	beq	1bf4 <cyg_io_lookup+0x70>
    1bd8:	e1510002 	cmp	r1, r2
    1bdc:	0afffff4 	beq	1bb4 <cyg_io_lookup+0x30>
    1be0:	e285501c 	add	r5, r5, #28	; 0x1c
    1be4:	e1550007 	cmp	r5, r7
    1be8:	0a000018 	beq	1c50 <cyg_io_lookup+0xcc>
    1bec:	e58d5000 	str	r5, [sp]
    1bf0:	eaffffed 	b	1bac <cyg_io_lookup+0x28>
    1bf4:	e5503001 	ldrb	r3, [r0, #-1]
    1bf8:	e353002f 	cmp	r3, #47	; 0x2f
    1bfc:	1afffff7 	bne	1be0 <cyg_io_lookup+0x5c>
    1c00:	e5950004 	ldr	r0, [r5, #4]
    1c04:	e3500000 	cmp	r0, #0	; 0x0
    1c08:	0a000016 	beq	1c68 <cyg_io_lookup+0xe4>
    1c0c:	e28d1004 	add	r1, sp, #4	; 0x4
    1c10:	ebffffdb 	bl	1b84 <cyg_io_lookup>
    1c14:	e3500000 	cmp	r0, #0	; 0x0
    1c18:	1a00000a 	bne	1c48 <cyg_io_lookup+0xc4>
    1c1c:	e59d3000 	ldr	r3, [sp]
    1c20:	e593c010 	ldr	ip, [r3, #16]
    1c24:	e35c0000 	cmp	ip, #0	; 0x0
    1c28:	0a00000b 	beq	1c5c <cyg_io_lookup+0xd8>
    1c2c:	e1a02006 	mov	r2, r6
    1c30:	e1a0000d 	mov	r0, sp
    1c34:	e59d1004 	ldr	r1, [sp, #4]
    1c38:	e1a0e00f 	mov	lr, pc
    1c3c:	e12fff1c 	bx	ip
    1c40:	e3500000 	cmp	r0, #0	; 0x0
    1c44:	0a000003 	beq	1c58 <cyg_io_lookup+0xd4>
    1c48:	e28dd008 	add	sp, sp, #8	; 0x8
    1c4c:	e8bd81f0 	pop	{r4, r5, r6, r7, r8, pc}
    1c50:	e3e00001 	mvn	r0, #1	; 0x1
    1c54:	eafffffb 	b	1c48 <cyg_io_lookup+0xc4>
    1c58:	e59d3000 	ldr	r3, [sp]
    1c5c:	e5883000 	str	r3, [r8]
    1c60:	e3a00000 	mov	r0, #0	; 0x0
    1c64:	eafffff7 	b	1c48 <cyg_io_lookup+0xc4>
    1c68:	e58d0004 	str	r0, [sp, #4]
    1c6c:	eaffffea 	b	1c1c <cyg_io_lookup+0x98>
    1c70:	e5d03000 	ldrb	r3, [r0]
    1c74:	e3530000 	cmp	r3, #0	; 0x0
    1c78:	0affffe0 	beq	1c00 <cyg_io_lookup+0x7c>
    1c7c:	eaffffd7 	b	1be0 <cyg_io_lookup+0x5c>
    1c80:	4000081c 	.word	0x4000081c
    1c84:	40000854 	.word	0x40000854

00001c88 <cyg_io_write>:
    1c88:	e5903008 	ldr	r3, [r0, #8]
    1c8c:	e52de004 	push	{lr}		; (str lr, [sp, #-4]!)
    1c90:	e5933000 	ldr	r3, [r3]
    1c94:	e3530000 	cmp	r3, #0	; 0x0
    1c98:	e1a0c000 	mov	ip, r0
    1c9c:	e24dd004 	sub	sp, sp, #4	; 0x4
    1ca0:	03e000c9 	mvneq	r0, #201	; 0xc9
    1ca4:	0a000007 	beq	1cc8 <cyg_io_write+0x40>
    1ca8:	e3520000 	cmp	r2, #0	; 0x0
    1cac:	0a000002 	beq	1cbc <cyg_io_write+0x34>
    1cb0:	e5920000 	ldr	r0, [r2]
    1cb4:	e3500000 	cmp	r0, #0	; 0x0
    1cb8:	0a000002 	beq	1cc8 <cyg_io_write+0x40>
    1cbc:	e1a0000c 	mov	r0, ip
    1cc0:	e1a0e00f 	mov	lr, pc
    1cc4:	e12fff13 	bx	r3
    1cc8:	e28dd004 	add	sp, sp, #4	; 0x4
    1ccc:	e8bd8000 	pop	{pc}

00001cd0 <cyg_io_read>:
    1cd0:	e5903008 	ldr	r3, [r0, #8]
    1cd4:	e52de004 	push	{lr}		; (str lr, [sp, #-4]!)
    1cd8:	e5933004 	ldr	r3, [r3, #4]
    1cdc:	e3530000 	cmp	r3, #0	; 0x0
    1ce0:	e1a0c000 	mov	ip, r0
    1ce4:	e24dd004 	sub	sp, sp, #4	; 0x4
    1ce8:	03e000c9 	mvneq	r0, #201	; 0xc9
    1cec:	0a000007 	beq	1d10 <cyg_io_read+0x40>
    1cf0:	e3520000 	cmp	r2, #0	; 0x0
    1cf4:	0a000002 	beq	1d04 <cyg_io_read+0x34>
    1cf8:	e5920000 	ldr	r0, [r2]
    1cfc:	e3500000 	cmp	r0, #0	; 0x0
    1d00:	0a000002 	beq	1d10 <cyg_io_read+0x40>
    1d04:	e1a0000c 	mov	r0, ip
    1d08:	e1a0e00f 	mov	lr, pc
    1d0c:	e12fff13 	bx	r3
    1d10:	e28dd004 	add	sp, sp, #4	; 0x4
    1d14:	e8bd8000 	pop	{pc}

00001d18 <cyg_io_bwrite>:
    1d18:	e1a0c000 	mov	ip, r0
    1d1c:	e5900008 	ldr	r0, [r0, #8]
    1d20:	e92d4010 	push	{r4, lr}
    1d24:	e5904008 	ldr	r4, [r0, #8]
    1d28:	e3540000 	cmp	r4, #0	; 0x0
    1d2c:	03e000c9 	mvneq	r0, #201	; 0xc9
    1d30:	08bd8010 	popeq	{r4, pc}
    1d34:	e3520000 	cmp	r2, #0	; 0x0
    1d38:	0a000002 	beq	1d48 <cyg_io_bwrite+0x30>
    1d3c:	e5920000 	ldr	r0, [r2]
    1d40:	e3500000 	cmp	r0, #0	; 0x0
    1d44:	08bd8010 	popeq	{r4, pc}
    1d48:	e1a0000c 	mov	r0, ip
    1d4c:	e1a0e00f 	mov	lr, pc
    1d50:	e12fff14 	bx	r4
    1d54:	e8bd8010 	pop	{r4, pc}

00001d58 <cyg_io_bread>:
    1d58:	e1a0c000 	mov	ip, r0
    1d5c:	e5900008 	ldr	r0, [r0, #8]
    1d60:	e92d4010 	push	{r4, lr}
    1d64:	e590400c 	ldr	r4, [r0, #12]
    1d68:	e3540000 	cmp	r4, #0	; 0x0
    1d6c:	03e000c9 	mvneq	r0, #201	; 0xc9
    1d70:	08bd8010 	popeq	{r4, pc}
    1d74:	e3520000 	cmp	r2, #0	; 0x0
    1d78:	0a000002 	beq	1d88 <cyg_io_bread+0x30>
    1d7c:	e5920000 	ldr	r0, [r2]
    1d80:	e3500000 	cmp	r0, #0	; 0x0
    1d84:	08bd8010 	popeq	{r4, pc}
    1d88:	e1a0000c 	mov	r0, ip
    1d8c:	e1a0e00f 	mov	lr, pc
    1d90:	e12fff14 	bx	r4
    1d94:	e8bd8010 	pop	{r4, pc}

00001d98 <cyg_io_select>:
    1d98:	e5903008 	ldr	r3, [r0, #8]
    1d9c:	e52de004 	push	{lr}		; (str lr, [sp, #-4]!)
    1da0:	e5933010 	ldr	r3, [r3, #16]
    1da4:	e3530000 	cmp	r3, #0	; 0x0
    1da8:	e24dd004 	sub	sp, sp, #4	; 0x4
    1dac:	03e000c9 	mvneq	r0, #201	; 0xc9
    1db0:	11a0e00f 	movne	lr, pc
    1db4:	112fff13 	bxne	r3
    1db8:	e28dd004 	add	sp, sp, #4	; 0x4
    1dbc:	e8bd8000 	pop	{pc}

00001dc0 <cyg_io_get_config>:
    1dc0:	e1a0c000 	mov	ip, r0
    1dc4:	e5900008 	ldr	r0, [r0, #8]
    1dc8:	e92d4010 	push	{r4, lr}
    1dcc:	e5904014 	ldr	r4, [r0, #20]
    1dd0:	e3540000 	cmp	r4, #0	; 0x0
    1dd4:	03e000c9 	mvneq	r0, #201	; 0xc9
    1dd8:	08bd8010 	popeq	{r4, pc}
    1ddc:	e3530000 	cmp	r3, #0	; 0x0
    1de0:	0a000002 	beq	1df0 <cyg_io_get_config+0x30>
    1de4:	e5930000 	ldr	r0, [r3]
    1de8:	e3500000 	cmp	r0, #0	; 0x0
    1dec:	08bd8010 	popeq	{r4, pc}
    1df0:	e1a0000c 	mov	r0, ip
    1df4:	e1a0e00f 	mov	lr, pc
    1df8:	e12fff14 	bx	r4
    1dfc:	e8bd8010 	pop	{r4, pc}

00001e00 <cyg_io_set_config>:
    1e00:	e1a0c000 	mov	ip, r0
    1e04:	e5900008 	ldr	r0, [r0, #8]
    1e08:	e92d4010 	push	{r4, lr}
    1e0c:	e5904018 	ldr	r4, [r0, #24]
    1e10:	e3540000 	cmp	r4, #0	; 0x0
    1e14:	03e000c9 	mvneq	r0, #201	; 0xc9
    1e18:	08bd8010 	popeq	{r4, pc}
    1e1c:	e3530000 	cmp	r3, #0	; 0x0
    1e20:	0a000002 	beq	1e30 <cyg_io_set_config+0x30>
    1e24:	e5930000 	ldr	r0, [r3]
    1e28:	e3500000 	cmp	r0, #0	; 0x0
    1e2c:	08bd8010 	popeq	{r4, pc}
    1e30:	e1a0000c 	mov	r0, ip
    1e34:	e1a0e00f 	mov	lr, pc
    1e38:	e12fff14 	bx	r4
    1e3c:	e8bd8010 	pop	{r4, pc}

00001e40 <cyg_devio_cwrite>:
    1e40:	e3e000c9 	mvn	r0, #201	; 0xc9
    1e44:	e12fff1e 	bx	lr

00001e48 <cyg_devio_cread>:
    1e48:	e3e000c9 	mvn	r0, #201	; 0xc9
    1e4c:	e12fff1e 	bx	lr

00001e50 <cyg_devio_bwrite>:
    1e50:	e3e000c9 	mvn	r0, #201	; 0xc9
    1e54:	e12fff1e 	bx	lr

00001e58 <cyg_devio_bread>:
    1e58:	e3e000c9 	mvn	r0, #201	; 0xc9
    1e5c:	e12fff1e 	bx	lr

00001e60 <cyg_devio_select>:
    1e60:	e3e000c9 	mvn	r0, #201	; 0xc9
    1e64:	e12fff1e 	bx	lr

00001e68 <cyg_devio_get_config>:
    1e68:	e3e000c9 	mvn	r0, #201	; 0xc9
    1e6c:	e12fff1e 	bx	lr

00001e70 <cyg_devio_set_config>:
    1e70:	e3e000c9 	mvn	r0, #201	; 0xc9
    1e74:	e12fff1e 	bx	lr

00001e78 <cyg_start>:
    1e78:	e52de004 	push	{lr}		; (str lr, [sp, #-4]!)
    1e7c:	e24dd004 	sub	sp, sp, #4	; 0x4
    1e80:	eb000002 	bl	1e90 <cyg_prestart>
    1e84:	eb000002 	bl	1e94 <cyg_package_start>
    1e88:	eb000002 	bl	1e98 <cyg_user_start>
    1e8c:	eb000ee2 	bl	5a1c <_ZN13Cyg_Scheduler5startEv>

00001e90 <cyg_prestart>:
    1e90:	e12fff1e 	bx	lr

00001e94 <cyg_package_start>:
    1e94:	e12fff1e 	bx	lr

00001e98 <cyg_user_start>:
    1e98:	e12fff1e 	bx	lr

00001e9c <diag_init>:
    1e9c:	e12fff1e 	bx	lr

00001ea0 <diag_init_putc>:
    1ea0:	e59f3004 	ldr	r3, [pc, #4]	; 1eac <diag_init_putc+0xc>
    1ea4:	e5830000 	str	r0, [r3]
    1ea8:	e12fff1e 	bx	lr
    1eac:	400007bc 	.word	0x400007bc

00001eb0 <_ZL4_cvtyPclS_>:
    1eb0:	e92d47f0 	push	{r4, r5, r6, r7, r8, r9, sl, lr}
    1eb4:	e1a05001 	mov	r5, r1
    1eb8:	e24dd050 	sub	sp, sp, #80	; 0x50
    1ebc:	e1901005 	orrs	r1, r0, r5
    1ec0:	e1a04000 	mov	r4, r0
    1ec4:	e1a0a002 	mov	sl, r2
    1ec8:	e59d9070 	ldr	r9, [sp, #112]
    1ecc:	11a07003 	movne	r7, r3
    1ed0:	11a08fc7 	asrne	r8, r7, #31
    1ed4:	128d6001 	addne	r6, sp, #1	; 0x1
    1ed8:	1a000011 	bne	1f24 <_ZL4_cvtyPclS_+0x74>
    1edc:	e3a03030 	mov	r3, #48	; 0x30
    1ee0:	e5cd3000 	strb	r3, [sp]
    1ee4:	e28dc001 	add	ip, sp, #1	; 0x1
    1ee8:	e1a0000d 	mov	r0, sp
    1eec:	e1a0100c 	mov	r1, ip
    1ef0:	e3a02000 	mov	r2, #0	; 0x0
    1ef4:	e5713001 	ldrb	r3, [r1, #-1]!
    1ef8:	e1500001 	cmp	r0, r1
    1efc:	e7ca3002 	strb	r3, [sl, r2]
    1f00:	e2822001 	add	r2, r2, #1	; 0x1
    1f04:	1afffffa 	bne	1ef4 <_ZL4_cvtyPclS_+0x44>
    1f08:	e060300c 	rsb	r3, r0, ip
    1f0c:	e08aa003 	add	sl, sl, r3
    1f10:	e060000c 	rsb	r0, r0, ip
    1f14:	e3a03000 	mov	r3, #0	; 0x0
    1f18:	e5ca3000 	strb	r3, [sl]
    1f1c:	e28dd050 	add	sp, sp, #80	; 0x50
    1f20:	e8bd87f0 	pop	{r4, r5, r6, r7, r8, r9, sl, pc}
    1f24:	e1a00004 	mov	r0, r4
    1f28:	e1a01005 	mov	r1, r5
    1f2c:	e1a02007 	mov	r2, r7
    1f30:	e1a03008 	mov	r3, r8
    1f34:	eb003285 	bl	e950 <__aeabi_uldivmod>
    1f38:	e7d9c002 	ldrb	ip, [r9, r2]
    1f3c:	e1a00004 	mov	r0, r4
    1f40:	e1a01005 	mov	r1, r5
    1f44:	e1a03008 	mov	r3, r8
    1f48:	e1a02007 	mov	r2, r7
    1f4c:	e546c001 	strb	ip, [r6, #-1]
    1f50:	eb00327e 	bl	e950 <__aeabi_uldivmod>
    1f54:	e1903001 	orrs	r3, r0, r1
    1f58:	e1a0c006 	mov	ip, r6
    1f5c:	e1a04000 	mov	r4, r0
    1f60:	e1a05001 	mov	r5, r1
    1f64:	e2866001 	add	r6, r6, #1	; 0x1
    1f68:	1affffed 	bne	1f24 <_ZL4_cvtyPclS_+0x74>
    1f6c:	e15c000d 	cmp	ip, sp
    1f70:	e1a0000d 	mov	r0, sp
    1f74:	01a00003 	moveq	r0, r3
    1f78:	1affffdb 	bne	1eec <_ZL4_cvtyPclS_+0x3c>
    1f7c:	eaffffe4 	b	1f14 <_ZL4_cvtyPclS_+0x64>

00001f80 <_ZL6_sputccPPv>:
    1f80:	e5912008 	ldr	r2, [r1, #8]
    1f84:	e5913004 	ldr	r3, [r1, #4]
    1f88:	e1520003 	cmp	r2, r3
    1f8c:	e1a0c001 	mov	ip, r1
    1f90:	a12fff1e 	bxge	lr
    1f94:	e5911000 	ldr	r1, [r1]
    1f98:	e1a03001 	mov	r3, r1
    1f9c:	e4c30001 	strb	r0, [r3], #1
    1fa0:	e3a02000 	mov	r2, #0	; 0x0
    1fa4:	e58c3000 	str	r3, [ip]
    1fa8:	e5c12001 	strb	r2, [r1, #1]
    1fac:	e59c3008 	ldr	r3, [ip, #8]
    1fb0:	e2833001 	add	r3, r3, #1	; 0x1
    1fb4:	e58c3008 	str	r3, [ip, #8]
    1fb8:	e12fff1e 	bx	lr

00001fbc <diag_vdump_buf_with_offset>:
    1fbc:	e92d45f0 	push	{r4, r5, r6, r7, r8, sl, lr}
    1fc0:	e1510002 	cmp	r1, r2
    1fc4:	e1a06002 	mov	r6, r2
    1fc8:	30616002 	rsbcc	r6, r1, r2
    1fcc:	e3560000 	cmp	r6, #0	; 0x0
    1fd0:	e24dd004 	sub	sp, sp, #4	; 0x4
    1fd4:	e1a07001 	mov	r7, r1
    1fd8:	e1a05000 	mov	r5, r0
    1fdc:	e1a0a003 	mov	sl, r3
    1fe0:	da00003d 	ble	20dc <diag_vdump_buf_with_offset+0x120>
    1fe4:	e35a0000 	cmp	sl, #0	; 0x0
    1fe8:	e0638001 	rsb	r8, r3, r1
    1fec:	0a00002a 	beq	209c <diag_vdump_buf_with_offset+0xe0>
    1ff0:	e1a01008 	mov	r1, r8
    1ff4:	e59f00e8 	ldr	r0, [pc, #232]	; 20e4 <diag_vdump_buf_with_offset+0x128>
    1ff8:	e1a0e00f 	mov	lr, pc
    1ffc:	e12fff15 	bx	r5
    2000:	e3a04000 	mov	r4, #0	; 0x0
    2004:	e1560004 	cmp	r6, r4
    2008:	e59f00d8 	ldr	r0, [pc, #216]	; 20e8 <diag_vdump_buf_with_offset+0x12c>
    200c:	da000027 	ble	20b0 <diag_vdump_buf_with_offset+0xf4>
    2010:	e7d71004 	ldrb	r1, [r7, r4]
    2014:	e1a0e00f 	mov	lr, pc
    2018:	e12fff15 	bx	r5
    201c:	e3540007 	cmp	r4, #7	; 0x7
    2020:	e2844001 	add	r4, r4, #1	; 0x1
    2024:	0a000027 	beq	20c8 <diag_vdump_buf_with_offset+0x10c>
    2028:	e354000f 	cmp	r4, #15	; 0xf
    202c:	dafffff4 	ble	2004 <diag_vdump_buf_with_offset+0x48>
    2030:	e59f00b4 	ldr	r0, [pc, #180]	; 20ec <diag_vdump_buf_with_offset+0x130>
    2034:	e1a0e00f 	mov	lr, pc
    2038:	e12fff15 	bx	r5
    203c:	e3a04000 	mov	r4, #0	; 0x0
    2040:	e1560004 	cmp	r6, r4
    2044:	d3a01020 	movle	r1, #32	; 0x20
    2048:	da000003 	ble	205c <diag_vdump_buf_with_offset+0xa0>
    204c:	e7d71004 	ldrb	r1, [r7, r4]
    2050:	e2413020 	sub	r3, r1, #32	; 0x20
    2054:	e353005e 	cmp	r3, #94	; 0x5e
    2058:	83a0102e 	movhi	r1, #46	; 0x2e
    205c:	e2844001 	add	r4, r4, #1	; 0x1
    2060:	e59f0088 	ldr	r0, [pc, #136]	; 20f0 <diag_vdump_buf_with_offset+0x134>
    2064:	e1a0e00f 	mov	lr, pc
    2068:	e12fff15 	bx	r5
    206c:	e3540010 	cmp	r4, #16	; 0x10
    2070:	1afffff2 	bne	2040 <diag_vdump_buf_with_offset+0x84>
    2074:	e2466010 	sub	r6, r6, #16	; 0x10
    2078:	e59f0074 	ldr	r0, [pc, #116]	; 20f4 <diag_vdump_buf_with_offset+0x138>
    207c:	e1a0e00f 	mov	lr, pc
    2080:	e12fff15 	bx	r5
    2084:	e3560000 	cmp	r6, #0	; 0x0
    2088:	e2888010 	add	r8, r8, #16	; 0x10
    208c:	da000012 	ble	20dc <diag_vdump_buf_with_offset+0x120>
    2090:	e35a0000 	cmp	sl, #0	; 0x0
    2094:	e2877010 	add	r7, r7, #16	; 0x10
    2098:	1affffd4 	bne	1ff0 <diag_vdump_buf_with_offset+0x34>
    209c:	e1a01007 	mov	r1, r7
    20a0:	e59f003c 	ldr	r0, [pc, #60]	; 20e4 <diag_vdump_buf_with_offset+0x128>
    20a4:	e1a0e00f 	mov	lr, pc
    20a8:	e12fff15 	bx	r5
    20ac:	eaffffd3 	b	2000 <diag_vdump_buf_with_offset+0x44>
    20b0:	e59f0040 	ldr	r0, [pc, #64]	; 20f8 <diag_vdump_buf_with_offset+0x13c>
    20b4:	e1a0e00f 	mov	lr, pc
    20b8:	e12fff15 	bx	r5
    20bc:	e3540007 	cmp	r4, #7	; 0x7
    20c0:	e2844001 	add	r4, r4, #1	; 0x1
    20c4:	1affffd7 	bne	2028 <diag_vdump_buf_with_offset+0x6c>
    20c8:	e59f002c 	ldr	r0, [pc, #44]	; 20fc <diag_vdump_buf_with_offset+0x140>
    20cc:	e1a0e00f 	mov	lr, pc
    20d0:	e12fff15 	bx	r5
    20d4:	e3a04008 	mov	r4, #8	; 0x8
    20d8:	eaffffc9 	b	2004 <diag_vdump_buf_with_offset+0x48>
    20dc:	e28dd004 	add	sp, sp, #4	; 0x4
    20e0:	e8bd85f0 	pop	{r4, r5, r6, r7, r8, sl, pc}
    20e4:	0000f5d8 	.word	0x0000f5d8
    20e8:	0000f5e0 	.word	0x0000f5e0
    20ec:	0000f5ec 	.word	0x0000f5ec
    20f0:	0000f5f0 	.word	0x0000f5f0
    20f4:	0000f5f4 	.word	0x0000f5f4
    20f8:	0000f5e8 	.word	0x0000f5e8
    20fc:	0000f688 	.word	0x0000f688

00002100 <diag_dump_buf_with_offset>:
    2100:	e1a0c001 	mov	ip, r1
    2104:	e1a01000 	mov	r1, r0
    2108:	e59f0008 	ldr	r0, [pc, #8]	; 2118 <diag_dump_buf_with_offset+0x18>
    210c:	e1a03002 	mov	r3, r2
    2110:	e1a0200c 	mov	r2, ip
    2114:	eaffffa8 	b	1fbc <diag_vdump_buf_with_offset>
    2118:	00002e7c 	.word	0x00002e7c

0000211c <diag_dump_buf>:
    211c:	e3a02000 	mov	r2, #0	; 0x0
    2120:	eafffff6 	b	2100 <diag_dump_buf_with_offset>

00002124 <_GLOBAL__I.10100_diag_write_char>:
    2124:	eafffd2c 	b	15dc <hal_if_diag_init>

00002128 <diag_write_char>:
    2128:	e350000a 	cmp	r0, #10	; 0xa
    212c:	e92d4010 	push	{r4, lr}
    2130:	e1a04000 	mov	r4, r0
    2134:	0a000002 	beq	2144 <diag_write_char+0x1c>
    2138:	e1a00004 	mov	r0, r4
    213c:	e8bd4010 	pop	{r4, lr}
    2140:	eafffda6 	b	17e0 <hal_if_diag_write_char>
    2144:	e3a0000d 	mov	r0, #13	; 0xd
    2148:	ebfffda4 	bl	17e0 <hal_if_diag_write_char>
    214c:	eafffff9 	b	2138 <diag_write_char+0x10>

00002150 <_ZL16_diag_write_charcPPv>:
    2150:	eafffff4 	b	2128 <diag_write_char>

00002154 <diag_write_long_num>:
    2154:	e92d4ff0 	push	{r4, r5, r6, r7, r8, r9, sl, fp, lr}
    2158:	e24dd02c 	sub	sp, sp, #44	; 0x2c
    215c:	e59dc050 	ldr	ip, [sp, #80]
    2160:	e59fb104 	ldr	fp, [pc, #260]	; 226c <diag_write_long_num+0x118>
    2164:	e35c0000 	cmp	ip, #0	; 0x0
    2168:	e58d3004 	str	r3, [sp, #4]
    216c:	13a09030 	movne	r9, #48	; 0x30
    2170:	03a09020 	moveq	r9, #32	; 0x20
    2174:	e1a04000 	mov	r4, r0
    2178:	e1a05001 	mov	r5, r1
    217c:	e3a03000 	mov	r3, #0	; 0x0
    2180:	e28da008 	add	sl, sp, #8	; 0x8
    2184:	e7ca9003 	strb	r9, [sl, r3]
    2188:	e2833001 	add	r3, r3, #1	; 0x1
    218c:	e3530020 	cmp	r3, #32	; 0x20
    2190:	1afffffb 	bne	2184 <diag_write_long_num+0x30>
    2194:	e1943005 	orrs	r3, r4, r5
    2198:	03a03030 	moveq	r3, #48	; 0x30
    219c:	05cd3008 	strbeq	r3, [sp, #8]
    21a0:	03a06001 	moveq	r6, #1	; 0x1
    21a4:	0a000013 	beq	21f8 <diag_write_long_num+0xa4>
    21a8:	e1a07002 	mov	r7, r2
    21ac:	e3a08000 	mov	r8, #0	; 0x0
    21b0:	e3a06000 	mov	r6, #0	; 0x0
    21b4:	e1a00004 	mov	r0, r4
    21b8:	e1a01005 	mov	r1, r5
    21bc:	e1a02007 	mov	r2, r7
    21c0:	e1a03008 	mov	r3, r8
    21c4:	eb0031e1 	bl	e950 <__aeabi_uldivmod>
    21c8:	e7dbc002 	ldrb	ip, [fp, r2]
    21cc:	e1a00004 	mov	r0, r4
    21d0:	e1a01005 	mov	r1, r5
    21d4:	e1a03008 	mov	r3, r8
    21d8:	e1a02007 	mov	r2, r7
    21dc:	e7cac006 	strb	ip, [sl, r6]
    21e0:	eb0031da 	bl	e950 <__aeabi_uldivmod>
    21e4:	e1903001 	orrs	r3, r0, r1
    21e8:	e1a04000 	mov	r4, r0
    21ec:	e1a05001 	mov	r5, r1
    21f0:	e2866001 	add	r6, r6, #1	; 0x1
    21f4:	1affffee 	bne	21b4 <diag_write_long_num+0x60>
    21f8:	e59d3054 	ldr	r3, [sp, #84]
    21fc:	e1560003 	cmp	r6, r3
    2200:	a1a02006 	movge	r2, r6
    2204:	b1a02003 	movlt	r2, r3
    2208:	e59d3004 	ldr	r3, [sp, #4]
    220c:	e353002d 	cmp	r3, #45	; 0x2d
    2210:	12424001 	subne	r4, r2, #1	; 0x1
    2214:	0a000009 	beq	2240 <diag_write_long_num+0xec>
    2218:	e3540000 	cmp	r4, #0	; 0x0
    221c:	a08a5004 	addge	r5, sl, r4
    2220:	ba000004 	blt	2238 <diag_write_long_num+0xe4>
    2224:	e2444001 	sub	r4, r4, #1	; 0x1
    2228:	e4550001 	ldrb	r0, [r5], #-1
    222c:	ebffffbd 	bl	2128 <diag_write_char>
    2230:	e3540000 	cmp	r4, #0	; 0x0
    2234:	aafffffa 	bge	2224 <diag_write_long_num+0xd0>
    2238:	e28dd02c 	add	sp, sp, #44	; 0x2c
    223c:	e8bd8ff0 	pop	{r4, r5, r6, r7, r8, r9, sl, fp, pc}
    2240:	e2424001 	sub	r4, r2, #1	; 0x1
    2244:	e28d3028 	add	r3, sp, #40	; 0x28
    2248:	e0831004 	add	r1, r3, r4
    224c:	e5513020 	ldrb	r3, [r1, #-32]
    2250:	e1530009 	cmp	r3, r9
    2254:	128d3028 	addne	r3, sp, #40	; 0x28
    2258:	11a04002 	movne	r4, r2
    225c:	10831004 	addne	r1, r3, r4
    2260:	e3a0302d 	mov	r3, #45	; 0x2d
    2264:	e5413020 	strb	r3, [r1, #-32]
    2268:	eaffffea 	b	2218 <diag_write_long_num+0xc4>
    226c:	0000f5f8 	.word	0x0000f5f8

00002270 <diag_write_num>:
    2270:	e52de004 	push	{lr}		; (str lr, [sp, #-4]!)
    2274:	e1a0c002 	mov	ip, r2
    2278:	e24dd00c 	sub	sp, sp, #12	; 0xc
    227c:	e58d3000 	str	r3, [sp]
    2280:	e1a0300c 	mov	r3, ip
    2284:	e59dc010 	ldr	ip, [sp, #16]
    2288:	e1a02001 	mov	r2, r1
    228c:	e3a01000 	mov	r1, #0	; 0x0
    2290:	e58dc004 	str	ip, [sp, #4]
    2294:	ebffffae 	bl	2154 <diag_write_long_num>
    2298:	e28dd00c 	add	sp, sp, #12	; 0xc
    229c:	e8bd8000 	pop	{pc}

000022a0 <diag_write_hex>:
    22a0:	e52de004 	push	{lr}		; (str lr, [sp, #-4]!)
    22a4:	e3a0c000 	mov	ip, #0	; 0x0
    22a8:	e24dd00c 	sub	sp, sp, #12	; 0xc
    22ac:	e1a0300c 	mov	r3, ip
    22b0:	e3a01010 	mov	r1, #16	; 0x10
    22b4:	e3a0202b 	mov	r2, #43	; 0x2b
    22b8:	e58dc000 	str	ip, [sp]
    22bc:	ebffffeb 	bl	2270 <diag_write_num>
    22c0:	e28dd00c 	add	sp, sp, #12	; 0xc
    22c4:	e8bd8000 	pop	{pc}

000022c8 <diag_write_dec>:
    22c8:	e52de004 	push	{lr}		; (str lr, [sp, #-4]!)
    22cc:	e3500000 	cmp	r0, #0	; 0x0
    22d0:	e3a0c000 	mov	ip, #0	; 0x0
    22d4:	e24dd00c 	sub	sp, sp, #12	; 0xc
    22d8:	a3a0202b 	movge	r2, #43	; 0x2b
    22dc:	b2600000 	rsblt	r0, r0, #0	; 0x0
    22e0:	b3a0202d 	movlt	r2, #45	; 0x2d
    22e4:	e1a0300c 	mov	r3, ip
    22e8:	e3a0100a 	mov	r1, #10	; 0xa
    22ec:	e58dc000 	str	ip, [sp]
    22f0:	ebffffde 	bl	2270 <diag_write_num>
    22f4:	e28dd00c 	add	sp, sp, #12	; 0xc
    22f8:	e8bd8000 	pop	{pc}

000022fc <diag_write_string>:
    22fc:	e92d4010 	push	{r4, lr}
    2300:	e1a03000 	mov	r3, r0
    2304:	e5d00000 	ldrb	r0, [r0]
    2308:	e3500000 	cmp	r0, #0	; 0x0
    230c:	08bd8010 	popeq	{r4, pc}
    2310:	e1a04003 	mov	r4, r3
    2314:	ebffff83 	bl	2128 <diag_write_char>
    2318:	e5f40001 	ldrb	r0, [r4, #1]!
    231c:	e3500000 	cmp	r0, #0	; 0x0
    2320:	1afffffb 	bne	2314 <diag_write_string+0x18>
    2324:	e8bd8010 	pop	{r4, pc}

00002328 <_ZL8_vprintfPFvcPPvES0_PKcS_>:
    2328:	e92d4ff0 	push	{r4, r5, r6, r7, r8, r9, sl, fp, lr}
    232c:	e3520000 	cmp	r2, #0	; 0x0
    2330:	e24dd084 	sub	sp, sp, #132	; 0x84
    2334:	e58d2018 	str	r2, [sp, #24]
    2338:	13a02b02 	movne	r2, #2048	; 0x800
    233c:	e58d3014 	str	r3, [sp, #20]
    2340:	e58d0020 	str	r0, [sp, #32]
    2344:	e58d101c 	str	r1, [sp, #28]
    2348:	12822002 	addne	r2, r2, #2	; 0x2
    234c:	13a03000 	movne	r3, #0	; 0x0
    2350:	0a00000f 	beq	2394 <_ZL8_vprintfPFvcPPvES0_PKcS_+0x6c>
    2354:	e59d1018 	ldr	r1, [sp, #24]
    2358:	e7d10003 	ldrb	r0, [r1, r3]
    235c:	e3500000 	cmp	r0, #0	; 0x0
    2360:	e2833001 	add	r3, r3, #1	; 0x1
    2364:	0a000027 	beq	2408 <_ZL8_vprintfPFvcPPvES0_PKcS_+0xe0>
    2368:	e350000d 	cmp	r0, #13	; 0xd
    236c:	1350000a 	cmpne	r0, #10	; 0xa
    2370:	0a00001d 	beq	23ec <_ZL8_vprintfPFvcPPvES0_PKcS_+0xc4>
    2374:	e3500009 	cmp	r0, #9	; 0x9
    2378:	13500008 	cmpne	r0, #8	; 0x8
    237c:	0a00001a 	beq	23ec <_ZL8_vprintfPFvcPPvES0_PKcS_+0xc4>
    2380:	e350001b 	cmp	r0, #27	; 0x1b
    2384:	e2401020 	sub	r1, r0, #32	; 0x20
    2388:	0a000017 	beq	23ec <_ZL8_vprintfPFvcPPvES0_PKcS_+0xc4>
    238c:	e351005e 	cmp	r1, #94	; 0x5e
    2390:	9a000015 	bls	23ec <_ZL8_vprintfPFvcPPvES0_PKcS_+0xc4>
    2394:	e59f0aa0 	ldr	r0, [pc, #2720]	; 2e3c <_ZL8_vprintfPFvcPPvES0_PKcS_+0xb14>
    2398:	ebffffd7 	bl	22fc <diag_write_string>
    239c:	e59d0018 	ldr	r0, [sp, #24]
    23a0:	ebffffbe 	bl	22a0 <diag_write_hex>
    23a4:	e59f0a94 	ldr	r0, [pc, #2708]	; 2e40 <_ZL8_vprintfPFvcPPvES0_PKcS_+0xb18>
    23a8:	ebffffd3 	bl	22fc <diag_write_string>
    23ac:	e3a04000 	mov	r4, #0	; 0x0
    23b0:	e3a00020 	mov	r0, #32	; 0x20
    23b4:	ebffff5b 	bl	2128 <diag_write_char>
    23b8:	e59d3014 	ldr	r3, [sp, #20]
    23bc:	e7930004 	ldr	r0, [r3, r4]
    23c0:	e2844004 	add	r4, r4, #4	; 0x4
    23c4:	ebffffb5 	bl	22a0 <diag_write_hex>
    23c8:	e3540020 	cmp	r4, #32	; 0x20
    23cc:	1afffff7 	bne	23b0 <_ZL8_vprintfPFvcPPvES0_PKcS_+0x88>
    23d0:	e59f0a6c 	ldr	r0, [pc, #2668]	; 2e44 <_ZL8_vprintfPFvcPPvES0_PKcS_+0xb1c>
    23d4:	e3a09000 	mov	r9, #0	; 0x0
    23d8:	ebffffc7 	bl	22fc <diag_write_string>
    23dc:	e58d9034 	str	r9, [sp, #52]
    23e0:	e59d0034 	ldr	r0, [sp, #52]
    23e4:	e28dd084 	add	sp, sp, #132	; 0x84
    23e8:	e8bd8ff0 	pop	{r4, r5, r6, r7, r8, r9, sl, fp, pc}
    23ec:	e1530002 	cmp	r3, r2
    23f0:	0affffe7 	beq	2394 <_ZL8_vprintfPFvcPPvES0_PKcS_+0x6c>
    23f4:	e59d1018 	ldr	r1, [sp, #24]
    23f8:	e7d10003 	ldrb	r0, [r1, r3]
    23fc:	e3500000 	cmp	r0, #0	; 0x0
    2400:	e2833001 	add	r3, r3, #1	; 0x1
    2404:	1affffd7 	bne	2368 <_ZL8_vprintfPFvcPPvES0_PKcS_+0x40>
    2408:	e3a02b02 	mov	r2, #2048	; 0x800
    240c:	e2822002 	add	r2, r2, #2	; 0x2
    2410:	e58d0034 	str	r0, [sp, #52]
    2414:	e58d2010 	str	r2, [sp, #16]
    2418:	e3a07000 	mov	r7, #0	; 0x0
    241c:	e3a08000 	mov	r8, #0	; 0x0
    2420:	e1a0b000 	mov	fp, r0
    2424:	e59d1018 	ldr	r1, [sp, #24]
    2428:	e5d10000 	ldrb	r0, [r1]
    242c:	e3500000 	cmp	r0, #0	; 0x0
    2430:	0affffea 	beq	23e0 <_ZL8_vprintfPFvcPPvES0_PKcS_+0xb8>
    2434:	e59da018 	ldr	sl, [sp, #24]
    2438:	e3500025 	cmp	r0, #37	; 0x25
    243c:	e28aa001 	add	sl, sl, #1	; 0x1
    2440:	e58da018 	str	sl, [sp, #24]
    2444:	1a0001b1 	bne	2b10 <_ZL8_vprintfPFvcPPvES0_PKcS_+0x7e8>
    2448:	e1a0000a 	mov	r0, sl
    244c:	e4d01001 	ldrb	r1, [r0], #1
    2450:	e351002d 	cmp	r1, #45	; 0x2d
    2454:	059d3018 	ldreq	r3, [sp, #24]
    2458:	13a02000 	movne	r2, #0	; 0x0
    245c:	05d31001 	ldrbeq	r1, [r3, #1]
    2460:	03a09001 	moveq	r9, #1	; 0x1
    2464:	158d2030 	strne	r2, [sp, #48]
    2468:	058d9030 	streq	r9, [sp, #48]
    246c:	02800001 	addeq	r0, r0, #1	; 0x1
    2470:	e3510030 	cmp	r1, #48	; 0x30
    2474:	04d01001 	ldrbeq	r1, [r0], #1
    2478:	03a02001 	moveq	r2, #1	; 0x1
    247c:	13a0a000 	movne	sl, #0	; 0x0
    2480:	e2413030 	sub	r3, r1, #48	; 0x30
    2484:	058d2028 	streq	r2, [sp, #40]
    2488:	158da028 	strne	sl, [sp, #40]
    248c:	e3530009 	cmp	r3, #9	; 0x9
    2490:	83a02000 	movhi	r2, #0	; 0x0
    2494:	858d0018 	strhi	r0, [sp, #24]
    2498:	81a04001 	movhi	r4, r1
    249c:	858d200c 	strhi	r2, [sp, #12]
    24a0:	8a00000c 	bhi	24d8 <_ZL8_vprintfPFvcPPvES0_PKcS_+0x1b0>
    24a4:	e3a02000 	mov	r2, #0	; 0x0
    24a8:	e1a03182 	lsl	r3, r2, #3
    24ac:	e1a02082 	lsl	r2, r2, #1
    24b0:	e0822003 	add	r2, r2, r3
    24b4:	e0822001 	add	r2, r2, r1
    24b8:	e4d01001 	ldrb	r1, [r0], #1
    24bc:	e2413030 	sub	r3, r1, #48	; 0x30
    24c0:	e3530009 	cmp	r3, #9	; 0x9
    24c4:	e2422030 	sub	r2, r2, #48	; 0x30
    24c8:	9afffff6 	bls	24a8 <_ZL8_vprintfPFvcPPvES0_PKcS_+0x180>
    24cc:	e58d0018 	str	r0, [sp, #24]
    24d0:	e58d200c 	str	r2, [sp, #12]
    24d4:	e1a04001 	mov	r4, r1
    24d8:	e351002e 	cmp	r1, #46	; 0x2e
    24dc:	0a000208 	beq	2d04 <_ZL8_vprintfPFvcPPvES0_PKcS_+0x9dc>
    24e0:	e354006c 	cmp	r4, #108	; 0x6c
    24e4:	13a0c000 	movne	ip, #0	; 0x0
    24e8:	11a0100c 	movne	r1, ip
    24ec:	0a000218 	beq	2d54 <_ZL8_vprintfPFvcPPvES0_PKcS_+0xa2c>
    24f0:	e354007a 	cmp	r4, #122	; 0x7a
    24f4:	059d3018 	ldreq	r3, [sp, #24]
    24f8:	04d34001 	ldrbeq	r4, [r3], #1
    24fc:	058d3018 	streq	r3, [sp, #24]
    2500:	e2443042 	sub	r3, r4, #66	; 0x42
    2504:	03a0c001 	moveq	ip, #1	; 0x1
    2508:	e3530036 	cmp	r3, #54	; 0x36
    250c:	979ff103 	ldrls	pc, [pc, r3, lsl #2]
    2510:	ea0000a0 	b	2798 <_ZL8_vprintfPFvcPPvES0_PKcS_+0x470>
    2514:	000025f4 	.word	0x000025f4
    2518:	00002798 	.word	0x00002798
    251c:	000025f4 	.word	0x000025f4
    2520:	00002798 	.word	0x00002798
    2524:	00002798 	.word	0x00002798
    2528:	00002798 	.word	0x00002798
    252c:	00002798 	.word	0x00002798
    2530:	00002798 	.word	0x00002798
    2534:	00002798 	.word	0x00002798
    2538:	00002798 	.word	0x00002798
    253c:	00002798 	.word	0x00002798
    2540:	00002798 	.word	0x00002798
    2544:	00002798 	.word	0x00002798
    2548:	00002798 	.word	0x00002798
    254c:	00002798 	.word	0x00002798
    2550:	00002798 	.word	0x00002798
    2554:	00002798 	.word	0x00002798
    2558:	00002798 	.word	0x00002798
    255c:	00002798 	.word	0x00002798
    2560:	000025f4 	.word	0x000025f4
    2564:	00002798 	.word	0x00002798
    2568:	00002798 	.word	0x00002798
    256c:	000025f4 	.word	0x000025f4
    2570:	00002798 	.word	0x00002798
    2574:	00002798 	.word	0x00002798
    2578:	00002798 	.word	0x00002798
    257c:	00002798 	.word	0x00002798
    2580:	00002798 	.word	0x00002798
    2584:	00002798 	.word	0x00002798
    2588:	00002798 	.word	0x00002798
    258c:	00002798 	.word	0x00002798
    2590:	00002798 	.word	0x00002798
    2594:	000025f4 	.word	0x000025f4
    2598:	00002798 	.word	0x00002798
    259c:	000025f4 	.word	0x000025f4
    25a0:	00002798 	.word	0x00002798
    25a4:	00002798 	.word	0x00002798
    25a8:	00002798 	.word	0x00002798
    25ac:	00002798 	.word	0x00002798
    25b0:	00002798 	.word	0x00002798
    25b4:	00002798 	.word	0x00002798
    25b8:	00002798 	.word	0x00002798
    25bc:	00002798 	.word	0x00002798
    25c0:	00002798 	.word	0x00002798
    25c4:	00002798 	.word	0x00002798
    25c8:	00002798 	.word	0x00002798
    25cc:	000025f0 	.word	0x000025f0
    25d0:	00002798 	.word	0x00002798
    25d4:	00002798 	.word	0x00002798
    25d8:	00002798 	.word	0x00002798
    25dc:	00002798 	.word	0x00002798
    25e0:	000025f4 	.word	0x000025f4
    25e4:	00002798 	.word	0x00002798
    25e8:	00002798 	.word	0x00002798
    25ec:	000025f4 	.word	0x000025f4
    25f0:	e3a0c001 	mov	ip, #1	; 0x1
    25f4:	e3510000 	cmp	r1, #0	; 0x0
    25f8:	0a0001b5 	beq	2cd4 <_ZL8_vprintfPFvcPPvES0_PKcS_+0x9ac>
    25fc:	e59da014 	ldr	sl, [sp, #20]
    2600:	e28a3007 	add	r3, sl, #7	; 0x7
    2604:	e3c33007 	bic	r3, r3, #7	; 0x7
    2608:	e8930180 	ldm	r3, {r7, r8}
    260c:	e2833008 	add	r3, r3, #8	; 0x8
    2610:	e3540044 	cmp	r4, #68	; 0x44
    2614:	13540064 	cmpne	r4, #100	; 0x64
    2618:	13a00000 	movne	r0, #0	; 0x0
    261c:	03a00001 	moveq	r0, #1	; 0x1
    2620:	1a0001a0 	bne	2ca8 <_ZL8_vprintfPFvcPPvES0_PKcS_+0x980>
    2624:	e3580000 	cmp	r8, #0	; 0x0
    2628:	ba0001de 	blt	2da8 <_ZL8_vprintfPFvcPPvES0_PKcS_+0xa80>
    262c:	e3a00000 	mov	r0, #0	; 0x0
    2630:	e58d3014 	str	r3, [sp, #20]
    2634:	e58d0024 	str	r0, [sp, #36]
    2638:	e2443025 	sub	r3, r4, #37	; 0x25
    263c:	e3530053 	cmp	r3, #83	; 0x53
    2640:	979ff103 	ldrls	pc, [pc, r3, lsl #2]
    2644:	ea000056 	b	27a4 <_ZL8_vprintfPFvcPPvES0_PKcS_+0x47c>
    2648:	00002b0c 	.word	0x00002b0c
    264c:	000027a4 	.word	0x000027a4
    2650:	000027a4 	.word	0x000027a4
    2654:	000027a4 	.word	0x000027a4
    2658:	000027a4 	.word	0x000027a4
    265c:	000027a4 	.word	0x000027a4
    2660:	000027a4 	.word	0x000027a4
    2664:	000027a4 	.word	0x000027a4
    2668:	000027a4 	.word	0x000027a4
    266c:	000027a4 	.word	0x000027a4
    2670:	000027a4 	.word	0x000027a4
    2674:	000027a4 	.word	0x000027a4
    2678:	000027a4 	.word	0x000027a4
    267c:	000027a4 	.word	0x000027a4
    2680:	000027a4 	.word	0x000027a4
    2684:	000027a4 	.word	0x000027a4
    2688:	000027a4 	.word	0x000027a4
    268c:	000027a4 	.word	0x000027a4
    2690:	000027a4 	.word	0x000027a4
    2694:	000027a4 	.word	0x000027a4
    2698:	000027a4 	.word	0x000027a4
    269c:	000027a4 	.word	0x000027a4
    26a0:	000027a4 	.word	0x000027a4
    26a4:	000027a4 	.word	0x000027a4
    26a8:	000027a4 	.word	0x000027a4
    26ac:	000027a4 	.word	0x000027a4
    26b0:	000027a4 	.word	0x000027a4
    26b4:	000027a4 	.word	0x000027a4
    26b8:	000027a4 	.word	0x000027a4
    26bc:	00002a88 	.word	0x00002a88
    26c0:	00002a50 	.word	0x00002a50
    26c4:	00002b3c 	.word	0x00002b3c
    26c8:	000027a4 	.word	0x000027a4
    26cc:	000027a4 	.word	0x000027a4
    26d0:	000027a4 	.word	0x000027a4
    26d4:	000027a4 	.word	0x000027a4
    26d8:	000027a4 	.word	0x000027a4
    26dc:	000027a4 	.word	0x000027a4
    26e0:	000027a4 	.word	0x000027a4
    26e4:	000027a4 	.word	0x000027a4
    26e8:	000027a4 	.word	0x000027a4
    26ec:	000027a4 	.word	0x000027a4
    26f0:	000027a4 	.word	0x000027a4
    26f4:	000027a4 	.word	0x000027a4
    26f8:	000027a4 	.word	0x000027a4
    26fc:	000027a4 	.word	0x000027a4
    2700:	000029ac 	.word	0x000029ac
    2704:	000027a4 	.word	0x000027a4
    2708:	00002b3c 	.word	0x00002b3c
    270c:	000027a4 	.word	0x000027a4
    2710:	000027a4 	.word	0x000027a4
    2714:	00002b3c 	.word	0x00002b3c
    2718:	000027a4 	.word	0x000027a4
    271c:	000027a4 	.word	0x000027a4
    2720:	000027a4 	.word	0x000027a4
    2724:	000027a4 	.word	0x000027a4
    2728:	000027a4 	.word	0x000027a4
    272c:	000027a4 	.word	0x000027a4
    2730:	000027a4 	.word	0x000027a4
    2734:	000027a4 	.word	0x000027a4
    2738:	000027a4 	.word	0x000027a4
    273c:	00002a88 	.word	0x00002a88
    2740:	00002a50 	.word	0x00002a50
    2744:	00002b3c 	.word	0x00002b3c
    2748:	000027a4 	.word	0x000027a4
    274c:	000027a4 	.word	0x000027a4
    2750:	000027a4 	.word	0x000027a4
    2754:	000027a4 	.word	0x000027a4
    2758:	000027a4 	.word	0x000027a4
    275c:	000027a4 	.word	0x000027a4
    2760:	000027a4 	.word	0x000027a4
    2764:	000027a4 	.word	0x000027a4
    2768:	000027a4 	.word	0x000027a4
    276c:	000027a4 	.word	0x000027a4
    2770:	000027a4 	.word	0x000027a4
    2774:	000027f0 	.word	0x000027f0
    2778:	000027a4 	.word	0x000027a4
    277c:	000027a4 	.word	0x000027a4
    2780:	000029ac 	.word	0x000029ac
    2784:	000027a4 	.word	0x000027a4
    2788:	00002b3c 	.word	0x00002b3c
    278c:	000027a4 	.word	0x000027a4
    2790:	000027a4 	.word	0x000027a4
    2794:	00002b3c 	.word	0x00002b3c
    2798:	e3a09000 	mov	r9, #0	; 0x0
    279c:	e58d9024 	str	r9, [sp, #36]
    27a0:	eaffffa4 	b	2638 <_ZL8_vprintfPFvcPPvES0_PKcS_+0x310>
    27a4:	e59da020 	ldr	sl, [sp, #32]
    27a8:	e3a00025 	mov	r0, #37	; 0x25
    27ac:	e59d101c 	ldr	r1, [sp, #28]
    27b0:	e1a0e00f 	mov	lr, pc
    27b4:	e12fff1a 	bx	sl
    27b8:	e1a00004 	mov	r0, r4
    27bc:	e59d101c 	ldr	r1, [sp, #28]
    27c0:	e1a0e00f 	mov	lr, pc
    27c4:	e12fff1a 	bx	sl
    27c8:	e59d0034 	ldr	r0, [sp, #52]
    27cc:	e59d1014 	ldr	r1, [sp, #20]
    27d0:	e2800002 	add	r0, r0, #2	; 0x2
    27d4:	e58d0034 	str	r0, [sp, #52]
    27d8:	e58d1038 	str	r1, [sp, #56]
    27dc:	e1a0a00b 	mov	sl, fp
    27e0:	e59d0038 	ldr	r0, [sp, #56]
    27e4:	e1a0b00a 	mov	fp, sl
    27e8:	e58d0014 	str	r0, [sp, #20]
    27ec:	eaffff0c 	b	2424 <_ZL8_vprintfPFvcPPvES0_PKcS_+0xfc>
    27f0:	e3a00030 	mov	r0, #48	; 0x30
    27f4:	e28d101c 	add	r1, sp, #28	; 0x1c
    27f8:	e8910006 	ldm	r1, {r1, r2}
    27fc:	e1a0e00f 	mov	lr, pc
    2800:	e12fff12 	bx	r2
    2804:	e3a00078 	mov	r0, #120	; 0x78
    2808:	e28d101c 	add	r1, sp, #28	; 0x1c
    280c:	e891000a 	ldm	r1, {r1, r3}
    2810:	e1a0e00f 	mov	lr, pc
    2814:	e12fff13 	bx	r3
    2818:	e59d9034 	ldr	r9, [sp, #52]
    281c:	e3a0a008 	mov	sl, #8	; 0x8
    2820:	e2899002 	add	r9, r9, #2	; 0x2
    2824:	e3a00001 	mov	r0, #1	; 0x1
    2828:	e58d9034 	str	r9, [sp, #52]
    282c:	e58da00c 	str	sl, [sp, #12]
    2830:	e58d0028 	str	r0, [sp, #40]
    2834:	e59fc60c 	ldr	ip, [pc, #1548]	; 2e48 <_ZL8_vprintfPFvcPPvES0_PKcS_+0xb20>
    2838:	e3a03010 	mov	r3, #16	; 0x10
    283c:	e1a00007 	mov	r0, r7
    2840:	e1a01008 	mov	r1, r8
    2844:	e28d2040 	add	r2, sp, #64	; 0x40
    2848:	e58dc000 	str	ip, [sp]
    284c:	ebfffd97 	bl	1eb0 <_ZL4_cvtyPclS_>
    2850:	e59d300c 	ldr	r3, [sp, #12]
    2854:	e59d9014 	ldr	r9, [sp, #20]
    2858:	e0603003 	rsb	r3, r0, r3
    285c:	e58d300c 	str	r3, [sp, #12]
    2860:	e58d9038 	str	r9, [sp, #56]
    2864:	e1a0b000 	mov	fp, r0
    2868:	e28d9040 	add	r9, sp, #64	; 0x40
    286c:	e59da024 	ldr	sl, [sp, #36]
    2870:	e35a0000 	cmp	sl, #0	; 0x0
    2874:	159d100c 	ldrne	r1, [sp, #12]
    2878:	059d000c 	ldreq	r0, [sp, #12]
    287c:	e59d2028 	ldr	r2, [sp, #40]
    2880:	12411001 	subne	r1, r1, #1	; 0x1
    2884:	058d002c 	streq	r0, [sp, #44]
    2888:	158d102c 	strne	r1, [sp, #44]
    288c:	e3520000 	cmp	r2, #0	; 0x0
    2890:	03a0a020 	moveq	sl, #32	; 0x20
    2894:	0a000003 	beq	28a8 <_ZL8_vprintfPFvcPPvES0_PKcS_+0x580>
    2898:	e59d3024 	ldr	r3, [sp, #36]
    289c:	e3530000 	cmp	r3, #0	; 0x0
    28a0:	03a0a030 	moveq	sl, #48	; 0x30
    28a4:	1a000145 	bne	2dc0 <_ZL8_vprintfPFvcPPvES0_PKcS_+0xa98>
    28a8:	e59d2030 	ldr	r2, [sp, #48]
    28ac:	e3520000 	cmp	r2, #0	; 0x0
    28b0:	159d302c 	ldrne	r3, [sp, #44]
    28b4:	158d303c 	strne	r3, [sp, #60]
    28b8:	1a000013 	bne	290c <_ZL8_vprintfPFvcPPvES0_PKcS_+0x5e4>
    28bc:	e59d002c 	ldr	r0, [sp, #44]
    28c0:	e2401001 	sub	r1, r0, #1	; 0x1
    28c4:	e3500000 	cmp	r0, #0	; 0x0
    28c8:	e58d103c 	str	r1, [sp, #60]
    28cc:	da00000e 	ble	290c <_ZL8_vprintfPFvcPPvES0_PKcS_+0x5e4>
    28d0:	e1a04000 	mov	r4, r0
    28d4:	e2444001 	sub	r4, r4, #1	; 0x1
    28d8:	e1a0000a 	mov	r0, sl
    28dc:	e28d101c 	add	r1, sp, #28	; 0x1c
    28e0:	e8910006 	ldm	r1, {r1, r2}
    28e4:	e1a0e00f 	mov	lr, pc
    28e8:	e12fff12 	bx	r2
    28ec:	e3540000 	cmp	r4, #0	; 0x0
    28f0:	cafffff7 	bgt	28d4 <_ZL8_vprintfPFvcPPvES0_PKcS_+0x5ac>
    28f4:	e59d3034 	ldr	r3, [sp, #52]
    28f8:	e59da02c 	ldr	sl, [sp, #44]
    28fc:	e3e00000 	mvn	r0, #0	; 0x0
    2900:	e083300a 	add	r3, r3, sl
    2904:	e58d3034 	str	r3, [sp, #52]
    2908:	e58d003c 	str	r0, [sp, #60]
    290c:	e59d1024 	ldr	r1, [sp, #36]
    2910:	e3510000 	cmp	r1, #0	; 0x0
    2914:	1a00011a 	bne	2d84 <_ZL8_vprintfPFvcPPvES0_PKcS_+0xa5c>
    2918:	e35b0000 	cmp	fp, #0	; 0x0
    291c:	e24ba001 	sub	sl, fp, #1	; 0x1
    2920:	da00000d 	ble	295c <_ZL8_vprintfPFvcPPvES0_PKcS_+0x634>
    2924:	e3a04000 	mov	r4, #0	; 0x0
    2928:	e7d90004 	ldrb	r0, [r9, r4]
    292c:	e59d101c 	ldr	r1, [sp, #28]
    2930:	e2844001 	add	r4, r4, #1	; 0x1
    2934:	e59da020 	ldr	sl, [sp, #32]
    2938:	e1a0e00f 	mov	lr, pc
    293c:	e12fff1a 	bx	sl
    2940:	e064300b 	rsb	r3, r4, fp
    2944:	e3530000 	cmp	r3, #0	; 0x0
    2948:	cafffff6 	bgt	2928 <_ZL8_vprintfPFvcPPvES0_PKcS_+0x600>
    294c:	e59d0034 	ldr	r0, [sp, #52]
    2950:	e080000b 	add	r0, r0, fp
    2954:	e58d0034 	str	r0, [sp, #52]
    2958:	e3e0a000 	mvn	sl, #0	; 0x0
    295c:	e59d1030 	ldr	r1, [sp, #48]
    2960:	e3510000 	cmp	r1, #0	; 0x0
    2964:	0affff9d 	beq	27e0 <_ZL8_vprintfPFvcPPvES0_PKcS_+0x4b8>
    2968:	e59d203c 	ldr	r2, [sp, #60]
    296c:	e3520000 	cmp	r2, #0	; 0x0
    2970:	daffff9a 	ble	27e0 <_ZL8_vprintfPFvcPPvES0_PKcS_+0x4b8>
    2974:	e1a04002 	mov	r4, r2
    2978:	e2444001 	sub	r4, r4, #1	; 0x1
    297c:	e3a00020 	mov	r0, #32	; 0x20
    2980:	e28d101c 	add	r1, sp, #28	; 0x1c
    2984:	e891000a 	ldm	r1, {r1, r3}
    2988:	e1a0e00f 	mov	lr, pc
    298c:	e12fff13 	bx	r3
    2990:	e3540000 	cmp	r4, #0	; 0x0
    2994:	cafffff7 	bgt	2978 <_ZL8_vprintfPFvcPPvES0_PKcS_+0x650>
    2998:	e59d9034 	ldr	r9, [sp, #52]
    299c:	e59d003c 	ldr	r0, [sp, #60]
    29a0:	e0899000 	add	r9, r9, r0
    29a4:	e58d9034 	str	r9, [sp, #52]
    29a8:	eaffff8c 	b	27e0 <_ZL8_vprintfPFvcPPvES0_PKcS_+0x4b8>
    29ac:	e59d1014 	ldr	r1, [sp, #20]
    29b0:	e5919000 	ldr	r9, [r1]
    29b4:	e2812004 	add	r2, r1, #4	; 0x4
    29b8:	e3590000 	cmp	r9, #0	; 0x0
    29bc:	e58d2038 	str	r2, [sp, #56]
    29c0:	059f9484 	ldreq	r9, [pc, #1156]	; 2e4c <_ZL8_vprintfPFvcPPvES0_PKcS_+0xb24>
    29c4:	13a02000 	movne	r2, #0	; 0x0
    29c8:	0a000013 	beq	2a1c <_ZL8_vprintfPFvcPPvES0_PKcS_+0x6f4>
    29cc:	e7d93002 	ldrb	r3, [r9, r2]
    29d0:	e3530000 	cmp	r3, #0	; 0x0
    29d4:	e2822001 	add	r2, r2, #1	; 0x1
    29d8:	0a00000f 	beq	2a1c <_ZL8_vprintfPFvcPPvES0_PKcS_+0x6f4>
    29dc:	e353000d 	cmp	r3, #13	; 0xd
    29e0:	1353000a 	cmpne	r3, #10	; 0xa
    29e4:	0a0000ab 	beq	2c98 <_ZL8_vprintfPFvcPPvES0_PKcS_+0x970>
    29e8:	e3530009 	cmp	r3, #9	; 0x9
    29ec:	13530008 	cmpne	r3, #8	; 0x8
    29f0:	0a0000a8 	beq	2c98 <_ZL8_vprintfPFvcPPvES0_PKcS_+0x970>
    29f4:	e353001b 	cmp	r3, #27	; 0x1b
    29f8:	e2431020 	sub	r1, r3, #32	; 0x20
    29fc:	0a0000a5 	beq	2c98 <_ZL8_vprintfPFvcPPvES0_PKcS_+0x970>
    2a00:	e351005e 	cmp	r1, #94	; 0x5e
    2a04:	9a0000a3 	bls	2c98 <_ZL8_vprintfPFvcPPvES0_PKcS_+0x970>
    2a08:	e59f0440 	ldr	r0, [pc, #1088]	; 2e50 <_ZL8_vprintfPFvcPPvES0_PKcS_+0xb28>
    2a0c:	ebfffe3a 	bl	22fc <diag_write_string>
    2a10:	e1a00009 	mov	r0, r9
    2a14:	ebfffe21 	bl	22a0 <diag_write_hex>
    2a18:	e59f9434 	ldr	r9, [pc, #1076]	; 2e54 <_ZL8_vprintfPFvcPPvES0_PKcS_+0xb2c>
    2a1c:	e5d90000 	ldrb	r0, [r9]
    2a20:	e3500000 	cmp	r0, #0	; 0x0
    2a24:	01a0b000 	moveq	fp, r0
    2a28:	0affff8f 	beq	286c <_ZL8_vprintfPFvcPPvES0_PKcS_+0x544>
    2a2c:	e3a0b000 	mov	fp, #0	; 0x0
    2a30:	e28bb001 	add	fp, fp, #1	; 0x1
    2a34:	e7d9300b 	ldrb	r3, [r9, fp]
    2a38:	e3530000 	cmp	r3, #0	; 0x0
    2a3c:	1afffffb 	bne	2a30 <_ZL8_vprintfPFvcPPvES0_PKcS_+0x708>
    2a40:	e59da00c 	ldr	sl, [sp, #12]
    2a44:	e06ba00a 	rsb	sl, fp, sl
    2a48:	e58da00c 	str	sl, [sp, #12]
    2a4c:	eaffff86 	b	286c <_ZL8_vprintfPFvcPPvES0_PKcS_+0x544>
    2a50:	e59d1014 	ldr	r1, [sp, #20]
    2a54:	e59d2020 	ldr	r2, [sp, #32]
    2a58:	e5d10000 	ldrb	r0, [r1]
    2a5c:	e59d101c 	ldr	r1, [sp, #28]
    2a60:	e1a0e00f 	mov	lr, pc
    2a64:	e12fff12 	bx	r2
    2a68:	e59d3034 	ldr	r3, [sp, #52]
    2a6c:	e59d9014 	ldr	r9, [sp, #20]
    2a70:	e2833001 	add	r3, r3, #1	; 0x1
    2a74:	e2899004 	add	r9, r9, #4	; 0x4
    2a78:	e58d3034 	str	r3, [sp, #52]
    2a7c:	e1a0a00b 	mov	sl, fp
    2a80:	e58d9038 	str	r9, [sp, #56]
    2a84:	eaffff55 	b	27e0 <_ZL8_vprintfPFvcPPvES0_PKcS_+0x4b8>
    2a88:	e3520000 	cmp	r2, #0	; 0x0
    2a8c:	1a0000d7 	bne	2df0 <_ZL8_vprintfPFvcPPvES0_PKcS_+0xac8>
    2a90:	e3510000 	cmp	r1, #0	; 0x0
    2a94:	13a0003f 	movne	r0, #63	; 0x3f
    2a98:	03a0001f 	moveq	r0, #31	; 0x1f
    2a9c:	13a0b040 	movne	fp, #64	; 0x40
    2aa0:	03a0b020 	moveq	fp, #32	; 0x20
    2aa4:	e3a01000 	mov	r1, #0	; 0x0
    2aa8:	e1a05137 	lsr	r5, r7, r1
    2aac:	e2613020 	rsb	r3, r1, #32	; 0x20
    2ab0:	e1855318 	orr	r5, r5, r8, lsl r3
    2ab4:	e2512020 	subs	r2, r1, #32	; 0x20
    2ab8:	51a05258 	asrpl	r5, r8, r2
    2abc:	e1a06158 	asr	r6, r8, r1
    2ac0:	e3a0a000 	mov	sl, #0	; 0x0
    2ac4:	e3a09001 	mov	r9, #1	; 0x1
    2ac8:	e0053009 	and	r3, r5, r9
    2acc:	e006400a 	and	r4, r6, sl
    2ad0:	e193a004 	orrs	sl, r3, r4
    2ad4:	13a02031 	movne	r2, #49	; 0x31
    2ad8:	03a0202e 	moveq	r2, #46	; 0x2e
    2adc:	e28d3040 	add	r3, sp, #64	; 0x40
    2ae0:	e7c32001 	strb	r2, [r3, r1]
    2ae4:	e2811001 	add	r1, r1, #1	; 0x1
    2ae8:	e1510000 	cmp	r1, r0
    2aec:	baffffed 	blt	2aa8 <_ZL8_vprintfPFvcPPvES0_PKcS_+0x780>
    2af0:	e59d900c 	ldr	r9, [sp, #12]
    2af4:	e59da014 	ldr	sl, [sp, #20]
    2af8:	e06b9009 	rsb	r9, fp, r9
    2afc:	e58d900c 	str	r9, [sp, #12]
    2b00:	e58da038 	str	sl, [sp, #56]
    2b04:	e28d9040 	add	r9, sp, #64	; 0x40
    2b08:	eaffff57 	b	286c <_ZL8_vprintfPFvcPPvES0_PKcS_+0x544>
    2b0c:	e3a00025 	mov	r0, #37	; 0x25
    2b10:	e28d101c 	add	r1, sp, #28	; 0x1c
    2b14:	e8910006 	ldm	r1, {r1, r2}
    2b18:	e1a0e00f 	mov	lr, pc
    2b1c:	e12fff12 	bx	r2
    2b20:	e59d3034 	ldr	r3, [sp, #52]
    2b24:	e59d9014 	ldr	r9, [sp, #20]
    2b28:	e2833001 	add	r3, r3, #1	; 0x1
    2b2c:	e58d3034 	str	r3, [sp, #52]
    2b30:	e58d9038 	str	r9, [sp, #56]
    2b34:	e1a0a00b 	mov	sl, fp
    2b38:	eaffff28 	b	27e0 <_ZL8_vprintfPFvcPPvES0_PKcS_+0x4b8>
    2b3c:	e2443044 	sub	r3, r4, #68	; 0x44
    2b40:	e3530034 	cmp	r3, #52	; 0x34
    2b44:	979ff103 	ldrls	pc, [pc, r3, lsl #2]
    2b48:	ea0000b4 	b	2e20 <_ZL8_vprintfPFvcPPvES0_PKcS_+0xaf8>
    2b4c:	00002c5c 	.word	0x00002c5c
    2b50:	00002e20 	.word	0x00002e20
    2b54:	00002e20 	.word	0x00002e20
    2b58:	00002e20 	.word	0x00002e20
    2b5c:	00002e20 	.word	0x00002e20
    2b60:	00002e20 	.word	0x00002e20
    2b64:	00002e20 	.word	0x00002e20
    2b68:	00002e20 	.word	0x00002e20
    2b6c:	00002e20 	.word	0x00002e20
    2b70:	00002e20 	.word	0x00002e20
    2b74:	00002e20 	.word	0x00002e20
    2b78:	00002e20 	.word	0x00002e20
    2b7c:	00002e20 	.word	0x00002e20
    2b80:	00002e20 	.word	0x00002e20
    2b84:	00002e20 	.word	0x00002e20
    2b88:	00002e20 	.word	0x00002e20
    2b8c:	00002e20 	.word	0x00002e20
    2b90:	00002c5c 	.word	0x00002c5c
    2b94:	00002e20 	.word	0x00002e20
    2b98:	00002e20 	.word	0x00002e20
    2b9c:	00002c20 	.word	0x00002c20
    2ba0:	00002e20 	.word	0x00002e20
    2ba4:	00002e20 	.word	0x00002e20
    2ba8:	00002e20 	.word	0x00002e20
    2bac:	00002e20 	.word	0x00002e20
    2bb0:	00002e20 	.word	0x00002e20
    2bb4:	00002e20 	.word	0x00002e20
    2bb8:	00002e20 	.word	0x00002e20
    2bbc:	00002e20 	.word	0x00002e20
    2bc0:	00002e20 	.word	0x00002e20
    2bc4:	00002e20 	.word	0x00002e20
    2bc8:	00002e20 	.word	0x00002e20
    2bcc:	00002c5c 	.word	0x00002c5c
    2bd0:	00002e20 	.word	0x00002e20
    2bd4:	00002e20 	.word	0x00002e20
    2bd8:	00002e20 	.word	0x00002e20
    2bdc:	00002e20 	.word	0x00002e20
    2be0:	00002e20 	.word	0x00002e20
    2be4:	00002e20 	.word	0x00002e20
    2be8:	00002e20 	.word	0x00002e20
    2bec:	00002e20 	.word	0x00002e20
    2bf0:	00002e20 	.word	0x00002e20
    2bf4:	00002e20 	.word	0x00002e20
    2bf8:	00002e20 	.word	0x00002e20
    2bfc:	00002834 	.word	0x00002834
    2c00:	00002e20 	.word	0x00002e20
    2c04:	00002e20 	.word	0x00002e20
    2c08:	00002e20 	.word	0x00002e20
    2c0c:	00002e20 	.word	0x00002e20
    2c10:	00002c5c 	.word	0x00002c5c
    2c14:	00002e20 	.word	0x00002e20
    2c18:	00002e20 	.word	0x00002e20
    2c1c:	00002834 	.word	0x00002834
    2c20:	e59fc230 	ldr	ip, [pc, #560]	; 2e58 <_ZL8_vprintfPFvcPPvES0_PKcS_+0xb30>
    2c24:	e1a00007 	mov	r0, r7
    2c28:	e1a01008 	mov	r1, r8
    2c2c:	e28d2040 	add	r2, sp, #64	; 0x40
    2c30:	e3a03010 	mov	r3, #16	; 0x10
    2c34:	e58dc000 	str	ip, [sp]
    2c38:	ebfffc9c 	bl	1eb0 <_ZL4_cvtyPclS_>
    2c3c:	e59da00c 	ldr	sl, [sp, #12]
    2c40:	e1a0b000 	mov	fp, r0
    2c44:	e060a00a 	rsb	sl, r0, sl
    2c48:	e59d0014 	ldr	r0, [sp, #20]
    2c4c:	e58da00c 	str	sl, [sp, #12]
    2c50:	e58d0038 	str	r0, [sp, #56]
    2c54:	e28d9040 	add	r9, sp, #64	; 0x40
    2c58:	eaffff03 	b	286c <_ZL8_vprintfPFvcPPvES0_PKcS_+0x544>
    2c5c:	e59fc1f8 	ldr	ip, [pc, #504]	; 2e5c <_ZL8_vprintfPFvcPPvES0_PKcS_+0xb34>
    2c60:	e1a01008 	mov	r1, r8
    2c64:	e28d2040 	add	r2, sp, #64	; 0x40
    2c68:	e1a00007 	mov	r0, r7
    2c6c:	e3a0300a 	mov	r3, #10	; 0xa
    2c70:	e58dc000 	str	ip, [sp]
    2c74:	ebfffc8d 	bl	1eb0 <_ZL4_cvtyPclS_>
    2c78:	e59d100c 	ldr	r1, [sp, #12]
    2c7c:	e59d2014 	ldr	r2, [sp, #20]
    2c80:	e0601001 	rsb	r1, r0, r1
    2c84:	e1a0b000 	mov	fp, r0
    2c88:	e58d100c 	str	r1, [sp, #12]
    2c8c:	e58d2038 	str	r2, [sp, #56]
    2c90:	e28d9040 	add	r9, sp, #64	; 0x40
    2c94:	eafffef4 	b	286c <_ZL8_vprintfPFvcPPvES0_PKcS_+0x544>
    2c98:	e59d3010 	ldr	r3, [sp, #16]
    2c9c:	e1520003 	cmp	r2, r3
    2ca0:	1affff49 	bne	29cc <_ZL8_vprintfPFvcPPvES0_PKcS_+0x6a4>
    2ca4:	eaffff57 	b	2a08 <_ZL8_vprintfPFvcPPvES0_PKcS_+0x6e0>
    2ca8:	e35c0000 	cmp	ip, #0	; 0x0
    2cac:	13a08000 	movne	r8, #0	; 0x0
    2cb0:	158d3014 	strne	r3, [sp, #20]
    2cb4:	158d0024 	strne	r0, [sp, #36]
    2cb8:	1afffe5e 	bne	2638 <_ZL8_vprintfPFvcPPvES0_PKcS_+0x310>
    2cbc:	e3510000 	cmp	r1, #0	; 0x0
    2cc0:	03a08000 	moveq	r8, #0	; 0x0
    2cc4:	058d3014 	streq	r3, [sp, #20]
    2cc8:	058d1024 	streq	r1, [sp, #36]
    2ccc:	0afffe59 	beq	2638 <_ZL8_vprintfPFvcPPvES0_PKcS_+0x310>
    2cd0:	eafffe55 	b	262c <_ZL8_vprintfPFvcPPvES0_PKcS_+0x304>
    2cd4:	e35c0000 	cmp	ip, #0	; 0x0
    2cd8:	159d0014 	ldrne	r0, [sp, #20]
    2cdc:	059d9014 	ldreq	r9, [sp, #20]
    2ce0:	15903000 	ldrne	r3, [r0]
    2ce4:	05993000 	ldreq	r3, [r9]
    2ce8:	11a07003 	movne	r7, r3
    2cec:	11a08fc7 	asrne	r8, r7, #31
    2cf0:	01a07003 	moveq	r7, r3
    2cf4:	01a08fc7 	asreq	r8, r7, #31
    2cf8:	12803004 	addne	r3, r0, #4	; 0x4
    2cfc:	02893004 	addeq	r3, r9, #4	; 0x4
    2d00:	eafffe42 	b	2610 <_ZL8_vprintfPFvcPPvES0_PKcS_+0x2e8>
    2d04:	e1a03000 	mov	r3, r0
    2d08:	e4d34001 	ldrb	r4, [r3], #1
    2d0c:	e59d9028 	ldr	r9, [sp, #40]
    2d10:	e58d3018 	str	r3, [sp, #24]
    2d14:	e2443030 	sub	r3, r4, #48	; 0x30
    2d18:	e2899001 	add	r9, r9, #1	; 0x1
    2d1c:	e3530009 	cmp	r3, #9	; 0x9
    2d20:	e58d9028 	str	r9, [sp, #40]
    2d24:	8afffded 	bhi	24e0 <_ZL8_vprintfPFvcPPvES0_PKcS_+0x1b8>
    2d28:	e2801002 	add	r1, r0, #2	; 0x2
    2d2c:	e5514001 	ldrb	r4, [r1, #-1]
    2d30:	e2443030 	sub	r3, r4, #48	; 0x30
    2d34:	e3530009 	cmp	r3, #9	; 0x9
    2d38:	e58d1018 	str	r1, [sp, #24]
    2d3c:	e2811001 	add	r1, r1, #1	; 0x1
    2d40:	9afffff9 	bls	2d2c <_ZL8_vprintfPFvcPPvES0_PKcS_+0xa04>
    2d44:	e354006c 	cmp	r4, #108	; 0x6c
    2d48:	13a0c000 	movne	ip, #0	; 0x0
    2d4c:	11a0100c 	movne	r1, ip
    2d50:	1afffde6 	bne	24f0 <_ZL8_vprintfPFvcPPvES0_PKcS_+0x1c8>
    2d54:	e59da018 	ldr	sl, [sp, #24]
    2d58:	e4da4001 	ldrb	r4, [sl], #1
    2d5c:	e58da018 	str	sl, [sp, #24]
    2d60:	e354006c 	cmp	r4, #108	; 0x6c
    2d64:	059d0018 	ldreq	r0, [sp, #24]
    2d68:	04d04001 	ldrbeq	r4, [r0], #1
    2d6c:	03a0c001 	moveq	ip, #1	; 0x1
    2d70:	13a0c001 	movne	ip, #1	; 0x1
    2d74:	13a01000 	movne	r1, #0	; 0x0
    2d78:	058d0018 	streq	r0, [sp, #24]
    2d7c:	01a0100c 	moveq	r1, ip
    2d80:	eafffdda 	b	24f0 <_ZL8_vprintfPFvcPPvES0_PKcS_+0x1c8>
    2d84:	e1a00001 	mov	r0, r1
    2d88:	e28d101c 	add	r1, sp, #28	; 0x1c
    2d8c:	e8910006 	ldm	r1, {r1, r2}
    2d90:	e1a0e00f 	mov	lr, pc
    2d94:	e12fff12 	bx	r2
    2d98:	e59d3034 	ldr	r3, [sp, #52]
    2d9c:	e2833001 	add	r3, r3, #1	; 0x1
    2da0:	e58d3034 	str	r3, [sp, #52]
    2da4:	eafffedb 	b	2918 <_ZL8_vprintfPFvcPPvES0_PKcS_+0x5f0>
    2da8:	e3a0a02d 	mov	sl, #45	; 0x2d
    2dac:	e2777000 	rsbs	r7, r7, #0	; 0x0
    2db0:	e2e88000 	rsc	r8, r8, #0	; 0x0
    2db4:	e58d3014 	str	r3, [sp, #20]
    2db8:	e58da024 	str	sl, [sp, #36]
    2dbc:	eafffe1d 	b	2638 <_ZL8_vprintfPFvcPPvES0_PKcS_+0x310>
    2dc0:	e59d0024 	ldr	r0, [sp, #36]
    2dc4:	e28d101c 	add	r1, sp, #28	; 0x1c
    2dc8:	e8910402 	ldm	r1, {r1, sl}
    2dcc:	e1a0e00f 	mov	lr, pc
    2dd0:	e12fff1a 	bx	sl
    2dd4:	e59d0034 	ldr	r0, [sp, #52]
    2dd8:	e3a01000 	mov	r1, #0	; 0x0
    2ddc:	e2800001 	add	r0, r0, #1	; 0x1
    2de0:	e58d0034 	str	r0, [sp, #52]
    2de4:	e3a0a030 	mov	sl, #48	; 0x30
    2de8:	e58d1024 	str	r1, [sp, #36]
    2dec:	eafffead 	b	28a8 <_ZL8_vprintfPFvcPPvES0_PKcS_+0x580>
    2df0:	e59da00c 	ldr	sl, [sp, #12]
    2df4:	e24a0001 	sub	r0, sl, #1	; 0x1
    2df8:	e3500000 	cmp	r0, #0	; 0x0
    2dfc:	c1a0b00a 	movgt	fp, sl
    2e00:	caffff27 	bgt	2aa4 <_ZL8_vprintfPFvcPPvES0_PKcS_+0x77c>
    2e04:	e59d0014 	ldr	r0, [sp, #20]
    2e08:	e3a01000 	mov	r1, #0	; 0x0
    2e0c:	e59db00c 	ldr	fp, [sp, #12]
    2e10:	e58d0038 	str	r0, [sp, #56]
    2e14:	e28d9040 	add	r9, sp, #64	; 0x40
    2e18:	e58d100c 	str	r1, [sp, #12]
    2e1c:	eafffe92 	b	286c <_ZL8_vprintfPFvcPPvES0_PKcS_+0x544>
    2e20:	e59d200c 	ldr	r2, [sp, #12]
    2e24:	e59d3014 	ldr	r3, [sp, #20]
    2e28:	e06b2002 	rsb	r2, fp, r2
    2e2c:	e58d200c 	str	r2, [sp, #12]
    2e30:	e58d3038 	str	r3, [sp, #56]
    2e34:	e28d9040 	add	r9, sp, #64	; 0x40
    2e38:	eafffe8b 	b	286c <_ZL8_vprintfPFvcPPvES0_PKcS_+0x544>
    2e3c:	0000f60c 	.word	0x0000f60c
    2e40:	0000f624 	.word	0x0000f624
    2e44:	0000f628 	.word	0x0000f628
    2e48:	0000f638 	.word	0x0000f638
    2e4c:	0000f64c 	.word	0x0000f64c
    2e50:	0000f654 	.word	0x0000f654
    2e54:	0000f668 	.word	0x0000f668
    2e58:	0000f5f8 	.word	0x0000f5f8
    2e5c:	0000f62c 	.word	0x0000f62c

00002e60 <diag_vprintf>:
    2e60:	e1a03001 	mov	r3, r1
    2e64:	e59f100c 	ldr	r1, [pc, #12]	; 2e78 <diag_vprintf+0x18>
    2e68:	e1a02000 	mov	r2, r0
    2e6c:	e5910000 	ldr	r0, [r1]
    2e70:	e3a01000 	mov	r1, #0	; 0x0
    2e74:	eafffd2b 	b	2328 <_ZL8_vprintfPFvcPPvES0_PKcS_>
    2e78:	400007bc 	.word	0x400007bc

00002e7c <diag_printf>:
    2e7c:	e92d000f 	push	{r0, r1, r2, r3}
    2e80:	e52de004 	push	{lr}		; (str lr, [sp, #-4]!)
    2e84:	e59f3024 	ldr	r3, [pc, #36]	; 2eb0 <diag_printf+0x34>
    2e88:	e24dd004 	sub	sp, sp, #4	; 0x4
    2e8c:	e5930000 	ldr	r0, [r3]
    2e90:	e3a01000 	mov	r1, #0	; 0x0
    2e94:	e59d2008 	ldr	r2, [sp, #8]
    2e98:	e28d300c 	add	r3, sp, #12	; 0xc
    2e9c:	ebfffd21 	bl	2328 <_ZL8_vprintfPFvcPPvES0_PKcS_>
    2ea0:	e28dd004 	add	sp, sp, #4	; 0x4
    2ea4:	e49de004 	pop	{lr}		; (ldr lr, [sp], #4)
    2ea8:	e28dd010 	add	sp, sp, #16	; 0x10
    2eac:	e12fff1e 	bx	lr
    2eb0:	400007bc 	.word	0x400007bc

00002eb4 <diag_dump_buf_with_offset_16bit>:
    2eb4:	e92d45f0 	push	{r4, r5, r6, r7, r8, sl, lr}
    2eb8:	e1500001 	cmp	r0, r1
    2ebc:	e1a07001 	mov	r7, r1
    2ec0:	30607001 	rsbcc	r7, r0, r1
    2ec4:	e3570000 	cmp	r7, #0	; 0x0
    2ec8:	e24dd004 	sub	sp, sp, #4	; 0x4
    2ecc:	e1a06000 	mov	r6, r0
    2ed0:	e1a0a002 	mov	sl, r2
    2ed4:	da000029 	ble	2f80 <diag_dump_buf_with_offset_16bit+0xcc>
    2ed8:	e35a0000 	cmp	sl, #0	; 0x0
    2edc:	e0628000 	rsb	r8, r2, r0
    2ee0:	0a00001e 	beq	2f60 <diag_dump_buf_with_offset_16bit+0xac>
    2ee4:	e1a01008 	mov	r1, r8
    2ee8:	e59f0098 	ldr	r0, [pc, #152]	; 2f88 <diag_dump_buf_with_offset_16bit+0xd4>
    2eec:	ebffffe2 	bl	2e7c <diag_printf>
    2ef0:	e1a050c7 	asr	r5, r7, #1
    2ef4:	e3a04000 	mov	r4, #0	; 0x0
    2ef8:	ea000006 	b	2f18 <diag_dump_buf_with_offset_16bit+0x64>
    2efc:	e19610b3 	ldrh	r1, [r6, r3]
    2f00:	ebffffdd 	bl	2e7c <diag_printf>
    2f04:	e3540003 	cmp	r4, #3	; 0x3
    2f08:	0a000018 	beq	2f70 <diag_dump_buf_with_offset_16bit+0xbc>
    2f0c:	e2844001 	add	r4, r4, #1	; 0x1
    2f10:	e3540007 	cmp	r4, #7	; 0x7
    2f14:	ca000008 	bgt	2f3c <diag_dump_buf_with_offset_16bit+0x88>
    2f18:	e1550004 	cmp	r5, r4
    2f1c:	e1a03084 	lsl	r3, r4, #1
    2f20:	e59f0064 	ldr	r0, [pc, #100]	; 2f8c <diag_dump_buf_with_offset_16bit+0xd8>
    2f24:	cafffff4 	bgt	2efc <diag_dump_buf_with_offset_16bit+0x48>
    2f28:	e59f0060 	ldr	r0, [pc, #96]	; 2f90 <diag_dump_buf_with_offset_16bit+0xdc>
    2f2c:	e2844001 	add	r4, r4, #1	; 0x1
    2f30:	ebffffd1 	bl	2e7c <diag_printf>
    2f34:	e3540007 	cmp	r4, #7	; 0x7
    2f38:	dafffff6 	ble	2f18 <diag_dump_buf_with_offset_16bit+0x64>
    2f3c:	e2477010 	sub	r7, r7, #16	; 0x10
    2f40:	e59f004c 	ldr	r0, [pc, #76]	; 2f94 <diag_dump_buf_with_offset_16bit+0xe0>
    2f44:	ebffffcc 	bl	2e7c <diag_printf>
    2f48:	e3570000 	cmp	r7, #0	; 0x0
    2f4c:	e2888010 	add	r8, r8, #16	; 0x10
    2f50:	da00000a 	ble	2f80 <diag_dump_buf_with_offset_16bit+0xcc>
    2f54:	e35a0000 	cmp	sl, #0	; 0x0
    2f58:	e2866010 	add	r6, r6, #16	; 0x10
    2f5c:	1affffe0 	bne	2ee4 <diag_dump_buf_with_offset_16bit+0x30>
    2f60:	e1a01006 	mov	r1, r6
    2f64:	e59f001c 	ldr	r0, [pc, #28]	; 2f88 <diag_dump_buf_with_offset_16bit+0xd4>
    2f68:	ebffffc3 	bl	2e7c <diag_printf>
    2f6c:	eaffffdf 	b	2ef0 <diag_dump_buf_with_offset_16bit+0x3c>
    2f70:	e59f0020 	ldr	r0, [pc, #32]	; 2f98 <diag_dump_buf_with_offset_16bit+0xe4>
    2f74:	ebffffc0 	bl	2e7c <diag_printf>
    2f78:	e2844001 	add	r4, r4, #1	; 0x1
    2f7c:	eaffffe5 	b	2f18 <diag_dump_buf_with_offset_16bit+0x64>
    2f80:	e28dd004 	add	sp, sp, #4	; 0x4
    2f84:	e8bd85f0 	pop	{r4, r5, r6, r7, r8, sl, pc}
    2f88:	0000f5d8 	.word	0x0000f5d8
    2f8c:	0000f66c 	.word	0x0000f66c
    2f90:	0000f684 	.word	0x0000f684
    2f94:	0000f674 	.word	0x0000f674
    2f98:	0000f688 	.word	0x0000f688

00002f9c <diag_dump_buf_16bit>:
    2f9c:	e3a02000 	mov	r2, #0	; 0x0
    2fa0:	eaffffc3 	b	2eb4 <diag_dump_buf_with_offset_16bit>

00002fa4 <diag_dump_buf_with_offset_32bit>:
    2fa4:	e92d45f0 	push	{r4, r5, r6, r7, r8, sl, lr}
    2fa8:	e1500001 	cmp	r0, r1
    2fac:	e1a07001 	mov	r7, r1
    2fb0:	30607001 	rsbcc	r7, r0, r1
    2fb4:	e3570000 	cmp	r7, #0	; 0x0
    2fb8:	e24dd004 	sub	sp, sp, #4	; 0x4
    2fbc:	e1a06000 	mov	r6, r0
    2fc0:	e1a0a002 	mov	sl, r2
    2fc4:	da000022 	ble	3054 <diag_dump_buf_with_offset_32bit+0xb0>
    2fc8:	e35a0000 	cmp	sl, #0	; 0x0
    2fcc:	e0628000 	rsb	r8, r2, r0
    2fd0:	0a00001b 	beq	3044 <diag_dump_buf_with_offset_32bit+0xa0>
    2fd4:	e1a01008 	mov	r1, r8
    2fd8:	e59f007c 	ldr	r0, [pc, #124]	; 305c <diag_dump_buf_with_offset_32bit+0xb8>
    2fdc:	ebffffa6 	bl	2e7c <diag_printf>
    2fe0:	e1a05147 	asr	r5, r7, #2
    2fe4:	e3a04000 	mov	r4, #0	; 0x0
    2fe8:	ea000004 	b	3000 <diag_dump_buf_with_offset_32bit+0x5c>
    2fec:	e7961104 	ldr	r1, [r6, r4, lsl #2]
    2ff0:	e2844001 	add	r4, r4, #1	; 0x1
    2ff4:	ebffffa0 	bl	2e7c <diag_printf>
    2ff8:	e3540004 	cmp	r4, #4	; 0x4
    2ffc:	0a000007 	beq	3020 <diag_dump_buf_with_offset_32bit+0x7c>
    3000:	e1550004 	cmp	r5, r4
    3004:	e59f0054 	ldr	r0, [pc, #84]	; 3060 <diag_dump_buf_with_offset_32bit+0xbc>
    3008:	cafffff7 	bgt	2fec <diag_dump_buf_with_offset_32bit+0x48>
    300c:	e59f0050 	ldr	r0, [pc, #80]	; 3064 <diag_dump_buf_with_offset_32bit+0xc0>
    3010:	e2844001 	add	r4, r4, #1	; 0x1
    3014:	ebffff98 	bl	2e7c <diag_printf>
    3018:	e3540004 	cmp	r4, #4	; 0x4
    301c:	1afffff7 	bne	3000 <diag_dump_buf_with_offset_32bit+0x5c>
    3020:	e2477010 	sub	r7, r7, #16	; 0x10
    3024:	e59f003c 	ldr	r0, [pc, #60]	; 3068 <diag_dump_buf_with_offset_32bit+0xc4>
    3028:	ebffff93 	bl	2e7c <diag_printf>
    302c:	e3570000 	cmp	r7, #0	; 0x0
    3030:	e2888010 	add	r8, r8, #16	; 0x10
    3034:	da000006 	ble	3054 <diag_dump_buf_with_offset_32bit+0xb0>
    3038:	e35a0000 	cmp	sl, #0	; 0x0
    303c:	e2866010 	add	r6, r6, #16	; 0x10
    3040:	1affffe3 	bne	2fd4 <diag_dump_buf_with_offset_32bit+0x30>
    3044:	e1a01006 	mov	r1, r6
    3048:	e59f000c 	ldr	r0, [pc, #12]	; 305c <diag_dump_buf_with_offset_32bit+0xb8>
    304c:	ebffff8a 	bl	2e7c <diag_printf>
    3050:	eaffffe2 	b	2fe0 <diag_dump_buf_with_offset_32bit+0x3c>
    3054:	e28dd004 	add	sp, sp, #4	; 0x4
    3058:	e8bd85f0 	pop	{r4, r5, r6, r7, r8, sl, pc}
    305c:	0000f5d8 	.word	0x0000f5d8
    3060:	0000f678 	.word	0x0000f678
    3064:	0000f680 	.word	0x0000f680
    3068:	0000f674 	.word	0x0000f674

0000306c <diag_dump_buf_32bit>:
    306c:	e3a02000 	mov	r2, #0	; 0x0
    3070:	eaffffcb 	b	2fa4 <diag_dump_buf_with_offset_32bit>

00003074 <diag_vsprintf>:
    3074:	e92d4010 	push	{r4, lr}
    3078:	e24dd010 	sub	sp, sp, #16	; 0x10
    307c:	e1a03002 	mov	r3, r2
    3080:	e58d0004 	str	r0, [sp, #4]
    3084:	e1a02001 	mov	r2, r1
    3088:	e3a0cb01 	mov	ip, #1024	; 0x400
    308c:	e28d1004 	add	r1, sp, #4	; 0x4
    3090:	e3a04000 	mov	r4, #0	; 0x0
    3094:	e59f0014 	ldr	r0, [pc, #20]	; 30b0 <diag_vsprintf+0x3c>
    3098:	e58dc008 	str	ip, [sp, #8]
    309c:	e58d400c 	str	r4, [sp, #12]
    30a0:	ebfffca0 	bl	2328 <_ZL8_vprintfPFvcPPvES0_PKcS_>
    30a4:	e59d000c 	ldr	r0, [sp, #12]
    30a8:	e28dd010 	add	sp, sp, #16	; 0x10
    30ac:	e8bd8010 	pop	{r4, pc}
    30b0:	00001f80 	.word	0x00001f80

000030b4 <diag_snprintf>:
    30b4:	e92d000c 	push	{r2, r3}
    30b8:	e92d4010 	push	{r4, lr}
    30bc:	e24dd010 	sub	sp, sp, #16	; 0x10
    30c0:	e58d0004 	str	r0, [sp, #4]
    30c4:	e2414001 	sub	r4, r1, #1	; 0x1
    30c8:	e3a0c000 	mov	ip, #0	; 0x0
    30cc:	e28d1004 	add	r1, sp, #4	; 0x4
    30d0:	e59d2018 	ldr	r2, [sp, #24]
    30d4:	e28d301c 	add	r3, sp, #28	; 0x1c
    30d8:	e59f001c 	ldr	r0, [pc, #28]	; 30fc <diag_snprintf+0x48>
    30dc:	e58dc00c 	str	ip, [sp, #12]
    30e0:	e58d4008 	str	r4, [sp, #8]
    30e4:	ebfffc8f 	bl	2328 <_ZL8_vprintfPFvcPPvES0_PKcS_>
    30e8:	e59d000c 	ldr	r0, [sp, #12]
    30ec:	e28dd010 	add	sp, sp, #16	; 0x10
    30f0:	e8bd4010 	pop	{r4, lr}
    30f4:	e28dd008 	add	sp, sp, #8	; 0x8
    30f8:	e12fff1e 	bx	lr
    30fc:	00001f80 	.word	0x00001f80

00003100 <diag_sprintf>:
    3100:	e92d000e 	push	{r1, r2, r3}
    3104:	e92d4010 	push	{r4, lr}
    3108:	e24dd014 	sub	sp, sp, #20	; 0x14
    310c:	e58d0004 	str	r0, [sp, #4]
    3110:	e3a0cb01 	mov	ip, #1024	; 0x400
    3114:	e28d1004 	add	r1, sp, #4	; 0x4
    3118:	e59d201c 	ldr	r2, [sp, #28]
    311c:	e28d3020 	add	r3, sp, #32	; 0x20
    3120:	e3a04000 	mov	r4, #0	; 0x0
    3124:	e59f001c 	ldr	r0, [pc, #28]	; 3148 <diag_sprintf+0x48>
    3128:	e58dc008 	str	ip, [sp, #8]
    312c:	e58d400c 	str	r4, [sp, #12]
    3130:	ebfffc7c 	bl	2328 <_ZL8_vprintfPFvcPPvES0_PKcS_>
    3134:	e59d000c 	ldr	r0, [sp, #12]
    3138:	e28dd014 	add	sp, sp, #20	; 0x14
    313c:	e8bd4010 	pop	{r4, lr}
    3140:	e28dd00c 	add	sp, sp, #12	; 0xc
    3144:	e12fff1e 	bx	lr
    3148:	00001f80 	.word	0x00001f80

0000314c <cyg_scheduler_lock>:
    314c:	e59f200c 	ldr	r2, [pc, #12]	; 3160 <cyg_scheduler_lock+0x14>
    3150:	e5923000 	ldr	r3, [r2]
    3154:	e2833001 	add	r3, r3, #1	; 0x1
    3158:	e5823000 	str	r3, [r2]
    315c:	e12fff1e 	bx	lr
    3160:	400007c8 	.word	0x400007c8

00003164 <cyg_scheduler_read_lock>:
    3164:	e59f3004 	ldr	r3, [pc, #4]	; 3170 <cyg_scheduler_read_lock+0xc>
    3168:	e5930000 	ldr	r0, [r3]
    316c:	e12fff1e 	bx	lr
    3170:	400007c8 	.word	0x400007c8

00003174 <cyg_thread_self>:
    3174:	e59f3004 	ldr	r3, [pc, #4]	; 3180 <cyg_thread_self+0xc>
    3178:	e5930000 	ldr	r0, [r3]
    317c:	e12fff1e 	bx	lr
    3180:	40002538 	.word	0x40002538

00003184 <cyg_thread_get_id>:
    3184:	e1d004bc 	ldrh	r0, [r0, #76]
    3188:	e12fff1e 	bx	lr

0000318c <cyg_thread_idle_thread>:
    318c:	e59f0000 	ldr	r0, [pc, #0]	; 3194 <cyg_thread_idle_thread+0x8>
    3190:	e12fff1e 	bx	lr
    3194:	40001c70 	.word	0x40001c70

00003198 <cyg_thread_get_priority>:
    3198:	e5903038 	ldr	r3, [r0, #56]
    319c:	e3530000 	cmp	r3, #0	; 0x0
    31a0:	15900034 	ldrne	r0, [r0, #52]
    31a4:	05900024 	ldreq	r0, [r0, #36]
    31a8:	e12fff1e 	bx	lr

000031ac <cyg_thread_get_current_priority>:
    31ac:	e5900024 	ldr	r0, [r0, #36]
    31b0:	e12fff1e 	bx	lr

000031b4 <cyg_thread_deadline_wait>:
    31b4:	e12fff1e 	bx	lr

000031b8 <cyg_thread_get_stack_base>:
    31b8:	e5900000 	ldr	r0, [r0]
    31bc:	e12fff1e 	bx	lr

000031c0 <cyg_thread_get_stack_size>:
    31c0:	e5900004 	ldr	r0, [r0, #4]
    31c4:	e12fff1e 	bx	lr

000031c8 <cyg_thread_get_data>:
    31c8:	e59f2014 	ldr	r2, [pc, #20]	; 31e4 <cyg_thread_get_data+0x1c>
    31cc:	e2800020 	add	r0, r0, #32	; 0x20
    31d0:	e5923000 	ldr	r3, [r2]
    31d4:	e1a00100 	lsl	r0, r0, #2
    31d8:	e0833000 	add	r3, r3, r0
    31dc:	e5930004 	ldr	r0, [r3, #4]
    31e0:	e12fff1e 	bx	lr
    31e4:	40002538 	.word	0x40002538

000031e8 <cyg_thread_get_data_ptr>:
    31e8:	e59f2014 	ldr	r2, [pc, #20]	; 3204 <cyg_thread_get_data_ptr+0x1c>
    31ec:	e2800020 	add	r0, r0, #32	; 0x20
    31f0:	e5923000 	ldr	r3, [r2]
    31f4:	e1a00100 	lsl	r0, r0, #2
    31f8:	e0833000 	add	r3, r3, r0
    31fc:	e2830004 	add	r0, r3, #4	; 0x4
    3200:	e12fff1e 	bx	lr
    3204:	40002538 	.word	0x40002538

00003208 <cyg_thread_set_data>:
    3208:	e59f2014 	ldr	r2, [pc, #20]	; 3224 <cyg_thread_set_data+0x1c>
    320c:	e2800020 	add	r0, r0, #32	; 0x20
    3210:	e5923000 	ldr	r3, [r2]
    3214:	e1a00100 	lsl	r0, r0, #2
    3218:	e0833000 	add	r3, r3, r0
    321c:	e5831004 	str	r1, [r3, #4]
    3220:	e12fff1e 	bx	lr
    3224:	40002538 	.word	0x40002538

00003228 <cyg_interrupt_set_cpu>:
    3228:	e12fff1e 	bx	lr

0000322c <cyg_interrupt_get_cpu>:
    322c:	e3a00000 	mov	r0, #0	; 0x0
    3230:	e12fff1e 	bx	lr

00003234 <cyg_counter_current_value>:
    3234:	e52d4004 	push	{r4}		; (str r4, [sp, #-4]!)
    3238:	e2803008 	add	r3, r0, #8	; 0x8
    323c:	e8930018 	ldm	r3, {r3, r4}
    3240:	e1a01004 	mov	r1, r4
    3244:	e1a00003 	mov	r0, r3
    3248:	e8bd0010 	pop	{r4}
    324c:	e12fff1e 	bx	lr

00003250 <cyg_counter_set_value>:
    3250:	e5802008 	str	r2, [r0, #8]
    3254:	e580300c 	str	r3, [r0, #12]
    3258:	e12fff1e 	bx	lr

0000325c <cyg_clock_to_counter>:
    325c:	e5810000 	str	r0, [r1]
    3260:	e12fff1e 	bx	lr

00003264 <cyg_clock_set_resolution>:
    3264:	e24dd008 	sub	sp, sp, #8	; 0x8
    3268:	e88d0006 	stm	sp, {r1, r2}
    326c:	e5801014 	str	r1, [r0, #20]
    3270:	e5802018 	str	r2, [r0, #24]
    3274:	e28dd008 	add	sp, sp, #8	; 0x8
    3278:	e12fff1e 	bx	lr

0000327c <cyg_clock_get_resolution>:
    327c:	e591c014 	ldr	ip, [r1, #20]
    3280:	e5912018 	ldr	r2, [r1, #24]
    3284:	e580c000 	str	ip, [r0]
    3288:	e5802004 	str	r2, [r0, #4]
    328c:	e12fff1e 	bx	lr

00003290 <cyg_real_time_clock>:
    3290:	e59f3004 	ldr	r3, [pc, #4]	; 329c <cyg_real_time_clock+0xc>
    3294:	e5930000 	ldr	r0, [r3]
    3298:	e12fff1e 	bx	lr
    329c:	40004678 	.word	0x40004678

000032a0 <cyg_current_time>:
    32a0:	e59f301c 	ldr	r3, [pc, #28]	; 32c4 <cyg_current_time+0x24>
    32a4:	e5932000 	ldr	r2, [r3]
    32a8:	e92d0030 	push	{r4, r5}
    32ac:	e2824008 	add	r4, r2, #8	; 0x8
    32b0:	e8940030 	ldm	r4, {r4, r5}
    32b4:	e1a01005 	mov	r1, r5
    32b8:	e1a00004 	mov	r0, r4
    32bc:	e8bd0030 	pop	{r4, r5}
    32c0:	e12fff1e 	bx	lr
    32c4:	40004678 	.word	0x40004678

000032c8 <cyg_mbox_peek>:
    32c8:	e5900004 	ldr	r0, [r0, #4]
    32cc:	e12fff1e 	bx	lr

000032d0 <cyg_mbox_waiting_to_get>:
    32d0:	e5900008 	ldr	r0, [r0, #8]
    32d4:	e2500000 	subs	r0, r0, #0	; 0x0
    32d8:	13a00001 	movne	r0, #1	; 0x1
    32dc:	e12fff1e 	bx	lr

000032e0 <cyg_mbox_waiting_to_put>:
    32e0:	e590000c 	ldr	r0, [r0, #12]
    32e4:	e2500000 	subs	r0, r0, #0	; 0x0
    32e8:	13a00001 	movne	r0, #1	; 0x1
    32ec:	e12fff1e 	bx	lr

000032f0 <cyg_flag_peek>:
    32f0:	e5900000 	ldr	r0, [r0]
    32f4:	e12fff1e 	bx	lr

000032f8 <cyg_flag_waiting>:
    32f8:	e5900004 	ldr	r0, [r0, #4]
    32fc:	e2500000 	subs	r0, r0, #0	; 0x0
    3300:	13a00001 	movne	r0, #1	; 0x1
    3304:	e12fff1e 	bx	lr

00003308 <cyg_spinlock_init>:
    3308:	e3a03000 	mov	r3, #0	; 0x0
    330c:	e3510000 	cmp	r1, #0	; 0x0
    3310:	e5803000 	str	r3, [r0]
    3314:	12833001 	addne	r3, r3, #1	; 0x1
    3318:	15803000 	strne	r3, [r0]
    331c:	e12fff1e 	bx	lr

00003320 <cyg_spinlock_destroy>:
    3320:	e12fff1e 	bx	lr

00003324 <cyg_spinlock_spin>:
    3324:	e3a03001 	mov	r3, #1	; 0x1
    3328:	e5803000 	str	r3, [r0]
    332c:	e12fff1e 	bx	lr

00003330 <cyg_spinlock_clear>:
    3330:	e3a03000 	mov	r3, #0	; 0x0
    3334:	e5803000 	str	r3, [r0]
    3338:	e12fff1e 	bx	lr

0000333c <cyg_spinlock_try>:
    333c:	e5903000 	ldr	r3, [r0]
    3340:	e3530000 	cmp	r3, #0	; 0x0
    3344:	03a03001 	moveq	r3, #1	; 0x1
    3348:	05803000 	streq	r3, [r0]
    334c:	13a00000 	movne	r0, #0	; 0x0
    3350:	01a00003 	moveq	r0, r3
    3354:	e12fff1e 	bx	lr

00003358 <cyg_spinlock_test>:
    3358:	e5900000 	ldr	r0, [r0]
    335c:	e12fff1e 	bx	lr

00003360 <cyg_spinlock_spin_intsave>:
    3360:	e52d4004 	push	{r4}		; (str r4, [sp, #-4]!)
    3364:	e10f3000 	mrs	r3, CPSR
    3368:	e10f4000 	mrs	r4, CPSR
    336c:	e38440c0 	orr	r4, r4, #192	; 0xc0
    3370:	e129f004 	msr	CPSR_fc, r4
    3374:	e3a02001 	mov	r2, #1	; 0x1
    3378:	e5813000 	str	r3, [r1]
    337c:	e5802000 	str	r2, [r0]
    3380:	e8bd0010 	pop	{r4}
    3384:	e12fff1e 	bx	lr

00003388 <cyg_spinlock_clear_intsave>:
    3388:	e3a02000 	mov	r2, #0	; 0x0
    338c:	e52d4004 	push	{r4}		; (str r4, [sp, #-4]!)
    3390:	e5802000 	str	r2, [r0]
    3394:	e10f3000 	mrs	r3, CPSR
    3398:	e20140c0 	and	r4, r1, #192	; 0xc0
    339c:	e3c330c0 	bic	r3, r3, #192	; 0xc0
    33a0:	e1833004 	orr	r3, r3, r4
    33a4:	e129f003 	msr	CPSR_fc, r3
    33a8:	e8bd0010 	pop	{r4}
    33ac:	e12fff1e 	bx	lr

000033b0 <cyg_cond_timed_wait>:
    33b0:	e5901000 	ldr	r1, [r0]
    33b4:	ea00101d 	b	7430 <_ZN22Cyg_Condition_Variable10wait_innerEP9Cyg_Mutexy>

000033b8 <cyg_cond_broadcast>:
    33b8:	ea000f90 	b	7200 <_ZN22Cyg_Condition_Variable9broadcastEv>

000033bc <cyg_cond_signal>:
    33bc:	ea000fac 	b	7274 <_ZN22Cyg_Condition_Variable6signalEv>

000033c0 <cyg_cond_wait>:
    33c0:	e5901000 	ldr	r1, [r0]
    33c4:	ea00105b 	b	7538 <_ZN22Cyg_Condition_Variable10wait_innerEP9Cyg_Mutex>

000033c8 <cyg_cond_destroy>:
    33c8:	ea000ed2 	b	6f18 <_ZN22Cyg_Condition_VariableD1Ev>

000033cc <cyg_cond_init>:
    33cc:	ea000eb6 	b	6eac <_ZN22Cyg_Condition_VariableC1ER9Cyg_Mutex>

000033d0 <cyg_mutex_set_protocol>:
    33d0:	ea000f6a 	b	7180 <_ZN9Cyg_Mutex12set_protocolENS_11cyg_protcolE>

000033d4 <cyg_mutex_set_ceiling>:
    33d4:	ea000f79 	b	71c0 <_ZN9Cyg_Mutex11set_ceilingEi>

000033d8 <cyg_mutex_release>:
    33d8:	ea000fbd 	b	72d4 <_ZN9Cyg_Mutex7releaseEv>

000033dc <cyg_mutex_unlock>:
    33dc:	ea000fd5 	b	7338 <_ZN9Cyg_Mutex6unlockEv>

000033e0 <cyg_mutex_trylock>:
    33e0:	ea000f3d 	b	70dc <_ZN9Cyg_Mutex7trylockEv>

000033e4 <cyg_mutex_lock>:
    33e4:	ea000edb 	b	6f58 <_ZN9Cyg_Mutex4lockEv>

000033e8 <cyg_mutex_destroy>:
    33e8:	ea000e9a 	b	6e58 <_ZN9Cyg_MutexD1Ev>

000033ec <cyg_mutex_init>:
    33ec:	ea000e72 	b	6dbc <_ZN9Cyg_MutexC1Ev>

000033f0 <cyg_flag_poll>:
    33f0:	e3510000 	cmp	r1, #0	; 0x0
    33f4:	0a000001 	beq	3400 <cyg_flag_poll+0x10>
    33f8:	e31200fc 	tst	r2, #252	; 0xfc
    33fc:	0a000001 	beq	3408 <cyg_flag_poll+0x18>
    3400:	e3a00000 	mov	r0, #0	; 0x0
    3404:	e12fff1e 	bx	lr
    3408:	ea000aff 	b	600c <_ZN8Cyg_Flag4pollEjh>

0000340c <cyg_flag_timed_wait>:
    340c:	e52d4004 	push	{r4}		; (str r4, [sp, #-4]!)
    3410:	e3510000 	cmp	r1, #0	; 0x0
    3414:	e99d0018 	ldmib	sp, {r3, r4}
    3418:	0a000001 	beq	3424 <cyg_flag_timed_wait+0x18>
    341c:	e31200fc 	tst	r2, #252	; 0xfc
    3420:	0a000002 	beq	3430 <cyg_flag_timed_wait+0x24>
    3424:	e3a00000 	mov	r0, #0	; 0x0
    3428:	e8bd0010 	pop	{r4}
    342c:	e12fff1e 	bx	lr
    3430:	e8bd0010 	pop	{r4}
    3434:	ea000be7 	b	63d8 <_ZN8Cyg_Flag4waitEjhy>

00003438 <cyg_flag_wait>:
    3438:	e3510000 	cmp	r1, #0	; 0x0
    343c:	0a000001 	beq	3448 <cyg_flag_wait+0x10>
    3440:	e31200fc 	tst	r2, #252	; 0xfc
    3444:	0a000001 	beq	3450 <cyg_flag_wait+0x18>
    3448:	e3a00000 	mov	r0, #0	; 0x0
    344c:	e12fff1e 	bx	lr
    3450:	ea000b9c 	b	62c8 <_ZN8Cyg_Flag4waitEjh>

00003454 <cyg_flag_maskbits>:
    3454:	ea000b13 	b	60a8 <_ZN8Cyg_Flag8maskbitsEj>

00003458 <cyg_flag_setbits>:
    3458:	ea000b24 	b	60f0 <_ZN8Cyg_Flag7setbitsEj>

0000345c <cyg_flag_destroy>:
    345c:	ea000b6c 	b	6214 <_ZN8Cyg_FlagD1Ev>

00003460 <cyg_flag_init>:
    3460:	e3a01000 	mov	r1, #0	; 0x0
    3464:	ea000ab8 	b	5f4c <_ZN8Cyg_FlagC1Ej>

00003468 <cyg_semaphore_peek>:
    3468:	e92d4010 	push	{r4, lr}
    346c:	e1a04001 	mov	r4, r1
    3470:	eb0009ef 	bl	5c34 <_ZNK22Cyg_Counting_Semaphore4peekEv>
    3474:	e5840000 	str	r0, [r4]
    3478:	e8bd8010 	pop	{r4, pc}

0000347c <cyg_semaphore_post>:
    347c:	ea000a7e 	b	5e7c <_ZN22Cyg_Counting_Semaphore4postEv>

00003480 <cyg_semaphore_trywait>:
    3480:	ea000a98 	b	5ee8 <_ZN22Cyg_Counting_Semaphore7trywaitEv>

00003484 <cyg_semaphore_timed_wait>:
    3484:	ea000a25 	b	5d20 <_ZN22Cyg_Counting_Semaphore4waitEy>

00003488 <cyg_semaphore_wait>:
    3488:	ea0009eb 	b	5c3c <_ZN22Cyg_Counting_Semaphore4waitEv>

0000348c <cyg_semaphore_destroy>:
    348c:	ea0009d8 	b	5bf4 <_ZN22Cyg_Counting_SemaphoreD1Ev>

00003490 <cyg_semaphore_init>:
    3490:	ea0009c4 	b	5ba8 <_ZN22Cyg_Counting_SemaphoreC1Ei>

00003494 <cyg_mbox_tryput>:
    3494:	ea000cef 	b	6858 <_ZN8Cyg_Mbox6tryputEPv>

00003498 <cyg_mbox_timed_put>:
    3498:	ea000d65 	b	6a34 <_ZN8Cyg_Mbox3putEPvy>

0000349c <cyg_mbox_put>:
    349c:	ea000d1a 	b	690c <_ZN8Cyg_Mbox3putEPv>

000034a0 <cyg_mbox_peek_item>:
    34a0:	ea000c6e 	b	6660 <_ZN8Cyg_Mbox9peek_itemEv>

000034a4 <cyg_mbox_tryget>:
    34a4:	ea000dc1 	b	6bb0 <_ZN8Cyg_Mbox6trygetEv>

000034a8 <cyg_mbox_timed_get>:
    34a8:	ea000c88 	b	66d0 <_ZN8Cyg_Mbox3getEy>

000034ac <cyg_mbox_get>:
    34ac:	ea000dee 	b	6c6c <_ZN8Cyg_Mbox3getEv>

000034b0 <cyg_mbox_delete>:
    34b0:	ea000c4b 	b	65e4 <_ZN8Cyg_MboxD1Ev>

000034b4 <cyg_mbox_create>:
    34b4:	e92d4030 	push	{r4, r5, lr}
    34b8:	e1a04001 	mov	r4, r1
    34bc:	e1a05000 	mov	r5, r0
    34c0:	e24dd004 	sub	sp, sp, #4	; 0x4
    34c4:	e1a00001 	mov	r0, r1
    34c8:	eb000c20 	bl	6550 <_ZN8Cyg_MboxC1Ev>
    34cc:	e5854000 	str	r4, [r5]
    34d0:	e28dd004 	add	sp, sp, #4	; 0x4
    34d4:	e8bd8030 	pop	{r4, r5, pc}

000034d8 <cyg_alarm_disable>:
    34d8:	ea001f29 	b	b184 <_ZN9Cyg_Alarm7disableEv>

000034dc <cyg_alarm_enable>:
    34dc:	ea001f57 	b	b240 <_ZN9Cyg_Alarm6enableEv>

000034e0 <cyg_alarm_get_times>:
    34e0:	ea001f11 	b	b12c <_ZN9Cyg_Alarm9get_timesEPyS0_>

000034e4 <cyg_alarm_initialize>:
    34e4:	ea001e8f 	b	af28 <_ZN9Cyg_Alarm10initializeEyy>

000034e8 <cyg_alarm_delete>:
    34e8:	ea001f38 	b	b1d0 <_ZN9Cyg_AlarmD1Ev>

000034ec <cyg_alarm_create>:
    34ec:	e92d4030 	push	{r4, r5, lr}
    34f0:	e24dd004 	sub	sp, sp, #4	; 0x4
    34f4:	e59d5010 	ldr	r5, [sp, #16]
    34f8:	e1a0c001 	mov	ip, r1
    34fc:	e1a0e002 	mov	lr, r2
    3500:	e1a04003 	mov	r4, r3
    3504:	e1a01000 	mov	r1, r0
    3508:	e1a0200c 	mov	r2, ip
    350c:	e1a0300e 	mov	r3, lr
    3510:	e1a00005 	mov	r0, r5
    3514:	eb001d87 	bl	ab38 <_ZN9Cyg_AlarmC1EP11Cyg_CounterPFvPS_jEj>
    3518:	e5845000 	str	r5, [r4]
    351c:	e28dd004 	add	sp, sp, #4	; 0x4
    3520:	e8bd8030 	pop	{r4, r5, pc}

00003524 <cyg_clock_delete>:
    3524:	ea001aec 	b	a0dc <_ZN9Cyg_ClockD1Ev>

00003528 <cyg_clock_create>:
    3528:	e92d4030 	push	{r4, r5, lr}
    352c:	e24dd014 	sub	sp, sp, #20	; 0x14
    3530:	e58d0008 	str	r0, [sp, #8]
    3534:	e58d100c 	str	r1, [sp, #12]
    3538:	e1a04003 	mov	r4, r3
    353c:	e28d3008 	add	r3, sp, #8	; 0x8
    3540:	e88d0003 	stm	sp, {r0, r1}
    3544:	e1a05002 	mov	r5, r2
    3548:	e1a00004 	mov	r0, r4
    354c:	e8930006 	ldm	r3, {r1, r2}
    3550:	eb001abf 	bl	a054 <_ZN9Cyg_ClockC1ENS_14cyg_resolutionE>
    3554:	e5854000 	str	r4, [r5]
    3558:	e28dd014 	add	sp, sp, #20	; 0x14
    355c:	e8bd8030 	pop	{r4, r5, pc}

00003560 <cyg_counter_multi_tick>:
    3560:	e1a01002 	mov	r1, r2
    3564:	ea001e8e 	b	afa4 <_ZN11Cyg_Counter4tickEj>

00003568 <cyg_counter_tick>:
    3568:	e3a01001 	mov	r1, #1	; 0x1
    356c:	ea001e8c 	b	afa4 <_ZN11Cyg_Counter4tickEj>

00003570 <cyg_counter_delete>:
    3570:	ea001a77 	b	9f54 <_ZN11Cyg_CounterD1Ev>

00003574 <cyg_counter_create>:
    3574:	e92d4030 	push	{r4, r5, lr}
    3578:	e1a04001 	mov	r4, r1
    357c:	e1a05000 	mov	r5, r0
    3580:	e24dd004 	sub	sp, sp, #4	; 0x4
    3584:	e3a01001 	mov	r1, #1	; 0x1
    3588:	e1a00004 	mov	r0, r4
    358c:	eb001a56 	bl	9eec <_ZN11Cyg_CounterC1Ej>
    3590:	e5854000 	str	r4, [r5]
    3594:	e28dd004 	add	sp, sp, #4	; 0x4
    3598:	e8bd8030 	pop	{r4, r5, pc}

0000359c <cyg_interrupt_configure>:
    359c:	ea0006ad 	b	5058 <_ZN13Cyg_Interrupt19configure_interruptEjii>

000035a0 <cyg_interrupt_acknowledge>:
    35a0:	ea0006ad 	b	505c <_ZN13Cyg_Interrupt21acknowledge_interruptEj>

000035a4 <cyg_interrupt_unmask_intunsafe>:
    35a4:	ea0006ad 	b	5060 <_ZN13Cyg_Interrupt26unmask_interrupt_intunsafeEj>

000035a8 <cyg_interrupt_unmask>:
    35a8:	ea0006ad 	b	5064 <_ZN13Cyg_Interrupt16unmask_interruptEj>

000035ac <cyg_interrupt_mask_intunsafe>:
    35ac:	ea0006ba 	b	509c <_ZN13Cyg_Interrupt24mask_interrupt_intunsafeEj>

000035b0 <cyg_interrupt_mask>:
    35b0:	ea0006ba 	b	50a0 <_ZN13Cyg_Interrupt14mask_interruptEj>

000035b4 <cyg_interrupt_enable>:
    35b4:	ea00068b 	b	4fe8 <_ZN13Cyg_Interrupt17enable_interruptsEv>

000035b8 <cyg_interrupt_disable>:
    35b8:	ea000674 	b	4f90 <_ZN13Cyg_Interrupt18disable_interruptsEv>

000035bc <cyg_interrupt_set_vsr>:
    35bc:	e3a02000 	mov	r2, #0	; 0x0
    35c0:	ea00065e 	b	4f40 <_ZN13Cyg_Interrupt7set_vsrEjPFvvEPS1_>

000035c4 <cyg_interrupt_get_vsr>:
    35c4:	ea000658 	b	4f2c <_ZN13Cyg_Interrupt7get_vsrEjPPFvvE>

000035c8 <cyg_interrupt_detach>:
    35c8:	ea000643 	b	4edc <_ZN13Cyg_Interrupt6detachEv>

000035cc <cyg_interrupt_attach>:
    35cc:	ea0006c1 	b	50d8 <_ZN13Cyg_Interrupt6attachEv>

000035d0 <cyg_interrupt_delete>:
    35d0:	ea0005d5 	b	4d2c <_ZN13Cyg_InterruptD1Ev>

000035d4 <cyg_interrupt_create>:
    35d4:	e92d4010 	push	{r4, lr}
    35d8:	e24dd008 	sub	sp, sp, #8	; 0x8
    35dc:	e59d4018 	ldr	r4, [sp, #24]
    35e0:	e1a0c001 	mov	ip, r1
    35e4:	e1a0e002 	mov	lr, r2
    35e8:	e1a0200c 	mov	r2, ip
    35ec:	e59dc010 	ldr	ip, [sp, #16]
    35f0:	e58d3000 	str	r3, [sp]
    35f4:	e1a01000 	mov	r1, r0
    35f8:	e1a0300e 	mov	r3, lr
    35fc:	e1a00004 	mov	r0, r4
    3600:	e58dc004 	str	ip, [sp, #4]
    3604:	eb0005a8 	bl	4cac <_ZN13Cyg_InterruptC1EjijPFjjjEPFvjjjE>
    3608:	e59d3014 	ldr	r3, [sp, #20]
    360c:	e5834000 	str	r4, [r3]
    3610:	e28dd008 	add	sp, sp, #8	; 0x8
    3614:	e8bd8010 	pop	{r4, pc}

00003618 <cyg_exception_call_handler>:
    3618:	ea00010c 	b	3a50 <_ZN10Cyg_Thread17deliver_exceptionEij>

0000361c <cyg_exception_clear_handler>:
    361c:	e59f300c 	ldr	r3, [pc, #12]	; 3630 <cyg_exception_clear_handler+0x14>
    3620:	e1a01000 	mov	r1, r0
    3624:	e5933000 	ldr	r3, [r3]
    3628:	e59f0004 	ldr	r0, [pc, #4]	; 3634 <cyg_exception_clear_handler+0x18>
    362c:	ea000574 	b	4c04 <_ZN21Cyg_Exception_Control20deregister_exceptionEi>
    3630:	40002538 	.word	0x40002538
    3634:	40002518 	.word	0x40002518

00003638 <cyg_exception_set_handler>:
    3638:	e92d4010 	push	{r4, lr}
    363c:	e1a0c001 	mov	ip, r1
    3640:	e24dd008 	sub	sp, sp, #8	; 0x8
    3644:	e1a0e002 	mov	lr, r2
    3648:	e58d3000 	str	r3, [sp]
    364c:	e1a0200c 	mov	r2, ip
    3650:	e59d4010 	ldr	r4, [sp, #16]
    3654:	e59fc01c 	ldr	ip, [pc, #28]	; 3678 <cyg_exception_set_handler+0x40>
    3658:	e1a01000 	mov	r1, r0
    365c:	e1a0300e 	mov	r3, lr
    3660:	e59f0014 	ldr	r0, [pc, #20]	; 367c <cyg_exception_set_handler+0x44>
    3664:	e59cc000 	ldr	ip, [ip]
    3668:	e58d4004 	str	r4, [sp, #4]
    366c:	eb000556 	bl	4bcc <_ZN21Cyg_Exception_Control18register_exceptionEiPFvjijEjPS1_Pj>
    3670:	e28dd008 	add	sp, sp, #8	; 0x8
    3674:	e8bd8010 	pop	{r4, pc}
    3678:	40002538 	.word	0x40002538
    367c:	40002518 	.word	0x40002518

00003680 <cyg_thread_free_data_index>:
    3680:	ea00011f 	b	3b04 <_ZN10Cyg_Thread15free_data_indexEi>

00003684 <cyg_thread_new_data_index>:
    3684:	ea0004e3 	b	4a18 <_ZN10Cyg_Thread14new_data_indexEv>

00003688 <cyg_scheduler_unlock>:
    3688:	e52de004 	push	{lr}		; (str lr, [sp, #-4]!)
    368c:	e59f2030 	ldr	r2, [pc, #48]	; 36c4 <cyg_scheduler_unlock+0x3c>
    3690:	e5923000 	ldr	r3, [r2]
    3694:	e3530000 	cmp	r3, #0	; 0x0
    3698:	e24dd004 	sub	sp, sp, #4	; 0x4
    369c:	1a000001 	bne	36a8 <cyg_scheduler_unlock+0x20>
    36a0:	e28dd004 	add	sp, sp, #4	; 0x4
    36a4:	e8bd8000 	pop	{pc}
    36a8:	e5923000 	ldr	r3, [r2]
    36ac:	e2530001 	subs	r0, r3, #1	; 0x1
    36b0:	15820000 	strne	r0, [r2]
    36b4:	0a000000 	beq	36bc <cyg_scheduler_unlock+0x34>
    36b8:	eafffff8 	b	36a0 <cyg_scheduler_unlock+0x18>
    36bc:	eb0008d7 	bl	5a20 <_ZN13Cyg_Scheduler12unlock_innerEj>
    36c0:	eafffff6 	b	36a0 <cyg_scheduler_unlock+0x18>
    36c4:	400007c8 	.word	0x400007c8

000036c8 <cyg_thread_delay>:
    36c8:	e59f3010 	ldr	r3, [pc, #16]	; 36e0 <cyg_thread_delay+0x18>
    36cc:	e593c000 	ldr	ip, [r3]
    36d0:	e1a02000 	mov	r2, r0
    36d4:	e1a03001 	mov	r3, r1
    36d8:	e1a0000c 	mov	r0, ip
    36dc:	ea0001eb 	b	3e90 <_ZN10Cyg_Thread5delayEy>
    36e0:	40002538 	.word	0x40002538

000036e4 <cyg_thread_set_priority>:
    36e4:	ea000307 	b	4308 <_ZN10Cyg_Thread12set_priorityEi>

000036e8 <cyg_thread_yield>:
    36e8:	e59f3008 	ldr	r3, [pc, #8]	; 36f8 <cyg_thread_yield+0x10>
    36ec:	e5930000 	ldr	r0, [r3]
    36f0:	e280001c 	add	r0, r0, #28	; 0x1c
    36f4:	ea00081c 	b	576c <_ZN30Cyg_SchedThread_Implementation5yieldEv>
    36f8:	40002538 	.word	0x40002538

000036fc <cyg_thread_release>:
    36fc:	ea0004e3 	b	4a90 <_ZN10Cyg_Thread7releaseEv>

00003700 <cyg_thread_kill>:
    3700:	ea0003b7 	b	45e4 <_ZN10Cyg_Thread4killEv>

00003704 <cyg_thread_resume>:
    3704:	e590303c 	ldr	r3, [r0, #60]
    3708:	e3530010 	cmp	r3, #16	; 0x10
    370c:	e92d4010 	push	{r4, lr}
    3710:	e1a04000 	mov	r4, r0
    3714:	0a000002 	beq	3724 <cyg_thread_resume+0x20>
    3718:	e1a00004 	mov	r0, r4
    371c:	e8bd4010 	pop	{r4, lr}
    3720:	ea00029a 	b	4190 <_ZN10Cyg_Thread6resumeEv>
    3724:	eb000185 	bl	3d40 <_ZN10Cyg_Thread12reinitializeEv>
    3728:	eafffffa 	b	3718 <cyg_thread_resume+0x14>

0000372c <cyg_thread_suspend>:
    372c:	ea00019c 	b	3da4 <_ZN10Cyg_Thread7suspendEv>

00003730 <cyg_thread_delete>:
    3730:	e590303c 	ldr	r3, [r0, #60]
    3734:	e3530010 	cmp	r3, #16	; 0x10
    3738:	e92d4010 	push	{r4, lr}
    373c:	e1a04000 	mov	r4, r0
    3740:	1a000003 	bne	3754 <cyg_thread_delete+0x24>
    3744:	e1a00004 	mov	r0, r4
    3748:	eb000341 	bl	4454 <_ZN10Cyg_ThreadD1Ev>
    374c:	e3a00001 	mov	r0, #1	; 0x1
    3750:	e8bd8010 	pop	{r4, pc}
    3754:	eb0003a2 	bl	45e4 <_ZN10Cyg_Thread4killEv>
    3758:	e594303c 	ldr	r3, [r4, #60]
    375c:	e3530010 	cmp	r3, #16	; 0x10
    3760:	13a00000 	movne	r0, #0	; 0x0
    3764:	18bd8010 	popne	{r4, pc}
    3768:	eafffff5 	b	3744 <cyg_thread_delete+0x14>

0000376c <cyg_thread_exit>:
    376c:	ea0000bf 	b	3a70 <_ZN10Cyg_Thread4exitEv>

00003770 <cyg_thread_create>:
    3770:	e92d4030 	push	{r4, r5, lr}
    3774:	e24dd014 	sub	sp, sp, #20	; 0x14
    3778:	e59d502c 	ldr	r5, [sp, #44]
    377c:	e1a0c001 	mov	ip, r1
    3780:	e1a0e002 	mov	lr, r2
    3784:	e59d4024 	ldr	r4, [sp, #36]
    3788:	e1a0200c 	mov	r2, ip
    378c:	e59dc020 	ldr	ip, [sp, #32]
    3790:	e58d3000 	str	r3, [sp]
    3794:	e1a01000 	mov	r1, r0
    3798:	e1a0300e 	mov	r3, lr
    379c:	e1a00005 	mov	r0, r5
    37a0:	e58dc004 	str	ip, [sp, #4]
    37a4:	e58d4008 	str	r4, [sp, #8]
    37a8:	eb0000fc 	bl	3ba0 <_ZN10Cyg_ThreadC1EjPFvjEjPcjj>
    37ac:	e59d3028 	ldr	r3, [sp, #40]
    37b0:	e5835000 	str	r5, [r3]
    37b4:	e28dd014 	add	sp, sp, #20	; 0x14
    37b8:	e8bd8030 	pop	{r4, r5, pc}

000037bc <cyg_scheduler_start>:
    37bc:	eb000896 	bl	5a1c <_ZN13Cyg_Scheduler5startEv>

000037c0 <cyg_thread_get_next>:
    37c0:	e92d4030 	push	{r4, r5, lr}
    37c4:	e24dd004 	sub	sp, sp, #4	; 0x4
    37c8:	e59f50c0 	ldr	r5, [pc, #192]	; 3890 <cyg_thread_get_next+0xd0>
    37cc:	e5953000 	ldr	r3, [r5]
    37d0:	e2833001 	add	r3, r3, #1	; 0x1
    37d4:	e5853000 	str	r3, [r5]
    37d8:	e590c000 	ldr	ip, [r0]
    37dc:	e35c0000 	cmp	ip, #0	; 0x0
    37e0:	1a00000f 	bne	3824 <cyg_thread_get_next+0x64>
    37e4:	e59f30a8 	ldr	r3, [pc, #168]	; 3894 <cyg_thread_get_next+0xd4>
    37e8:	e5933000 	ldr	r3, [r3]
    37ec:	e3530000 	cmp	r3, #0	; 0x0
    37f0:	159330a0 	ldrne	r3, [r3, #160]
    37f4:	e5803000 	str	r3, [r0]
    37f8:	e1d334bc 	ldrh	r3, [r3, #76]
    37fc:	e1c130b0 	strh	r3, [r1]
    3800:	e3a04001 	mov	r4, #1	; 0x1
    3804:	e5953000 	ldr	r3, [r5]
    3808:	e2530001 	subs	r0, r3, #1	; 0x1
    380c:	159f307c 	ldrne	r3, [pc, #124]	; 3890 <cyg_thread_get_next+0xd0>
    3810:	15830000 	strne	r0, [r3]
    3814:	0a00000f 	beq	3858 <cyg_thread_get_next+0x98>
    3818:	e1a00004 	mov	r0, r4
    381c:	e28dd004 	add	sp, sp, #4	; 0x4
    3820:	e8bd8030 	pop	{r4, r5, pc}
    3824:	e1d120b0 	ldrh	r2, [r1]
    3828:	e1dc34bc 	ldrh	r3, [ip, #76]
    382c:	e1520003 	cmp	r2, r3
    3830:	0a00000a 	beq	3860 <cyg_thread_get_next+0xa0>
    3834:	e3a03000 	mov	r3, #0	; 0x0
    3838:	e5803000 	str	r3, [r0]
    383c:	e1c130b0 	strh	r3, [r1]
    3840:	e1a04003 	mov	r4, r3
    3844:	e5953000 	ldr	r3, [r5]
    3848:	e2530001 	subs	r0, r3, #1	; 0x1
    384c:	159f303c 	ldrne	r3, [pc, #60]	; 3890 <cyg_thread_get_next+0xd0>
    3850:	15830000 	strne	r0, [r3]
    3854:	1affffef 	bne	3818 <cyg_thread_get_next+0x58>
    3858:	eb000870 	bl	5a20 <_ZN13Cyg_Scheduler12unlock_innerEj>
    385c:	eaffffed 	b	3818 <cyg_thread_get_next+0x58>
    3860:	e59f302c 	ldr	r3, [pc, #44]	; 3894 <cyg_thread_get_next+0xd4>
    3864:	e5932000 	ldr	r2, [r3]
    3868:	e15c0002 	cmp	ip, r2
    386c:	0afffff0 	beq	3834 <cyg_thread_get_next+0x74>
    3870:	e59c30a0 	ldr	r3, [ip, #160]
    3874:	e3530000 	cmp	r3, #0	; 0x0
    3878:	0affffed 	beq	3834 <cyg_thread_get_next+0x74>
    387c:	e5803000 	str	r3, [r0]
    3880:	e1d334bc 	ldrh	r3, [r3, #76]
    3884:	e3a04001 	mov	r4, #1	; 0x1
    3888:	e1c130b0 	strh	r3, [r1]
    388c:	eaffffdc 	b	3804 <cyg_thread_get_next+0x44>
    3890:	400007c8 	.word	0x400007c8
    3894:	40001c64 	.word	0x40001c64

00003898 <cyg_thread_get_info>:
    3898:	e92d4030 	push	{r4, r5, lr}
    389c:	e1a0c002 	mov	ip, r2
    38a0:	e24dd004 	sub	sp, sp, #4	; 0x4
    38a4:	e59f50b0 	ldr	r5, [pc, #176]	; 395c <cyg_thread_get_info+0xc4>
    38a8:	e5953000 	ldr	r3, [r5]
    38ac:	e2833001 	add	r3, r3, #1	; 0x1
    38b0:	e5853000 	str	r3, [r5]
    38b4:	e1d044bc 	ldrh	r4, [r0, #76]
    38b8:	e1540001 	cmp	r4, r1
    38bc:	0a000008 	beq	38e4 <cyg_thread_get_info+0x4c>
    38c0:	e3a04000 	mov	r4, #0	; 0x0
    38c4:	e5953000 	ldr	r3, [r5]
    38c8:	e2530001 	subs	r0, r3, #1	; 0x1
    38cc:	159f3088 	ldrne	r3, [pc, #136]	; 395c <cyg_thread_get_info+0xc4>
    38d0:	15830000 	strne	r0, [r3]
    38d4:	0a00001e 	beq	3954 <cyg_thread_get_info+0xbc>
    38d8:	e1a00004 	mov	r0, r4
    38dc:	e28dd004 	add	sp, sp, #4	; 0x4
    38e0:	e8bd8030 	pop	{r4, r5, pc}
    38e4:	e3520000 	cmp	r2, #0	; 0x0
    38e8:	0afffff4 	beq	38c0 <cyg_thread_get_info+0x28>
    38ec:	e5820000 	str	r0, [r2]
    38f0:	e590303c 	ldr	r3, [r0, #60]
    38f4:	e5823008 	str	r3, [r2, #8]
    38f8:	e5902038 	ldr	r2, [r0, #56]
    38fc:	e590309c 	ldr	r3, [r0, #156]
    3900:	e3520000 	cmp	r2, #0	; 0x0
    3904:	e58c300c 	str	r3, [ip, #12]
    3908:	05903024 	ldreq	r3, [r0, #36]
    390c:	15902034 	ldrne	r2, [r0, #52]
    3910:	15903024 	ldrne	r3, [r0, #36]
    3914:	01a02003 	moveq	r2, r3
    3918:	e58c2010 	str	r2, [ip, #16]
    391c:	e58c3014 	str	r3, [ip, #20]
    3920:	e5903000 	ldr	r3, [r0]
    3924:	e58c3018 	str	r3, [ip, #24]
    3928:	e5902004 	ldr	r2, [r0, #4]
    392c:	e3a03000 	mov	r3, #0	; 0x0
    3930:	e1cc40b4 	strh	r4, [ip, #4]
    3934:	e58c3020 	str	r3, [ip, #32]
    3938:	e58c201c 	str	r2, [ip, #28]
    393c:	e3a04001 	mov	r4, #1	; 0x1
    3940:	e5953000 	ldr	r3, [r5]
    3944:	e2530001 	subs	r0, r3, #1	; 0x1
    3948:	159f300c 	ldrne	r3, [pc, #12]	; 395c <cyg_thread_get_info+0xc4>
    394c:	15830000 	strne	r0, [r3]
    3950:	1affffe0 	bne	38d8 <cyg_thread_get_info+0x40>
    3954:	eb000831 	bl	5a20 <_ZN13Cyg_Scheduler12unlock_innerEj>
    3958:	eaffffde 	b	38d8 <cyg_thread_get_info+0x40>
    395c:	400007c8 	.word	0x400007c8

00003960 <cyg_thread_find>:
    3960:	e92d4010 	push	{r4, lr}
    3964:	e1a01000 	mov	r1, r0
    3968:	e59fc08c 	ldr	ip, [pc, #140]	; 39fc <cyg_thread_find+0x9c>
    396c:	e59c3000 	ldr	r3, [ip]
    3970:	e2833001 	add	r3, r3, #1	; 0x1
    3974:	e58c3000 	str	r3, [ip]
    3978:	e59f3080 	ldr	r3, [pc, #128]	; 3a00 <cyg_thread_find+0xa0>
    397c:	e5932000 	ldr	r2, [r3]
    3980:	e3520000 	cmp	r2, #0	; 0x0
    3984:	0a00000b 	beq	39b8 <cyg_thread_find+0x58>
    3988:	e59200a0 	ldr	r0, [r2, #160]
    398c:	e3500000 	cmp	r0, #0	; 0x0
    3990:	1a000003 	bne	39a4 <cyg_thread_find+0x44>
    3994:	ea000007 	b	39b8 <cyg_thread_find+0x58>
    3998:	e59000a0 	ldr	r0, [r0, #160]
    399c:	e3500000 	cmp	r0, #0	; 0x0
    39a0:	0a000004 	beq	39b8 <cyg_thread_find+0x58>
    39a4:	e1d034bc 	ldrh	r3, [r0, #76]
    39a8:	e1530001 	cmp	r3, r1
    39ac:	0a000009 	beq	39d8 <cyg_thread_find+0x78>
    39b0:	e1520000 	cmp	r2, r0
    39b4:	1afffff7 	bne	3998 <cyg_thread_find+0x38>
    39b8:	e3a04000 	mov	r4, #0	; 0x0
    39bc:	e59c3000 	ldr	r3, [ip]
    39c0:	e2530001 	subs	r0, r3, #1	; 0x1
    39c4:	159f3030 	ldrne	r3, [pc, #48]	; 39fc <cyg_thread_find+0x9c>
    39c8:	15830000 	strne	r0, [r3]
    39cc:	0a000007 	beq	39f0 <cyg_thread_find+0x90>
    39d0:	e1a00004 	mov	r0, r4
    39d4:	e8bd8010 	pop	{r4, pc}
    39d8:	e1a04000 	mov	r4, r0
    39dc:	e59c3000 	ldr	r3, [ip]
    39e0:	e2530001 	subs	r0, r3, #1	; 0x1
    39e4:	159f3010 	ldrne	r3, [pc, #16]	; 39fc <cyg_thread_find+0x9c>
    39e8:	15830000 	strne	r0, [r3]
    39ec:	1afffff7 	bne	39d0 <cyg_thread_find+0x70>
    39f0:	eb00080a 	bl	5a20 <_ZN13Cyg_Scheduler12unlock_innerEj>
    39f4:	e1a00004 	mov	r0, r4
    39f8:	e8bd8010 	pop	{r4, pc}
    39fc:	400007c8 	.word	0x400007c8
    3a00:	40001c64 	.word	0x40001c64

00003a04 <cyg_scheduler_safe_lock>:
    3a04:	e52de004 	push	{lr}		; (str lr, [sp, #-4]!)
    3a08:	e24dd004 	sub	sp, sp, #4	; 0x4
    3a0c:	e59f2034 	ldr	r2, [pc, #52]	; 3a48 <cyg_scheduler_safe_lock+0x44>
    3a10:	e5923000 	ldr	r3, [r2]
    3a14:	e2833001 	add	r3, r3, #1	; 0x1
    3a18:	e5823000 	str	r3, [r2]
    3a1c:	e5923000 	ldr	r3, [r2]
    3a20:	e3530001 	cmp	r3, #1	; 0x1
    3a24:	9a000003 	bls	3a38 <cyg_scheduler_safe_lock+0x34>
    3a28:	e5923000 	ldr	r3, [r2]
    3a2c:	e2530001 	subs	r0, r3, #1	; 0x1
    3a30:	15820000 	strne	r0, [r2]
    3a34:	0a000001 	beq	3a40 <cyg_scheduler_safe_lock+0x3c>
    3a38:	e28dd004 	add	sp, sp, #4	; 0x4
    3a3c:	e8bd8000 	pop	{pc}
    3a40:	eb0007f6 	bl	5a20 <_ZN13Cyg_Scheduler12unlock_innerEj>
    3a44:	eafffffb 	b	3a38 <cyg_scheduler_safe_lock+0x34>
    3a48:	400007c8 	.word	0x400007c8

00003a4c <_Z16idle_thread_mainj>:
    3a4c:	eafffffe 	b	3a4c <_Z16idle_thread_mainj>

00003a50 <_ZN10Cyg_Thread17deliver_exceptionEij>:
    3a50:	e59f3010 	ldr	r3, [pc, #16]	; 3a68 <_ZN10Cyg_Thread17deliver_exceptionEij+0x18>
    3a54:	e593c000 	ldr	ip, [r3]
    3a58:	e15c0000 	cmp	ip, r0
    3a5c:	112fff1e 	bxne	lr
    3a60:	e59f0004 	ldr	r0, [pc, #4]	; 3a6c <_ZN10Cyg_Thread17deliver_exceptionEij+0x1c>
    3a64:	ea00046b 	b	4c18 <_ZN21Cyg_Exception_Control17deliver_exceptionEij>
    3a68:	40002538 	.word	0x40002538
    3a6c:	40002518 	.word	0x40002518

00003a70 <_ZN10Cyg_Thread4exitEv>:
    3a70:	e92d4030 	push	{r4, r5, lr}
    3a74:	e59f2050 	ldr	r2, [pc, #80]	; 3acc <_ZN10Cyg_Thread4exitEv+0x5c>
    3a78:	e24dd004 	sub	sp, sp, #4	; 0x4
    3a7c:	e5924000 	ldr	r4, [r2]
    3a80:	e59f5048 	ldr	r5, [pc, #72]	; 3ad0 <_ZN10Cyg_Thread4exitEv+0x60>
    3a84:	e5953000 	ldr	r3, [r5]
    3a88:	e2833001 	add	r3, r3, #1	; 0x1
    3a8c:	e5853000 	str	r3, [r5]
    3a90:	e5920000 	ldr	r0, [r2]
    3a94:	e2800050 	add	r0, r0, #80	; 0x50
    3a98:	eb001db9 	bl	b184 <_ZN9Cyg_Alarm7disableEv>
    3a9c:	e594303c 	ldr	r3, [r4, #60]
    3aa0:	e3530010 	cmp	r3, #16	; 0x10
    3aa4:	0a000004 	beq	3abc <_ZN10Cyg_Thread4exitEv+0x4c>
    3aa8:	e3a03010 	mov	r3, #16	; 0x10
    3aac:	e584303c 	str	r3, [r4, #60]
    3ab0:	e1a01004 	mov	r1, r4
    3ab4:	e59f0018 	ldr	r0, [pc, #24]	; 3ad4 <_ZN10Cyg_Thread4exitEv+0x64>
    3ab8:	eb0005f8 	bl	52a0 <_ZN28Cyg_Scheduler_Implementation10rem_threadEP10Cyg_Thread>
    3abc:	e5950000 	ldr	r0, [r5]
    3ac0:	e28dd004 	add	sp, sp, #4	; 0x4
    3ac4:	e8bd4030 	pop	{r4, r5, lr}
    3ac8:	ea0007d4 	b	5a20 <_ZN13Cyg_Scheduler12unlock_innerEj>
    3acc:	40002538 	.word	0x40002538
    3ad0:	400007c8 	.word	0x400007c8
    3ad4:	40002540 	.word	0x40002540

00003ad8 <_ZN18Cyg_HardwareThread12thread_entryEP10Cyg_Thread>:
    3ad8:	e92d4010 	push	{r4, lr}
    3adc:	e1a01000 	mov	r1, r0
    3ae0:	e1a04000 	mov	r4, r0
    3ae4:	e59f0014 	ldr	r0, [pc, #20]	; 3b00 <_ZN18Cyg_HardwareThread12thread_entryEP10Cyg_Thread+0x28>
    3ae8:	eb000809 	bl	5b14 <_ZN13Cyg_Scheduler12thread_entryEP10Cyg_Thread>
    3aec:	e5940014 	ldr	r0, [r4, #20]
    3af0:	e1a0e00f 	mov	lr, pc
    3af4:	e594f010 	ldr	pc, [r4, #16]
    3af8:	ebffffdc 	bl	3a70 <_ZN10Cyg_Thread4exitEv>
    3afc:	eafffffa 	b	3aec <_ZN18Cyg_HardwareThread12thread_entryEP10Cyg_Thread+0x14>
    3b00:	40002540 	.word	0x40002540

00003b04 <_ZN10Cyg_Thread15free_data_indexEi>:
    3b04:	e52de004 	push	{lr}		; (str lr, [sp, #-4]!)
    3b08:	e24dd004 	sub	sp, sp, #4	; 0x4
    3b0c:	e59fc03c 	ldr	ip, [pc, #60]	; 3b50 <_ZN10Cyg_Thread15free_data_indexEi+0x4c>
    3b10:	e59c3000 	ldr	r3, [ip]
    3b14:	e2833001 	add	r3, r3, #1	; 0x1
    3b18:	e58c3000 	str	r3, [ip]
    3b1c:	e59f1030 	ldr	r1, [pc, #48]	; 3b54 <_ZN10Cyg_Thread15free_data_indexEi+0x50>
    3b20:	e5913000 	ldr	r3, [r1]
    3b24:	e3a02001 	mov	r2, #1	; 0x1
    3b28:	e1833012 	orr	r3, r3, r2, lsl r0
    3b2c:	e5813000 	str	r3, [r1]
    3b30:	e59c3000 	ldr	r3, [ip]
    3b34:	e2530001 	subs	r0, r3, #1	; 0x1
    3b38:	158c0000 	strne	r0, [ip]
    3b3c:	0a000001 	beq	3b48 <_ZN10Cyg_Thread15free_data_indexEi+0x44>
    3b40:	e28dd004 	add	sp, sp, #4	; 0x4
    3b44:	e8bd8000 	pop	{pc}
    3b48:	eb0007b4 	bl	5a20 <_ZN13Cyg_Scheduler12unlock_innerEj>
    3b4c:	eafffffb 	b	3b40 <_ZN10Cyg_Thread15free_data_indexEi+0x3c>
    3b50:	400007c8 	.word	0x400007c8
    3b54:	400007c0 	.word	0x400007c0

00003b58 <_ZN10Cyg_Thread19cancel_counted_wakeEv>:
    3b58:	e92d4010 	push	{r4, lr}
    3b5c:	e59f2038 	ldr	r2, [pc, #56]	; 3b9c <_ZN10Cyg_Thread19cancel_counted_wakeEv+0x44>
    3b60:	e5923000 	ldr	r3, [r2]
    3b64:	e2833001 	add	r3, r3, #1	; 0x1
    3b68:	e5823000 	str	r3, [r2]
    3b6c:	e3a03000 	mov	r3, #0	; 0x0
    3b70:	e5904044 	ldr	r4, [r0, #68]
    3b74:	e5803044 	str	r3, [r0, #68]
    3b78:	e5923000 	ldr	r3, [r2]
    3b7c:	e2530001 	subs	r0, r3, #1	; 0x1
    3b80:	15820000 	strne	r0, [r2]
    3b84:	0a000001 	beq	3b90 <_ZN10Cyg_Thread19cancel_counted_wakeEv+0x38>
    3b88:	e1a00004 	mov	r0, r4
    3b8c:	e8bd8010 	pop	{r4, pc}
    3b90:	eb0007a2 	bl	5a20 <_ZN13Cyg_Scheduler12unlock_innerEj>
    3b94:	e1a00004 	mov	r0, r4
    3b98:	e8bd8010 	pop	{r4, pc}
    3b9c:	400007c8 	.word	0x400007c8

00003ba0 <_ZN10Cyg_ThreadC1EjPFvjEjPcjj>:
    3ba0:	e92d4070 	push	{r4, r5, r6, lr}
    3ba4:	e59dc014 	ldr	ip, [sp, #20]
    3ba8:	e59d5018 	ldr	r5, [sp, #24]
    3bac:	e3a04000 	mov	r4, #0	; 0x0
    3bb0:	e085e00c 	add	lr, r5, ip
    3bb4:	e1a06000 	mov	r6, r0
    3bb8:	e580e00c 	str	lr, [r0, #12]
    3bbc:	e580c000 	str	ip, [r0]
    3bc0:	e580c008 	str	ip, [r0, #8]
    3bc4:	e5802010 	str	r2, [r0, #16]
    3bc8:	e5803014 	str	r3, [r0, #20]
    3bcc:	e1a02001 	mov	r2, r1
    3bd0:	e5804018 	str	r4, [r0, #24]
    3bd4:	e5805004 	str	r5, [r0, #4]
    3bd8:	e1a01000 	mov	r1, r0
    3bdc:	e280001c 	add	r0, r0, #28	; 0x1c
    3be0:	eb000776 	bl	59c0 <_ZN15Cyg_SchedThreadC2EP10Cyg_Threadj>
    3be4:	e59f3138 	ldr	r3, [pc, #312]	; 3d24 <_ZN10Cyg_ThreadC1EjPFvjEjPcjj+0x184>
    3be8:	e2860050 	add	r0, r6, #80	; 0x50
    3bec:	e5931000 	ldr	r1, [r3]
    3bf0:	e59f2130 	ldr	r2, [pc, #304]	; 3d28 <_ZN10Cyg_ThreadC1EjPFvjEjPcjj+0x188>
    3bf4:	e1a03000 	mov	r3, r0
    3bf8:	eb001bbd 	bl	aaf4 <_ZN9Cyg_AlarmC2EP11Cyg_CounterPFvPS_jEj>
    3bfc:	e59fc128 	ldr	ip, [pc, #296]	; 3d2c <_ZN10Cyg_ThreadC1EjPFvjEjPcjj+0x18c>
    3c00:	e3a03004 	mov	r3, #4	; 0x4
    3c04:	e1dc10b0 	ldrh	r1, [ip]
    3c08:	e586303c 	str	r3, [r6, #60]
    3c0c:	e59d3010 	ldr	r3, [sp, #16]
    3c10:	e2810001 	add	r0, r1, #1	; 0x1
    3c14:	e3a02001 	mov	r2, #1	; 0x1
    3c18:	e1c614bc 	strh	r1, [r6, #76]
    3c1c:	e5862040 	str	r2, [r6, #64]
    3c20:	e5864098 	str	r4, [r6, #152]
    3c24:	e586309c 	str	r3, [r6, #156]
    3c28:	e1cc00b0 	strh	r0, [ip]
    3c2c:	e586607c 	str	r6, [r6, #124]
    3c30:	e5864044 	str	r4, [r6, #68]
    3c34:	e5c64080 	strb	r4, [r6, #128]
    3c38:	e5c64081 	strb	r4, [r6, #129]
    3c3c:	e5864084 	str	r4, [r6, #132]
    3c40:	e5864088 	str	r4, [r6, #136]
    3c44:	e586408c 	str	r4, [r6, #140]
    3c48:	e5864090 	str	r4, [r6, #144]
    3c4c:	e5864094 	str	r4, [r6, #148]
    3c50:	e59f00d8 	ldr	r0, [pc, #216]	; 3d30 <_ZN10Cyg_ThreadC1EjPFvjEjPcjj+0x190>
    3c54:	e5903000 	ldr	r3, [r0]
    3c58:	e0833002 	add	r3, r3, r2
    3c5c:	e5803000 	str	r3, [r0]
    3c60:	e59fc0cc 	ldr	ip, [pc, #204]	; 3d34 <_ZN10Cyg_ThreadC1EjPFvjEjPcjj+0x194>
    3c64:	e59c2000 	ldr	r2, [ip]
    3c68:	e1520004 	cmp	r2, r4
    3c6c:	058660a0 	streq	r6, [r6, #160]
    3c70:	0a00000c 	beq	3ca8 <_ZN10Cyg_ThreadC1EjPFvjEjPcjj+0x108>
    3c74:	e1560002 	cmp	r6, r2
    3c78:	0a00000a 	beq	3ca8 <_ZN10Cyg_ThreadC1EjPFvjEjPcjj+0x108>
    3c7c:	e59210a0 	ldr	r1, [r2, #160]
    3c80:	e1520001 	cmp	r2, r1
    3c84:	11a03001 	movne	r3, r1
    3c88:	0a000004 	beq	3ca0 <_ZN10Cyg_ThreadC1EjPFvjEjPcjj+0x100>
    3c8c:	e1560003 	cmp	r6, r3
    3c90:	0a000004 	beq	3ca8 <_ZN10Cyg_ThreadC1EjPFvjEjPcjj+0x108>
    3c94:	e59330a0 	ldr	r3, [r3, #160]
    3c98:	e1520003 	cmp	r2, r3
    3c9c:	1afffffa 	bne	3c8c <_ZN10Cyg_ThreadC1EjPFvjEjPcjj+0xec>
    3ca0:	e58610a0 	str	r1, [r6, #160]
    3ca4:	e58260a0 	str	r6, [r2, #160]
    3ca8:	e58c6000 	str	r6, [ip]
    3cac:	e5903000 	ldr	r3, [r0]
    3cb0:	e2530001 	subs	r0, r3, #1	; 0x1
    3cb4:	159f3074 	ldrne	r3, [pc, #116]	; 3d30 <_ZN10Cyg_ThreadC1EjPFvjEjPcjj+0x190>
    3cb8:	15830000 	strne	r0, [r3]
    3cbc:	0a000016 	beq	3d1c <_ZN10Cyg_ThreadC1EjPFvjEjPcjj+0x17c>
    3cc0:	e59f0070 	ldr	r0, [pc, #112]	; 3d38 <_ZN10Cyg_ThreadC1EjPFvjEjPcjj+0x198>
    3cc4:	e1a01006 	mov	r1, r6
    3cc8:	eb0005b0 	bl	5390 <_ZN28Cyg_Scheduler_Implementation15register_threadEP10Cyg_Thread>
    3ccc:	e596300c 	ldr	r3, [r6, #12]
    3cd0:	e3c3000f 	bic	r0, r3, #15	; 0xf
    3cd4:	e2401050 	sub	r1, r0, #80	; 0x50
    3cd8:	e3a02000 	mov	r2, #0	; 0x0
    3cdc:	e3823411 	orr	r3, r2, #285212672	; 0x11000000
    3ce0:	e3833811 	orr	r3, r3, #1114112	; 0x110000
    3ce4:	e7813102 	str	r3, [r1, r2, lsl #2]
    3ce8:	e2822001 	add	r2, r2, #1	; 0x1
    3cec:	e352000b 	cmp	r2, #11	; 0xb
    3cf0:	1afffff9 	bne	3cdc <_ZN10Cyg_ThreadC1EjPFvjEjPcjj+0x13c>
    3cf4:	e59f2040 	ldr	r2, [pc, #64]	; 3d3c <_ZN10Cyg_ThreadC1EjPFvjEjPcjj+0x19c>
    3cf8:	e3a03013 	mov	r3, #19	; 0x13
    3cfc:	e5810034 	str	r0, [r1, #52]
    3d00:	e5006050 	str	r6, [r0, #-80]
    3d04:	e581203c 	str	r2, [r1, #60]
    3d08:	e5813040 	str	r3, [r1, #64]
    3d0c:	e5812038 	str	r2, [r1, #56]
    3d10:	e1a00006 	mov	r0, r6
    3d14:	e586100c 	str	r1, [r6, #12]
    3d18:	e8bd8070 	pop	{r4, r5, r6, pc}
    3d1c:	eb00073f 	bl	5a20 <_ZN13Cyg_Scheduler12unlock_innerEj>
    3d20:	eaffffe6 	b	3cc0 <_ZN10Cyg_ThreadC1EjPFvjEjPcjj+0x120>
    3d24:	40004678 	.word	0x40004678
    3d28:	00004b0c 	.word	0x00004b0c
    3d2c:	400007c4 	.word	0x400007c4
    3d30:	400007c8 	.word	0x400007c8
    3d34:	40001c64 	.word	0x40001c64
    3d38:	40002540 	.word	0x40002540
    3d3c:	00003ad8 	.word	0x00003ad8

00003d40 <_ZN10Cyg_Thread12reinitializeEv>:
    3d40:	e92d4030 	push	{r4, r5, lr}
    3d44:	e1a05000 	mov	r5, r0
    3d48:	e24dd014 	sub	sp, sp, #20	; 0x14
    3d4c:	e2800050 	add	r0, r0, #80	; 0x50
    3d50:	eb001d0b 	bl	b184 <_ZN9Cyg_Alarm7disableEv>
    3d54:	e1a01005 	mov	r1, r5
    3d58:	e59f0040 	ldr	r0, [pc, #64]	; 3da0 <_ZN10Cyg_Thread12reinitializeEv+0x60>
    3d5c:	eb00058c 	bl	5394 <_ZN28Cyg_Scheduler_Implementation17deregister_threadEP10Cyg_Thread>
    3d60:	e5953038 	ldr	r3, [r5, #56]
    3d64:	e3530000 	cmp	r3, #0	; 0x0
    3d68:	15951034 	ldrne	r1, [r5, #52]
    3d6c:	05951024 	ldreq	r1, [r5, #36]
    3d70:	e595e09c 	ldr	lr, [r5, #156]
    3d74:	e595c000 	ldr	ip, [r5]
    3d78:	e5954004 	ldr	r4, [r5, #4]
    3d7c:	e2852010 	add	r2, r5, #16	; 0x10
    3d80:	e892000c 	ldm	r2, {r2, r3}
    3d84:	e1a00005 	mov	r0, r5
    3d88:	e58de000 	str	lr, [sp]
    3d8c:	e58dc004 	str	ip, [sp, #4]
    3d90:	e58d4008 	str	r4, [sp, #8]
    3d94:	ebffff81 	bl	3ba0 <_ZN10Cyg_ThreadC1EjPFvjEjPcjj>
    3d98:	e28dd014 	add	sp, sp, #20	; 0x14
    3d9c:	e8bd8030 	pop	{r4, r5, pc}
    3da0:	40002540 	.word	0x40002540

00003da4 <_ZN10Cyg_Thread7suspendEv>:
    3da4:	e92d4030 	push	{r4, r5, lr}
    3da8:	e1a04000 	mov	r4, r0
    3dac:	e24dd004 	sub	sp, sp, #4	; 0x4
    3db0:	e59f505c 	ldr	r5, [pc, #92]	; 3e14 <_ZN10Cyg_Thread7suspendEv+0x70>
    3db4:	e5953000 	ldr	r3, [r5]
    3db8:	e2833001 	add	r3, r3, #1	; 0x1
    3dbc:	e5853000 	str	r3, [r5]
    3dc0:	e280203c 	add	r2, r0, #60	; 0x3c
    3dc4:	e892000c 	ldm	r2, {r2, r3}
    3dc8:	e2833001 	add	r3, r3, #1	; 0x1
    3dcc:	e3520000 	cmp	r2, #0	; 0x0
    3dd0:	e5803040 	str	r3, [r0, #64]
    3dd4:	1a000003 	bne	3de8 <_ZN10Cyg_Thread7suspendEv+0x44>
    3dd8:	e59f0038 	ldr	r0, [pc, #56]	; 3e18 <_ZN10Cyg_Thread7suspendEv+0x74>
    3ddc:	e1a01004 	mov	r1, r4
    3de0:	eb00052e 	bl	52a0 <_ZN28Cyg_Scheduler_Implementation10rem_threadEP10Cyg_Thread>
    3de4:	e594203c 	ldr	r2, [r4, #60]
    3de8:	e3823004 	orr	r3, r2, #4	; 0x4
    3dec:	e584303c 	str	r3, [r4, #60]
    3df0:	e5953000 	ldr	r3, [r5]
    3df4:	e2530001 	subs	r0, r3, #1	; 0x1
    3df8:	159f3014 	ldrne	r3, [pc, #20]	; 3e14 <_ZN10Cyg_Thread7suspendEv+0x70>
    3dfc:	15830000 	strne	r0, [r3]
    3e00:	0a000001 	beq	3e0c <_ZN10Cyg_Thread7suspendEv+0x68>
    3e04:	e28dd004 	add	sp, sp, #4	; 0x4
    3e08:	e8bd8030 	pop	{r4, r5, pc}
    3e0c:	eb000703 	bl	5a20 <_ZN13Cyg_Scheduler12unlock_innerEj>
    3e10:	eafffffb 	b	3e04 <_ZN10Cyg_Thread7suspendEv+0x60>
    3e14:	400007c8 	.word	0x400007c8
    3e18:	40002540 	.word	0x40002540

00003e1c <_ZN10Cyg_Thread5sleepEv>:
    3e1c:	e92d4030 	push	{r4, r5, lr}
    3e20:	e59f305c 	ldr	r3, [pc, #92]	; 3e84 <_ZN10Cyg_Thread5sleepEv+0x68>
    3e24:	e24dd004 	sub	sp, sp, #4	; 0x4
    3e28:	e5934000 	ldr	r4, [r3]
    3e2c:	e59f5054 	ldr	r5, [pc, #84]	; 3e88 <_ZN10Cyg_Thread5sleepEv+0x6c>
    3e30:	e5953000 	ldr	r3, [r5]
    3e34:	e2833001 	add	r3, r3, #1	; 0x1
    3e38:	e5853000 	str	r3, [r5]
    3e3c:	e594303c 	ldr	r3, [r4, #60]
    3e40:	e3530000 	cmp	r3, #0	; 0x0
    3e44:	1a000003 	bne	3e58 <_ZN10Cyg_Thread5sleepEv+0x3c>
    3e48:	e59f003c 	ldr	r0, [pc, #60]	; 3e8c <_ZN10Cyg_Thread5sleepEv+0x70>
    3e4c:	e1a01004 	mov	r1, r4
    3e50:	eb000512 	bl	52a0 <_ZN28Cyg_Scheduler_Implementation10rem_threadEP10Cyg_Thread>
    3e54:	e594303c 	ldr	r3, [r4, #60]
    3e58:	e3833001 	orr	r3, r3, #1	; 0x1
    3e5c:	e584303c 	str	r3, [r4, #60]
    3e60:	e5953000 	ldr	r3, [r5]
    3e64:	e2530001 	subs	r0, r3, #1	; 0x1
    3e68:	159f3018 	ldrne	r3, [pc, #24]	; 3e88 <_ZN10Cyg_Thread5sleepEv+0x6c>
    3e6c:	15830000 	strne	r0, [r3]
    3e70:	0a000001 	beq	3e7c <_ZN10Cyg_Thread5sleepEv+0x60>
    3e74:	e28dd004 	add	sp, sp, #4	; 0x4
    3e78:	e8bd8030 	pop	{r4, r5, pc}
    3e7c:	eb0006e7 	bl	5a20 <_ZN13Cyg_Scheduler12unlock_innerEj>
    3e80:	eafffffb 	b	3e74 <_ZN10Cyg_Thread5sleepEv+0x58>
    3e84:	40002538 	.word	0x40002538
    3e88:	400007c8 	.word	0x400007c8
    3e8c:	40002540 	.word	0x40002540

00003e90 <_ZN10Cyg_Thread5delayEy>:
    3e90:	e92d47f0 	push	{r4, r5, r6, r7, r8, r9, sl, lr}
    3e94:	e1a09000 	mov	r9, r0
    3e98:	e24dd008 	sub	sp, sp, #8	; 0x8
    3e9c:	e1a06002 	mov	r6, r2
    3ea0:	e1a07003 	mov	r7, r3
    3ea4:	e59fa0a0 	ldr	sl, [pc, #160]	; 3f4c <_ZN10Cyg_Thread5delayEy+0xbc>
    3ea8:	e59a3000 	ldr	r3, [sl]
    3eac:	e2833001 	add	r3, r3, #1	; 0x1
    3eb0:	e58a3000 	str	r3, [sl]
    3eb4:	ebffffd8 	bl	3e1c <_ZN10Cyg_Thread5sleepEv>
    3eb8:	e59f3090 	ldr	r3, [pc, #144]	; 3f50 <_ZN10Cyg_Thread5delayEy+0xc0>
    3ebc:	e59f8090 	ldr	r8, [pc, #144]	; 3f54 <_ZN10Cyg_Thread5delayEy+0xc4>
    3ec0:	e5932000 	ldr	r2, [r3]
    3ec4:	e2824008 	add	r4, r2, #8	; 0x8
    3ec8:	e8940030 	ldm	r4, {r4, r5}
    3ecc:	e5981000 	ldr	r1, [r8]
    3ed0:	e598c000 	ldr	ip, [r8]
    3ed4:	e3a02000 	mov	r2, #0	; 0x0
    3ed8:	e5980000 	ldr	r0, [r8]
    3edc:	e5cc2081 	strb	r2, [ip, #129]
    3ee0:	e3a03002 	mov	r3, #2	; 0x2
    3ee4:	e0962004 	adds	r2, r6, r4
    3ee8:	e5c13080 	strb	r3, [r1, #128]
    3eec:	e2800050 	add	r0, r0, #80	; 0x50
    3ef0:	e0a73005 	adc	r3, r7, r5
    3ef4:	e3a04000 	mov	r4, #0	; 0x0
    3ef8:	e3a05000 	mov	r5, #0	; 0x0
    3efc:	e88d0030 	stm	sp, {r4, r5}
    3f00:	eb001c08 	bl	af28 <_ZN9Cyg_Alarm10initializeEyy>
    3f04:	e59a3000 	ldr	r3, [sl]
    3f08:	e2530001 	subs	r0, r3, #1	; 0x1
    3f0c:	158a0000 	strne	r0, [sl]
    3f10:	0a00000b 	beq	3f44 <_ZN10Cyg_Thread5delayEy+0xb4>
    3f14:	e5980000 	ldr	r0, [r8]
    3f18:	e2800050 	add	r0, r0, #80	; 0x50
    3f1c:	eb001c98 	bl	b184 <_ZN9Cyg_Alarm7disableEv>
    3f20:	e5d93081 	ldrb	r3, [r9, #129]
    3f24:	e2433005 	sub	r3, r3, #5	; 0x5
    3f28:	e3530001 	cmp	r3, #1	; 0x1
    3f2c:	8a000002 	bhi	3f3c <_ZN10Cyg_Thread5delayEy+0xac>
    3f30:	e28dd008 	add	sp, sp, #8	; 0x8
    3f34:	e8bd47f0 	pop	{r4, r5, r6, r7, r8, r9, sl, lr}
    3f38:	eafffecc 	b	3a70 <_ZN10Cyg_Thread4exitEv>
    3f3c:	e28dd008 	add	sp, sp, #8	; 0x8
    3f40:	e8bd87f0 	pop	{r4, r5, r6, r7, r8, r9, sl, pc}
    3f44:	eb0006b5 	bl	5a20 <_ZN13Cyg_Scheduler12unlock_innerEj>
    3f48:	eafffff1 	b	3f14 <_ZN10Cyg_Thread5delayEy+0x84>
    3f4c:	400007c8 	.word	0x400007c8
    3f50:	40004678 	.word	0x40004678
    3f54:	40002538 	.word	0x40002538

00003f58 <_ZN10Cyg_Thread13counted_sleepEy>:
    3f58:	e92d4ff0 	push	{r4, r5, r6, r7, r8, r9, sl, fp, lr}
    3f5c:	e59fa0f8 	ldr	sl, [pc, #248]	; 405c <_ZN10Cyg_Thread13counted_sleepEy+0x104>
    3f60:	e24dd00c 	sub	sp, sp, #12	; 0xc
    3f64:	e1a07000 	mov	r7, r0
    3f68:	e1a08001 	mov	r8, r1
    3f6c:	e59a6000 	ldr	r6, [sl]
    3f70:	e59f90e8 	ldr	r9, [pc, #232]	; 4060 <_ZN10Cyg_Thread13counted_sleepEy+0x108>
    3f74:	e5993000 	ldr	r3, [r9]
    3f78:	e2833001 	add	r3, r3, #1	; 0x1
    3f7c:	e5893000 	str	r3, [r9]
    3f80:	e596c044 	ldr	ip, [r6, #68]
    3f84:	e35c0000 	cmp	ip, #0	; 0x0
    3f88:	124c3001 	subne	r3, ip, #1	; 0x1
    3f8c:	15863044 	strne	r3, [r6, #68]
    3f90:	0a00000d 	beq	3fcc <_ZN10Cyg_Thread13counted_sleepEy+0x74>
    3f94:	e5993000 	ldr	r3, [r9]
    3f98:	e2530001 	subs	r0, r3, #1	; 0x1
    3f9c:	159f30bc 	ldrne	r3, [pc, #188]	; 4060 <_ZN10Cyg_Thread13counted_sleepEy+0x108>
    3fa0:	15830000 	strne	r0, [r3]
    3fa4:	0a00002a 	beq	4054 <_ZN10Cyg_Thread13counted_sleepEy+0xfc>
    3fa8:	e5d63081 	ldrb	r3, [r6, #129]
    3fac:	e2433005 	sub	r3, r3, #5	; 0x5
    3fb0:	e3530001 	cmp	r3, #1	; 0x1
    3fb4:	8a000002 	bhi	3fc4 <_ZN10Cyg_Thread13counted_sleepEy+0x6c>
    3fb8:	e28dd00c 	add	sp, sp, #12	; 0xc
    3fbc:	e8bd4ff0 	pop	{r4, r5, r6, r7, r8, r9, sl, fp, lr}
    3fc0:	eafffeaa 	b	3a70 <_ZN10Cyg_Thread4exitEv>
    3fc4:	e28dd00c 	add	sp, sp, #12	; 0xc
    3fc8:	e8bd8ff0 	pop	{r4, r5, r6, r7, r8, r9, sl, fp, pc}
    3fcc:	e59f3090 	ldr	r3, [pc, #144]	; 4064 <_ZN10Cyg_Thread13counted_sleepEy+0x10c>
    3fd0:	e5932000 	ldr	r2, [r3]
    3fd4:	e2824008 	add	r4, r2, #8	; 0x8
    3fd8:	e8940030 	ldm	r4, {r4, r5}
    3fdc:	e59a1000 	ldr	r1, [sl]
    3fe0:	e59a3000 	ldr	r3, [sl]
    3fe4:	e59a0000 	ldr	r0, [sl]
    3fe8:	e0972004 	adds	r2, r7, r4
    3fec:	e3a0b003 	mov	fp, #3	; 0x3
    3ff0:	e5c3c081 	strb	ip, [r3, #129]
    3ff4:	e5c1b080 	strb	fp, [r1, #128]
    3ff8:	e0a83005 	adc	r3, r8, r5
    3ffc:	e2800050 	add	r0, r0, #80	; 0x50
    4000:	e3a04000 	mov	r4, #0	; 0x0
    4004:	e3a05000 	mov	r5, #0	; 0x0
    4008:	e88d0030 	stm	sp, {r4, r5}
    400c:	eb001bc5 	bl	af28 <_ZN9Cyg_Alarm10initializeEyy>
    4010:	e5d61081 	ldrb	r1, [r6, #129]
    4014:	e3510000 	cmp	r1, #0	; 0x0
    4018:	1affffdd 	bne	3f94 <_ZN10Cyg_Thread13counted_sleepEy+0x3c>
    401c:	e59a3000 	ldr	r3, [sl]
    4020:	e59a2000 	ldr	r2, [sl]
    4024:	e5c3b080 	strb	fp, [r3, #128]
    4028:	e5c21081 	strb	r1, [r2, #129]
    402c:	ebffff7a 	bl	3e1c <_ZN10Cyg_Thread5sleepEv>
    4030:	e596303c 	ldr	r3, [r6, #60]
    4034:	e3833002 	orr	r3, r3, #2	; 0x2
    4038:	e5990000 	ldr	r0, [r9]
    403c:	e586303c 	str	r3, [r6, #60]
    4040:	eb000676 	bl	5a20 <_ZN13Cyg_Scheduler12unlock_innerEj>
    4044:	e59a0000 	ldr	r0, [sl]
    4048:	e2800050 	add	r0, r0, #80	; 0x50
    404c:	eb001c4c 	bl	b184 <_ZN9Cyg_Alarm7disableEv>
    4050:	eaffffcf 	b	3f94 <_ZN10Cyg_Thread13counted_sleepEy+0x3c>
    4054:	eb000671 	bl	5a20 <_ZN13Cyg_Scheduler12unlock_innerEj>
    4058:	eaffffd2 	b	3fa8 <_ZN10Cyg_Thread13counted_sleepEy+0x50>
    405c:	40002538 	.word	0x40002538
    4060:	400007c8 	.word	0x400007c8
    4064:	40004678 	.word	0x40004678

00004068 <_ZN10Cyg_Thread13counted_sleepEv>:
    4068:	e92d4030 	push	{r4, r5, lr}
    406c:	e59f10a0 	ldr	r1, [pc, #160]	; 4114 <_ZN10Cyg_Thread13counted_sleepEv+0xac>
    4070:	e24dd004 	sub	sp, sp, #4	; 0x4
    4074:	e5914000 	ldr	r4, [r1]
    4078:	e59f5098 	ldr	r5, [pc, #152]	; 4118 <_ZN10Cyg_Thread13counted_sleepEv+0xb0>
    407c:	e5953000 	ldr	r3, [r5]
    4080:	e2833001 	add	r3, r3, #1	; 0x1
    4084:	e5853000 	str	r3, [r5]
    4088:	e5940044 	ldr	r0, [r4, #68]
    408c:	e3500000 	cmp	r0, #0	; 0x0
    4090:	12403001 	subne	r3, r0, #1	; 0x1
    4094:	15843044 	strne	r3, [r4, #68]
    4098:	0a00000d 	beq	40d4 <_ZN10Cyg_Thread13counted_sleepEv+0x6c>
    409c:	e5953000 	ldr	r3, [r5]
    40a0:	e2530001 	subs	r0, r3, #1	; 0x1
    40a4:	159f306c 	ldrne	r3, [pc, #108]	; 4118 <_ZN10Cyg_Thread13counted_sleepEv+0xb0>
    40a8:	15830000 	strne	r0, [r3]
    40ac:	0a000016 	beq	410c <_ZN10Cyg_Thread13counted_sleepEv+0xa4>
    40b0:	e5d43081 	ldrb	r3, [r4, #129]
    40b4:	e2433005 	sub	r3, r3, #5	; 0x5
    40b8:	e3530001 	cmp	r3, #1	; 0x1
    40bc:	8a000002 	bhi	40cc <_ZN10Cyg_Thread13counted_sleepEv+0x64>
    40c0:	e28dd004 	add	sp, sp, #4	; 0x4
    40c4:	e8bd4030 	pop	{r4, r5, lr}
    40c8:	eafffe68 	b	3a70 <_ZN10Cyg_Thread4exitEv>
    40cc:	e28dd004 	add	sp, sp, #4	; 0x4
    40d0:	e8bd8030 	pop	{r4, r5, pc}
    40d4:	e5912000 	ldr	r2, [r1]
    40d8:	e5911000 	ldr	r1, [r1]
    40dc:	e3a03001 	mov	r3, #1	; 0x1
    40e0:	e5c23080 	strb	r3, [r2, #128]
    40e4:	e5c10081 	strb	r0, [r1, #129]
    40e8:	ebffff4b 	bl	3e1c <_ZN10Cyg_Thread5sleepEv>
    40ec:	e594303c 	ldr	r3, [r4, #60]
    40f0:	e3833002 	orr	r3, r3, #2	; 0x2
    40f4:	e584303c 	str	r3, [r4, #60]
    40f8:	e5953000 	ldr	r3, [r5]
    40fc:	e2530001 	subs	r0, r3, #1	; 0x1
    4100:	159f3010 	ldrne	r3, [pc, #16]	; 4118 <_ZN10Cyg_Thread13counted_sleepEv+0xb0>
    4104:	15830000 	strne	r0, [r3]
    4108:	1affffe8 	bne	40b0 <_ZN10Cyg_Thread13counted_sleepEv+0x48>
    410c:	eb000643 	bl	5a20 <_ZN13Cyg_Scheduler12unlock_innerEj>
    4110:	eaffffe6 	b	40b0 <_ZN10Cyg_Thread13counted_sleepEv+0x48>
    4114:	40002538 	.word	0x40002538
    4118:	400007c8 	.word	0x400007c8

0000411c <_ZN10Cyg_Thread12force_resumeEv>:
    411c:	e92d4010 	push	{r4, lr}
    4120:	e59f4060 	ldr	r4, [pc, #96]	; 4188 <_ZN10Cyg_Thread12force_resumeEv+0x6c>
    4124:	e5943000 	ldr	r3, [r4]
    4128:	e2833001 	add	r3, r3, #1	; 0x1
    412c:	e5843000 	str	r3, [r4]
    4130:	e5903040 	ldr	r3, [r0, #64]
    4134:	e3530000 	cmp	r3, #0	; 0x0
    4138:	0a000006 	beq	4158 <_ZN10Cyg_Thread12force_resumeEv+0x3c>
    413c:	e590303c 	ldr	r3, [r0, #60]
    4140:	e3c33004 	bic	r3, r3, #4	; 0x4
    4144:	e3a02000 	mov	r2, #0	; 0x0
    4148:	e3530000 	cmp	r3, #0	; 0x0
    414c:	e5802040 	str	r2, [r0, #64]
    4150:	e580303c 	str	r3, [r0, #60]
    4154:	0a000007 	beq	4178 <_ZN10Cyg_Thread12force_resumeEv+0x5c>
    4158:	e5943000 	ldr	r3, [r4]
    415c:	e2530001 	subs	r0, r3, #1	; 0x1
    4160:	159f3020 	ldrne	r3, [pc, #32]	; 4188 <_ZN10Cyg_Thread12force_resumeEv+0x6c>
    4164:	15830000 	strne	r0, [r3]
    4168:	0a000000 	beq	4170 <_ZN10Cyg_Thread12force_resumeEv+0x54>
    416c:	e8bd8010 	pop	{r4, pc}
    4170:	eb00062a 	bl	5a20 <_ZN13Cyg_Scheduler12unlock_innerEj>
    4174:	e8bd8010 	pop	{r4, pc}
    4178:	e1a01000 	mov	r1, r0
    417c:	e59f0008 	ldr	r0, [pc, #8]	; 418c <_ZN10Cyg_Thread12force_resumeEv+0x70>
    4180:	eb0004fe 	bl	5580 <_ZN28Cyg_Scheduler_Implementation10add_threadEP10Cyg_Thread>
    4184:	eafffff3 	b	4158 <_ZN10Cyg_Thread12force_resumeEv+0x3c>
    4188:	400007c8 	.word	0x400007c8
    418c:	40002540 	.word	0x40002540

00004190 <_ZN10Cyg_Thread6resumeEv>:
    4190:	e92d4010 	push	{r4, lr}
    4194:	e59f406c 	ldr	r4, [pc, #108]	; 4208 <_ZN10Cyg_Thread6resumeEv+0x78>
    4198:	e5943000 	ldr	r3, [r4]
    419c:	e2833001 	add	r3, r3, #1	; 0x1
    41a0:	e5843000 	str	r3, [r4]
    41a4:	e5903040 	ldr	r3, [r0, #64]
    41a8:	e3530001 	cmp	r3, #1	; 0x1
    41ac:	0a000008 	beq	41d4 <_ZN10Cyg_Thread6resumeEv+0x44>
    41b0:	e3530000 	cmp	r3, #0	; 0x0
    41b4:	12433001 	subne	r3, r3, #1	; 0x1
    41b8:	15803040 	strne	r3, [r0, #64]
    41bc:	e5943000 	ldr	r3, [r4]
    41c0:	e2530001 	subs	r0, r3, #1	; 0x1
    41c4:	159f303c 	ldrne	r3, [pc, #60]	; 4208 <_ZN10Cyg_Thread6resumeEv+0x78>
    41c8:	15830000 	strne	r0, [r3]
    41cc:	0a00000b 	beq	4200 <_ZN10Cyg_Thread6resumeEv+0x70>
    41d0:	e8bd8010 	pop	{r4, pc}
    41d4:	e590303c 	ldr	r3, [r0, #60]
    41d8:	e3c33004 	bic	r3, r3, #4	; 0x4
    41dc:	e3a02000 	mov	r2, #0	; 0x0
    41e0:	e3530000 	cmp	r3, #0	; 0x0
    41e4:	e5802040 	str	r2, [r0, #64]
    41e8:	e580303c 	str	r3, [r0, #60]
    41ec:	1afffff2 	bne	41bc <_ZN10Cyg_Thread6resumeEv+0x2c>
    41f0:	e1a01000 	mov	r1, r0
    41f4:	e59f0010 	ldr	r0, [pc, #16]	; 420c <_ZN10Cyg_Thread6resumeEv+0x7c>
    41f8:	eb0004e0 	bl	5580 <_ZN28Cyg_Scheduler_Implementation10add_threadEP10Cyg_Thread>
    41fc:	eaffffee 	b	41bc <_ZN10Cyg_Thread6resumeEv+0x2c>
    4200:	eb000606 	bl	5a20 <_ZN13Cyg_Scheduler12unlock_innerEj>
    4204:	e8bd8010 	pop	{r4, pc}
    4208:	400007c8 	.word	0x400007c8
    420c:	40002540 	.word	0x40002540

00004210 <_ZN10Cyg_Thread4wakeEv>:
    4210:	e92d4030 	push	{r4, r5, lr}
    4214:	e1a04000 	mov	r4, r0
    4218:	e24dd004 	sub	sp, sp, #4	; 0x4
    421c:	e59f5078 	ldr	r5, [pc, #120]	; 429c <_ZN10Cyg_Thread4wakeEv+0x8c>
    4220:	e5953000 	ldr	r3, [r5]
    4224:	e2833001 	add	r3, r3, #1	; 0x1
    4228:	e5853000 	str	r3, [r5]
    422c:	e590303c 	ldr	r3, [r0, #60]
    4230:	e3130003 	tst	r3, #3	; 0x3
    4234:	0a00000b 	beq	4268 <_ZN10Cyg_Thread4wakeEv+0x58>
    4238:	e590002c 	ldr	r0, [r0, #44]
    423c:	e3c33003 	bic	r3, r3, #3	; 0x3
    4240:	e3500000 	cmp	r0, #0	; 0x0
    4244:	e584303c 	str	r3, [r4, #60]
    4248:	0a000003 	beq	425c <_ZN10Cyg_Thread4wakeEv+0x4c>
    424c:	e1a01004 	mov	r1, r4
    4250:	eb0004ad 	bl	550c <_ZN30Cyg_ThreadQueue_Implementation6removeEP10Cyg_Thread>
    4254:	e3a03000 	mov	r3, #0	; 0x0
    4258:	e584302c 	str	r3, [r4, #44]
    425c:	e594303c 	ldr	r3, [r4, #60]
    4260:	e3530000 	cmp	r3, #0	; 0x0
    4264:	0a000008 	beq	428c <_ZN10Cyg_Thread4wakeEv+0x7c>
    4268:	e5953000 	ldr	r3, [r5]
    426c:	e2530001 	subs	r0, r3, #1	; 0x1
    4270:	159f3024 	ldrne	r3, [pc, #36]	; 429c <_ZN10Cyg_Thread4wakeEv+0x8c>
    4274:	15830000 	strne	r0, [r3]
    4278:	0a000001 	beq	4284 <_ZN10Cyg_Thread4wakeEv+0x74>
    427c:	e28dd004 	add	sp, sp, #4	; 0x4
    4280:	e8bd8030 	pop	{r4, r5, pc}
    4284:	eb0005e5 	bl	5a20 <_ZN13Cyg_Scheduler12unlock_innerEj>
    4288:	eafffffb 	b	427c <_ZN10Cyg_Thread4wakeEv+0x6c>
    428c:	e1a01004 	mov	r1, r4
    4290:	e59f0008 	ldr	r0, [pc, #8]	; 42a0 <_ZN10Cyg_Thread4wakeEv+0x90>
    4294:	eb0004b9 	bl	5580 <_ZN28Cyg_Scheduler_Implementation10add_threadEP10Cyg_Thread>
    4298:	eafffff2 	b	4268 <_ZN10Cyg_Thread4wakeEv+0x58>
    429c:	400007c8 	.word	0x400007c8
    42a0:	40002540 	.word	0x40002540

000042a4 <_ZN10Cyg_Thread12counted_wakeEv>:
    42a4:	e92d4010 	push	{r4, lr}
    42a8:	e59f4054 	ldr	r4, [pc, #84]	; 4304 <_ZN10Cyg_Thread12counted_wakeEv+0x60>
    42ac:	e5943000 	ldr	r3, [r4]
    42b0:	e2833001 	add	r3, r3, #1	; 0x1
    42b4:	e5843000 	str	r3, [r4]
    42b8:	e590303c 	ldr	r3, [r0, #60]
    42bc:	e3130002 	tst	r3, #2	; 0x2
    42c0:	05903044 	ldreq	r3, [r0, #68]
    42c4:	02833001 	addeq	r3, r3, #1	; 0x1
    42c8:	05803044 	streq	r3, [r0, #68]
    42cc:	0a000004 	beq	42e4 <_ZN10Cyg_Thread12counted_wakeEv+0x40>
    42d0:	e3a03007 	mov	r3, #7	; 0x7
    42d4:	e3a02000 	mov	r2, #0	; 0x0
    42d8:	e5c03081 	strb	r3, [r0, #129]
    42dc:	e5c02080 	strb	r2, [r0, #128]
    42e0:	ebffffca 	bl	4210 <_ZN10Cyg_Thread4wakeEv>
    42e4:	e5943000 	ldr	r3, [r4]
    42e8:	e2530001 	subs	r0, r3, #1	; 0x1
    42ec:	159f3010 	ldrne	r3, [pc, #16]	; 4304 <_ZN10Cyg_Thread12counted_wakeEv+0x60>
    42f0:	15830000 	strne	r0, [r3]
    42f4:	0a000000 	beq	42fc <_ZN10Cyg_Thread12counted_wakeEv+0x58>
    42f8:	e8bd8010 	pop	{r4, pc}
    42fc:	eb0005c7 	bl	5a20 <_ZN13Cyg_Scheduler12unlock_innerEj>
    4300:	e8bd8010 	pop	{r4, pc}
    4304:	400007c8 	.word	0x400007c8

00004308 <_ZN10Cyg_Thread12set_priorityEi>:
    4308:	e92d40f0 	push	{r4, r5, r6, r7, lr}
    430c:	e1a05000 	mov	r5, r0
    4310:	e24dd004 	sub	sp, sp, #4	; 0x4
    4314:	e1a06001 	mov	r6, r1
    4318:	e59f7124 	ldr	r7, [pc, #292]	; 4444 <_ZN10Cyg_Thread12set_priorityEi+0x13c>
    431c:	e5973000 	ldr	r3, [r7]
    4320:	e2833001 	add	r3, r3, #1	; 0x1
    4324:	e5873000 	str	r3, [r7]
    4328:	e590403c 	ldr	r4, [r0, #60]
    432c:	e3540000 	cmp	r4, #0	; 0x0
    4330:	0a00003d 	beq	442c <_ZN10Cyg_Thread12set_priorityEi+0x124>
    4334:	e2140001 	ands	r0, r4, #1	; 0x1
    4338:	01a04000 	moveq	r4, r0
    433c:	1a000031 	bne	4408 <_ZN10Cyg_Thread12set_priorityEi+0x100>
    4340:	e59f0100 	ldr	r0, [pc, #256]	; 4448 <_ZN10Cyg_Thread12set_priorityEi+0x140>
    4344:	e1a01005 	mov	r1, r5
    4348:	eb000411 	bl	5394 <_ZN28Cyg_Scheduler_Implementation17deregister_threadEP10Cyg_Thread>
    434c:	e5953038 	ldr	r3, [r5, #56]
    4350:	e3530000 	cmp	r3, #0	; 0x0
    4354:	0a00001a 	beq	43c4 <_ZN10Cyg_Thread12set_priorityEi+0xbc>
    4358:	e5953024 	ldr	r3, [r5, #36]
    435c:	e1560003 	cmp	r6, r3
    4360:	e5856034 	str	r6, [r5, #52]
    4364:	ba000016 	blt	43c4 <_ZN10Cyg_Thread12set_priorityEi+0xbc>
    4368:	e59f00d8 	ldr	r0, [pc, #216]	; 4448 <_ZN10Cyg_Thread12set_priorityEi+0x140>
    436c:	e1a01005 	mov	r1, r5
    4370:	eb000406 	bl	5390 <_ZN28Cyg_Scheduler_Implementation15register_threadEP10Cyg_Thread>
    4374:	e595303c 	ldr	r3, [r5, #60]
    4378:	e3530000 	cmp	r3, #0	; 0x0
    437c:	0a000017 	beq	43e0 <_ZN10Cyg_Thread12set_priorityEi+0xd8>
    4380:	e3130001 	tst	r3, #1	; 0x1
    4384:	1a000019 	bne	43f0 <_ZN10Cyg_Thread12set_priorityEi+0xe8>
    4388:	e59f30bc 	ldr	r3, [pc, #188]	; 444c <_ZN10Cyg_Thread12set_priorityEi+0x144>
    438c:	e5932000 	ldr	r2, [r3]
    4390:	e1550002 	cmp	r5, r2
    4394:	059f30b4 	ldreq	r3, [pc, #180]	; 4450 <_ZN10Cyg_Thread12set_priorityEi+0x148>
    4398:	03a02001 	moveq	r2, #1	; 0x1
    439c:	05832000 	streq	r2, [r3]
    43a0:	11a00005 	movne	r0, r5
    43a4:	1b0003e6 	blne	5344 <_ZN28Cyg_Scheduler_Implementation19set_need_rescheduleEP10Cyg_Thread>
    43a8:	e5973000 	ldr	r3, [r7]
    43ac:	e2530001 	subs	r0, r3, #1	; 0x1
    43b0:	159f308c 	ldrne	r3, [pc, #140]	; 4444 <_ZN10Cyg_Thread12set_priorityEi+0x13c>
    43b4:	15830000 	strne	r0, [r3]
    43b8:	0a00001f 	beq	443c <_ZN10Cyg_Thread12set_priorityEi+0x134>
    43bc:	e28dd004 	add	sp, sp, #4	; 0x4
    43c0:	e8bd80f0 	pop	{r4, r5, r6, r7, pc}
    43c4:	e5856024 	str	r6, [r5, #36]
    43c8:	e59f0078 	ldr	r0, [pc, #120]	; 4448 <_ZN10Cyg_Thread12set_priorityEi+0x140>
    43cc:	e1a01005 	mov	r1, r5
    43d0:	eb0003ee 	bl	5390 <_ZN28Cyg_Scheduler_Implementation15register_threadEP10Cyg_Thread>
    43d4:	e595303c 	ldr	r3, [r5, #60]
    43d8:	e3530000 	cmp	r3, #0	; 0x0
    43dc:	1affffe7 	bne	4380 <_ZN10Cyg_Thread12set_priorityEi+0x78>
    43e0:	e59f0060 	ldr	r0, [pc, #96]	; 4448 <_ZN10Cyg_Thread12set_priorityEi+0x140>
    43e4:	e1a01005 	mov	r1, r5
    43e8:	eb000464 	bl	5580 <_ZN28Cyg_Scheduler_Implementation10add_threadEP10Cyg_Thread>
    43ec:	eaffffe5 	b	4388 <_ZN10Cyg_Thread12set_priorityEi+0x80>
    43f0:	e3540000 	cmp	r4, #0	; 0x0
    43f4:	0affffe3 	beq	4388 <_ZN10Cyg_Thread12set_priorityEi+0x80>
    43f8:	e1a00004 	mov	r0, r4
    43fc:	e1a01005 	mov	r1, r5
    4400:	eb00041d 	bl	547c <_ZN30Cyg_ThreadQueue_Implementation7enqueueEP10Cyg_Thread>
    4404:	eaffffdf 	b	4388 <_ZN10Cyg_Thread12set_priorityEi+0x80>
    4408:	e595402c 	ldr	r4, [r5, #44]
    440c:	e3540000 	cmp	r4, #0	; 0x0
    4410:	0affffca 	beq	4340 <_ZN10Cyg_Thread12set_priorityEi+0x38>
    4414:	e1a00004 	mov	r0, r4
    4418:	e1a01005 	mov	r1, r5
    441c:	eb00043a 	bl	550c <_ZN30Cyg_ThreadQueue_Implementation6removeEP10Cyg_Thread>
    4420:	e3a03000 	mov	r3, #0	; 0x0
    4424:	e585302c 	str	r3, [r5, #44]
    4428:	eaffffc4 	b	4340 <_ZN10Cyg_Thread12set_priorityEi+0x38>
    442c:	e59f0014 	ldr	r0, [pc, #20]	; 4448 <_ZN10Cyg_Thread12set_priorityEi+0x140>
    4430:	e1a01005 	mov	r1, r5
    4434:	eb000399 	bl	52a0 <_ZN28Cyg_Scheduler_Implementation10rem_threadEP10Cyg_Thread>
    4438:	eaffffc0 	b	4340 <_ZN10Cyg_Thread12set_priorityEi+0x38>
    443c:	eb000577 	bl	5a20 <_ZN13Cyg_Scheduler12unlock_innerEj>
    4440:	eaffffdd 	b	43bc <_ZN10Cyg_Thread12set_priorityEi+0xb4>
    4444:	400007c8 	.word	0x400007c8
    4448:	40002540 	.word	0x40002540
    444c:	40002538 	.word	0x40002538
    4450:	4000253c 	.word	0x4000253c

00004454 <_ZN10Cyg_ThreadD1Ev>:
    4454:	e92d4010 	push	{r4, lr}
    4458:	e1a01000 	mov	r1, r0
    445c:	e1a04000 	mov	r4, r0
    4460:	e59f00a8 	ldr	r0, [pc, #168]	; 4510 <_ZN10Cyg_ThreadD1Ev+0xbc>
    4464:	eb0003ca 	bl	5394 <_ZN28Cyg_Scheduler_Implementation17deregister_threadEP10Cyg_Thread>
    4468:	e59f00a4 	ldr	r0, [pc, #164]	; 4514 <_ZN10Cyg_ThreadD1Ev+0xc0>
    446c:	e5903000 	ldr	r3, [r0]
    4470:	e2833001 	add	r3, r3, #1	; 0x1
    4474:	e5803000 	str	r3, [r0]
    4478:	e59fc098 	ldr	ip, [pc, #152]	; 4518 <_ZN10Cyg_ThreadD1Ev+0xc4>
    447c:	e59c1000 	ldr	r1, [ip]
    4480:	e1a02001 	mov	r2, r1
    4484:	e59230a0 	ldr	r3, [r2, #160]
    4488:	e1540003 	cmp	r4, r3
    448c:	0a000019 	beq	44f8 <_ZN10Cyg_ThreadD1Ev+0xa4>
    4490:	e1510003 	cmp	r1, r3
    4494:	e1a02003 	mov	r2, r3
    4498:	1afffff9 	bne	4484 <_ZN10Cyg_ThreadD1Ev+0x30>
    449c:	e5903000 	ldr	r3, [r0]
    44a0:	e2530001 	subs	r0, r3, #1	; 0x1
    44a4:	159f3068 	ldrne	r3, [pc, #104]	; 4514 <_ZN10Cyg_ThreadD1Ev+0xc0>
    44a8:	15830000 	strne	r0, [r3]
    44ac:	0a00000f 	beq	44f0 <_ZN10Cyg_ThreadD1Ev+0x9c>
    44b0:	e3a03000 	mov	r3, #0	; 0x0
    44b4:	e1c434bc 	strh	r3, [r4, #76]
    44b8:	e2840050 	add	r0, r4, #80	; 0x50
    44bc:	eb001b51 	bl	b208 <_ZN9Cyg_AlarmD2Ev>
    44c0:	e594101c 	ldr	r1, [r4, #28]
    44c4:	e284001c 	add	r0, r4, #28	; 0x1c
    44c8:	e1500001 	cmp	r0, r1
    44cc:	0a000005 	beq	44e8 <_ZN10Cyg_ThreadD1Ev+0x94>
    44d0:	e5943020 	ldr	r3, [r4, #32]
    44d4:	e5813004 	str	r3, [r1, #4]
    44d8:	e5942020 	ldr	r2, [r4, #32]
    44dc:	e5840020 	str	r0, [r4, #32]
    44e0:	e5821000 	str	r1, [r2]
    44e4:	e584001c 	str	r0, [r4, #28]
    44e8:	e1a00004 	mov	r0, r4
    44ec:	e8bd8010 	pop	{r4, pc}
    44f0:	eb00054a 	bl	5a20 <_ZN13Cyg_Scheduler12unlock_innerEj>
    44f4:	eaffffed 	b	44b0 <_ZN10Cyg_ThreadD1Ev+0x5c>
    44f8:	e59430a0 	ldr	r3, [r4, #160]
    44fc:	e58230a0 	str	r3, [r2, #160]
    4500:	e1540001 	cmp	r4, r1
    4504:	059430a0 	ldreq	r3, [r4, #160]
    4508:	058c3000 	streq	r3, [ip]
    450c:	eaffffe2 	b	449c <_ZN10Cyg_ThreadD1Ev+0x48>
    4510:	40002540 	.word	0x40002540
    4514:	400007c8 	.word	0x400007c8
    4518:	40001c64 	.word	0x40001c64

0000451c <_ZN10Cyg_ThreadD2Ev>:
    451c:	e92d4010 	push	{r4, lr}
    4520:	e1a01000 	mov	r1, r0
    4524:	e1a04000 	mov	r4, r0
    4528:	e59f00a8 	ldr	r0, [pc, #168]	; 45d8 <_ZN10Cyg_ThreadD2Ev+0xbc>
    452c:	eb000398 	bl	5394 <_ZN28Cyg_Scheduler_Implementation17deregister_threadEP10Cyg_Thread>
    4530:	e59f00a4 	ldr	r0, [pc, #164]	; 45dc <_ZN10Cyg_ThreadD2Ev+0xc0>
    4534:	e5903000 	ldr	r3, [r0]
    4538:	e2833001 	add	r3, r3, #1	; 0x1
    453c:	e5803000 	str	r3, [r0]
    4540:	e59fc098 	ldr	ip, [pc, #152]	; 45e0 <_ZN10Cyg_ThreadD2Ev+0xc4>
    4544:	e59c1000 	ldr	r1, [ip]
    4548:	e1a02001 	mov	r2, r1
    454c:	e59230a0 	ldr	r3, [r2, #160]
    4550:	e1540003 	cmp	r4, r3
    4554:	0a000019 	beq	45c0 <_ZN10Cyg_ThreadD2Ev+0xa4>
    4558:	e1510003 	cmp	r1, r3
    455c:	e1a02003 	mov	r2, r3
    4560:	1afffff9 	bne	454c <_ZN10Cyg_ThreadD2Ev+0x30>
    4564:	e5903000 	ldr	r3, [r0]
    4568:	e2530001 	subs	r0, r3, #1	; 0x1
    456c:	159f3068 	ldrne	r3, [pc, #104]	; 45dc <_ZN10Cyg_ThreadD2Ev+0xc0>
    4570:	15830000 	strne	r0, [r3]
    4574:	0a00000f 	beq	45b8 <_ZN10Cyg_ThreadD2Ev+0x9c>
    4578:	e3a03000 	mov	r3, #0	; 0x0
    457c:	e1c434bc 	strh	r3, [r4, #76]
    4580:	e2840050 	add	r0, r4, #80	; 0x50
    4584:	eb001b1f 	bl	b208 <_ZN9Cyg_AlarmD2Ev>
    4588:	e594101c 	ldr	r1, [r4, #28]
    458c:	e284001c 	add	r0, r4, #28	; 0x1c
    4590:	e1500001 	cmp	r0, r1
    4594:	0a000005 	beq	45b0 <_ZN10Cyg_ThreadD2Ev+0x94>
    4598:	e5943020 	ldr	r3, [r4, #32]
    459c:	e5813004 	str	r3, [r1, #4]
    45a0:	e5942020 	ldr	r2, [r4, #32]
    45a4:	e5840020 	str	r0, [r4, #32]
    45a8:	e5821000 	str	r1, [r2]
    45ac:	e584001c 	str	r0, [r4, #28]
    45b0:	e1a00004 	mov	r0, r4
    45b4:	e8bd8010 	pop	{r4, pc}
    45b8:	eb000518 	bl	5a20 <_ZN13Cyg_Scheduler12unlock_innerEj>
    45bc:	eaffffed 	b	4578 <_ZN10Cyg_ThreadD2Ev+0x5c>
    45c0:	e59430a0 	ldr	r3, [r4, #160]
    45c4:	e58230a0 	str	r3, [r2, #160]
    45c8:	e1540001 	cmp	r4, r1
    45cc:	059430a0 	ldreq	r3, [r4, #160]
    45d0:	058c3000 	streq	r3, [ip]
    45d4:	eaffffe2 	b	4564 <_ZN10Cyg_ThreadD2Ev+0x48>
    45d8:	40002540 	.word	0x40002540
    45dc:	400007c8 	.word	0x400007c8
    45e0:	40001c64 	.word	0x40001c64

000045e4 <_ZN10Cyg_Thread4killEv>:
    45e4:	e92d4030 	push	{r4, r5, lr}
    45e8:	e59f30e0 	ldr	r3, [pc, #224]	; 46d0 <_ZN10Cyg_Thread4killEv+0xec>
    45ec:	e5932000 	ldr	r2, [r3]
    45f0:	e1500002 	cmp	r0, r2
    45f4:	e24dd004 	sub	sp, sp, #4	; 0x4
    45f8:	e1a04000 	mov	r4, r0
    45fc:	0a000031 	beq	46c8 <_ZN10Cyg_Thread4killEv+0xe4>
    4600:	e59f50cc 	ldr	r5, [pc, #204]	; 46d4 <_ZN10Cyg_Thread4killEv+0xf0>
    4604:	e5953000 	ldr	r3, [r5]
    4608:	e2833001 	add	r3, r3, #1	; 0x1
    460c:	e5853000 	str	r3, [r5]
    4610:	e1a00004 	mov	r0, r4
    4614:	ebfffec0 	bl	411c <_ZN10Cyg_Thread12force_resumeEv>
    4618:	e2840050 	add	r0, r4, #80	; 0x50
    461c:	eb001ad8 	bl	b184 <_ZN9Cyg_Alarm7disableEv>
    4620:	e5d43081 	ldrb	r3, [r4, #129]
    4624:	e3530006 	cmp	r3, #6	; 0x6
    4628:	0a00000f 	beq	466c <_ZN10Cyg_Thread4killEv+0x88>
    462c:	e5d43080 	ldrb	r3, [r4, #128]
    4630:	e3530007 	cmp	r3, #7	; 0x7
    4634:	979ff103 	ldrls	pc, [pc, r3, lsl #2]
    4638:	ea00000b 	b	466c <_ZN10Cyg_Thread4killEv+0x88>
    463c:	00004690 	.word	0x00004690
    4640:	0000465c 	.word	0x0000465c
    4644:	0000465c 	.word	0x0000465c
    4648:	0000465c 	.word	0x0000465c
    464c:	00004674 	.word	0x00004674
    4650:	00004674 	.word	0x00004674
    4654:	00004674 	.word	0x00004674
    4658:	00004674 	.word	0x00004674
    465c:	e3a03000 	mov	r3, #0	; 0x0
    4660:	e3a02006 	mov	r2, #6	; 0x6
    4664:	e5c43080 	strb	r3, [r4, #128]
    4668:	e5c42081 	strb	r2, [r4, #129]
    466c:	e1a00004 	mov	r0, r4
    4670:	ebfffee6 	bl	4210 <_ZN10Cyg_Thread4wakeEv>
    4674:	e5953000 	ldr	r3, [r5]
    4678:	e2530001 	subs	r0, r3, #1	; 0x1
    467c:	159f3050 	ldrne	r3, [pc, #80]	; 46d4 <_ZN10Cyg_Thread4killEv+0xf0>
    4680:	15830000 	strne	r0, [r3]
    4684:	0a000009 	beq	46b0 <_ZN10Cyg_Thread4killEv+0xcc>
    4688:	e28dd004 	add	sp, sp, #4	; 0x4
    468c:	e8bd8030 	pop	{r4, r5, pc}
    4690:	e594303c 	ldr	r3, [r4, #60]
    4694:	e3530000 	cmp	r3, #0	; 0x0
    4698:	0a000006 	beq	46b8 <_ZN10Cyg_Thread4killEv+0xd4>
    469c:	e3a03010 	mov	r3, #16	; 0x10
    46a0:	e584303c 	str	r3, [r4, #60]
    46a4:	e1a00004 	mov	r0, r4
    46a8:	ebfffed8 	bl	4210 <_ZN10Cyg_Thread4wakeEv>
    46ac:	eafffff0 	b	4674 <_ZN10Cyg_Thread4killEv+0x90>
    46b0:	eb0004da 	bl	5a20 <_ZN13Cyg_Scheduler12unlock_innerEj>
    46b4:	eafffff3 	b	4688 <_ZN10Cyg_Thread4killEv+0xa4>
    46b8:	e59f0018 	ldr	r0, [pc, #24]	; 46d8 <_ZN10Cyg_Thread4killEv+0xf4>
    46bc:	e1a01004 	mov	r1, r4
    46c0:	eb0002f6 	bl	52a0 <_ZN28Cyg_Scheduler_Implementation10rem_threadEP10Cyg_Thread>
    46c4:	eafffff4 	b	469c <_ZN10Cyg_Thread4killEv+0xb8>
    46c8:	ebfffce8 	bl	3a70 <_ZN10Cyg_Thread4exitEv>
    46cc:	eaffffcb 	b	4600 <_ZN10Cyg_Thread4killEv+0x1c>
    46d0:	40002538 	.word	0x40002538
    46d4:	400007c8 	.word	0x400007c8
    46d8:	40002540 	.word	0x40002540

000046dc <_ZN10Cyg_ThreadC2EjPFvjEjPcjj>:
    46dc:	e92d4070 	push	{r4, r5, r6, lr}
    46e0:	e59dc014 	ldr	ip, [sp, #20]
    46e4:	e59d5018 	ldr	r5, [sp, #24]
    46e8:	e3a04000 	mov	r4, #0	; 0x0
    46ec:	e085e00c 	add	lr, r5, ip
    46f0:	e1a06000 	mov	r6, r0
    46f4:	e580e00c 	str	lr, [r0, #12]
    46f8:	e580c000 	str	ip, [r0]
    46fc:	e580c008 	str	ip, [r0, #8]
    4700:	e5802010 	str	r2, [r0, #16]
    4704:	e5803014 	str	r3, [r0, #20]
    4708:	e1a02001 	mov	r2, r1
    470c:	e5804018 	str	r4, [r0, #24]
    4710:	e5805004 	str	r5, [r0, #4]
    4714:	e1a01000 	mov	r1, r0
    4718:	e280001c 	add	r0, r0, #28	; 0x1c
    471c:	eb0004a7 	bl	59c0 <_ZN15Cyg_SchedThreadC2EP10Cyg_Threadj>
    4720:	e59f3138 	ldr	r3, [pc, #312]	; 4860 <_ZN10Cyg_ThreadC2EjPFvjEjPcjj+0x184>
    4724:	e2860050 	add	r0, r6, #80	; 0x50
    4728:	e5931000 	ldr	r1, [r3]
    472c:	e59f2130 	ldr	r2, [pc, #304]	; 4864 <_ZN10Cyg_ThreadC2EjPFvjEjPcjj+0x188>
    4730:	e1a03000 	mov	r3, r0
    4734:	eb0018ee 	bl	aaf4 <_ZN9Cyg_AlarmC2EP11Cyg_CounterPFvPS_jEj>
    4738:	e59fc128 	ldr	ip, [pc, #296]	; 4868 <_ZN10Cyg_ThreadC2EjPFvjEjPcjj+0x18c>
    473c:	e3a03004 	mov	r3, #4	; 0x4
    4740:	e1dc10b0 	ldrh	r1, [ip]
    4744:	e586303c 	str	r3, [r6, #60]
    4748:	e59d3010 	ldr	r3, [sp, #16]
    474c:	e2810001 	add	r0, r1, #1	; 0x1
    4750:	e3a02001 	mov	r2, #1	; 0x1
    4754:	e1c614bc 	strh	r1, [r6, #76]
    4758:	e5862040 	str	r2, [r6, #64]
    475c:	e5864098 	str	r4, [r6, #152]
    4760:	e586309c 	str	r3, [r6, #156]
    4764:	e1cc00b0 	strh	r0, [ip]
    4768:	e586607c 	str	r6, [r6, #124]
    476c:	e5864044 	str	r4, [r6, #68]
    4770:	e5c64080 	strb	r4, [r6, #128]
    4774:	e5c64081 	strb	r4, [r6, #129]
    4778:	e5864084 	str	r4, [r6, #132]
    477c:	e5864088 	str	r4, [r6, #136]
    4780:	e586408c 	str	r4, [r6, #140]
    4784:	e5864090 	str	r4, [r6, #144]
    4788:	e5864094 	str	r4, [r6, #148]
    478c:	e59f00d8 	ldr	r0, [pc, #216]	; 486c <_ZN10Cyg_ThreadC2EjPFvjEjPcjj+0x190>
    4790:	e5903000 	ldr	r3, [r0]
    4794:	e0833002 	add	r3, r3, r2
    4798:	e5803000 	str	r3, [r0]
    479c:	e59fc0cc 	ldr	ip, [pc, #204]	; 4870 <_ZN10Cyg_ThreadC2EjPFvjEjPcjj+0x194>
    47a0:	e59c2000 	ldr	r2, [ip]
    47a4:	e1520004 	cmp	r2, r4
    47a8:	058660a0 	streq	r6, [r6, #160]
    47ac:	0a00000c 	beq	47e4 <_ZN10Cyg_ThreadC2EjPFvjEjPcjj+0x108>
    47b0:	e1560002 	cmp	r6, r2
    47b4:	0a00000a 	beq	47e4 <_ZN10Cyg_ThreadC2EjPFvjEjPcjj+0x108>
    47b8:	e59210a0 	ldr	r1, [r2, #160]
    47bc:	e1520001 	cmp	r2, r1
    47c0:	11a03001 	movne	r3, r1
    47c4:	0a000004 	beq	47dc <_ZN10Cyg_ThreadC2EjPFvjEjPcjj+0x100>
    47c8:	e1560003 	cmp	r6, r3
    47cc:	0a000004 	beq	47e4 <_ZN10Cyg_ThreadC2EjPFvjEjPcjj+0x108>
    47d0:	e59330a0 	ldr	r3, [r3, #160]
    47d4:	e1520003 	cmp	r2, r3
    47d8:	1afffffa 	bne	47c8 <_ZN10Cyg_ThreadC2EjPFvjEjPcjj+0xec>
    47dc:	e58610a0 	str	r1, [r6, #160]
    47e0:	e58260a0 	str	r6, [r2, #160]
    47e4:	e58c6000 	str	r6, [ip]
    47e8:	e5903000 	ldr	r3, [r0]
    47ec:	e2530001 	subs	r0, r3, #1	; 0x1
    47f0:	159f3074 	ldrne	r3, [pc, #116]	; 486c <_ZN10Cyg_ThreadC2EjPFvjEjPcjj+0x190>
    47f4:	15830000 	strne	r0, [r3]
    47f8:	0a000016 	beq	4858 <_ZN10Cyg_ThreadC2EjPFvjEjPcjj+0x17c>
    47fc:	e59f0070 	ldr	r0, [pc, #112]	; 4874 <_ZN10Cyg_ThreadC2EjPFvjEjPcjj+0x198>
    4800:	e1a01006 	mov	r1, r6
    4804:	eb0002e1 	bl	5390 <_ZN28Cyg_Scheduler_Implementation15register_threadEP10Cyg_Thread>
    4808:	e596300c 	ldr	r3, [r6, #12]
    480c:	e3c3000f 	bic	r0, r3, #15	; 0xf
    4810:	e2401050 	sub	r1, r0, #80	; 0x50
    4814:	e3a02000 	mov	r2, #0	; 0x0
    4818:	e3823411 	orr	r3, r2, #285212672	; 0x11000000
    481c:	e3833811 	orr	r3, r3, #1114112	; 0x110000
    4820:	e7813102 	str	r3, [r1, r2, lsl #2]
    4824:	e2822001 	add	r2, r2, #1	; 0x1
    4828:	e352000b 	cmp	r2, #11	; 0xb
    482c:	1afffff9 	bne	4818 <_ZN10Cyg_ThreadC2EjPFvjEjPcjj+0x13c>
    4830:	e59f2040 	ldr	r2, [pc, #64]	; 4878 <_ZN10Cyg_ThreadC2EjPFvjEjPcjj+0x19c>
    4834:	e3a03013 	mov	r3, #19	; 0x13
    4838:	e5810034 	str	r0, [r1, #52]
    483c:	e5006050 	str	r6, [r0, #-80]
    4840:	e581203c 	str	r2, [r1, #60]
    4844:	e5813040 	str	r3, [r1, #64]
    4848:	e5812038 	str	r2, [r1, #56]
    484c:	e1a00006 	mov	r0, r6
    4850:	e586100c 	str	r1, [r6, #12]
    4854:	e8bd8070 	pop	{r4, r5, r6, pc}
    4858:	eb000470 	bl	5a20 <_ZN13Cyg_Scheduler12unlock_innerEj>
    485c:	eaffffe6 	b	47fc <_ZN10Cyg_ThreadC2EjPFvjEjPcjj+0x120>
    4860:	40004678 	.word	0x40004678
    4864:	00004b0c 	.word	0x00004b0c
    4868:	400007c4 	.word	0x400007c4
    486c:	400007c8 	.word	0x400007c8
    4870:	40001c64 	.word	0x40001c64
    4874:	40002540 	.word	0x40002540
    4878:	00003ad8 	.word	0x00003ad8

0000487c <_ZN14Cyg_IdleThreadC1Ev>:
    487c:	e59f3080 	ldr	r3, [pc, #128]	; 4904 <_ZN14Cyg_IdleThreadC1Ev+0x88>
    4880:	e0633000 	rsb	r3, r3, r0
    4884:	e1a031c3 	asr	r3, r3, #3
    4888:	e92d4030 	push	{r4, r5, lr}
    488c:	e1a04303 	lsl	r4, r3, #6
    4890:	e0444203 	sub	r4, r4, r3, lsl #4
    4894:	e1a02304 	lsl	r2, r4, #6
    4898:	e0844002 	add	r4, r4, r2
    489c:	e0844003 	add	r4, r4, r3
    48a0:	e1a04104 	lsl	r4, r4, #2
    48a4:	e0634004 	rsb	r4, r3, r4
    48a8:	e1a02904 	lsl	r2, r4, #18
    48ac:	e59fc054 	ldr	ip, [pc, #84]	; 4908 <_ZN14Cyg_IdleThreadC1Ev+0x8c>
    48b0:	e59fe054 	ldr	lr, [pc, #84]	; 490c <_ZN14Cyg_IdleThreadC1Ev+0x90>
    48b4:	e24dd014 	sub	sp, sp, #20	; 0x14
    48b8:	e0844002 	add	r4, r4, r2
    48bc:	e04ee584 	sub	lr, lr, r4, lsl #11
    48c0:	e1a05000 	mov	r5, r0
    48c4:	e3a03000 	mov	r3, #0	; 0x0
    48c8:	e58dc000 	str	ip, [sp]
    48cc:	e2644000 	rsb	r4, r4, #0	; 0x0
    48d0:	e3a0cb02 	mov	ip, #2048	; 0x800
    48d4:	e3a0101f 	mov	r1, #31	; 0x1f
    48d8:	e59f2030 	ldr	r2, [pc, #48]	; 4910 <_ZN14Cyg_IdleThreadC1Ev+0x94>
    48dc:	e58de004 	str	lr, [sp, #4]
    48e0:	e58dc008 	str	ip, [sp, #8]
    48e4:	ebffff7c 	bl	46dc <_ZN10Cyg_ThreadC2EjPFvjEjPcjj>
    48e8:	e1a02004 	mov	r2, r4
    48ec:	e59f0020 	ldr	r0, [pc, #32]	; 4914 <_ZN14Cyg_IdleThreadC1Ev+0x98>
    48f0:	e1a01005 	mov	r1, r5
    48f4:	eb0003be 	bl	57f4 <_ZN28Cyg_Scheduler_Implementation15set_idle_threadEP10Cyg_Threadj>
    48f8:	e1a00005 	mov	r0, r5
    48fc:	e28dd014 	add	sp, sp, #20	; 0x14
    4900:	e8bd8030 	pop	{r4, r5, pc}
    4904:	40001c70 	.word	0x40001c70
    4908:	0000f68c 	.word	0x0000f68c
    490c:	40001d18 	.word	0x40001d18
    4910:	00003a4c 	.word	0x00003a4c
    4914:	40002540 	.word	0x40002540

00004918 <_Z41__static_initialization_and_destruction_0ii>:
    4918:	e3500001 	cmp	r0, #1	; 0x1
    491c:	0a000007 	beq	4940 <_Z41__static_initialization_and_destruction_0ii+0x28>
    4920:	e3500000 	cmp	r0, #0	; 0x0
    4924:	112fff1e 	bxne	lr
    4928:	e3a03dad 	mov	r3, #11072	; 0x2b40
    492c:	e283301c 	add	r3, r3, #28	; 0x1c
    4930:	e1510003 	cmp	r1, r3
    4934:	112fff1e 	bxne	lr
    4938:	e59f0018 	ldr	r0, [pc, #24]	; 4958 <_Z41__static_initialization_and_destruction_0ii+0x40>
    493c:	eafffef6 	b	451c <_ZN10Cyg_ThreadD2Ev>
    4940:	e3a03dad 	mov	r3, #11072	; 0x2b40
    4944:	e283301c 	add	r3, r3, #28	; 0x1c
    4948:	e1510003 	cmp	r1, r3
    494c:	112fff1e 	bxne	lr
    4950:	e59f0000 	ldr	r0, [pc, #0]	; 4958 <_Z41__static_initialization_and_destruction_0ii+0x40>
    4954:	eaffffc8 	b	487c <_ZN14Cyg_IdleThreadC1Ev>
    4958:	40001c70 	.word	0x40001c70

0000495c <_GLOBAL__D.11100__ZN18Cyg_HardwareThread12thread_entryEP10Cyg_Thread>:
    495c:	e3a01dad 	mov	r1, #11072	; 0x2b40
    4960:	e281101c 	add	r1, r1, #28	; 0x1c
    4964:	e3a00000 	mov	r0, #0	; 0x0
    4968:	eaffffea 	b	4918 <_Z41__static_initialization_and_destruction_0ii>

0000496c <_GLOBAL__I.11100__ZN18Cyg_HardwareThread12thread_entryEP10Cyg_Thread>:
    496c:	e3a01dad 	mov	r1, #11072	; 0x2b40
    4970:	e281101c 	add	r1, r1, #28	; 0x1c
    4974:	e3a00001 	mov	r0, #1	; 0x1
    4978:	eaffffe6 	b	4918 <_Z41__static_initialization_and_destruction_0ii>

0000497c <_ZN14Cyg_IdleThreadC2Ev>:
    497c:	e59f3080 	ldr	r3, [pc, #128]	; 4a04 <_ZN14Cyg_IdleThreadC2Ev+0x88>
    4980:	e0633000 	rsb	r3, r3, r0
    4984:	e1a031c3 	asr	r3, r3, #3
    4988:	e92d4030 	push	{r4, r5, lr}
    498c:	e1a04303 	lsl	r4, r3, #6
    4990:	e0444203 	sub	r4, r4, r3, lsl #4
    4994:	e1a02304 	lsl	r2, r4, #6
    4998:	e0844002 	add	r4, r4, r2
    499c:	e0844003 	add	r4, r4, r3
    49a0:	e1a04104 	lsl	r4, r4, #2
    49a4:	e0634004 	rsb	r4, r3, r4
    49a8:	e1a02904 	lsl	r2, r4, #18
    49ac:	e59fc054 	ldr	ip, [pc, #84]	; 4a08 <_ZN14Cyg_IdleThreadC2Ev+0x8c>
    49b0:	e59fe054 	ldr	lr, [pc, #84]	; 4a0c <_ZN14Cyg_IdleThreadC2Ev+0x90>
    49b4:	e24dd014 	sub	sp, sp, #20	; 0x14
    49b8:	e0844002 	add	r4, r4, r2
    49bc:	e04ee584 	sub	lr, lr, r4, lsl #11
    49c0:	e1a05000 	mov	r5, r0
    49c4:	e3a03000 	mov	r3, #0	; 0x0
    49c8:	e58dc000 	str	ip, [sp]
    49cc:	e2644000 	rsb	r4, r4, #0	; 0x0
    49d0:	e3a0cb02 	mov	ip, #2048	; 0x800
    49d4:	e3a0101f 	mov	r1, #31	; 0x1f
    49d8:	e59f2030 	ldr	r2, [pc, #48]	; 4a10 <_ZN14Cyg_IdleThreadC2Ev+0x94>
    49dc:	e58de004 	str	lr, [sp, #4]
    49e0:	e58dc008 	str	ip, [sp, #8]
    49e4:	ebffff3c 	bl	46dc <_ZN10Cyg_ThreadC2EjPFvjEjPcjj>
    49e8:	e1a02004 	mov	r2, r4
    49ec:	e59f0020 	ldr	r0, [pc, #32]	; 4a14 <_ZN14Cyg_IdleThreadC2Ev+0x98>
    49f0:	e1a01005 	mov	r1, r5
    49f4:	eb00037e 	bl	57f4 <_ZN28Cyg_Scheduler_Implementation15set_idle_threadEP10Cyg_Threadj>
    49f8:	e1a00005 	mov	r0, r5
    49fc:	e28dd014 	add	sp, sp, #20	; 0x14
    4a00:	e8bd8030 	pop	{r4, r5, pc}
    4a04:	40001c70 	.word	0x40001c70
    4a08:	0000f68c 	.word	0x0000f68c
    4a0c:	40001d18 	.word	0x40001d18
    4a10:	00003a4c 	.word	0x00003a4c
    4a14:	40002540 	.word	0x40002540

00004a18 <_ZN10Cyg_Thread14new_data_indexEv>:
    4a18:	e92d4070 	push	{r4, r5, r6, lr}
    4a1c:	e59f6064 	ldr	r6, [pc, #100]	; 4a88 <_ZN10Cyg_Thread14new_data_indexEv+0x70>
    4a20:	e5963000 	ldr	r3, [r6]
    4a24:	e2833001 	add	r3, r3, #1	; 0x1
    4a28:	e5863000 	str	r3, [r6]
    4a2c:	e59f5058 	ldr	r5, [pc, #88]	; 4a8c <_ZN10Cyg_Thread14new_data_indexEv+0x74>
    4a30:	e5950000 	ldr	r0, [r5]
    4a34:	e3500000 	cmp	r0, #0	; 0x0
    4a38:	03e04000 	mvneq	r4, #0	; 0x0
    4a3c:	1a000001 	bne	4a48 <_ZN10Cyg_Thread14new_data_indexEv+0x30>
    4a40:	e1a00004 	mov	r0, r4
    4a44:	e8bd8070 	pop	{r4, r5, r6, pc}
    4a48:	eb001437 	bl	9b2c <hal_lsbindex>
    4a4c:	e3a03001 	mov	r3, #1	; 0x1
    4a50:	e1a03013 	lsl	r3, r3, r0
    4a54:	e5952000 	ldr	r2, [r5]
    4a58:	e1e03003 	mvn	r3, r3
    4a5c:	e0033002 	and	r3, r3, r2
    4a60:	e1a04000 	mov	r4, r0
    4a64:	e5853000 	str	r3, [r5]
    4a68:	e5963000 	ldr	r3, [r6]
    4a6c:	e2530001 	subs	r0, r3, #1	; 0x1
    4a70:	15860000 	strne	r0, [r6]
    4a74:	0a000001 	beq	4a80 <_ZN10Cyg_Thread14new_data_indexEv+0x68>
    4a78:	e1a00004 	mov	r0, r4
    4a7c:	e8bd8070 	pop	{r4, r5, r6, pc}
    4a80:	eb0003e6 	bl	5a20 <_ZN13Cyg_Scheduler12unlock_innerEj>
    4a84:	eafffffb 	b	4a78 <_ZN10Cyg_Thread14new_data_indexEv+0x60>
    4a88:	400007c8 	.word	0x400007c8
    4a8c:	400007c0 	.word	0x400007c0

00004a90 <_ZN10Cyg_Thread7releaseEv>:
    4a90:	e92d4010 	push	{r4, lr}
    4a94:	e59f406c 	ldr	r4, [pc, #108]	; 4b08 <_ZN10Cyg_Thread7releaseEv+0x78>
    4a98:	e5943000 	ldr	r3, [r4]
    4a9c:	e2833001 	add	r3, r3, #1	; 0x1
    4aa0:	e5843000 	str	r3, [r4]
    4aa4:	e5d03080 	ldrb	r3, [r0, #128]
    4aa8:	e3530007 	cmp	r3, #7	; 0x7
    4aac:	8a00000d 	bhi	4ae8 <_ZN10Cyg_Thread7releaseEv+0x58>
    4ab0:	e1d028d0 	ldrsb	r2, [r0, #128]
    4ab4:	e3a03001 	mov	r3, #1	; 0x1
    4ab8:	e1a03213 	lsl	r3, r3, r2
    4abc:	e21320f1 	ands	r2, r3, #241	; 0xf1
    4ac0:	0a000004 	beq	4ad8 <_ZN10Cyg_Thread7releaseEv+0x48>
    4ac4:	e5943000 	ldr	r3, [r4]
    4ac8:	e2530001 	subs	r0, r3, #1	; 0x1
    4acc:	15840000 	strne	r0, [r4]
    4ad0:	0a00000a 	beq	4b00 <_ZN10Cyg_Thread7releaseEv+0x70>
    4ad4:	e8bd8010 	pop	{r4, pc}
    4ad8:	e313000e 	tst	r3, #14	; 0xe
    4adc:	13a03004 	movne	r3, #4	; 0x4
    4ae0:	15c02080 	strbne	r2, [r0, #128]
    4ae4:	15c03081 	strbne	r3, [r0, #129]
    4ae8:	ebfffdc8 	bl	4210 <_ZN10Cyg_Thread4wakeEv>
    4aec:	e5943000 	ldr	r3, [r4]
    4af0:	e2530001 	subs	r0, r3, #1	; 0x1
    4af4:	159f300c 	ldrne	r3, [pc, #12]	; 4b08 <_ZN10Cyg_Thread7releaseEv+0x78>
    4af8:	15830000 	strne	r0, [r3]
    4afc:	1afffff4 	bne	4ad4 <_ZN10Cyg_Thread7releaseEv+0x44>
    4b00:	eb0003c6 	bl	5a20 <_ZN13Cyg_Scheduler12unlock_innerEj>
    4b04:	e8bd8010 	pop	{r4, pc}
    4b08:	400007c8 	.word	0x400007c8

00004b0c <_ZN15Cyg_ThreadTimer5alarmEP9Cyg_Alarmj>:
    4b0c:	e92d4010 	push	{r4, lr}
    4b10:	e591002c 	ldr	r0, [r1, #44]
    4b14:	e59f4080 	ldr	r4, [pc, #128]	; 4b9c <_ZN15Cyg_ThreadTimer5alarmEP9Cyg_Alarmj+0x90>
    4b18:	e5943000 	ldr	r3, [r4]
    4b1c:	e2833001 	add	r3, r3, #1	; 0x1
    4b20:	e5843000 	str	r3, [r4]
    4b24:	e5d03080 	ldrb	r3, [r0, #128]
    4b28:	e3530007 	cmp	r3, #7	; 0x7
    4b2c:	8a000013 	bhi	4b80 <_ZN15Cyg_ThreadTimer5alarmEP9Cyg_Alarmj+0x74>
    4b30:	e1d028d0 	ldrsb	r2, [r0, #128]
    4b34:	e3a03001 	mov	r3, #1	; 0x1
    4b38:	e1a03213 	lsl	r3, r3, r2
    4b3c:	e21320f3 	ands	r2, r3, #243	; 0xf3
    4b40:	0a000005 	beq	4b5c <_ZN15Cyg_ThreadTimer5alarmEP9Cyg_Alarmj+0x50>
    4b44:	e5943000 	ldr	r3, [r4]
    4b48:	e2530001 	subs	r0, r3, #1	; 0x1
    4b4c:	15840000 	strne	r0, [r4]
    4b50:	1a000010 	bne	4b98 <_ZN15Cyg_ThreadTimer5alarmEP9Cyg_Alarmj+0x8c>
    4b54:	eb0003b1 	bl	5a20 <_ZN13Cyg_Scheduler12unlock_innerEj>
    4b58:	e8bd8010 	pop	{r4, pc}
    4b5c:	e2131008 	ands	r1, r3, #8	; 0x8
    4b60:	13a03003 	movne	r3, #3	; 0x3
    4b64:	15c02080 	strbne	r2, [r0, #128]
    4b68:	15c03081 	strbne	r3, [r0, #129]
    4b6c:	1a000003 	bne	4b80 <_ZN15Cyg_ThreadTimer5alarmEP9Cyg_Alarmj+0x74>
    4b70:	e3130004 	tst	r3, #4	; 0x4
    4b74:	13a03007 	movne	r3, #7	; 0x7
    4b78:	15c01080 	strbne	r1, [r0, #128]
    4b7c:	15c03081 	strbne	r3, [r0, #129]
    4b80:	ebfffda2 	bl	4210 <_ZN10Cyg_Thread4wakeEv>
    4b84:	e5943000 	ldr	r3, [r4]
    4b88:	e2530001 	subs	r0, r3, #1	; 0x1
    4b8c:	159f3008 	ldrne	r3, [pc, #8]	; 4b9c <_ZN15Cyg_ThreadTimer5alarmEP9Cyg_Alarmj+0x90>
    4b90:	15830000 	strne	r0, [r3]
    4b94:	0affffee 	beq	4b54 <_ZN15Cyg_ThreadTimer5alarmEP9Cyg_Alarmj+0x48>
    4b98:	e8bd8010 	pop	{r4, pc}
    4b9c:	400007c8 	.word	0x400007c8

00004ba0 <_Z26cyg_null_exception_handlerjij>:
    4ba0:	e12fff1e 	bx	lr

00004ba4 <_ZN21Cyg_Exception_ControlC2Ev>:
    4ba4:	e59f1008 	ldr	r1, [pc, #8]	; 4bb4 <_ZN21Cyg_Exception_ControlC2Ev+0x10>
    4ba8:	e3a02000 	mov	r2, #0	; 0x0
    4bac:	e8800006 	stm	r0, {r1, r2}
    4bb0:	e12fff1e 	bx	lr
    4bb4:	00004ba0 	.word	0x00004ba0

00004bb8 <_ZN21Cyg_Exception_ControlC1Ev>:
    4bb8:	e59f1008 	ldr	r1, [pc, #8]	; 4bc8 <_ZN21Cyg_Exception_ControlC1Ev+0x10>
    4bbc:	e3a02000 	mov	r2, #0	; 0x0
    4bc0:	e8800006 	stm	r0, {r1, r2}
    4bc4:	e12fff1e 	bx	lr
    4bc8:	00004ba0 	.word	0x00004ba0

00004bcc <_ZN21Cyg_Exception_Control18register_exceptionEiPFvjijEjPS1_Pj>:
    4bcc:	e52d4004 	push	{r4}		; (str r4, [sp, #-4]!)
    4bd0:	e59d4004 	ldr	r4, [sp, #4]
    4bd4:	e3540000 	cmp	r4, #0	; 0x0
    4bd8:	e1a01003 	mov	r1, r3
    4bdc:	e59dc008 	ldr	ip, [sp, #8]
    4be0:	15903000 	ldrne	r3, [r0]
    4be4:	15843000 	strne	r3, [r4]
    4be8:	e35c0000 	cmp	ip, #0	; 0x0
    4bec:	15903004 	ldrne	r3, [r0, #4]
    4bf0:	e5802000 	str	r2, [r0]
    4bf4:	158c3000 	strne	r3, [ip]
    4bf8:	e5801004 	str	r1, [r0, #4]
    4bfc:	e8bd0010 	pop	{r4}
    4c00:	e12fff1e 	bx	lr

00004c04 <_ZN21Cyg_Exception_Control20deregister_exceptionEi>:
    4c04:	e59f2008 	ldr	r2, [pc, #8]	; 4c14 <_ZN21Cyg_Exception_Control20deregister_exceptionEi+0x10>
    4c08:	e3a03000 	mov	r3, #0	; 0x0
    4c0c:	e880000c 	stm	r0, {r2, r3}
    4c10:	e12fff1e 	bx	lr
    4c14:	00004ba0 	.word	0x00004ba0

00004c18 <_ZN21Cyg_Exception_Control17deliver_exceptionEij>:
    4c18:	e52de004 	push	{lr}		; (str lr, [sp, #-4]!)
    4c1c:	e1a03000 	mov	r3, r0
    4c20:	e24dd004 	sub	sp, sp, #4	; 0x4
    4c24:	e5900004 	ldr	r0, [r0, #4]
    4c28:	e1a0e00f 	mov	lr, pc
    4c2c:	e593f000 	ldr	pc, [r3]
    4c30:	e28dd004 	add	sp, sp, #4	; 0x4
    4c34:	e8bd8000 	pop	{pc}

00004c38 <_GLOBAL__I.12000__Z26cyg_null_exception_handlerjij>:
    4c38:	e59f300c 	ldr	r3, [pc, #12]	; 4c4c <_GLOBAL__I.12000__Z26cyg_null_exception_handlerjij+0x14>
    4c3c:	e59f100c 	ldr	r1, [pc, #12]	; 4c50 <_GLOBAL__I.12000__Z26cyg_null_exception_handlerjij+0x18>
    4c40:	e3a02000 	mov	r2, #0	; 0x0
    4c44:	e8830006 	stm	r3, {r1, r2}
    4c48:	e12fff1e 	bx	lr
    4c4c:	40002518 	.word	0x40002518
    4c50:	00004ba0 	.word	0x00004ba0

00004c54 <cyg_hal_deliver_exception>:
    4c54:	e52d4004 	push	{r4}		; (str r4, [sp, #-4]!)
    4c58:	e59f3018 	ldr	r3, [pc, #24]	; 4c78 <cyg_hal_deliver_exception+0x24>
    4c5c:	e593c000 	ldr	ip, [r3]
    4c60:	e1a04000 	mov	r4, r0
    4c64:	e1a02001 	mov	r2, r1
    4c68:	e1a0000c 	mov	r0, ip
    4c6c:	e1a01004 	mov	r1, r4
    4c70:	e8bd0010 	pop	{r4}
    4c74:	eafffb75 	b	3a50 <_ZN10Cyg_Thread17deliver_exceptionEij>
    4c78:	40002538 	.word	0x40002538

00004c7c <_ZN13Cyg_InterruptC2EjijPFjjjEPFvjjjE>:
    4c7c:	e52d4004 	push	{r4}		; (str r4, [sp, #-4]!)
    4c80:	e8800006 	stm	r0, {r1, r2}
    4c84:	e59d1008 	ldr	r1, [sp, #8]
    4c88:	e59d2004 	ldr	r2, [sp, #4]
    4c8c:	e3a04000 	mov	r4, #0	; 0x0
    4c90:	e5804014 	str	r4, [r0, #20]
    4c94:	e5802008 	str	r2, [r0, #8]
    4c98:	e580100c 	str	r1, [r0, #12]
    4c9c:	e5803010 	str	r3, [r0, #16]
    4ca0:	e5804018 	str	r4, [r0, #24]
    4ca4:	e8bd0010 	pop	{r4}
    4ca8:	e12fff1e 	bx	lr

00004cac <_ZN13Cyg_InterruptC1EjijPFjjjEPFvjjjE>:
    4cac:	e52d4004 	push	{r4}		; (str r4, [sp, #-4]!)
    4cb0:	e8800006 	stm	r0, {r1, r2}
    4cb4:	e59d1008 	ldr	r1, [sp, #8]
    4cb8:	e59d2004 	ldr	r2, [sp, #4]
    4cbc:	e3a04000 	mov	r4, #0	; 0x0
    4cc0:	e5804014 	str	r4, [r0, #20]
    4cc4:	e5802008 	str	r2, [r0, #8]
    4cc8:	e580100c 	str	r1, [r0, #12]
    4ccc:	e5803010 	str	r3, [r0, #16]
    4cd0:	e5804018 	str	r4, [r0, #24]
    4cd4:	e8bd0010 	pop	{r4}
    4cd8:	e12fff1e 	bx	lr

00004cdc <_ZN13Cyg_InterruptD2Ev>:
    4cdc:	e52d4004 	push	{r4}		; (str r4, [sp, #-4]!)
    4ce0:	e590c000 	ldr	ip, [r0]
    4ce4:	e59f4030 	ldr	r4, [pc, #48]	; 4d1c <_ZN13Cyg_InterruptD2Ev+0x40>
    4ce8:	e5902008 	ldr	r2, [r0, #8]
    4cec:	e794310c 	ldr	r3, [r4, ip, lsl #2]
    4cf0:	e1520003 	cmp	r2, r3
    4cf4:	1a000006 	bne	4d14 <_ZN13Cyg_InterruptD2Ev+0x38>
    4cf8:	e59f3020 	ldr	r3, [pc, #32]	; 4d20 <_ZN13Cyg_InterruptD2Ev+0x44>
    4cfc:	e3a01000 	mov	r1, #0	; 0x0
    4d00:	e783110c 	str	r1, [r3, ip, lsl #2]
    4d04:	e59f2018 	ldr	r2, [pc, #24]	; 4d24 <_ZN13Cyg_InterruptD2Ev+0x48>
    4d08:	e59f3018 	ldr	r3, [pc, #24]	; 4d28 <_ZN13Cyg_InterruptD2Ev+0x4c>
    4d0c:	e784210c 	str	r2, [r4, ip, lsl #2]
    4d10:	e783110c 	str	r1, [r3, ip, lsl #2]
    4d14:	e8bd0010 	pop	{r4}
    4d18:	e12fff1e 	bx	lr
    4d1c:	40000544 	.word	0x40000544
    4d20:	40000644 	.word	0x40000644
    4d24:	00001b0c 	.word	0x00001b0c
    4d28:	400005c4 	.word	0x400005c4

00004d2c <_ZN13Cyg_InterruptD1Ev>:
    4d2c:	e52d4004 	push	{r4}		; (str r4, [sp, #-4]!)
    4d30:	e590c000 	ldr	ip, [r0]
    4d34:	e59f4030 	ldr	r4, [pc, #48]	; 4d6c <_ZN13Cyg_InterruptD1Ev+0x40>
    4d38:	e5902008 	ldr	r2, [r0, #8]
    4d3c:	e794310c 	ldr	r3, [r4, ip, lsl #2]
    4d40:	e1520003 	cmp	r2, r3
    4d44:	1a000006 	bne	4d64 <_ZN13Cyg_InterruptD1Ev+0x38>
    4d48:	e59f3020 	ldr	r3, [pc, #32]	; 4d70 <_ZN13Cyg_InterruptD1Ev+0x44>
    4d4c:	e3a01000 	mov	r1, #0	; 0x0
    4d50:	e783110c 	str	r1, [r3, ip, lsl #2]
    4d54:	e59f2018 	ldr	r2, [pc, #24]	; 4d74 <_ZN13Cyg_InterruptD1Ev+0x48>
    4d58:	e59f3018 	ldr	r3, [pc, #24]	; 4d78 <_ZN13Cyg_InterruptD1Ev+0x4c>
    4d5c:	e784210c 	str	r2, [r4, ip, lsl #2]
    4d60:	e783110c 	str	r1, [r3, ip, lsl #2]
    4d64:	e8bd0010 	pop	{r4}
    4d68:	e12fff1e 	bx	lr
    4d6c:	40000544 	.word	0x40000544
    4d70:	40000644 	.word	0x40000644
    4d74:	00001b0c 	.word	0x00001b0c
    4d78:	400005c4 	.word	0x400005c4

00004d7c <_ZN13Cyg_Interrupt23call_pending_DSRs_innerEv>:
    4d7c:	e92d4070 	push	{r4, r5, r6, lr}
    4d80:	e10f0000 	mrs	r0, CPSR
    4d84:	e10f4000 	mrs	r4, CPSR
    4d88:	e38440c0 	orr	r4, r4, #192	; 0xc0
    4d8c:	e129f004 	msr	CPSR_fc, r4
    4d90:	e59f1068 	ldr	r1, [pc, #104]	; 4e00 <_ZN13Cyg_Interrupt23call_pending_DSRs_innerEv+0x84>
    4d94:	e59f3068 	ldr	r3, [pc, #104]	; 4e04 <_ZN13Cyg_Interrupt23call_pending_DSRs_innerEv+0x88>
    4d98:	e3a02000 	mov	r2, #0	; 0x0
    4d9c:	e591c000 	ldr	ip, [r1]
    4da0:	e5812000 	str	r2, [r1]
    4da4:	e5832000 	str	r2, [r3]
    4da8:	e1a06002 	mov	r6, r2
    4dac:	e59c1014 	ldr	r1, [ip, #20]
    4db0:	e59c5018 	ldr	r5, [ip, #24]
    4db4:	e58c6014 	str	r6, [ip, #20]
    4db8:	e58c6018 	str	r6, [ip, #24]
    4dbc:	e10f3000 	mrs	r3, CPSR
    4dc0:	e20040c0 	and	r4, r0, #192	; 0xc0
    4dc4:	e3c330c0 	bic	r3, r3, #192	; 0xc0
    4dc8:	e1833004 	orr	r3, r3, r4
    4dcc:	e129f003 	msr	CPSR_fc, r3
    4dd0:	e59c0000 	ldr	r0, [ip]
    4dd4:	e59c2010 	ldr	r2, [ip, #16]
    4dd8:	e1a0e00f 	mov	lr, pc
    4ddc:	e59cf00c 	ldr	pc, [ip, #12]
    4de0:	e3550000 	cmp	r5, #0	; 0x0
    4de4:	08bd8070 	popeq	{r4, r5, r6, pc}
    4de8:	e10f0000 	mrs	r0, CPSR
    4dec:	e10f4000 	mrs	r4, CPSR
    4df0:	e38440c0 	orr	r4, r4, #192	; 0xc0
    4df4:	e129f004 	msr	CPSR_fc, r4
    4df8:	e1a0c005 	mov	ip, r5
    4dfc:	eaffffea 	b	4dac <_ZN13Cyg_Interrupt23call_pending_DSRs_innerEv+0x30>
    4e00:	4000252c 	.word	0x4000252c
    4e04:	40002530 	.word	0x40002530

00004e08 <cyg_interrupt_call_pending_DSRs>:
    4e08:	eaffffdb 	b	4d7c <_ZN13Cyg_Interrupt23call_pending_DSRs_innerEv>

00004e0c <_ZN13Cyg_Interrupt8post_dsrEv>:
    4e0c:	e52d4004 	push	{r4}		; (str r4, [sp, #-4]!)
    4e10:	e10f1000 	mrs	r1, CPSR
    4e14:	e10f4000 	mrs	r4, CPSR
    4e18:	e38440c0 	orr	r4, r4, #192	; 0xc0
    4e1c:	e129f004 	msr	CPSR_fc, r4
    4e20:	e5903014 	ldr	r3, [r0, #20]
    4e24:	e3530000 	cmp	r3, #0	; 0x0
    4e28:	e2833001 	add	r3, r3, #1	; 0x1
    4e2c:	e5803014 	str	r3, [r0, #20]
    4e30:	1a000006 	bne	4e50 <_ZN13Cyg_Interrupt8post_dsrEv+0x44>
    4e34:	e59f3030 	ldr	r3, [pc, #48]	; 4e6c <_ZN13Cyg_Interrupt8post_dsrEv+0x60>
    4e38:	e5932000 	ldr	r2, [r3]
    4e3c:	e3520000 	cmp	r2, #0	; 0x0
    4e40:	e5830000 	str	r0, [r3]
    4e44:	059f3024 	ldreq	r3, [pc, #36]	; 4e70 <_ZN13Cyg_Interrupt8post_dsrEv+0x64>
    4e48:	15820018 	strne	r0, [r2, #24]
    4e4c:	05830000 	streq	r0, [r3]
    4e50:	e10f3000 	mrs	r3, CPSR
    4e54:	e20140c0 	and	r4, r1, #192	; 0xc0
    4e58:	e3c330c0 	bic	r3, r3, #192	; 0xc0
    4e5c:	e1833004 	orr	r3, r3, r4
    4e60:	e129f003 	msr	CPSR_fc, r3
    4e64:	e8bd0010 	pop	{r4}
    4e68:	e12fff1e 	bx	lr
    4e6c:	40002530 	.word	0x40002530
    4e70:	4000252c 	.word	0x4000252c

00004e74 <cyg_interrupt_post_dsr>:
    4e74:	e52d4004 	push	{r4}		; (str r4, [sp, #-4]!)
    4e78:	e10f1000 	mrs	r1, CPSR
    4e7c:	e10f4000 	mrs	r4, CPSR
    4e80:	e38440c0 	orr	r4, r4, #192	; 0xc0
    4e84:	e129f004 	msr	CPSR_fc, r4
    4e88:	e5903014 	ldr	r3, [r0, #20]
    4e8c:	e3530000 	cmp	r3, #0	; 0x0
    4e90:	e2833001 	add	r3, r3, #1	; 0x1
    4e94:	e5803014 	str	r3, [r0, #20]
    4e98:	1a000006 	bne	4eb8 <cyg_interrupt_post_dsr+0x44>
    4e9c:	e59f3030 	ldr	r3, [pc, #48]	; 4ed4 <cyg_interrupt_post_dsr+0x60>
    4ea0:	e5932000 	ldr	r2, [r3]
    4ea4:	e3520000 	cmp	r2, #0	; 0x0
    4ea8:	e5830000 	str	r0, [r3]
    4eac:	059f3024 	ldreq	r3, [pc, #36]	; 4ed8 <cyg_interrupt_post_dsr+0x64>
    4eb0:	15820018 	strne	r0, [r2, #24]
    4eb4:	05830000 	streq	r0, [r3]
    4eb8:	e10f3000 	mrs	r3, CPSR
    4ebc:	e20140c0 	and	r4, r1, #192	; 0xc0
    4ec0:	e3c330c0 	bic	r3, r3, #192	; 0xc0
    4ec4:	e1833004 	orr	r3, r3, r4
    4ec8:	e129f003 	msr	CPSR_fc, r3
    4ecc:	e8bd0010 	pop	{r4}
    4ed0:	e12fff1e 	bx	lr
    4ed4:	40002530 	.word	0x40002530
    4ed8:	4000252c 	.word	0x4000252c

00004edc <_ZN13Cyg_Interrupt6detachEv>:
    4edc:	e52d4004 	push	{r4}		; (str r4, [sp, #-4]!)
    4ee0:	e590c000 	ldr	ip, [r0]
    4ee4:	e59f4030 	ldr	r4, [pc, #48]	; 4f1c <_ZN13Cyg_Interrupt6detachEv+0x40>
    4ee8:	e5902008 	ldr	r2, [r0, #8]
    4eec:	e794310c 	ldr	r3, [r4, ip, lsl #2]
    4ef0:	e1520003 	cmp	r2, r3
    4ef4:	1a000006 	bne	4f14 <_ZN13Cyg_Interrupt6detachEv+0x38>
    4ef8:	e59f3020 	ldr	r3, [pc, #32]	; 4f20 <_ZN13Cyg_Interrupt6detachEv+0x44>
    4efc:	e3a01000 	mov	r1, #0	; 0x0
    4f00:	e783110c 	str	r1, [r3, ip, lsl #2]
    4f04:	e59f2018 	ldr	r2, [pc, #24]	; 4f24 <_ZN13Cyg_Interrupt6detachEv+0x48>
    4f08:	e59f3018 	ldr	r3, [pc, #24]	; 4f28 <_ZN13Cyg_Interrupt6detachEv+0x4c>
    4f0c:	e784210c 	str	r2, [r4, ip, lsl #2]
    4f10:	e783110c 	str	r1, [r3, ip, lsl #2]
    4f14:	e8bd0010 	pop	{r4}
    4f18:	e12fff1e 	bx	lr
    4f1c:	40000544 	.word	0x40000544
    4f20:	40000644 	.word	0x40000644
    4f24:	00001b0c 	.word	0x00001b0c
    4f28:	400005c4 	.word	0x400005c4

00004f2c <_ZN13Cyg_Interrupt7get_vsrEjPPFvvE>:
    4f2c:	e59f3008 	ldr	r3, [pc, #8]	; 4f3c <_ZN13Cyg_Interrupt7get_vsrEjPPFvvE+0x10>
    4f30:	e7932100 	ldr	r2, [r3, r0, lsl #2]
    4f34:	e5812000 	str	r2, [r1]
    4f38:	e12fff1e 	bx	lr
    4f3c:	40000400 	.word	0x40000400

00004f40 <_ZN13Cyg_Interrupt7set_vsrEjPFvvEPS1_>:
    4f40:	e92d0030 	push	{r4, r5}
    4f44:	e1a05001 	mov	r5, r1
    4f48:	e10f1000 	mrs	r1, CPSR
    4f4c:	e10f4000 	mrs	r4, CPSR
    4f50:	e38440c0 	orr	r4, r4, #192	; 0xc0
    4f54:	e129f004 	msr	CPSR_fc, r4
    4f58:	e3520000 	cmp	r2, #0	; 0x0
    4f5c:	159fc028 	ldrne	ip, [pc, #40]	; 4f8c <_ZN13Cyg_Interrupt7set_vsrEjPFvvEPS1_+0x4c>
    4f60:	059fc024 	ldreq	ip, [pc, #36]	; 4f8c <_ZN13Cyg_Interrupt7set_vsrEjPFvvEPS1_+0x4c>
    4f64:	179c3100 	ldrne	r3, [ip, r0, lsl #2]
    4f68:	15823000 	strne	r3, [r2]
    4f6c:	e78c5100 	str	r5, [ip, r0, lsl #2]
    4f70:	e10f3000 	mrs	r3, CPSR
    4f74:	e20140c0 	and	r4, r1, #192	; 0xc0
    4f78:	e3c330c0 	bic	r3, r3, #192	; 0xc0
    4f7c:	e1833004 	orr	r3, r3, r4
    4f80:	e129f003 	msr	CPSR_fc, r3
    4f84:	e8bd0030 	pop	{r4, r5}
    4f88:	e12fff1e 	bx	lr
    4f8c:	40000400 	.word	0x40000400

00004f90 <_ZN13Cyg_Interrupt18disable_interruptsEv>:
    4f90:	e59f0044 	ldr	r0, [pc, #68]	; 4fdc <_ZN13Cyg_Interrupt18disable_interruptsEv+0x4c>
    4f94:	e5903000 	ldr	r3, [r0]
    4f98:	e3530000 	cmp	r3, #0	; 0x0
    4f9c:	e52d4004 	push	{r4}		; (str r4, [sp, #-4]!)
    4fa0:	1a000008 	bne	4fc8 <_ZN13Cyg_Interrupt18disable_interruptsEv+0x38>
    4fa4:	e10f2000 	mrs	r2, CPSR
    4fa8:	e10f4000 	mrs	r4, CPSR
    4fac:	e38440c0 	orr	r4, r4, #192	; 0xc0
    4fb0:	e129f004 	msr	CPSR_fc, r4
    4fb4:	e59f3024 	ldr	r3, [pc, #36]	; 4fe0 <_ZN13Cyg_Interrupt18disable_interruptsEv+0x50>
    4fb8:	e5832000 	str	r2, [r3]
    4fbc:	e59f3020 	ldr	r3, [pc, #32]	; 4fe4 <_ZN13Cyg_Interrupt18disable_interruptsEv+0x54>
    4fc0:	e3a01001 	mov	r1, #1	; 0x1
    4fc4:	e5831000 	str	r1, [r3]
    4fc8:	e5903000 	ldr	r3, [r0]
    4fcc:	e2833001 	add	r3, r3, #1	; 0x1
    4fd0:	e5803000 	str	r3, [r0]
    4fd4:	e8bd0010 	pop	{r4}
    4fd8:	e12fff1e 	bx	lr
    4fdc:	40002520 	.word	0x40002520
    4fe0:	40002528 	.word	0x40002528
    4fe4:	40002524 	.word	0x40002524

00004fe8 <_ZN13Cyg_Interrupt17enable_interruptsEv>:
    4fe8:	e59f2044 	ldr	r2, [pc, #68]	; 5034 <_ZN13Cyg_Interrupt17enable_interruptsEv+0x4c>
    4fec:	e5923000 	ldr	r3, [r2]
    4ff0:	e2433001 	sub	r3, r3, #1	; 0x1
    4ff4:	e5823000 	str	r3, [r2]
    4ff8:	e5922000 	ldr	r2, [r2]
    4ffc:	e3520000 	cmp	r2, #0	; 0x0
    5000:	e52d4004 	push	{r4}		; (str r4, [sp, #-4]!)
    5004:	1a000008 	bne	502c <_ZN13Cyg_Interrupt17enable_interruptsEv+0x44>
    5008:	e59f3028 	ldr	r3, [pc, #40]	; 5038 <_ZN13Cyg_Interrupt17enable_interruptsEv+0x50>
    500c:	e5832000 	str	r2, [r3]
    5010:	e59f2024 	ldr	r2, [pc, #36]	; 503c <_ZN13Cyg_Interrupt17enable_interruptsEv+0x54>
    5014:	e5921000 	ldr	r1, [r2]
    5018:	e10f3000 	mrs	r3, CPSR
    501c:	e20140c0 	and	r4, r1, #192	; 0xc0
    5020:	e3c330c0 	bic	r3, r3, #192	; 0xc0
    5024:	e1833004 	orr	r3, r3, r4
    5028:	e129f003 	msr	CPSR_fc, r3
    502c:	e8bd0010 	pop	{r4}
    5030:	e12fff1e 	bx	lr
    5034:	40002520 	.word	0x40002520
    5038:	40002524 	.word	0x40002524
    503c:	40002528 	.word	0x40002528

00005040 <_GLOBAL__I.12000__ZN13Cyg_Interrupt15disable_counterE>:
    5040:	e59f3008 	ldr	r3, [pc, #8]	; 5050 <_GLOBAL__I.12000__ZN13Cyg_Interrupt15disable_counterE+0x10>
    5044:	e3a02000 	mov	r2, #0	; 0x0
    5048:	e5832000 	str	r2, [r3]
    504c:	e12fff1e 	bx	lr
    5050:	40002524 	.word	0x40002524

00005054 <_GLOBAL__D.12000__ZN13Cyg_Interrupt15disable_counterE>:
    5054:	e12fff1e 	bx	lr

00005058 <_ZN13Cyg_Interrupt19configure_interruptEjii>:
    5058:	ea00134f 	b	9d9c <hal_interrupt_configure>

0000505c <_ZN13Cyg_Interrupt21acknowledge_interruptEj>:
    505c:	ea001343 	b	9d70 <hal_interrupt_acknowledge>

00005060 <_ZN13Cyg_Interrupt26unmask_interrupt_intunsafeEj>:
    5060:	ea00133d 	b	9d5c <hal_interrupt_unmask>

00005064 <_ZN13Cyg_Interrupt16unmask_interruptEj>:
    5064:	e92d4030 	push	{r4, r5, lr}
    5068:	e24dd004 	sub	sp, sp, #4	; 0x4
    506c:	e10f5000 	mrs	r5, CPSR
    5070:	e10f4000 	mrs	r4, CPSR
    5074:	e38440c0 	orr	r4, r4, #192	; 0xc0
    5078:	e129f004 	msr	CPSR_fc, r4
    507c:	eb001336 	bl	9d5c <hal_interrupt_unmask>
    5080:	e10f3000 	mrs	r3, CPSR
    5084:	e20540c0 	and	r4, r5, #192	; 0xc0
    5088:	e3c330c0 	bic	r3, r3, #192	; 0xc0
    508c:	e1833004 	orr	r3, r3, r4
    5090:	e129f003 	msr	CPSR_fc, r3
    5094:	e28dd004 	add	sp, sp, #4	; 0x4
    5098:	e8bd8030 	pop	{r4, r5, pc}

0000509c <_ZN13Cyg_Interrupt24mask_interrupt_intunsafeEj>:
    509c:	ea001329 	b	9d48 <hal_interrupt_mask>

000050a0 <_ZN13Cyg_Interrupt14mask_interruptEj>:
    50a0:	e92d4030 	push	{r4, r5, lr}
    50a4:	e24dd004 	sub	sp, sp, #4	; 0x4
    50a8:	e10f5000 	mrs	r5, CPSR
    50ac:	e10f4000 	mrs	r4, CPSR
    50b0:	e38440c0 	orr	r4, r4, #192	; 0xc0
    50b4:	e129f004 	msr	CPSR_fc, r4
    50b8:	eb001322 	bl	9d48 <hal_interrupt_mask>
    50bc:	e10f3000 	mrs	r3, CPSR
    50c0:	e20540c0 	and	r4, r5, #192	; 0xc0
    50c4:	e3c330c0 	bic	r3, r3, #192	; 0xc0
    50c8:	e1833004 	orr	r3, r3, r4
    50cc:	e129f003 	msr	CPSR_fc, r3
    50d0:	e28dd004 	add	sp, sp, #4	; 0x4
    50d4:	e8bd8030 	pop	{r4, r5, pc}

000050d8 <_ZN13Cyg_Interrupt6attachEv>:
    50d8:	e92d4010 	push	{r4, lr}
    50dc:	e1a04000 	mov	r4, r0
    50e0:	e5941004 	ldr	r1, [r4, #4]
    50e4:	e5900000 	ldr	r0, [r0]
    50e8:	eb00134e 	bl	9e28 <hal_interrupt_set_level>
    50ec:	e5940000 	ldr	r0, [r4]
    50f0:	e59f102c 	ldr	r1, [pc, #44]	; 5124 <_ZN13Cyg_Interrupt6attachEv+0x4c>
    50f4:	e59f302c 	ldr	r3, [pc, #44]	; 5128 <_ZN13Cyg_Interrupt6attachEv+0x50>
    50f8:	e7912100 	ldr	r2, [r1, r0, lsl #2]
    50fc:	e1520003 	cmp	r2, r3
    5100:	18bd8010 	popne	{r4, pc}
    5104:	e5943008 	ldr	r3, [r4, #8]
    5108:	e7813100 	str	r3, [r1, r0, lsl #2]
    510c:	e59f2018 	ldr	r2, [pc, #24]	; 512c <_ZN13Cyg_Interrupt6attachEv+0x54>
    5110:	e5941010 	ldr	r1, [r4, #16]
    5114:	e59f3014 	ldr	r3, [pc, #20]	; 5130 <_ZN13Cyg_Interrupt6attachEv+0x58>
    5118:	e7821100 	str	r1, [r2, r0, lsl #2]
    511c:	e7834100 	str	r4, [r3, r0, lsl #2]
    5120:	e8bd8010 	pop	{r4, pc}
    5124:	40000544 	.word	0x40000544
    5128:	00001b0c 	.word	0x00001b0c
    512c:	400005c4 	.word	0x400005c4
    5130:	40000644 	.word	0x40000644

00005134 <interrupt_end>:
    5134:	e2513000 	subs	r3, r1, #0	; 0x0
    5138:	13a03001 	movne	r3, #1	; 0x1
    513c:	e01330a0 	ands	r3, r3, r0, lsr #1
    5140:	e92d4010 	push	{r4, lr}
    5144:	0a00000d 	beq	5180 <interrupt_end+0x4c>
    5148:	e10fc000 	mrs	ip, CPSR
    514c:	e10f4000 	mrs	r4, CPSR
    5150:	e38440c0 	orr	r4, r4, #192	; 0xc0
    5154:	e129f004 	msr	CPSR_fc, r4
    5158:	e5913014 	ldr	r3, [r1, #20]
    515c:	e3530000 	cmp	r3, #0	; 0x0
    5160:	e2833001 	add	r3, r3, #1	; 0x1
    5164:	e5813014 	str	r3, [r1, #20]
    5168:	0a000010 	beq	51b0 <interrupt_end+0x7c>
    516c:	e10f3000 	mrs	r3, CPSR
    5170:	e20c40c0 	and	r4, ip, #192	; 0xc0
    5174:	e3c330c0 	bic	r3, r3, #192	; 0xc0
    5178:	e1833004 	orr	r3, r3, r4
    517c:	e129f003 	msr	CPSR_fc, r3
    5180:	e59f405c 	ldr	r4, [pc, #92]	; 51e4 <interrupt_end+0xb0>
    5184:	e5943000 	ldr	r3, [r4]
    5188:	e5832018 	str	r2, [r3, #24]
    518c:	e59f2054 	ldr	r2, [pc, #84]	; 51e8 <interrupt_end+0xb4>
    5190:	e5923000 	ldr	r3, [r2]
    5194:	e2530001 	subs	r0, r3, #1	; 0x1
    5198:	15820000 	strne	r0, [r2]
    519c:	0a00000b 	beq	51d0 <interrupt_end+0x9c>
    51a0:	e5942000 	ldr	r2, [r4]
    51a4:	e3a03000 	mov	r3, #0	; 0x0
    51a8:	e5823018 	str	r3, [r2, #24]
    51ac:	e8bd8010 	pop	{r4, pc}
    51b0:	e59f3034 	ldr	r3, [pc, #52]	; 51ec <interrupt_end+0xb8>
    51b4:	e5930000 	ldr	r0, [r3]
    51b8:	e3500000 	cmp	r0, #0	; 0x0
    51bc:	e5831000 	str	r1, [r3]
    51c0:	059f3028 	ldreq	r3, [pc, #40]	; 51f0 <interrupt_end+0xbc>
    51c4:	15801018 	strne	r1, [r0, #24]
    51c8:	05831000 	streq	r1, [r3]
    51cc:	eaffffe6 	b	516c <interrupt_end+0x38>
    51d0:	eb000212 	bl	5a20 <_ZN13Cyg_Scheduler12unlock_innerEj>
    51d4:	e5942000 	ldr	r2, [r4]
    51d8:	e3a03000 	mov	r3, #0	; 0x0
    51dc:	e5823018 	str	r3, [r2, #24]
    51e0:	e8bd8010 	pop	{r4, pc}
    51e4:	40002538 	.word	0x40002538
    51e8:	400007c8 	.word	0x400007c8
    51ec:	40002530 	.word	0x40002530
    51f0:	4000252c 	.word	0x4000252c

000051f4 <_ZN13Cyg_Interrupt17call_pending_DSRsEv>:
    51f4:	eaffecba 	b	4e4 <hal_interrupt_stack_call_pending_DSRs>

000051f8 <_ZN28Cyg_Scheduler_ImplementationC2Ev>:
    51f8:	e59f3040 	ldr	r3, [pc, #64]	; 5240 <_ZN28Cyg_Scheduler_ImplementationC2Ev+0x48>
    51fc:	e3a02001 	mov	r2, #1	; 0x1
    5200:	e5832000 	str	r2, [r3]
    5204:	e3a03000 	mov	r3, #0	; 0x0
    5208:	e2802004 	add	r2, r0, #4	; 0x4
    520c:	e1a01003 	mov	r1, r3
    5210:	e7821003 	str	r1, [r2, r3]
    5214:	e2833004 	add	r3, r3, #4	; 0x4
    5218:	e3530080 	cmp	r3, #128	; 0x80
    521c:	1afffffb 	bne	5210 <_ZN28Cyg_Scheduler_ImplementationC2Ev+0x18>
    5220:	e59f301c 	ldr	r3, [pc, #28]	; 5244 <_ZN28Cyg_Scheduler_ImplementationC2Ev+0x4c>
    5224:	e3a02005 	mov	r2, #5	; 0x5
    5228:	e5801000 	str	r1, [r0]
    522c:	e5832000 	str	r2, [r3]
    5230:	e59f3010 	ldr	r3, [pc, #16]	; 5248 <_ZN28Cyg_Scheduler_ImplementationC2Ev+0x50>
    5234:	e3a01001 	mov	r1, #1	; 0x1
    5238:	e5831000 	str	r1, [r3]
    523c:	e12fff1e 	bx	lr
    5240:	400007c8 	.word	0x400007c8
    5244:	40002534 	.word	0x40002534
    5248:	4000253c 	.word	0x4000253c

0000524c <_ZN28Cyg_Scheduler_ImplementationC1Ev>:
    524c:	e59f3040 	ldr	r3, [pc, #64]	; 5294 <_ZN28Cyg_Scheduler_ImplementationC1Ev+0x48>
    5250:	e3a02001 	mov	r2, #1	; 0x1
    5254:	e5832000 	str	r2, [r3]
    5258:	e3a03000 	mov	r3, #0	; 0x0
    525c:	e2802004 	add	r2, r0, #4	; 0x4
    5260:	e1a01003 	mov	r1, r3
    5264:	e7821003 	str	r1, [r2, r3]
    5268:	e2833004 	add	r3, r3, #4	; 0x4
    526c:	e3530080 	cmp	r3, #128	; 0x80
    5270:	1afffffb 	bne	5264 <_ZN28Cyg_Scheduler_ImplementationC1Ev+0x18>
    5274:	e59f301c 	ldr	r3, [pc, #28]	; 5298 <_ZN28Cyg_Scheduler_ImplementationC1Ev+0x4c>
    5278:	e3a02005 	mov	r2, #5	; 0x5
    527c:	e5801000 	str	r1, [r0]
    5280:	e5832000 	str	r2, [r3]
    5284:	e59f3010 	ldr	r3, [pc, #16]	; 529c <_ZN28Cyg_Scheduler_ImplementationC1Ev+0x50>
    5288:	e3a01001 	mov	r1, #1	; 0x1
    528c:	e5831000 	str	r1, [r3]
    5290:	e12fff1e 	bx	lr
    5294:	400007c8 	.word	0x400007c8
    5298:	40002534 	.word	0x40002534
    529c:	4000253c 	.word	0x4000253c

000052a0 <_ZN28Cyg_Scheduler_Implementation10rem_threadEP10Cyg_Thread>:
    52a0:	e92d0070 	push	{r4, r5, r6}
    52a4:	e5916024 	ldr	r6, [r1, #36]
    52a8:	e1a03106 	lsl	r3, r6, #2
    52ac:	e1a0c001 	mov	ip, r1
    52b0:	e0801003 	add	r1, r0, r3
    52b4:	e1a05000 	mov	r5, r0
    52b8:	e5910004 	ldr	r0, [r1, #4]
    52bc:	e28c401c 	add	r4, ip, #28	; 0x1c
    52c0:	e1540000 	cmp	r4, r0
    52c4:	0a000011 	beq	5310 <_ZN28Cyg_Scheduler_Implementation10rem_threadEP10Cyg_Thread+0x70>
    52c8:	e59c301c 	ldr	r3, [ip, #28]
    52cc:	e59c2020 	ldr	r2, [ip, #32]
    52d0:	e5832004 	str	r2, [r3, #4]
    52d4:	e59c1020 	ldr	r1, [ip, #32]
    52d8:	e58c4020 	str	r4, [ip, #32]
    52dc:	e5813000 	str	r3, [r1]
    52e0:	e58c401c 	str	r4, [ip, #28]
    52e4:	e3500000 	cmp	r0, #0	; 0x0
    52e8:	0a000001 	beq	52f4 <_ZN28Cyg_Scheduler_Implementation10rem_threadEP10Cyg_Thread+0x54>
    52ec:	e8bd0070 	pop	{r4, r5, r6}
    52f0:	e12fff1e 	bx	lr
    52f4:	e3a03001 	mov	r3, #1	; 0x1
    52f8:	e1a03613 	lsl	r3, r3, r6
    52fc:	e5952000 	ldr	r2, [r5]
    5300:	e1e03003 	mvn	r3, r3
    5304:	e0022003 	and	r2, r2, r3
    5308:	e5852000 	str	r2, [r5]
    530c:	eafffff6 	b	52ec <_ZN28Cyg_Scheduler_Implementation10rem_threadEP10Cyg_Thread+0x4c>
    5310:	e59c001c 	ldr	r0, [ip, #28]
    5314:	e1540000 	cmp	r4, r0
    5318:	03a03000 	moveq	r3, #0	; 0x0
    531c:	05813004 	streq	r3, [r1, #4]
    5320:	0afffff3 	beq	52f4 <_ZN28Cyg_Scheduler_Implementation10rem_threadEP10Cyg_Thread+0x54>
    5324:	e59c3020 	ldr	r3, [ip, #32]
    5328:	e5803004 	str	r3, [r0, #4]
    532c:	e59c2020 	ldr	r2, [ip, #32]
    5330:	e58c4020 	str	r4, [ip, #32]
    5334:	e5820000 	str	r0, [r2]
    5338:	e58c401c 	str	r4, [ip, #28]
    533c:	e5810004 	str	r0, [r1, #4]
    5340:	eaffffe7 	b	52e4 <_ZN28Cyg_Scheduler_Implementation10rem_threadEP10Cyg_Thread+0x44>

00005344 <_ZN28Cyg_Scheduler_Implementation19set_need_rescheduleEP10Cyg_Thread>:
    5344:	e59fc03c 	ldr	ip, [pc, #60]	; 5388 <_ZN28Cyg_Scheduler_Implementation19set_need_rescheduleEP10Cyg_Thread+0x44>
    5348:	e59c3000 	ldr	r3, [ip]
    534c:	e5901024 	ldr	r1, [r0, #36]
    5350:	e5932024 	ldr	r2, [r3, #36]
    5354:	e1520001 	cmp	r2, r1
    5358:	da000003 	ble	536c <_ZN28Cyg_Scheduler_Implementation19set_need_rescheduleEP10Cyg_Thread+0x28>
    535c:	e59f3028 	ldr	r3, [pc, #40]	; 538c <_ZN28Cyg_Scheduler_Implementation19set_need_rescheduleEP10Cyg_Thread+0x48>
    5360:	e3a02001 	mov	r2, #1	; 0x1
    5364:	e5832000 	str	r2, [r3]
    5368:	e12fff1e 	bx	lr
    536c:	e59c3000 	ldr	r3, [ip]
    5370:	e593203c 	ldr	r2, [r3, #60]
    5374:	e3520000 	cmp	r2, #0	; 0x0
    5378:	159f300c 	ldrne	r3, [pc, #12]	; 538c <_ZN28Cyg_Scheduler_Implementation19set_need_rescheduleEP10Cyg_Thread+0x48>
    537c:	13a02001 	movne	r2, #1	; 0x1
    5380:	15832000 	strne	r2, [r3]
    5384:	e12fff1e 	bx	lr
    5388:	40002538 	.word	0x40002538
    538c:	4000253c 	.word	0x4000253c

00005390 <_ZN28Cyg_Scheduler_Implementation15register_threadEP10Cyg_Thread>:
    5390:	e12fff1e 	bx	lr

00005394 <_ZN28Cyg_Scheduler_Implementation17deregister_threadEP10Cyg_Thread>:
    5394:	e12fff1e 	bx	lr

00005398 <_ZN28Cyg_Scheduler_Implementation6uniqueEi>:
    5398:	e3a00001 	mov	r0, #1	; 0x1
    539c:	e12fff1e 	bx	lr

000053a0 <_ZN28Cyg_Scheduler_Implementation13timeslice_cpuEv>:
    53a0:	e59f0070 	ldr	r0, [pc, #112]	; 5418 <_ZN28Cyg_Scheduler_Implementation13timeslice_cpuEv+0x78>
    53a4:	e5903000 	ldr	r3, [r0]
    53a8:	e59f206c 	ldr	r2, [pc, #108]	; 541c <_ZN28Cyg_Scheduler_Implementation13timeslice_cpuEv+0x7c>
    53ac:	e3530000 	cmp	r3, #0	; 0x0
    53b0:	e5921000 	ldr	r1, [r2]
    53b4:	112fff1e 	bxne	lr
    53b8:	e591303c 	ldr	r3, [r1, #60]
    53bc:	e3530000 	cmp	r3, #0	; 0x0
    53c0:	112fff1e 	bxne	lr
    53c4:	e5913024 	ldr	r3, [r1, #36]
    53c8:	e59f2050 	ldr	r2, [pc, #80]	; 5420 <_ZN28Cyg_Scheduler_Implementation13timeslice_cpuEv+0x80>
    53cc:	e1a03103 	lsl	r3, r3, #2
    53d0:	e0822003 	add	r2, r2, r3
    53d4:	e5923004 	ldr	r3, [r2, #4]
    53d8:	e3530000 	cmp	r3, #0	; 0x0
    53dc:	0a00000b 	beq	5410 <_ZN28Cyg_Scheduler_Implementation13timeslice_cpuEv+0x70>
    53e0:	e5933000 	ldr	r3, [r3]
    53e4:	e3530000 	cmp	r3, #0	; 0x0
    53e8:	e5823004 	str	r3, [r2, #4]
    53ec:	1243301c 	subne	r3, r3, #28	; 0x1c
    53f0:	0a000006 	beq	5410 <_ZN28Cyg_Scheduler_Implementation13timeslice_cpuEv+0x70>
    53f4:	e1510003 	cmp	r1, r3
    53f8:	159f3024 	ldrne	r3, [pc, #36]	; 5424 <_ZN28Cyg_Scheduler_Implementation13timeslice_cpuEv+0x84>
    53fc:	13a02001 	movne	r2, #1	; 0x1
    5400:	15832000 	strne	r2, [r3]
    5404:	e3a03005 	mov	r3, #5	; 0x5
    5408:	e5803000 	str	r3, [r0]
    540c:	e12fff1e 	bx	lr
    5410:	e3a03000 	mov	r3, #0	; 0x0
    5414:	eafffff6 	b	53f4 <_ZN28Cyg_Scheduler_Implementation13timeslice_cpuEv+0x54>
    5418:	40002534 	.word	0x40002534
    541c:	40002538 	.word	0x40002538
    5420:	40002540 	.word	0x40002540
    5424:	4000253c 	.word	0x4000253c

00005428 <_ZN28Cyg_Scheduler_Implementation9timesliceEv>:
    5428:	e59f2014 	ldr	r2, [pc, #20]	; 5444 <_ZN28Cyg_Scheduler_Implementation9timesliceEv+0x1c>
    542c:	e5923000 	ldr	r3, [r2]
    5430:	e2433001 	sub	r3, r3, #1	; 0x1
    5434:	e3530000 	cmp	r3, #0	; 0x0
    5438:	e5823000 	str	r3, [r2]
    543c:	112fff1e 	bxne	lr
    5440:	eaffffd6 	b	53a0 <_ZN28Cyg_Scheduler_Implementation13timeslice_cpuEv>
    5444:	40002534 	.word	0x40002534

00005448 <cyg_scheduler_timeslice_cpu>:
    5448:	e59f0000 	ldr	r0, [pc, #0]	; 5450 <cyg_scheduler_timeslice_cpu+0x8>
    544c:	eaffffd3 	b	53a0 <_ZN28Cyg_Scheduler_Implementation13timeslice_cpuEv>
    5450:	40002540 	.word	0x40002540

00005454 <_ZN30Cyg_SchedThread_ImplementationC2Ej>:
    5454:	e1a03000 	mov	r3, r0
    5458:	e5801008 	str	r1, [r0, #8]
    545c:	e5830004 	str	r0, [r3, #4]
    5460:	e5830000 	str	r0, [r3]
    5464:	e12fff1e 	bx	lr

00005468 <_ZN30Cyg_SchedThread_ImplementationC1Ej>:
    5468:	e1a03000 	mov	r3, r0
    546c:	e5801008 	str	r1, [r0, #8]
    5470:	e5830004 	str	r0, [r3, #4]
    5474:	e5830000 	str	r0, [r3]
    5478:	e12fff1e 	bx	lr

0000547c <_ZN30Cyg_ThreadQueue_Implementation7enqueueEP10Cyg_Thread>:
    547c:	e590c000 	ldr	ip, [r0]
    5480:	e52d4004 	push	{r4}		; (str r4, [sp, #-4]!)
    5484:	e2514000 	subs	r4, r1, #0	; 0x0
    5488:	01a01004 	moveq	r1, r4
    548c:	1284101c 	addne	r1, r4, #28	; 0x1c
    5490:	e35c0000 	cmp	ip, #0	; 0x0
    5494:	159c3004 	ldrne	r3, [ip, #4]
    5498:	15813004 	strne	r3, [r1, #4]
    549c:	159c2004 	ldrne	r2, [ip, #4]
    54a0:	1581c000 	strne	ip, [r1]
    54a4:	05801000 	streq	r1, [r0]
    54a8:	158c1004 	strne	r1, [ip, #4]
    54ac:	15821000 	strne	r1, [r2]
    54b0:	e584002c 	str	r0, [r4, #44]
    54b4:	e8bd0010 	pop	{r4}
    54b8:	e12fff1e 	bx	lr

000054bc <_ZN30Cyg_ThreadQueue_Implementation7dequeueEv>:
    54bc:	e1a0c000 	mov	ip, r0
    54c0:	e5900000 	ldr	r0, [r0]
    54c4:	e3500000 	cmp	r0, #0	; 0x0
    54c8:	012fff1e 	bxeq	lr
    54cc:	e5901000 	ldr	r1, [r0]
    54d0:	e1500001 	cmp	r0, r1
    54d4:	15903004 	ldrne	r3, [r0, #4]
    54d8:	15813004 	strne	r3, [r1, #4]
    54dc:	15902004 	ldrne	r2, [r0, #4]
    54e0:	03a03000 	moveq	r3, #0	; 0x0
    54e4:	15821000 	strne	r1, [r2]
    54e8:	15800004 	strne	r0, [r0, #4]
    54ec:	15800000 	strne	r0, [r0]
    54f0:	058c3000 	streq	r3, [ip]
    54f4:	158c1000 	strne	r1, [ip]
    54f8:	e250001c 	subs	r0, r0, #28	; 0x1c
    54fc:	012fff1e 	bxeq	lr
    5500:	e3a03000 	mov	r3, #0	; 0x0
    5504:	e580302c 	str	r3, [r0, #44]
    5508:	e12fff1e 	bx	lr

0000550c <_ZN30Cyg_ThreadQueue_Implementation6removeEP10Cyg_Thread>:
    550c:	e5903000 	ldr	r3, [r0]
    5510:	e52d4004 	push	{r4}		; (str r4, [sp, #-4]!)
    5514:	e1a04000 	mov	r4, r0
    5518:	e281001c 	add	r0, r1, #28	; 0x1c
    551c:	e1500003 	cmp	r0, r3
    5520:	e3a03000 	mov	r3, #0	; 0x0
    5524:	e1a0c001 	mov	ip, r1
    5528:	e581302c 	str	r3, [r1, #44]
    552c:	0a000008 	beq	5554 <_ZN30Cyg_ThreadQueue_Implementation6removeEP10Cyg_Thread+0x48>
    5530:	e591301c 	ldr	r3, [r1, #28]
    5534:	e5912020 	ldr	r2, [r1, #32]
    5538:	e5832004 	str	r2, [r3, #4]
    553c:	e5911020 	ldr	r1, [r1, #32]
    5540:	e58c0020 	str	r0, [ip, #32]
    5544:	e5813000 	str	r3, [r1]
    5548:	e58c001c 	str	r0, [ip, #28]
    554c:	e8bd0010 	pop	{r4}
    5550:	e12fff1e 	bx	lr
    5554:	e591101c 	ldr	r1, [r1, #28]
    5558:	e1500001 	cmp	r0, r1
    555c:	159c3020 	ldrne	r3, [ip, #32]
    5560:	15813004 	strne	r3, [r1, #4]
    5564:	159c2020 	ldrne	r2, [ip, #32]
    5568:	05843000 	streq	r3, [r4]
    556c:	15821000 	strne	r1, [r2]
    5570:	158c0020 	strne	r0, [ip, #32]
    5574:	158c001c 	strne	r0, [ip, #28]
    5578:	15841000 	strne	r1, [r4]
    557c:	eafffff2 	b	554c <_ZN30Cyg_ThreadQueue_Implementation6removeEP10Cyg_Thread+0x40>

00005580 <_ZN28Cyg_Scheduler_Implementation10add_threadEP10Cyg_Thread>:
    5580:	e591302c 	ldr	r3, [r1, #44]
    5584:	e3530000 	cmp	r3, #0	; 0x0
    5588:	e92d4070 	push	{r4, r5, r6, lr}
    558c:	e1a04001 	mov	r4, r1
    5590:	e1a05000 	mov	r5, r0
    5594:	e5916024 	ldr	r6, [r1, #36]
    5598:	11a00003 	movne	r0, r3
    559c:	1bffffda 	blne	550c <_ZN30Cyg_ThreadQueue_Implementation6removeEP10Cyg_Thread>
    55a0:	e1a03106 	lsl	r3, r6, #2
    55a4:	e085c003 	add	ip, r5, r3
    55a8:	e59c1004 	ldr	r1, [ip, #4]
    55ac:	e3510000 	cmp	r1, #0	; 0x0
    55b0:	0a000016 	beq	5610 <_ZN28Cyg_Scheduler_Implementation10add_threadEP10Cyg_Thread+0x90>
    55b4:	e5913004 	ldr	r3, [r1, #4]
    55b8:	e284001c 	add	r0, r4, #28	; 0x1c
    55bc:	e5803004 	str	r3, [r0, #4]
    55c0:	e5912004 	ldr	r2, [r1, #4]
    55c4:	e584101c 	str	r1, [r4, #28]
    55c8:	e5810004 	str	r0, [r1, #4]
    55cc:	e5820000 	str	r0, [r2]
    55d0:	e59f0054 	ldr	r0, [pc, #84]	; 562c <_ZN28Cyg_Scheduler_Implementation10add_threadEP10Cyg_Thread+0xac>
    55d4:	e5903000 	ldr	r3, [r0]
    55d8:	e5942024 	ldr	r2, [r4, #36]
    55dc:	e5931024 	ldr	r1, [r3, #36]
    55e0:	e1510002 	cmp	r1, r2
    55e4:	ca000003 	bgt	55f8 <_ZN28Cyg_Scheduler_Implementation10add_threadEP10Cyg_Thread+0x78>
    55e8:	e5903000 	ldr	r3, [r0]
    55ec:	e593203c 	ldr	r2, [r3, #60]
    55f0:	e3520000 	cmp	r2, #0	; 0x0
    55f4:	0a000002 	beq	5604 <_ZN28Cyg_Scheduler_Implementation10add_threadEP10Cyg_Thread+0x84>
    55f8:	e59f3030 	ldr	r3, [pc, #48]	; 5630 <_ZN28Cyg_Scheduler_Implementation10add_threadEP10Cyg_Thread+0xb0>
    55fc:	e3a02001 	mov	r2, #1	; 0x1
    5600:	e5832000 	str	r2, [r3]
    5604:	e3a03005 	mov	r3, #5	; 0x5
    5608:	e5843028 	str	r3, [r4, #40]
    560c:	e8bd8070 	pop	{r4, r5, r6, pc}
    5610:	e5953000 	ldr	r3, [r5]
    5614:	e3a02001 	mov	r2, #1	; 0x1
    5618:	e1833612 	orr	r3, r3, r2, lsl r6
    561c:	e284001c 	add	r0, r4, #28	; 0x1c
    5620:	e5853000 	str	r3, [r5]
    5624:	e58c0004 	str	r0, [ip, #4]
    5628:	eaffffe8 	b	55d0 <_ZN28Cyg_Scheduler_Implementation10add_threadEP10Cyg_Thread+0x50>
    562c:	40002538 	.word	0x40002538
    5630:	4000253c 	.word	0x4000253c

00005634 <_ZN30Cyg_ThreadQueue_Implementation7highpriEv>:
    5634:	e5900000 	ldr	r0, [r0]
    5638:	e3500000 	cmp	r0, #0	; 0x0
    563c:	1240001c 	subne	r0, r0, #28	; 0x1c
    5640:	e12fff1e 	bx	lr

00005644 <_ZN30Cyg_SchedThread_Implementation13to_queue_headEv>:
    5644:	e92d4030 	push	{r4, r5, lr}
    5648:	e1a0c000 	mov	ip, r0
    564c:	e24dd004 	sub	sp, sp, #4	; 0x4
    5650:	e59f4094 	ldr	r4, [pc, #148]	; 56ec <_ZN30Cyg_SchedThread_Implementation13to_queue_headEv+0xa8>
    5654:	e5943000 	ldr	r3, [r4]
    5658:	e2833001 	add	r3, r3, #1	; 0x1
    565c:	e5843000 	str	r3, [r4]
    5660:	e240201c 	sub	r2, r0, #28	; 0x1c
    5664:	e592302c 	ldr	r3, [r2, #44]
    5668:	e3530000 	cmp	r3, #0	; 0x0
    566c:	15830000 	strne	r0, [r3]
    5670:	0a000008 	beq	5698 <_ZN30Cyg_SchedThread_Implementation13to_queue_headEv+0x54>
    5674:	e5943000 	ldr	r3, [r4]
    5678:	e2530001 	subs	r0, r3, #1	; 0x1
    567c:	159f3068 	ldrne	r3, [pc, #104]	; 56ec <_ZN30Cyg_SchedThread_Implementation13to_queue_headEv+0xa8>
    5680:	15830000 	strne	r0, [r3]
    5684:	0a000001 	beq	5690 <_ZN30Cyg_SchedThread_Implementation13to_queue_headEv+0x4c>
    5688:	e28dd004 	add	sp, sp, #4	; 0x4
    568c:	e8bd8030 	pop	{r4, r5, pc}
    5690:	eb0000e2 	bl	5a20 <_ZN13Cyg_Scheduler12unlock_innerEj>
    5694:	eafffffb 	b	5688 <_ZN30Cyg_SchedThread_Implementation13to_queue_headEv+0x44>
    5698:	e592301c 	ldr	r3, [r2, #28]
    569c:	e1500003 	cmp	r0, r3
    56a0:	0afffff3 	beq	5674 <_ZN30Cyg_SchedThread_Implementation13to_queue_headEv+0x30>
    56a4:	e59f5044 	ldr	r5, [pc, #68]	; 56f0 <_ZN30Cyg_SchedThread_Implementation13to_queue_headEv+0xac>
    56a8:	e5953000 	ldr	r3, [r5]
    56ac:	e5922024 	ldr	r2, [r2, #36]
    56b0:	e5931024 	ldr	r1, [r3, #36]
    56b4:	e59f3038 	ldr	r3, [pc, #56]	; 56f4 <_ZN30Cyg_SchedThread_Implementation13to_queue_headEv+0xb0>
    56b8:	e1a00102 	lsl	r0, r2, #2
    56bc:	e0833000 	add	r3, r3, r0
    56c0:	e1520001 	cmp	r2, r1
    56c4:	e583c004 	str	ip, [r3, #4]
    56c8:	ba000003 	blt	56dc <_ZN30Cyg_SchedThread_Implementation13to_queue_headEv+0x98>
    56cc:	e5953000 	ldr	r3, [r5]
    56d0:	e593203c 	ldr	r2, [r3, #60]
    56d4:	e3520000 	cmp	r2, #0	; 0x0
    56d8:	0affffe5 	beq	5674 <_ZN30Cyg_SchedThread_Implementation13to_queue_headEv+0x30>
    56dc:	e59f3014 	ldr	r3, [pc, #20]	; 56f8 <_ZN30Cyg_SchedThread_Implementation13to_queue_headEv+0xb4>
    56e0:	e3a02001 	mov	r2, #1	; 0x1
    56e4:	e5832000 	str	r2, [r3]
    56e8:	eaffffe1 	b	5674 <_ZN30Cyg_SchedThread_Implementation13to_queue_headEv+0x30>
    56ec:	400007c8 	.word	0x400007c8
    56f0:	40002538 	.word	0x40002538
    56f4:	40002540 	.word	0x40002540
    56f8:	4000253c 	.word	0x4000253c

000056fc <_ZN30Cyg_SchedThread_Implementation12rotate_queueEi>:
    56fc:	e52de004 	push	{lr}		; (str lr, [sp, #-4]!)
    5700:	e24dd004 	sub	sp, sp, #4	; 0x4
    5704:	e59f1054 	ldr	r1, [pc, #84]	; 5760 <_ZN30Cyg_SchedThread_Implementation12rotate_queueEi+0x64>
    5708:	e5913000 	ldr	r3, [r1]
    570c:	e2833001 	add	r3, r3, #1	; 0x1
    5710:	e5813000 	str	r3, [r1]
    5714:	e59f3048 	ldr	r3, [pc, #72]	; 5764 <_ZN30Cyg_SchedThread_Implementation12rotate_queueEi+0x68>
    5718:	e1a00100 	lsl	r0, r0, #2
    571c:	e0832000 	add	r2, r3, r0
    5720:	e5923004 	ldr	r3, [r2, #4]
    5724:	e3530000 	cmp	r3, #0	; 0x0
    5728:	15933000 	ldrne	r3, [r3]
    572c:	15823004 	strne	r3, [r2, #4]
    5730:	159f3030 	ldrne	r3, [pc, #48]	; 5768 <_ZN30Cyg_SchedThread_Implementation12rotate_queueEi+0x6c>
    5734:	13a02001 	movne	r2, #1	; 0x1
    5738:	15832000 	strne	r2, [r3]
    573c:	e5913000 	ldr	r3, [r1]
    5740:	e2530001 	subs	r0, r3, #1	; 0x1
    5744:	159f3014 	ldrne	r3, [pc, #20]	; 5760 <_ZN30Cyg_SchedThread_Implementation12rotate_queueEi+0x64>
    5748:	15830000 	strne	r0, [r3]
    574c:	0a000001 	beq	5758 <_ZN30Cyg_SchedThread_Implementation12rotate_queueEi+0x5c>
    5750:	e28dd004 	add	sp, sp, #4	; 0x4
    5754:	e8bd8000 	pop	{pc}
    5758:	eb0000b0 	bl	5a20 <_ZN13Cyg_Scheduler12unlock_innerEj>
    575c:	eafffffb 	b	5750 <_ZN30Cyg_SchedThread_Implementation12rotate_queueEi+0x54>
    5760:	400007c8 	.word	0x400007c8
    5764:	40002540 	.word	0x40002540
    5768:	4000253c 	.word	0x4000253c

0000576c <_ZN30Cyg_SchedThread_Implementation5yieldEv>:
    576c:	e59f1074 	ldr	r1, [pc, #116]	; 57e8 <_ZN30Cyg_SchedThread_Implementation5yieldEv+0x7c>
    5770:	e5913000 	ldr	r3, [r1]
    5774:	e2833001 	add	r3, r3, #1	; 0x1
    5778:	e5813000 	str	r3, [r1]
    577c:	e240001c 	sub	r0, r0, #28	; 0x1c
    5780:	e590303c 	ldr	r3, [r0, #60]
    5784:	e3530000 	cmp	r3, #0	; 0x0
    5788:	1a000011 	bne	57d4 <_ZN30Cyg_SchedThread_Implementation5yieldEv+0x68>
    578c:	e5903024 	ldr	r3, [r0, #36]
    5790:	e59f2054 	ldr	r2, [pc, #84]	; 57ec <_ZN30Cyg_SchedThread_Implementation5yieldEv+0x80>
    5794:	e1a03103 	lsl	r3, r3, #2
    5798:	e0822003 	add	r2, r2, r3
    579c:	e5923004 	ldr	r3, [r2, #4]
    57a0:	e3530000 	cmp	r3, #0	; 0x0
    57a4:	0a00000d 	beq	57e0 <_ZN30Cyg_SchedThread_Implementation5yieldEv+0x74>
    57a8:	e5933000 	ldr	r3, [r3]
    57ac:	e3530000 	cmp	r3, #0	; 0x0
    57b0:	e5823004 	str	r3, [r2, #4]
    57b4:	1243301c 	subne	r3, r3, #28	; 0x1c
    57b8:	0a000008 	beq	57e0 <_ZN30Cyg_SchedThread_Implementation5yieldEv+0x74>
    57bc:	e1500003 	cmp	r0, r3
    57c0:	159f3028 	ldrne	r3, [pc, #40]	; 57f0 <_ZN30Cyg_SchedThread_Implementation5yieldEv+0x84>
    57c4:	13a02001 	movne	r2, #1	; 0x1
    57c8:	03a03005 	moveq	r3, #5	; 0x5
    57cc:	15832000 	strne	r2, [r3]
    57d0:	05803028 	streq	r3, [r0, #40]
    57d4:	e5910000 	ldr	r0, [r1]
    57d8:	e2400001 	sub	r0, r0, #1	; 0x1
    57dc:	ea00008f 	b	5a20 <_ZN13Cyg_Scheduler12unlock_innerEj>
    57e0:	e3a03000 	mov	r3, #0	; 0x0
    57e4:	eafffff4 	b	57bc <_ZN30Cyg_SchedThread_Implementation5yieldEv+0x50>
    57e8:	400007c8 	.word	0x400007c8
    57ec:	40002540 	.word	0x40002540
    57f0:	4000253c 	.word	0x4000253c

000057f4 <_ZN28Cyg_Scheduler_Implementation15set_idle_threadEP10Cyg_Threadj>:
    57f4:	e59f3008 	ldr	r3, [pc, #8]	; 5804 <_ZN28Cyg_Scheduler_Implementation15set_idle_threadEP10Cyg_Threadj+0x10>
    57f8:	e1a00001 	mov	r0, r1
    57fc:	e7831102 	str	r1, [r3, r2, lsl #2]
    5800:	eafffa62 	b	4190 <_ZN10Cyg_Thread6resumeEv>
    5804:	40002538 	.word	0x40002538

00005808 <_ZN28Cyg_Scheduler_Implementation8scheduleEv>:
    5808:	e92d4010 	push	{r4, lr}
    580c:	e1a04000 	mov	r4, r0
    5810:	e5900000 	ldr	r0, [r0]
    5814:	eb0010c4 	bl	9b2c <hal_lsbindex>
    5818:	e1a00100 	lsl	r0, r0, #2
    581c:	e0844000 	add	r4, r4, r0
    5820:	e5940004 	ldr	r0, [r4, #4]
    5824:	e3500000 	cmp	r0, #0	; 0x0
    5828:	1240001c 	subne	r0, r0, #28	; 0x1c
    582c:	e8bd8010 	pop	{r4, pc}

00005830 <_Z41__static_initialization_and_destruction_0ii>:
    5830:	e3500001 	cmp	r0, #1	; 0x1
    5834:	e52d4004 	push	{r4}		; (str r4, [sp, #-4]!)
    5838:	0a000010 	beq	5880 <_Z41__static_initialization_and_destruction_0ii+0x50>
    583c:	e3500000 	cmp	r0, #0	; 0x0
    5840:	1a000005 	bne	585c <_Z41__static_initialization_and_destruction_0ii+0x2c>
    5844:	e3a03dab 	mov	r3, #10944	; 0x2ac0
    5848:	e2833038 	add	r3, r3, #56	; 0x38
    584c:	e1510003 	cmp	r1, r3
    5850:	059f0070 	ldreq	r0, [pc, #112]	; 58c8 <_Z41__static_initialization_and_destruction_0ii+0x98>
    5854:	0240c080 	subeq	ip, r0, #128	; 0x80
    5858:	0a000001 	beq	5864 <_Z41__static_initialization_and_destruction_0ii+0x34>
    585c:	e8bd0010 	pop	{r4}
    5860:	e12fff1e 	bx	lr
    5864:	e5101004 	ldr	r1, [r0, #-4]
    5868:	e3510000 	cmp	r1, #0	; 0x0
    586c:	1a00000a 	bne	589c <_Z41__static_initialization_and_destruction_0ii+0x6c>
    5870:	e5201004 	str	r1, [r0, #-4]!
    5874:	e150000c 	cmp	r0, ip
    5878:	1afffff9 	bne	5864 <_Z41__static_initialization_and_destruction_0ii+0x34>
    587c:	eafffff6 	b	585c <_Z41__static_initialization_and_destruction_0ii+0x2c>
    5880:	e3a03dab 	mov	r3, #10944	; 0x2ac0
    5884:	e2833038 	add	r3, r3, #56	; 0x38
    5888:	e1510003 	cmp	r1, r3
    588c:	1afffff2 	bne	585c <_Z41__static_initialization_and_destruction_0ii+0x2c>
    5890:	e59f0034 	ldr	r0, [pc, #52]	; 58cc <_Z41__static_initialization_and_destruction_0ii+0x9c>
    5894:	e8bd0010 	pop	{r4}
    5898:	eafffe56 	b	51f8 <_ZN28Cyg_Scheduler_ImplementationC2Ev>
    589c:	e5914000 	ldr	r4, [r1]
    58a0:	e1540001 	cmp	r4, r1
    58a4:	15913004 	ldrne	r3, [r1, #4]
    58a8:	15843004 	strne	r3, [r4, #4]
    58ac:	15912004 	ldrne	r2, [r1, #4]
    58b0:	03a04000 	moveq	r4, #0	; 0x0
    58b4:	15824000 	strne	r4, [r2]
    58b8:	15811004 	strne	r1, [r1, #4]
    58bc:	15811000 	strne	r1, [r1]
    58c0:	e1a01004 	mov	r1, r4
    58c4:	eaffffe7 	b	5868 <_Z41__static_initialization_and_destruction_0ii+0x38>
    58c8:	400025c4 	.word	0x400025c4
    58cc:	40002540 	.word	0x40002540

000058d0 <_GLOBAL__D.11000_cyg_scheduler_sched_lock>:
    58d0:	e3a01dab 	mov	r1, #10944	; 0x2ac0
    58d4:	e2811038 	add	r1, r1, #56	; 0x38
    58d8:	e3a00000 	mov	r0, #0	; 0x0
    58dc:	eaffffd3 	b	5830 <_Z41__static_initialization_and_destruction_0ii>

000058e0 <_GLOBAL__I.11000_cyg_scheduler_sched_lock>:
    58e0:	e3a01dab 	mov	r1, #10944	; 0x2ac0
    58e4:	e2811038 	add	r1, r1, #56	; 0x38
    58e8:	e3a00001 	mov	r0, #1	; 0x1
    58ec:	eaffffcf 	b	5830 <_Z41__static_initialization_and_destruction_0ii>

000058f0 <_ZN15Cyg_SchedThread24clear_inherited_priorityEv>:
    58f0:	e5902014 	ldr	r2, [r0, #20]
    58f4:	e3520000 	cmp	r2, #0	; 0x0
    58f8:	112fff1e 	bxne	lr
    58fc:	e590301c 	ldr	r3, [r0, #28]
    5900:	e3530000 	cmp	r3, #0	; 0x0
    5904:	012fff1e 	bxeq	lr
    5908:	e5901018 	ldr	r1, [r0, #24]
    590c:	e5903008 	ldr	r3, [r0, #8]
    5910:	e1530001 	cmp	r3, r1
    5914:	e580201c 	str	r2, [r0, #28]
    5918:	a12fff1e 	bxge	lr
    591c:	e240001c 	sub	r0, r0, #28	; 0x1c
    5920:	eafffa78 	b	4308 <_ZN10Cyg_Thread12set_priorityEi>

00005924 <_ZN15Cyg_SchedThread22clear_priority_ceilingEv>:
    5924:	eafffff1 	b	58f0 <_ZN15Cyg_SchedThread24clear_inherited_priorityEv>

00005928 <_ZN15Cyg_SchedThread19disinherit_priorityEv>:
    5928:	eafffff0 	b	58f0 <_ZN15Cyg_SchedThread24clear_inherited_priorityEv>

0000592c <_ZN15Cyg_SchedThread22set_inherited_priorityEiP10Cyg_Thread>:
    592c:	e92d4070 	push	{r4, r5, r6, lr}
    5930:	e5906008 	ldr	r6, [r0, #8]
    5934:	e1560001 	cmp	r6, r1
    5938:	e1a05000 	mov	r5, r0
    593c:	d8bd8070 	pople	{r4, r5, r6, pc}
    5940:	e590401c 	ldr	r4, [r0, #28]
    5944:	e3a03000 	mov	r3, #0	; 0x0
    5948:	e580301c 	str	r3, [r0, #28]
    594c:	e240001c 	sub	r0, r0, #28	; 0x1c
    5950:	ebfffa6c 	bl	4308 <_ZN10Cyg_Thread12set_priorityEi>
    5954:	e3540000 	cmp	r4, #0	; 0x0
    5958:	e3a03001 	mov	r3, #1	; 0x1
    595c:	05856018 	streq	r6, [r5, #24]
    5960:	e585301c 	str	r3, [r5, #28]
    5964:	e8bd8070 	pop	{r4, r5, r6, pc}

00005968 <_ZN15Cyg_SchedThread20set_priority_ceilingEi>:
    5968:	e3a02000 	mov	r2, #0	; 0x0
    596c:	eaffffee 	b	592c <_ZN15Cyg_SchedThread22set_inherited_priorityEiP10Cyg_Thread>

00005970 <_ZN15Cyg_SchedThread16inherit_priorityEP10Cyg_Thread>:
    5970:	e1a02001 	mov	r2, r1
    5974:	e5911024 	ldr	r1, [r1, #36]
    5978:	eaffffeb 	b	592c <_ZN15Cyg_SchedThread22set_inherited_priorityEiP10Cyg_Thread>

0000597c <_ZN15Cyg_SchedThread24relay_inherited_priorityEP10Cyg_ThreadP15Cyg_ThreadQueue>:
    597c:	e5923000 	ldr	r3, [r2]
    5980:	e3530000 	cmp	r3, #0	; 0x0
    5984:	012fff1e 	bxeq	lr
    5988:	e1a02001 	mov	r2, r1
    598c:	e5911024 	ldr	r1, [r1, #36]
    5990:	eaffffe5 	b	592c <_ZN15Cyg_SchedThread22set_inherited_priorityEiP10Cyg_Thread>

00005994 <_ZN15Cyg_SchedThread14relay_priorityEP10Cyg_ThreadP15Cyg_ThreadQueue>:
    5994:	eafffff8 	b	597c <_ZN15Cyg_SchedThread24relay_inherited_priorityEP10Cyg_ThreadP15Cyg_ThreadQueue>

00005998 <_ZN15Cyg_SchedThreadC1EP10Cyg_Threadj>:
    5998:	e92d4010 	push	{r4, lr}
    599c:	e1a01002 	mov	r1, r2
    59a0:	e1a04000 	mov	r4, r0
    59a4:	ebfffeaa 	bl	5454 <_ZN30Cyg_SchedThread_ImplementationC2Ej>
    59a8:	e3a03000 	mov	r3, #0	; 0x0
    59ac:	e584301c 	str	r3, [r4, #28]
    59b0:	e5843010 	str	r3, [r4, #16]
    59b4:	e5843014 	str	r3, [r4, #20]
    59b8:	e1a00004 	mov	r0, r4
    59bc:	e8bd8010 	pop	{r4, pc}

000059c0 <_ZN15Cyg_SchedThreadC2EP10Cyg_Threadj>:
    59c0:	e92d4010 	push	{r4, lr}
    59c4:	e1a01002 	mov	r1, r2
    59c8:	e1a04000 	mov	r4, r0
    59cc:	ebfffea0 	bl	5454 <_ZN30Cyg_SchedThread_ImplementationC2Ej>
    59d0:	e3a03000 	mov	r3, #0	; 0x0
    59d4:	e584301c 	str	r3, [r4, #28]
    59d8:	e5843010 	str	r3, [r4, #16]
    59dc:	e5843014 	str	r3, [r4, #20]
    59e0:	e1a00004 	mov	r0, r4
    59e4:	e8bd8010 	pop	{r4, pc}

000059e8 <_ZN13Cyg_Scheduler9start_cpuEv>:
    59e8:	e59f0020 	ldr	r0, [pc, #32]	; 5a10 <_ZN13Cyg_Scheduler9start_cpuEv+0x28>
    59ec:	ebffff85 	bl	5808 <_ZN28Cyg_Scheduler_Implementation8scheduleEv>
    59f0:	e59f301c 	ldr	r3, [pc, #28]	; 5a14 <_ZN13Cyg_Scheduler9start_cpuEv+0x2c>
    59f4:	e59f201c 	ldr	r2, [pc, #28]	; 5a18 <_ZN13Cyg_Scheduler9start_cpuEv+0x30>
    59f8:	e1a0c000 	mov	ip, r0
    59fc:	e3a01000 	mov	r1, #0	; 0x0
    5a00:	e5831000 	str	r1, [r3]
    5a04:	e280000c 	add	r0, r0, #12	; 0xc
    5a08:	e582c000 	str	ip, [r2]
    5a0c:	eb001062 	bl	9b9c <hal_thread_load_context>
    5a10:	40002540 	.word	0x40002540
    5a14:	4000253c 	.word	0x4000253c
    5a18:	40002538 	.word	0x40002538

00005a1c <_ZN13Cyg_Scheduler5startEv>:
    5a1c:	ebfffff1 	bl	59e8 <_ZN13Cyg_Scheduler9start_cpuEv>

00005a20 <_ZN13Cyg_Scheduler12unlock_innerEj>:
    5a20:	e92d45f0 	push	{r4, r5, r6, r7, r8, sl, lr}
    5a24:	e2506000 	subs	r6, r0, #0	; 0x0
    5a28:	e24dd004 	sub	sp, sp, #4	; 0x4
    5a2c:	e59f70c4 	ldr	r7, [pc, #196]	; 5af8 <_ZN13Cyg_Scheduler12unlock_innerEj+0xd8>
    5a30:	e59fa0c4 	ldr	sl, [pc, #196]	; 5afc <_ZN13Cyg_Scheduler12unlock_innerEj+0xdc>
    5a34:	e59f80c4 	ldr	r8, [pc, #196]	; 5b00 <_ZN13Cyg_Scheduler12unlock_innerEj+0xe0>
    5a38:	1a000022 	bne	5ac8 <_ZN13Cyg_Scheduler12unlock_innerEj+0xa8>
    5a3c:	ea00001d 	b	5ab8 <_ZN13Cyg_Scheduler12unlock_innerEj+0x98>
    5a40:	e59f00bc 	ldr	r0, [pc, #188]	; 5b04 <_ZN13Cyg_Scheduler12unlock_innerEj+0xe4>
    5a44:	ebffff6f 	bl	5808 <_ZN28Cyg_Scheduler_Implementation8scheduleEv>
    5a48:	e1500005 	cmp	r0, r5
    5a4c:	0a00000c 	beq	5a84 <_ZN13Cyg_Scheduler12unlock_innerEj+0x64>
    5a50:	e59f10b0 	ldr	r1, [pc, #176]	; 5b08 <_ZN13Cyg_Scheduler12unlock_innerEj+0xe8>
    5a54:	e59f40b0 	ldr	r4, [pc, #176]	; 5b0c <_ZN13Cyg_Scheduler12unlock_innerEj+0xec>
    5a58:	e5913000 	ldr	r3, [r1]
    5a5c:	e5942000 	ldr	r2, [r4]
    5a60:	e2833001 	add	r3, r3, #1	; 0x1
    5a64:	e5813000 	str	r3, [r1]
    5a68:	e280000c 	add	r0, r0, #12	; 0xc
    5a6c:	e5852028 	str	r2, [r5, #40]
    5a70:	e285100c 	add	r1, r5, #12	; 0xc
    5a74:	eb001041 	bl	9b80 <hal_thread_switch_context>
    5a78:	e5953028 	ldr	r3, [r5, #40]
    5a7c:	e5875000 	str	r5, [r7]
    5a80:	e5843000 	str	r3, [r4]
    5a84:	e3a03000 	mov	r3, #0	; 0x0
    5a88:	e3560000 	cmp	r6, #0	; 0x0
    5a8c:	e58a3000 	str	r3, [sl]
    5a90:	1a000015 	bne	5aec <_ZN13Cyg_Scheduler12unlock_innerEj+0xcc>
    5a94:	e59f1064 	ldr	r1, [pc, #100]	; 5b00 <_ZN13Cyg_Scheduler12unlock_innerEj+0xe0>
    5a98:	e5886000 	str	r6, [r8]
    5a9c:	e59f306c 	ldr	r3, [pc, #108]	; 5b10 <_ZN13Cyg_Scheduler12unlock_innerEj+0xf0>
    5aa0:	e5932000 	ldr	r2, [r3]
    5aa4:	e3520000 	cmp	r2, #0	; 0x0
    5aa8:	15913000 	ldrne	r3, [r1]
    5aac:	12833001 	addne	r3, r3, #1	; 0x1
    5ab0:	15813000 	strne	r3, [r1]
    5ab4:	0a00000d 	beq	5af0 <_ZN13Cyg_Scheduler12unlock_innerEj+0xd0>
    5ab8:	e59f3050 	ldr	r3, [pc, #80]	; 5b10 <_ZN13Cyg_Scheduler12unlock_innerEj+0xf0>
    5abc:	e5932000 	ldr	r2, [r3]
    5ac0:	e3520000 	cmp	r2, #0	; 0x0
    5ac4:	1bfffdca 	blne	51f4 <_ZN13Cyg_Interrupt17call_pending_DSRsEv>
    5ac8:	e5975000 	ldr	r5, [r7]
    5acc:	e595303c 	ldr	r3, [r5, #60]
    5ad0:	e3530000 	cmp	r3, #0	; 0x0
    5ad4:	1affffd9 	bne	5a40 <_ZN13Cyg_Scheduler12unlock_innerEj+0x20>
    5ad8:	e59a3000 	ldr	r3, [sl]
    5adc:	e3530000 	cmp	r3, #0	; 0x0
    5ae0:	1affffd6 	bne	5a40 <_ZN13Cyg_Scheduler12unlock_innerEj+0x20>
    5ae4:	e3560000 	cmp	r6, #0	; 0x0
    5ae8:	0affffe9 	beq	5a94 <_ZN13Cyg_Scheduler12unlock_innerEj+0x74>
    5aec:	e5886000 	str	r6, [r8]
    5af0:	e28dd004 	add	sp, sp, #4	; 0x4
    5af4:	e8bd85f0 	pop	{r4, r5, r6, r7, r8, sl, pc}
    5af8:	40002538 	.word	0x40002538
    5afc:	4000253c 	.word	0x4000253c
    5b00:	400007c8 	.word	0x400007c8
    5b04:	40002540 	.word	0x40002540
    5b08:	400025c4 	.word	0x400025c4
    5b0c:	40002534 	.word	0x40002534
    5b10:	4000252c 	.word	0x4000252c

00005b14 <_ZN13Cyg_Scheduler12thread_entryEP10Cyg_Thread>:
    5b14:	e59f3070 	ldr	r3, [pc, #112]	; 5b8c <_ZN13Cyg_Scheduler12thread_entryEP10Cyg_Thread+0x78>
    5b18:	e59f2070 	ldr	r2, [pc, #112]	; 5b90 <_ZN13Cyg_Scheduler12thread_entryEP10Cyg_Thread+0x7c>
    5b1c:	e3a00000 	mov	r0, #0	; 0x0
    5b20:	e5830000 	str	r0, [r3]
    5b24:	e92d4030 	push	{r4, r5, lr}
    5b28:	e5821000 	str	r1, [r2]
    5b2c:	e59f4060 	ldr	r4, [pc, #96]	; 5b94 <_ZN13Cyg_Scheduler12thread_entryEP10Cyg_Thread+0x80>
    5b30:	e5943000 	ldr	r3, [r4]
    5b34:	e1530000 	cmp	r3, r0
    5b38:	e59f3058 	ldr	r3, [pc, #88]	; 5b98 <_ZN13Cyg_Scheduler12thread_entryEP10Cyg_Thread+0x84>
    5b3c:	e3a02005 	mov	r2, #5	; 0x5
    5b40:	e5812028 	str	r2, [r1, #40]
    5b44:	e24dd004 	sub	sp, sp, #4	; 0x4
    5b48:	e5832000 	str	r2, [r3]
    5b4c:	0a00000c 	beq	5b84 <_ZN13Cyg_Scheduler12thread_entryEP10Cyg_Thread+0x70>
    5b50:	e1a05004 	mov	r5, r4
    5b54:	ea000002 	b	5b64 <_ZN13Cyg_Scheduler12thread_entryEP10Cyg_Thread+0x50>
    5b58:	e5943000 	ldr	r3, [r4]
    5b5c:	e3530000 	cmp	r3, #0	; 0x0
    5b60:	0a000007 	beq	5b84 <_ZN13Cyg_Scheduler12thread_entryEP10Cyg_Thread+0x70>
    5b64:	e5943000 	ldr	r3, [r4]
    5b68:	e2530001 	subs	r0, r3, #1	; 0x1
    5b6c:	15850000 	strne	r0, [r5]
    5b70:	1afffff8 	bne	5b58 <_ZN13Cyg_Scheduler12thread_entryEP10Cyg_Thread+0x44>
    5b74:	ebffffa9 	bl	5a20 <_ZN13Cyg_Scheduler12unlock_innerEj>
    5b78:	e5943000 	ldr	r3, [r4]
    5b7c:	e3530000 	cmp	r3, #0	; 0x0
    5b80:	1afffff7 	bne	5b64 <_ZN13Cyg_Scheduler12thread_entryEP10Cyg_Thread+0x50>
    5b84:	e28dd004 	add	sp, sp, #4	; 0x4
    5b88:	e8bd8030 	pop	{r4, r5, pc}
    5b8c:	4000253c 	.word	0x4000253c
    5b90:	40002538 	.word	0x40002538
    5b94:	400007c8 	.word	0x400007c8
    5b98:	40002534 	.word	0x40002534

00005b9c <_ZN22Cyg_Counting_SemaphoreC2Ei>:
    5b9c:	e3a03000 	mov	r3, #0	; 0x0
    5ba0:	e880000a 	stm	r0, {r1, r3}
    5ba4:	e12fff1e 	bx	lr

00005ba8 <_ZN22Cyg_Counting_SemaphoreC1Ei>:
    5ba8:	e3a03000 	mov	r3, #0	; 0x0
    5bac:	e880000a 	stm	r0, {r1, r3}
    5bb0:	e12fff1e 	bx	lr

00005bb4 <_ZN22Cyg_Counting_SemaphoreD2Ev>:
    5bb4:	e5901004 	ldr	r1, [r0, #4]
    5bb8:	ea000009 	b	5be4 <_ZN22Cyg_Counting_SemaphoreD2Ev+0x30>
    5bbc:	e591c000 	ldr	ip, [r1]
    5bc0:	e15c0001 	cmp	ip, r1
    5bc4:	15913004 	ldrne	r3, [r1, #4]
    5bc8:	158c3004 	strne	r3, [ip, #4]
    5bcc:	15912004 	ldrne	r2, [r1, #4]
    5bd0:	03a0c000 	moveq	ip, #0	; 0x0
    5bd4:	1582c000 	strne	ip, [r2]
    5bd8:	15811004 	strne	r1, [r1, #4]
    5bdc:	15811000 	strne	r1, [r1]
    5be0:	e1a0100c 	mov	r1, ip
    5be4:	e3510000 	cmp	r1, #0	; 0x0
    5be8:	1afffff3 	bne	5bbc <_ZN22Cyg_Counting_SemaphoreD2Ev+0x8>
    5bec:	e5801004 	str	r1, [r0, #4]
    5bf0:	e12fff1e 	bx	lr

00005bf4 <_ZN22Cyg_Counting_SemaphoreD1Ev>:
    5bf4:	e5901004 	ldr	r1, [r0, #4]
    5bf8:	ea000009 	b	5c24 <_ZN22Cyg_Counting_SemaphoreD1Ev+0x30>
    5bfc:	e591c000 	ldr	ip, [r1]
    5c00:	e15c0001 	cmp	ip, r1
    5c04:	15913004 	ldrne	r3, [r1, #4]
    5c08:	158c3004 	strne	r3, [ip, #4]
    5c0c:	15912004 	ldrne	r2, [r1, #4]
    5c10:	03a0c000 	moveq	ip, #0	; 0x0
    5c14:	1582c000 	strne	ip, [r2]
    5c18:	15811004 	strne	r1, [r1, #4]
    5c1c:	15811000 	strne	r1, [r1]
    5c20:	e1a0100c 	mov	r1, ip
    5c24:	e3510000 	cmp	r1, #0	; 0x0
    5c28:	1afffff3 	bne	5bfc <_ZN22Cyg_Counting_SemaphoreD1Ev+0x8>
    5c2c:	e5801004 	str	r1, [r0, #4]
    5c30:	e12fff1e 	bx	lr

00005c34 <_ZNK22Cyg_Counting_Semaphore4peekEv>:
    5c34:	e5900000 	ldr	r0, [r0]
    5c38:	e12fff1e 	bx	lr

00005c3c <_ZN22Cyg_Counting_Semaphore4waitEv>:
    5c3c:	e92d4ff0 	push	{r4, r5, r6, r7, r8, r9, sl, fp, lr}
    5c40:	e59f80d0 	ldr	r8, [pc, #208]	; 5d18 <_ZN22Cyg_Counting_Semaphore4waitEv+0xdc>
    5c44:	e24dd004 	sub	sp, sp, #4	; 0x4
    5c48:	e1a07000 	mov	r7, r0
    5c4c:	e5986000 	ldr	r6, [r8]
    5c50:	e59f90c4 	ldr	r9, [pc, #196]	; 5d1c <_ZN22Cyg_Counting_Semaphore4waitEv+0xe0>
    5c54:	e5993000 	ldr	r3, [r9]
    5c58:	e2833001 	add	r3, r3, #1	; 0x1
    5c5c:	e5893000 	str	r3, [r9]
    5c60:	e3a0b000 	mov	fp, #0	; 0x0
    5c64:	e280a004 	add	sl, r0, #4	; 0x4
    5c68:	e3a05001 	mov	r5, #1	; 0x1
    5c6c:	e1a04005 	mov	r4, r5
    5c70:	e5972000 	ldr	r2, [r7]
    5c74:	e3520000 	cmp	r2, #0	; 0x0
    5c78:	13a03000 	movne	r3, #0	; 0x0
    5c7c:	02043001 	andeq	r3, r4, #1	; 0x1
    5c80:	e3530000 	cmp	r3, #0	; 0x0
    5c84:	0a000016 	beq	5ce4 <_ZN22Cyg_Counting_Semaphore4waitEv+0xa8>
    5c88:	e5983000 	ldr	r3, [r8]
    5c8c:	e5982000 	ldr	r2, [r8]
    5c90:	e3a01001 	mov	r1, #1	; 0x1
    5c94:	e5c31080 	strb	r1, [r3, #128]
    5c98:	e5c2b081 	strb	fp, [r2, #129]
    5c9c:	ebfff85e 	bl	3e1c <_ZN10Cyg_Thread5sleepEv>
    5ca0:	e1a0000a 	mov	r0, sl
    5ca4:	e1a01006 	mov	r1, r6
    5ca8:	ebfffdf3 	bl	547c <_ZN30Cyg_ThreadQueue_Implementation7enqueueEP10Cyg_Thread>
    5cac:	e5990000 	ldr	r0, [r9]
    5cb0:	ebffff5a 	bl	5a20 <_ZN13Cyg_Scheduler12unlock_innerEj>
    5cb4:	e5d63081 	ldrb	r3, [r6, #129]
    5cb8:	e3530004 	cmp	r3, #4	; 0x4
    5cbc:	3affffeb 	bcc	5c70 <_ZN22Cyg_Counting_Semaphore4waitEv+0x34>
    5cc0:	e3530005 	cmp	r3, #5	; 0x5
    5cc4:	9a000004 	bls	5cdc <_ZN22Cyg_Counting_Semaphore4waitEv+0xa0>
    5cc8:	e3530006 	cmp	r3, #6	; 0x6
    5ccc:	1affffe7 	bne	5c70 <_ZN22Cyg_Counting_Semaphore4waitEv+0x34>
    5cd0:	ebfff766 	bl	3a70 <_ZN10Cyg_Thread4exitEv>
    5cd4:	e3a05001 	mov	r5, #1	; 0x1
    5cd8:	eaffffe3 	b	5c6c <_ZN22Cyg_Counting_Semaphore4waitEv+0x30>
    5cdc:	e3a05000 	mov	r5, #0	; 0x0
    5ce0:	eaffffe1 	b	5c6c <_ZN22Cyg_Counting_Semaphore4waitEv+0x30>
    5ce4:	e3550000 	cmp	r5, #0	; 0x0
    5ce8:	12423001 	subne	r3, r2, #1	; 0x1
    5cec:	15873000 	strne	r3, [r7]
    5cf0:	e5993000 	ldr	r3, [r9]
    5cf4:	e2530001 	subs	r0, r3, #1	; 0x1
    5cf8:	159f301c 	ldrne	r3, [pc, #28]	; 5d1c <_ZN22Cyg_Counting_Semaphore4waitEv+0xe0>
    5cfc:	15830000 	strne	r0, [r3]
    5d00:	0a000002 	beq	5d10 <_ZN22Cyg_Counting_Semaphore4waitEv+0xd4>
    5d04:	e1a00005 	mov	r0, r5
    5d08:	e28dd004 	add	sp, sp, #4	; 0x4
    5d0c:	e8bd8ff0 	pop	{r4, r5, r6, r7, r8, r9, sl, fp, pc}
    5d10:	ebffff42 	bl	5a20 <_ZN13Cyg_Scheduler12unlock_innerEj>
    5d14:	eafffffa 	b	5d04 <_ZN22Cyg_Counting_Semaphore4waitEv+0xc8>
    5d18:	40002538 	.word	0x40002538
    5d1c:	400007c8 	.word	0x400007c8

00005d20 <_ZN22Cyg_Counting_Semaphore4waitEy>:
    5d20:	e92d4ff0 	push	{r4, r5, r6, r7, r8, r9, sl, fp, lr}
    5d24:	e59f8148 	ldr	r8, [pc, #328]	; 5e74 <_ZN22Cyg_Counting_Semaphore4waitEy+0x154>
    5d28:	e24dd00c 	sub	sp, sp, #12	; 0xc
    5d2c:	e1a07000 	mov	r7, r0
    5d30:	e5986000 	ldr	r6, [r8]
    5d34:	e59f913c 	ldr	r9, [pc, #316]	; 5e78 <_ZN22Cyg_Counting_Semaphore4waitEy+0x158>
    5d38:	e5991000 	ldr	r1, [r9]
    5d3c:	e2811001 	add	r1, r1, #1	; 0x1
    5d40:	e5891000 	str	r1, [r9]
    5d44:	e598e000 	ldr	lr, [r8]
    5d48:	e5984000 	ldr	r4, [r8]
    5d4c:	e5980000 	ldr	r0, [r8]
    5d50:	e3a01003 	mov	r1, #3	; 0x3
    5d54:	e3a0c000 	mov	ip, #0	; 0x0
    5d58:	e5c4c081 	strb	ip, [r4, #129]
    5d5c:	e5ce1080 	strb	r1, [lr, #128]
    5d60:	e3a05000 	mov	r5, #0	; 0x0
    5d64:	e2800050 	add	r0, r0, #80	; 0x50
    5d68:	e3a04000 	mov	r4, #0	; 0x0
    5d6c:	e88d0030 	stm	sp, {r4, r5}
    5d70:	eb00146c 	bl	af28 <_ZN9Cyg_Alarm10initializeEyy>
    5d74:	e5d63081 	ldrb	r3, [r6, #129]
    5d78:	e3530000 	cmp	r3, #0	; 0x0
    5d7c:	03a05001 	moveq	r5, #1	; 0x1
    5d80:	05973000 	ldreq	r3, [r7]
    5d84:	0a000002 	beq	5d94 <_ZN22Cyg_Counting_Semaphore4waitEy+0x74>
    5d88:	e5973000 	ldr	r3, [r7]
    5d8c:	e2535000 	subs	r5, r3, #0	; 0x0
    5d90:	13a05001 	movne	r5, #1	; 0x1
    5d94:	e287a004 	add	sl, r7, #4	; 0x4
    5d98:	e3a0b000 	mov	fp, #0	; 0x0
    5d9c:	e1a04005 	mov	r4, r5
    5da0:	e3530000 	cmp	r3, #0	; 0x0
    5da4:	13a03000 	movne	r3, #0	; 0x0
    5da8:	02043001 	andeq	r3, r4, #1	; 0x1
    5dac:	e3530000 	cmp	r3, #0	; 0x0
    5db0:	0a000017 	beq	5e14 <_ZN22Cyg_Counting_Semaphore4waitEy+0xf4>
    5db4:	e5983000 	ldr	r3, [r8]
    5db8:	e5982000 	ldr	r2, [r8]
    5dbc:	e3a01003 	mov	r1, #3	; 0x3
    5dc0:	e5c31080 	strb	r1, [r3, #128]
    5dc4:	e5c2b081 	strb	fp, [r2, #129]
    5dc8:	ebfff813 	bl	3e1c <_ZN10Cyg_Thread5sleepEv>
    5dcc:	e1a0000a 	mov	r0, sl
    5dd0:	e1a01006 	mov	r1, r6
    5dd4:	ebfffda8 	bl	547c <_ZN30Cyg_ThreadQueue_Implementation7enqueueEP10Cyg_Thread>
    5dd8:	e5990000 	ldr	r0, [r9]
    5ddc:	ebffff0f 	bl	5a20 <_ZN13Cyg_Scheduler12unlock_innerEj>
    5de0:	e5d63081 	ldrb	r3, [r6, #129]
    5de4:	e3530003 	cmp	r3, #3	; 0x3
    5de8:	3a000003 	bcc	5dfc <_ZN22Cyg_Counting_Semaphore4waitEy+0xdc>
    5dec:	e3530005 	cmp	r3, #5	; 0x5
    5df0:	9a00001a 	bls	5e60 <_ZN22Cyg_Counting_Semaphore4waitEy+0x140>
    5df4:	e3530006 	cmp	r3, #6	; 0x6
    5df8:	0a000014 	beq	5e50 <_ZN22Cyg_Counting_Semaphore4waitEy+0x130>
    5dfc:	e5973000 	ldr	r3, [r7]
    5e00:	e3530000 	cmp	r3, #0	; 0x0
    5e04:	13a03000 	movne	r3, #0	; 0x0
    5e08:	02043001 	andeq	r3, r4, #1	; 0x1
    5e0c:	e3530000 	cmp	r3, #0	; 0x0
    5e10:	1affffe7 	bne	5db4 <_ZN22Cyg_Counting_Semaphore4waitEy+0x94>
    5e14:	e5980000 	ldr	r0, [r8]
    5e18:	e2800050 	add	r0, r0, #80	; 0x50
    5e1c:	eb0014d8 	bl	b184 <_ZN9Cyg_Alarm7disableEv>
    5e20:	e3550000 	cmp	r5, #0	; 0x0
    5e24:	15973000 	ldrne	r3, [r7]
    5e28:	12433001 	subne	r3, r3, #1	; 0x1
    5e2c:	15873000 	strne	r3, [r7]
    5e30:	e5993000 	ldr	r3, [r9]
    5e34:	e2530001 	subs	r0, r3, #1	; 0x1
    5e38:	159f3038 	ldrne	r3, [pc, #56]	; 5e78 <_ZN22Cyg_Counting_Semaphore4waitEy+0x158>
    5e3c:	15830000 	strne	r0, [r3]
    5e40:	0a000009 	beq	5e6c <_ZN22Cyg_Counting_Semaphore4waitEy+0x14c>
    5e44:	e1a00005 	mov	r0, r5
    5e48:	e28dd00c 	add	sp, sp, #12	; 0xc
    5e4c:	e8bd8ff0 	pop	{r4, r5, r6, r7, r8, r9, sl, fp, pc}
    5e50:	ebfff706 	bl	3a70 <_ZN10Cyg_Thread4exitEv>
    5e54:	e3a05001 	mov	r5, #1	; 0x1
    5e58:	e5973000 	ldr	r3, [r7]
    5e5c:	eaffffce 	b	5d9c <_ZN22Cyg_Counting_Semaphore4waitEy+0x7c>
    5e60:	e3a05000 	mov	r5, #0	; 0x0
    5e64:	e5973000 	ldr	r3, [r7]
    5e68:	eaffffcb 	b	5d9c <_ZN22Cyg_Counting_Semaphore4waitEy+0x7c>
    5e6c:	ebfffeeb 	bl	5a20 <_ZN13Cyg_Scheduler12unlock_innerEj>
    5e70:	eafffff3 	b	5e44 <_ZN22Cyg_Counting_Semaphore4waitEy+0x124>
    5e74:	40002538 	.word	0x40002538
    5e78:	400007c8 	.word	0x400007c8

00005e7c <_ZN22Cyg_Counting_Semaphore4postEv>:
    5e7c:	e92d4010 	push	{r4, lr}
    5e80:	e59f405c 	ldr	r4, [pc, #92]	; 5ee4 <_ZN22Cyg_Counting_Semaphore4postEv+0x68>
    5e84:	e5943000 	ldr	r3, [r4]
    5e88:	e2833001 	add	r3, r3, #1	; 0x1
    5e8c:	e5843000 	str	r3, [r4]
    5e90:	e5903000 	ldr	r3, [r0]
    5e94:	e5902004 	ldr	r2, [r0, #4]
    5e98:	e2833001 	add	r3, r3, #1	; 0x1
    5e9c:	e3520000 	cmp	r2, #0	; 0x0
    5ea0:	e5803000 	str	r3, [r0]
    5ea4:	0a000006 	beq	5ec4 <_ZN22Cyg_Counting_Semaphore4postEv+0x48>
    5ea8:	e2800004 	add	r0, r0, #4	; 0x4
    5eac:	ebfffd82 	bl	54bc <_ZN30Cyg_ThreadQueue_Implementation7dequeueEv>
    5eb0:	e3a02007 	mov	r2, #7	; 0x7
    5eb4:	e3a01000 	mov	r1, #0	; 0x0
    5eb8:	e5c02081 	strb	r2, [r0, #129]
    5ebc:	e5c01080 	strb	r1, [r0, #128]
    5ec0:	ebfff8d2 	bl	4210 <_ZN10Cyg_Thread4wakeEv>
    5ec4:	e5943000 	ldr	r3, [r4]
    5ec8:	e2530001 	subs	r0, r3, #1	; 0x1
    5ecc:	159f3010 	ldrne	r3, [pc, #16]	; 5ee4 <_ZN22Cyg_Counting_Semaphore4postEv+0x68>
    5ed0:	15830000 	strne	r0, [r3]
    5ed4:	0a000000 	beq	5edc <_ZN22Cyg_Counting_Semaphore4postEv+0x60>
    5ed8:	e8bd8010 	pop	{r4, pc}
    5edc:	ebfffecf 	bl	5a20 <_ZN13Cyg_Scheduler12unlock_innerEj>
    5ee0:	e8bd8010 	pop	{r4, pc}
    5ee4:	400007c8 	.word	0x400007c8

00005ee8 <_ZN22Cyg_Counting_Semaphore7trywaitEv>:
    5ee8:	e92d4010 	push	{r4, lr}
    5eec:	e59f2048 	ldr	r2, [pc, #72]	; 5f3c <_ZN22Cyg_Counting_Semaphore7trywaitEv+0x54>
    5ef0:	e5923000 	ldr	r3, [r2]
    5ef4:	e2833001 	add	r3, r3, #1	; 0x1
    5ef8:	e5823000 	str	r3, [r2]
    5efc:	e5903000 	ldr	r3, [r0]
    5f00:	e3530000 	cmp	r3, #0	; 0x0
    5f04:	c2433001 	subgt	r3, r3, #1	; 0x1
    5f08:	d3a04000 	movle	r4, #0	; 0x0
    5f0c:	c5803000 	strgt	r3, [r0]
    5f10:	c3a04001 	movgt	r4, #1	; 0x1
    5f14:	e5923000 	ldr	r3, [r2]
    5f18:	e2530001 	subs	r0, r3, #1	; 0x1
    5f1c:	159f3018 	ldrne	r3, [pc, #24]	; 5f3c <_ZN22Cyg_Counting_Semaphore7trywaitEv+0x54>
    5f20:	15830000 	strne	r0, [r3]
    5f24:	0a000001 	beq	5f30 <_ZN22Cyg_Counting_Semaphore7trywaitEv+0x48>
    5f28:	e1a00004 	mov	r0, r4
    5f2c:	e8bd8010 	pop	{r4, pc}
    5f30:	ebfffeba 	bl	5a20 <_ZN13Cyg_Scheduler12unlock_innerEj>
    5f34:	e1a00004 	mov	r0, r4
    5f38:	e8bd8010 	pop	{r4, pc}
    5f3c:	400007c8 	.word	0x400007c8

00005f40 <_ZN8Cyg_FlagC2Ej>:
    5f40:	e3a03000 	mov	r3, #0	; 0x0
    5f44:	e880000a 	stm	r0, {r1, r3}
    5f48:	e12fff1e 	bx	lr

00005f4c <_ZN8Cyg_FlagC1Ej>:
    5f4c:	e3a03000 	mov	r3, #0	; 0x0
    5f50:	e880000a 	stm	r0, {r1, r3}
    5f54:	e12fff1e 	bx	lr

00005f58 <_ZN8Cyg_FlagD2Ev>:
    5f58:	e92d41f0 	push	{r4, r5, r6, r7, r8, lr}
    5f5c:	e1a05000 	mov	r5, r0
    5f60:	e59f80a0 	ldr	r8, [pc, #160]	; 6008 <_ZN8Cyg_FlagD2Ev+0xb0>
    5f64:	e5983000 	ldr	r3, [r8]
    5f68:	e2833001 	add	r3, r3, #1	; 0x1
    5f6c:	e5883000 	str	r3, [r8]
    5f70:	e5903004 	ldr	r3, [r0, #4]
    5f74:	e3530000 	cmp	r3, #0	; 0x0
    5f78:	0a00000a 	beq	5fa8 <_ZN8Cyg_FlagD2Ev+0x50>
    5f7c:	e2804004 	add	r4, r0, #4	; 0x4
    5f80:	e3a07000 	mov	r7, #0	; 0x0
    5f84:	e3a06005 	mov	r6, #5	; 0x5
    5f88:	e1a00004 	mov	r0, r4
    5f8c:	ebfffd4a 	bl	54bc <_ZN30Cyg_ThreadQueue_Implementation7dequeueEv>
    5f90:	e5c06081 	strb	r6, [r0, #129]
    5f94:	e5c07080 	strb	r7, [r0, #128]
    5f98:	ebfff89c 	bl	4210 <_ZN10Cyg_Thread4wakeEv>
    5f9c:	e5953004 	ldr	r3, [r5, #4]
    5fa0:	e3530000 	cmp	r3, #0	; 0x0
    5fa4:	1afffff7 	bne	5f88 <_ZN8Cyg_FlagD2Ev+0x30>
    5fa8:	e5983000 	ldr	r3, [r8]
    5fac:	e2530001 	subs	r0, r3, #1	; 0x1
    5fb0:	159f3050 	ldrne	r3, [pc, #80]	; 6008 <_ZN8Cyg_FlagD2Ev+0xb0>
    5fb4:	15830000 	strne	r0, [r3]
    5fb8:	0a000010 	beq	6000 <_ZN8Cyg_FlagD2Ev+0xa8>
    5fbc:	e5951004 	ldr	r1, [r5, #4]
    5fc0:	ea000009 	b	5fec <_ZN8Cyg_FlagD2Ev+0x94>
    5fc4:	e5910000 	ldr	r0, [r1]
    5fc8:	e1500001 	cmp	r0, r1
    5fcc:	15913004 	ldrne	r3, [r1, #4]
    5fd0:	15803004 	strne	r3, [r0, #4]
    5fd4:	15912004 	ldrne	r2, [r1, #4]
    5fd8:	03a00000 	moveq	r0, #0	; 0x0
    5fdc:	15820000 	strne	r0, [r2]
    5fe0:	15811004 	strne	r1, [r1, #4]
    5fe4:	15811000 	strne	r1, [r1]
    5fe8:	e1a01000 	mov	r1, r0
    5fec:	e3510000 	cmp	r1, #0	; 0x0
    5ff0:	1afffff3 	bne	5fc4 <_ZN8Cyg_FlagD2Ev+0x6c>
    5ff4:	e5851004 	str	r1, [r5, #4]
    5ff8:	e1a00005 	mov	r0, r5
    5ffc:	e8bd81f0 	pop	{r4, r5, r6, r7, r8, pc}
    6000:	ebfffe86 	bl	5a20 <_ZN13Cyg_Scheduler12unlock_innerEj>
    6004:	eaffffec 	b	5fbc <_ZN8Cyg_FlagD2Ev+0x64>
    6008:	400007c8 	.word	0x400007c8

0000600c <_ZN8Cyg_Flag4pollEjh>:
    600c:	e92d4010 	push	{r4, lr}
    6010:	e59fc08c 	ldr	ip, [pc, #140]	; 60a4 <_ZN8Cyg_Flag4pollEjh+0x98>
    6014:	e59c3000 	ldr	r3, [ip]
    6018:	e2833001 	add	r3, r3, #1	; 0x1
    601c:	e58c3000 	str	r3, [ip]
    6020:	e3120002 	tst	r2, #2	; 0x2
    6024:	0a00000c 	beq	605c <_ZN8Cyg_Flag4pollEjh+0x50>
    6028:	e5904000 	ldr	r4, [r0]
    602c:	e1110004 	tst	r1, r4
    6030:	0a00000f 	beq	6074 <_ZN8Cyg_Flag4pollEjh+0x68>
    6034:	e3120001 	tst	r2, #1	; 0x1
    6038:	13a03000 	movne	r3, #0	; 0x0
    603c:	15803000 	strne	r3, [r0]
    6040:	e59c3000 	ldr	r3, [ip]
    6044:	e2530001 	subs	r0, r3, #1	; 0x1
    6048:	159f3054 	ldrne	r3, [pc, #84]	; 60a4 <_ZN8Cyg_Flag4pollEjh+0x98>
    604c:	15830000 	strne	r0, [r3]
    6050:	0a00000d 	beq	608c <_ZN8Cyg_Flag4pollEjh+0x80>
    6054:	e1a00004 	mov	r0, r4
    6058:	e8bd8010 	pop	{r4, pc}
    605c:	e3510000 	cmp	r1, #0	; 0x0
    6060:	0a000003 	beq	6074 <_ZN8Cyg_Flag4pollEjh+0x68>
    6064:	e5904000 	ldr	r4, [r0]
    6068:	e0013004 	and	r3, r1, r4
    606c:	e1530001 	cmp	r3, r1
    6070:	0a000008 	beq	6098 <_ZN8Cyg_Flag4pollEjh+0x8c>
    6074:	e3a04000 	mov	r4, #0	; 0x0
    6078:	e59c3000 	ldr	r3, [ip]
    607c:	e2530001 	subs	r0, r3, #1	; 0x1
    6080:	159f301c 	ldrne	r3, [pc, #28]	; 60a4 <_ZN8Cyg_Flag4pollEjh+0x98>
    6084:	15830000 	strne	r0, [r3]
    6088:	1afffff1 	bne	6054 <_ZN8Cyg_Flag4pollEjh+0x48>
    608c:	ebfffe63 	bl	5a20 <_ZN13Cyg_Scheduler12unlock_innerEj>
    6090:	e1a00004 	mov	r0, r4
    6094:	e8bd8010 	pop	{r4, pc}
    6098:	e3540000 	cmp	r4, #0	; 0x0
    609c:	1affffe4 	bne	6034 <_ZN8Cyg_Flag4pollEjh+0x28>
    60a0:	eaffffe6 	b	6040 <_ZN8Cyg_Flag4pollEjh+0x34>
    60a4:	400007c8 	.word	0x400007c8

000060a8 <_ZN8Cyg_Flag8maskbitsEj>:
    60a8:	e52de004 	push	{lr}		; (str lr, [sp, #-4]!)
    60ac:	e24dd004 	sub	sp, sp, #4	; 0x4
    60b0:	e59f2034 	ldr	r2, [pc, #52]	; 60ec <_ZN8Cyg_Flag8maskbitsEj+0x44>
    60b4:	e5923000 	ldr	r3, [r2]
    60b8:	e2833001 	add	r3, r3, #1	; 0x1
    60bc:	e5823000 	str	r3, [r2]
    60c0:	e5903000 	ldr	r3, [r0]
    60c4:	e0033001 	and	r3, r3, r1
    60c8:	e5803000 	str	r3, [r0]
    60cc:	e5923000 	ldr	r3, [r2]
    60d0:	e2530001 	subs	r0, r3, #1	; 0x1
    60d4:	15820000 	strne	r0, [r2]
    60d8:	0a000001 	beq	60e4 <_ZN8Cyg_Flag8maskbitsEj+0x3c>
    60dc:	e28dd004 	add	sp, sp, #4	; 0x4
    60e0:	e8bd8000 	pop	{pc}
    60e4:	ebfffe4d 	bl	5a20 <_ZN13Cyg_Scheduler12unlock_innerEj>
    60e8:	eafffffb 	b	60dc <_ZN8Cyg_Flag8maskbitsEj+0x34>
    60ec:	400007c8 	.word	0x400007c8

000060f0 <_ZN8Cyg_Flag7setbitsEj>:
    60f0:	e92d47f0 	push	{r4, r5, r6, r7, r8, r9, sl, lr}
    60f4:	e1a05000 	mov	r5, r0
    60f8:	e24dd008 	sub	sp, sp, #8	; 0x8
    60fc:	e59f910c 	ldr	r9, [pc, #268]	; 6210 <_ZN8Cyg_Flag7setbitsEj+0x120>
    6100:	e5993000 	ldr	r3, [r9]
    6104:	e2833001 	add	r3, r3, #1	; 0x1
    6108:	e5893000 	str	r3, [r9]
    610c:	e5903000 	ldr	r3, [r0]
    6110:	e5902004 	ldr	r2, [r0, #4]
    6114:	e1833001 	orr	r3, r3, r1
    6118:	e3520000 	cmp	r2, #0	; 0x0
    611c:	e5803000 	str	r3, [r0]
    6120:	0a000031 	beq	61ec <_ZN8Cyg_Flag7setbitsEj+0xfc>
    6124:	e3a03000 	mov	r3, #0	; 0x0
    6128:	e28d7008 	add	r7, sp, #8	; 0x8
    612c:	e5273004 	str	r3, [r7, #-4]!
    6130:	e1a08003 	mov	r8, r3
    6134:	e2806004 	add	r6, r0, #4	; 0x4
    6138:	e3a0a007 	mov	sl, #7	; 0x7
    613c:	ea00000a 	b	616c <_ZN8Cyg_Flag7setbitsEj+0x7c>
    6140:	e5c08080 	strb	r8, [r0, #128]
    6144:	e5c0a081 	strb	sl, [r0, #129]
    6148:	ebfff830 	bl	4210 <_ZN10Cyg_Thread4wakeEv>
    614c:	e594300c 	ldr	r3, [r4, #12]
    6150:	e5952000 	ldr	r2, [r5]
    6154:	e3530000 	cmp	r3, #0	; 0x0
    6158:	e5953004 	ldr	r3, [r5, #4]
    615c:	e5842008 	str	r2, [r4, #8]
    6160:	15858000 	strne	r8, [r5]
    6164:	e3530000 	cmp	r3, #0	; 0x0
    6168:	0a000013 	beq	61bc <_ZN8Cyg_Flag7setbitsEj+0xcc>
    616c:	e1a00006 	mov	r0, r6
    6170:	ebfffcd1 	bl	54bc <_ZN30Cyg_ThreadQueue_Implementation7dequeueEv>
    6174:	e5904048 	ldr	r4, [r0, #72]
    6178:	e5942000 	ldr	r2, [r4]
    617c:	e3520000 	cmp	r2, #0	; 0x0
    6180:	0595c000 	ldreq	ip, [r5]
    6184:	0a000003 	beq	6198 <_ZN8Cyg_Flag7setbitsEj+0xa8>
    6188:	e595c000 	ldr	ip, [r5]
    618c:	e00c3002 	and	r3, ip, r2
    6190:	e1520003 	cmp	r2, r3
    6194:	0affffe9 	beq	6140 <_ZN8Cyg_Flag7setbitsEj+0x50>
    6198:	e5943004 	ldr	r3, [r4, #4]
    619c:	e11c0003 	tst	ip, r3
    61a0:	1affffe6 	bne	6140 <_ZN8Cyg_Flag7setbitsEj+0x50>
    61a4:	e1a01000 	mov	r1, r0
    61a8:	e1a00007 	mov	r0, r7
    61ac:	ebfffcb2 	bl	547c <_ZN30Cyg_ThreadQueue_Implementation7enqueueEP10Cyg_Thread>
    61b0:	e5953004 	ldr	r3, [r5, #4]
    61b4:	e3530000 	cmp	r3, #0	; 0x0
    61b8:	1affffeb 	bne	616c <_ZN8Cyg_Flag7setbitsEj+0x7c>
    61bc:	e59d3004 	ldr	r3, [sp, #4]
    61c0:	e3530000 	cmp	r3, #0	; 0x0
    61c4:	0a000008 	beq	61ec <_ZN8Cyg_Flag7setbitsEj+0xfc>
    61c8:	e28d4004 	add	r4, sp, #4	; 0x4
    61cc:	e1a00004 	mov	r0, r4
    61d0:	ebfffcb9 	bl	54bc <_ZN30Cyg_ThreadQueue_Implementation7dequeueEv>
    61d4:	e1a01000 	mov	r1, r0
    61d8:	e1a00006 	mov	r0, r6
    61dc:	ebfffca6 	bl	547c <_ZN30Cyg_ThreadQueue_Implementation7enqueueEP10Cyg_Thread>
    61e0:	e59d3004 	ldr	r3, [sp, #4]
    61e4:	e3530000 	cmp	r3, #0	; 0x0
    61e8:	1afffff7 	bne	61cc <_ZN8Cyg_Flag7setbitsEj+0xdc>
    61ec:	e5993000 	ldr	r3, [r9]
    61f0:	e2530001 	subs	r0, r3, #1	; 0x1
    61f4:	159f3014 	ldrne	r3, [pc, #20]	; 6210 <_ZN8Cyg_Flag7setbitsEj+0x120>
    61f8:	15830000 	strne	r0, [r3]
    61fc:	0a000001 	beq	6208 <_ZN8Cyg_Flag7setbitsEj+0x118>
    6200:	e28dd008 	add	sp, sp, #8	; 0x8
    6204:	e8bd87f0 	pop	{r4, r5, r6, r7, r8, r9, sl, pc}
    6208:	ebfffe04 	bl	5a20 <_ZN13Cyg_Scheduler12unlock_innerEj>
    620c:	eafffffb 	b	6200 <_ZN8Cyg_Flag7setbitsEj+0x110>
    6210:	400007c8 	.word	0x400007c8

00006214 <_ZN8Cyg_FlagD1Ev>:
    6214:	e92d41f0 	push	{r4, r5, r6, r7, r8, lr}
    6218:	e1a05000 	mov	r5, r0
    621c:	e59f80a0 	ldr	r8, [pc, #160]	; 62c4 <_ZN8Cyg_FlagD1Ev+0xb0>
    6220:	e5983000 	ldr	r3, [r8]
    6224:	e2833001 	add	r3, r3, #1	; 0x1
    6228:	e5883000 	str	r3, [r8]
    622c:	e5903004 	ldr	r3, [r0, #4]
    6230:	e3530000 	cmp	r3, #0	; 0x0
    6234:	0a00000a 	beq	6264 <_ZN8Cyg_FlagD1Ev+0x50>
    6238:	e2804004 	add	r4, r0, #4	; 0x4
    623c:	e3a07000 	mov	r7, #0	; 0x0
    6240:	e3a06005 	mov	r6, #5	; 0x5
    6244:	e1a00004 	mov	r0, r4
    6248:	ebfffc9b 	bl	54bc <_ZN30Cyg_ThreadQueue_Implementation7dequeueEv>
    624c:	e5c06081 	strb	r6, [r0, #129]
    6250:	e5c07080 	strb	r7, [r0, #128]
    6254:	ebfff7ed 	bl	4210 <_ZN10Cyg_Thread4wakeEv>
    6258:	e5953004 	ldr	r3, [r5, #4]
    625c:	e3530000 	cmp	r3, #0	; 0x0
    6260:	1afffff7 	bne	6244 <_ZN8Cyg_FlagD1Ev+0x30>
    6264:	e5983000 	ldr	r3, [r8]
    6268:	e2530001 	subs	r0, r3, #1	; 0x1
    626c:	159f3050 	ldrne	r3, [pc, #80]	; 62c4 <_ZN8Cyg_FlagD1Ev+0xb0>
    6270:	15830000 	strne	r0, [r3]
    6274:	0a000010 	beq	62bc <_ZN8Cyg_FlagD1Ev+0xa8>
    6278:	e5951004 	ldr	r1, [r5, #4]
    627c:	ea000009 	b	62a8 <_ZN8Cyg_FlagD1Ev+0x94>
    6280:	e5910000 	ldr	r0, [r1]
    6284:	e1500001 	cmp	r0, r1
    6288:	15913004 	ldrne	r3, [r1, #4]
    628c:	15803004 	strne	r3, [r0, #4]
    6290:	15912004 	ldrne	r2, [r1, #4]
    6294:	03a00000 	moveq	r0, #0	; 0x0
    6298:	15820000 	strne	r0, [r2]
    629c:	15811004 	strne	r1, [r1, #4]
    62a0:	15811000 	strne	r1, [r1]
    62a4:	e1a01000 	mov	r1, r0
    62a8:	e3510000 	cmp	r1, #0	; 0x0
    62ac:	1afffff3 	bne	6280 <_ZN8Cyg_FlagD1Ev+0x6c>
    62b0:	e5851004 	str	r1, [r5, #4]
    62b4:	e1a00005 	mov	r0, r5
    62b8:	e8bd81f0 	pop	{r4, r5, r6, r7, r8, pc}
    62bc:	ebfffdd7 	bl	5a20 <_ZN13Cyg_Scheduler12unlock_innerEj>
    62c0:	eaffffec 	b	6278 <_ZN8Cyg_FlagD1Ev+0x64>
    62c4:	400007c8 	.word	0x400007c8

000062c8 <_ZN8Cyg_Flag4waitEjh>:
    62c8:	e92d47f0 	push	{r4, r5, r6, r7, r8, r9, sl, lr}
    62cc:	e1a09000 	mov	r9, r0
    62d0:	e24dd010 	sub	sp, sp, #16	; 0x10
    62d4:	e1a0a001 	mov	sl, r1
    62d8:	e1a06002 	mov	r6, r2
    62dc:	e59f70ec 	ldr	r7, [pc, #236]	; 63d0 <_ZN8Cyg_Flag4waitEjh+0x108>
    62e0:	e5973000 	ldr	r3, [r7]
    62e4:	e2833001 	add	r3, r3, #1	; 0x1
    62e8:	e5873000 	str	r3, [r7]
    62ec:	ebffff46 	bl	600c <_ZN8Cyg_Flag4pollEjh>
    62f0:	e2508000 	subs	r8, r0, #0	; 0x0
    62f4:	1a00002c 	bne	63ac <_ZN8Cyg_Flag4waitEjh+0xe4>
    62f8:	e59f50d4 	ldr	r5, [pc, #212]	; 63d4 <_ZN8Cyg_Flag4waitEjh+0x10c>
    62fc:	e2163002 	ands	r3, r6, #2	; 0x2
    6300:	e5954000 	ldr	r4, [r5]
    6304:	058da000 	streq	sl, [sp]
    6308:	e3a02000 	mov	r2, #0	; 0x0
    630c:	01a0a003 	moveq	sl, r3
    6310:	e2063001 	and	r3, r6, #1	; 0x1
    6314:	158d8000 	strne	r8, [sp]
    6318:	e58d2008 	str	r2, [sp, #8]
    631c:	e58da004 	str	sl, [sp, #4]
    6320:	e58d300c 	str	r3, [sp, #12]
    6324:	e584d048 	str	sp, [r4, #72]
    6328:	e2896004 	add	r6, r9, #4	; 0x4
    632c:	e3a08001 	mov	r8, #1	; 0x1
    6330:	e59d1008 	ldr	r1, [sp, #8]
    6334:	e3510000 	cmp	r1, #0	; 0x0
    6338:	1a00000e 	bne	6378 <_ZN8Cyg_Flag4waitEjh+0xb0>
    633c:	e5953000 	ldr	r3, [r5]
    6340:	e5952000 	ldr	r2, [r5]
    6344:	e5c38080 	strb	r8, [r3, #128]
    6348:	e5c21081 	strb	r1, [r2, #129]
    634c:	ebfff6b2 	bl	3e1c <_ZN10Cyg_Thread5sleepEv>
    6350:	e1a00006 	mov	r0, r6
    6354:	e1a01004 	mov	r1, r4
    6358:	ebfffc47 	bl	547c <_ZN30Cyg_ThreadQueue_Implementation7enqueueEP10Cyg_Thread>
    635c:	e5970000 	ldr	r0, [r7]
    6360:	ebfffdae 	bl	5a20 <_ZN13Cyg_Scheduler12unlock_innerEj>
    6364:	e5d43081 	ldrb	r3, [r4, #129]
    6368:	e3530004 	cmp	r3, #4	; 0x4
    636c:	3affffef 	bcc	6330 <_ZN8Cyg_Flag4waitEjh+0x68>
    6370:	e3530005 	cmp	r3, #5	; 0x5
    6374:	8a000008 	bhi	639c <_ZN8Cyg_Flag4waitEjh+0xd4>
    6378:	e5973000 	ldr	r3, [r7]
    637c:	e2530001 	subs	r0, r3, #1	; 0x1
    6380:	159f3048 	ldrne	r3, [pc, #72]	; 63d0 <_ZN8Cyg_Flag4waitEjh+0x108>
    6384:	15830000 	strne	r0, [r3]
    6388:	0a00000c 	beq	63c0 <_ZN8Cyg_Flag4waitEjh+0xf8>
    638c:	e59d8008 	ldr	r8, [sp, #8]
    6390:	e1a00008 	mov	r0, r8
    6394:	e28dd010 	add	sp, sp, #16	; 0x10
    6398:	e8bd87f0 	pop	{r4, r5, r6, r7, r8, r9, sl, pc}
    639c:	e3530006 	cmp	r3, #6	; 0x6
    63a0:	1affffe2 	bne	6330 <_ZN8Cyg_Flag4waitEjh+0x68>
    63a4:	ebfff5b1 	bl	3a70 <_ZN10Cyg_Thread4exitEv>
    63a8:	eaffffe0 	b	6330 <_ZN8Cyg_Flag4waitEjh+0x68>
    63ac:	e5973000 	ldr	r3, [r7]
    63b0:	e2530001 	subs	r0, r3, #1	; 0x1
    63b4:	15870000 	strne	r0, [r7]
    63b8:	0a000002 	beq	63c8 <_ZN8Cyg_Flag4waitEjh+0x100>
    63bc:	eafffff3 	b	6390 <_ZN8Cyg_Flag4waitEjh+0xc8>
    63c0:	ebfffd96 	bl	5a20 <_ZN13Cyg_Scheduler12unlock_innerEj>
    63c4:	eafffff0 	b	638c <_ZN8Cyg_Flag4waitEjh+0xc4>
    63c8:	ebfffd94 	bl	5a20 <_ZN13Cyg_Scheduler12unlock_innerEj>
    63cc:	eaffffef 	b	6390 <_ZN8Cyg_Flag4waitEjh+0xc8>
    63d0:	400007c8 	.word	0x400007c8
    63d4:	40002538 	.word	0x40002538

000063d8 <_ZN8Cyg_Flag4waitEjhy>:
    63d8:	e92d4ff0 	push	{r4, r5, r6, r7, r8, r9, sl, fp, lr}
    63dc:	e1a0b000 	mov	fp, r0
    63e0:	e24dd01c 	sub	sp, sp, #28	; 0x1c
    63e4:	e1a0a001 	mov	sl, r1
    63e8:	e1a05002 	mov	r5, r2
    63ec:	e59f813c 	ldr	r8, [pc, #316]	; 6530 <_ZN8Cyg_Flag4waitEjhy+0x158>
    63f0:	e5983000 	ldr	r3, [r8]
    63f4:	e2833001 	add	r3, r3, #1	; 0x1
    63f8:	e5883000 	str	r3, [r8]
    63fc:	ebffff02 	bl	600c <_ZN8Cyg_Flag4pollEjh>
    6400:	e2504000 	subs	r4, r0, #0	; 0x0
    6404:	1a000040 	bne	650c <_ZN8Cyg_Flag4waitEjhy+0x134>
    6408:	e59f7124 	ldr	r7, [pc, #292]	; 6534 <_ZN8Cyg_Flag4waitEjhy+0x15c>
    640c:	e2153002 	ands	r3, r5, #2	; 0x2
    6410:	e5976000 	ldr	r6, [r7]
    6414:	058da008 	streq	sl, [sp, #8]
    6418:	e5972000 	ldr	r2, [r7]
    641c:	01a0a003 	moveq	sl, r3
    6420:	e597c000 	ldr	ip, [r7]
    6424:	e2053001 	and	r3, r5, #1	; 0x1
    6428:	e5970000 	ldr	r0, [r7]
    642c:	e3a01000 	mov	r1, #0	; 0x0
    6430:	e58d3014 	str	r3, [sp, #20]
    6434:	e3a09003 	mov	r9, #3	; 0x3
    6438:	e28d3008 	add	r3, sp, #8	; 0x8
    643c:	158d4008 	strne	r4, [sp, #8]
    6440:	e5c29080 	strb	r9, [r2, #128]
    6444:	e58da00c 	str	sl, [sp, #12]
    6448:	e5cc1081 	strb	r1, [ip, #129]
    644c:	e5863048 	str	r3, [r6, #72]
    6450:	e3a04000 	mov	r4, #0	; 0x0
    6454:	e28d2040 	add	r2, sp, #64	; 0x40
    6458:	e892000c 	ldm	r2, {r2, r3}
    645c:	e3a05000 	mov	r5, #0	; 0x0
    6460:	e2800050 	add	r0, r0, #80	; 0x50
    6464:	e88d0030 	stm	sp, {r4, r5}
    6468:	e58d1010 	str	r1, [sp, #16]
    646c:	eb0012ad 	bl	af28 <_ZN9Cyg_Alarm10initializeEyy>
    6470:	e5d63081 	ldrb	r3, [r6, #129]
    6474:	e3530000 	cmp	r3, #0	; 0x0
    6478:	028b4004 	addeq	r4, fp, #4	; 0x4
    647c:	01a05009 	moveq	r5, r9
    6480:	1a000011 	bne	64cc <_ZN8Cyg_Flag4waitEjhy+0xf4>
    6484:	e59d1010 	ldr	r1, [sp, #16]
    6488:	e3510000 	cmp	r1, #0	; 0x0
    648c:	1a00000e 	bne	64cc <_ZN8Cyg_Flag4waitEjhy+0xf4>
    6490:	e5973000 	ldr	r3, [r7]
    6494:	e5972000 	ldr	r2, [r7]
    6498:	e5c35080 	strb	r5, [r3, #128]
    649c:	e5c21081 	strb	r1, [r2, #129]
    64a0:	ebfff65d 	bl	3e1c <_ZN10Cyg_Thread5sleepEv>
    64a4:	e1a00004 	mov	r0, r4
    64a8:	e1a01006 	mov	r1, r6
    64ac:	ebfffbf2 	bl	547c <_ZN30Cyg_ThreadQueue_Implementation7enqueueEP10Cyg_Thread>
    64b0:	e5980000 	ldr	r0, [r8]
    64b4:	ebfffd59 	bl	5a20 <_ZN13Cyg_Scheduler12unlock_innerEj>
    64b8:	e5d63081 	ldrb	r3, [r6, #129]
    64bc:	e3530003 	cmp	r3, #3	; 0x3
    64c0:	3affffef 	bcc	6484 <_ZN8Cyg_Flag4waitEjhy+0xac>
    64c4:	e3530005 	cmp	r3, #5	; 0x5
    64c8:	8a00000b 	bhi	64fc <_ZN8Cyg_Flag4waitEjhy+0x124>
    64cc:	e5970000 	ldr	r0, [r7]
    64d0:	e2800050 	add	r0, r0, #80	; 0x50
    64d4:	eb00132a 	bl	b184 <_ZN9Cyg_Alarm7disableEv>
    64d8:	e5983000 	ldr	r3, [r8]
    64dc:	e2530001 	subs	r0, r3, #1	; 0x1
    64e0:	159f3048 	ldrne	r3, [pc, #72]	; 6530 <_ZN8Cyg_Flag4waitEjhy+0x158>
    64e4:	15830000 	strne	r0, [r3]
    64e8:	0a00000c 	beq	6520 <_ZN8Cyg_Flag4waitEjhy+0x148>
    64ec:	e59d4010 	ldr	r4, [sp, #16]
    64f0:	e1a00004 	mov	r0, r4
    64f4:	e28dd01c 	add	sp, sp, #28	; 0x1c
    64f8:	e8bd8ff0 	pop	{r4, r5, r6, r7, r8, r9, sl, fp, pc}
    64fc:	e3530006 	cmp	r3, #6	; 0x6
    6500:	1affffdf 	bne	6484 <_ZN8Cyg_Flag4waitEjhy+0xac>
    6504:	ebfff559 	bl	3a70 <_ZN10Cyg_Thread4exitEv>
    6508:	eaffffdd 	b	6484 <_ZN8Cyg_Flag4waitEjhy+0xac>
    650c:	e5983000 	ldr	r3, [r8]
    6510:	e2530001 	subs	r0, r3, #1	; 0x1
    6514:	15880000 	strne	r0, [r8]
    6518:	0a000002 	beq	6528 <_ZN8Cyg_Flag4waitEjhy+0x150>
    651c:	eafffff3 	b	64f0 <_ZN8Cyg_Flag4waitEjhy+0x118>
    6520:	ebfffd3e 	bl	5a20 <_ZN13Cyg_Scheduler12unlock_innerEj>
    6524:	eafffff0 	b	64ec <_ZN8Cyg_Flag4waitEjhy+0x114>
    6528:	ebfffd3c 	bl	5a20 <_ZN13Cyg_Scheduler12unlock_innerEj>
    652c:	eaffffef 	b	64f0 <_ZN8Cyg_Flag4waitEjhy+0x118>
    6530:	400007c8 	.word	0x400007c8
    6534:	40002538 	.word	0x40002538

00006538 <_ZN8Cyg_MboxC2Ev>:
    6538:	e3a03000 	mov	r3, #0	; 0x0
    653c:	e5803004 	str	r3, [r0, #4]
    6540:	e5803008 	str	r3, [r0, #8]
    6544:	e580300c 	str	r3, [r0, #12]
    6548:	e5803000 	str	r3, [r0]
    654c:	e12fff1e 	bx	lr

00006550 <_ZN8Cyg_MboxC1Ev>:
    6550:	e3a03000 	mov	r3, #0	; 0x0
    6554:	e5803004 	str	r3, [r0, #4]
    6558:	e5803008 	str	r3, [r0, #8]
    655c:	e580300c 	str	r3, [r0, #12]
    6560:	e5803000 	str	r3, [r0]
    6564:	e12fff1e 	bx	lr

00006568 <_ZN8Cyg_MboxD2Ev>:
    6568:	e590100c 	ldr	r1, [r0, #12]
    656c:	ea000009 	b	6598 <_ZN8Cyg_MboxD2Ev+0x30>
    6570:	e591c000 	ldr	ip, [r1]
    6574:	e15c0001 	cmp	ip, r1
    6578:	15913004 	ldrne	r3, [r1, #4]
    657c:	158c3004 	strne	r3, [ip, #4]
    6580:	15912004 	ldrne	r2, [r1, #4]
    6584:	03a0c000 	moveq	ip, #0	; 0x0
    6588:	1582c000 	strne	ip, [r2]
    658c:	15811004 	strne	r1, [r1, #4]
    6590:	15811000 	strne	r1, [r1]
    6594:	e1a0100c 	mov	r1, ip
    6598:	e3510000 	cmp	r1, #0	; 0x0
    659c:	1afffff3 	bne	6570 <_ZN8Cyg_MboxD2Ev+0x8>
    65a0:	e580100c 	str	r1, [r0, #12]
    65a4:	e5901008 	ldr	r1, [r0, #8]
    65a8:	ea000009 	b	65d4 <_ZN8Cyg_MboxD2Ev+0x6c>
    65ac:	e591c000 	ldr	ip, [r1]
    65b0:	e151000c 	cmp	r1, ip
    65b4:	15913004 	ldrne	r3, [r1, #4]
    65b8:	158c3004 	strne	r3, [ip, #4]
    65bc:	15912004 	ldrne	r2, [r1, #4]
    65c0:	03a0c000 	moveq	ip, #0	; 0x0
    65c4:	1582c000 	strne	ip, [r2]
    65c8:	15811004 	strne	r1, [r1, #4]
    65cc:	15811000 	strne	r1, [r1]
    65d0:	e1a0100c 	mov	r1, ip
    65d4:	e3510000 	cmp	r1, #0	; 0x0
    65d8:	1afffff3 	bne	65ac <_ZN8Cyg_MboxD2Ev+0x44>
    65dc:	e5801008 	str	r1, [r0, #8]
    65e0:	e12fff1e 	bx	lr

000065e4 <_ZN8Cyg_MboxD1Ev>:
    65e4:	e590100c 	ldr	r1, [r0, #12]
    65e8:	ea000009 	b	6614 <_ZN8Cyg_MboxD1Ev+0x30>
    65ec:	e591c000 	ldr	ip, [r1]
    65f0:	e15c0001 	cmp	ip, r1
    65f4:	15913004 	ldrne	r3, [r1, #4]
    65f8:	158c3004 	strne	r3, [ip, #4]
    65fc:	15912004 	ldrne	r2, [r1, #4]
    6600:	03a0c000 	moveq	ip, #0	; 0x0
    6604:	1582c000 	strne	ip, [r2]
    6608:	15811004 	strne	r1, [r1, #4]
    660c:	15811000 	strne	r1, [r1]
    6610:	e1a0100c 	mov	r1, ip
    6614:	e3510000 	cmp	r1, #0	; 0x0
    6618:	1afffff3 	bne	65ec <_ZN8Cyg_MboxD1Ev+0x8>
    661c:	e580100c 	str	r1, [r0, #12]
    6620:	e5901008 	ldr	r1, [r0, #8]
    6624:	ea000009 	b	6650 <_ZN8Cyg_MboxD1Ev+0x6c>
    6628:	e591c000 	ldr	ip, [r1]
    662c:	e151000c 	cmp	r1, ip
    6630:	15913004 	ldrne	r3, [r1, #4]
    6634:	158c3004 	strne	r3, [ip, #4]
    6638:	15912004 	ldrne	r2, [r1, #4]
    663c:	03a0c000 	moveq	ip, #0	; 0x0
    6640:	1582c000 	strne	ip, [r2]
    6644:	15811004 	strne	r1, [r1, #4]
    6648:	15811000 	strne	r1, [r1]
    664c:	e1a0100c 	mov	r1, ip
    6650:	e3510000 	cmp	r1, #0	; 0x0
    6654:	1afffff3 	bne	6628 <_ZN8Cyg_MboxD1Ev+0x44>
    6658:	e5801008 	str	r1, [r0, #8]
    665c:	e12fff1e 	bx	lr

00006660 <_ZN8Cyg_Mbox9peek_itemEv>:
    6660:	e92d4030 	push	{r4, r5, lr}
    6664:	e24dd004 	sub	sp, sp, #4	; 0x4
    6668:	e59f205c 	ldr	r2, [pc, #92]	; 66cc <_ZN8Cyg_Mbox9peek_itemEv+0x6c>
    666c:	e5923000 	ldr	r3, [r2]
    6670:	e2833001 	add	r3, r3, #1	; 0x1
    6674:	e5823000 	str	r3, [r2]
    6678:	e5903004 	ldr	r3, [r0, #4]
    667c:	e3530000 	cmp	r3, #0	; 0x0
    6680:	d3a04000 	movle	r4, #0	; 0x0
    6684:	c3a04001 	movgt	r4, #1	; 0x1
    6688:	e3540000 	cmp	r4, #0	; 0x0
    668c:	15903000 	ldrne	r3, [r0]
    6690:	12833004 	addne	r3, r3, #4	; 0x4
    6694:	01a05004 	moveq	r5, r4
    6698:	17905103 	ldrne	r5, [r0, r3, lsl #2]
    669c:	e5923000 	ldr	r3, [r2]
    66a0:	e2530001 	subs	r0, r3, #1	; 0x1
    66a4:	159f3020 	ldrne	r3, [pc, #32]	; 66cc <_ZN8Cyg_Mbox9peek_itemEv+0x6c>
    66a8:	15830000 	strne	r0, [r3]
    66ac:	0a000004 	beq	66c4 <_ZN8Cyg_Mbox9peek_itemEv+0x64>
    66b0:	e3540000 	cmp	r4, #0	; 0x0
    66b4:	11a00005 	movne	r0, r5
    66b8:	03a00000 	moveq	r0, #0	; 0x0
    66bc:	e28dd004 	add	sp, sp, #4	; 0x4
    66c0:	e8bd8030 	pop	{r4, r5, pc}
    66c4:	ebfffcd5 	bl	5a20 <_ZN13Cyg_Scheduler12unlock_innerEj>
    66c8:	eafffff8 	b	66b0 <_ZN8Cyg_Mbox9peek_itemEv+0x50>
    66cc:	400007c8 	.word	0x400007c8

000066d0 <_ZN8Cyg_Mbox3getEy>:
    66d0:	e92d47f0 	push	{r4, r5, r6, r7, r8, r9, sl, lr}
    66d4:	e59f7174 	ldr	r7, [pc, #372]	; 6850 <_ZN8Cyg_Mbox3getEy+0x180>
    66d8:	e24dd008 	sub	sp, sp, #8	; 0x8
    66dc:	e1a08000 	mov	r8, r0
    66e0:	e5976000 	ldr	r6, [r7]
    66e4:	e59fa168 	ldr	sl, [pc, #360]	; 6854 <_ZN8Cyg_Mbox3getEy+0x184>
    66e8:	e59a1000 	ldr	r1, [sl]
    66ec:	e2811001 	add	r1, r1, #1	; 0x1
    66f0:	e58a1000 	str	r1, [sl]
    66f4:	e597e000 	ldr	lr, [r7]
    66f8:	e597c000 	ldr	ip, [r7]
    66fc:	e5970000 	ldr	r0, [r7]
    6700:	e3a09003 	mov	r9, #3	; 0x3
    6704:	e3a01000 	mov	r1, #0	; 0x0
    6708:	e5cc1081 	strb	r1, [ip, #129]
    670c:	e5ce9080 	strb	r9, [lr, #128]
    6710:	e3a04000 	mov	r4, #0	; 0x0
    6714:	e3a05000 	mov	r5, #0	; 0x0
    6718:	e2800050 	add	r0, r0, #80	; 0x50
    671c:	e88d0030 	stm	sp, {r4, r5}
    6720:	eb001200 	bl	af28 <_ZN9Cyg_Alarm10initializeEyy>
    6724:	e5d63081 	ldrb	r3, [r6, #129]
    6728:	e3530000 	cmp	r3, #0	; 0x0
    672c:	01a05009 	moveq	r5, r9
    6730:	02884008 	addeq	r4, r8, #8	; 0x8
    6734:	1a000011 	bne	6780 <_ZN8Cyg_Mbox3getEy+0xb0>
    6738:	e5981004 	ldr	r1, [r8, #4]
    673c:	e3510000 	cmp	r1, #0	; 0x0
    6740:	1a000023 	bne	67d4 <_ZN8Cyg_Mbox3getEy+0x104>
    6744:	e5973000 	ldr	r3, [r7]
    6748:	e5972000 	ldr	r2, [r7]
    674c:	e5c35080 	strb	r5, [r3, #128]
    6750:	e5c21081 	strb	r1, [r2, #129]
    6754:	ebfff5b0 	bl	3e1c <_ZN10Cyg_Thread5sleepEv>
    6758:	e1a00004 	mov	r0, r4
    675c:	e1a01006 	mov	r1, r6
    6760:	ebfffb45 	bl	547c <_ZN30Cyg_ThreadQueue_Implementation7enqueueEP10Cyg_Thread>
    6764:	e59a0000 	ldr	r0, [sl]
    6768:	ebfffcac 	bl	5a20 <_ZN13Cyg_Scheduler12unlock_innerEj>
    676c:	e5d63081 	ldrb	r3, [r6, #129]
    6770:	e3530003 	cmp	r3, #3	; 0x3
    6774:	3affffef 	bcc	6738 <_ZN8Cyg_Mbox3getEy+0x68>
    6778:	e3530005 	cmp	r3, #5	; 0x5
    677c:	8a00000e 	bhi	67bc <_ZN8Cyg_Mbox3getEy+0xec>
    6780:	e5970000 	ldr	r0, [r7]
    6784:	e3a05000 	mov	r5, #0	; 0x0
    6788:	e2800050 	add	r0, r0, #80	; 0x50
    678c:	eb00127c 	bl	b184 <_ZN9Cyg_Alarm7disableEv>
    6790:	e1a04005 	mov	r4, r5
    6794:	e59a3000 	ldr	r3, [sl]
    6798:	e2530001 	subs	r0, r3, #1	; 0x1
    679c:	159f30b0 	ldrne	r3, [pc, #176]	; 6854 <_ZN8Cyg_Mbox3getEy+0x184>
    67a0:	15830000 	strne	r0, [r3]
    67a4:	0a000027 	beq	6848 <_ZN8Cyg_Mbox3getEy+0x178>
    67a8:	e3540000 	cmp	r4, #0	; 0x0
    67ac:	11a00005 	movne	r0, r5
    67b0:	03a00000 	moveq	r0, #0	; 0x0
    67b4:	e28dd008 	add	sp, sp, #8	; 0x8
    67b8:	e8bd87f0 	pop	{r4, r5, r6, r7, r8, r9, sl, pc}
    67bc:	e3530006 	cmp	r3, #6	; 0x6
    67c0:	1affffdc 	bne	6738 <_ZN8Cyg_Mbox3getEy+0x68>
    67c4:	ebfff4a9 	bl	3a70 <_ZN10Cyg_Thread4exitEv>
    67c8:	e5981004 	ldr	r1, [r8, #4]
    67cc:	e3510000 	cmp	r1, #0	; 0x0
    67d0:	0affffdb 	beq	6744 <_ZN8Cyg_Mbox3getEy+0x74>
    67d4:	e5970000 	ldr	r0, [r7]
    67d8:	e2800050 	add	r0, r0, #80	; 0x50
    67dc:	eb001268 	bl	b184 <_ZN9Cyg_Alarm7disableEv>
    67e0:	e898000c 	ldm	r8, {r2, r3}
    67e4:	e2821001 	add	r1, r2, #1	; 0x1
    67e8:	e2433001 	sub	r3, r3, #1	; 0x1
    67ec:	e3510009 	cmp	r1, #9	; 0x9
    67f0:	e5883004 	str	r3, [r8, #4]
    67f4:	c3a03000 	movgt	r3, #0	; 0x0
    67f8:	e5881000 	str	r1, [r8]
    67fc:	c5883000 	strgt	r3, [r8]
    6800:	e598300c 	ldr	r3, [r8, #12]
    6804:	e2822004 	add	r2, r2, #4	; 0x4
    6808:	e3530000 	cmp	r3, #0	; 0x0
    680c:	e7985102 	ldr	r5, [r8, r2, lsl #2]
    6810:	0a000006 	beq	6830 <_ZN8Cyg_Mbox3getEy+0x160>
    6814:	e288000c 	add	r0, r8, #12	; 0xc
    6818:	ebfffb27 	bl	54bc <_ZN30Cyg_ThreadQueue_Implementation7dequeueEv>
    681c:	e3a02007 	mov	r2, #7	; 0x7
    6820:	e3a01000 	mov	r1, #0	; 0x0
    6824:	e5c02081 	strb	r2, [r0, #129]
    6828:	e5c01080 	strb	r1, [r0, #128]
    682c:	ebfff677 	bl	4210 <_ZN10Cyg_Thread4wakeEv>
    6830:	e3a04001 	mov	r4, #1	; 0x1
    6834:	e59a3000 	ldr	r3, [sl]
    6838:	e2530001 	subs	r0, r3, #1	; 0x1
    683c:	159f3010 	ldrne	r3, [pc, #16]	; 6854 <_ZN8Cyg_Mbox3getEy+0x184>
    6840:	15830000 	strne	r0, [r3]
    6844:	1affffd7 	bne	67a8 <_ZN8Cyg_Mbox3getEy+0xd8>
    6848:	ebfffc74 	bl	5a20 <_ZN13Cyg_Scheduler12unlock_innerEj>
    684c:	eaffffd5 	b	67a8 <_ZN8Cyg_Mbox3getEy+0xd8>
    6850:	40002538 	.word	0x40002538
    6854:	400007c8 	.word	0x400007c8

00006858 <_ZN8Cyg_Mbox6tryputEPv>:
    6858:	e92d4010 	push	{r4, lr}
    685c:	e59f40a4 	ldr	r4, [pc, #164]	; 6908 <_ZN8Cyg_Mbox6tryputEPv+0xb0>
    6860:	e5943000 	ldr	r3, [r4]
    6864:	e2833001 	add	r3, r3, #1	; 0x1
    6868:	e5843000 	str	r3, [r4]
    686c:	e5902004 	ldr	r2, [r0, #4]
    6870:	e352000a 	cmp	r2, #10	; 0xa
    6874:	0a00001b 	beq	68e8 <_ZN8Cyg_Mbox6tryputEPv+0x90>
    6878:	e5903000 	ldr	r3, [r0]
    687c:	e082c003 	add	ip, r2, r3
    6880:	e35c0009 	cmp	ip, #9	; 0x9
    6884:	e5903008 	ldr	r3, [r0, #8]
    6888:	e2822001 	add	r2, r2, #1	; 0x1
    688c:	c24cc00a 	subgt	ip, ip, #10	; 0xa
    6890:	e5802004 	str	r2, [r0, #4]
    6894:	e3530000 	cmp	r3, #0	; 0x0
    6898:	e28c2004 	add	r2, ip, #4	; 0x4
    689c:	e7801102 	str	r1, [r0, r2, lsl #2]
    68a0:	0a000006 	beq	68c0 <_ZN8Cyg_Mbox6tryputEPv+0x68>
    68a4:	e2800008 	add	r0, r0, #8	; 0x8
    68a8:	ebfffb03 	bl	54bc <_ZN30Cyg_ThreadQueue_Implementation7dequeueEv>
    68ac:	e3a02007 	mov	r2, #7	; 0x7
    68b0:	e3a01000 	mov	r1, #0	; 0x0
    68b4:	e5c02081 	strb	r2, [r0, #129]
    68b8:	e5c01080 	strb	r1, [r0, #128]
    68bc:	ebfff653 	bl	4210 <_ZN10Cyg_Thread4wakeEv>
    68c0:	e5943000 	ldr	r3, [r4]
    68c4:	e2530001 	subs	r0, r3, #1	; 0x1
    68c8:	159f3038 	ldrne	r3, [pc, #56]	; 6908 <_ZN8Cyg_Mbox6tryputEPv+0xb0>
    68cc:	15830000 	strne	r0, [r3]
    68d0:	0a000001 	beq	68dc <_ZN8Cyg_Mbox6tryputEPv+0x84>
    68d4:	e3a00001 	mov	r0, #1	; 0x1
    68d8:	e8bd8010 	pop	{r4, pc}
    68dc:	ebfffc4f 	bl	5a20 <_ZN13Cyg_Scheduler12unlock_innerEj>
    68e0:	e3a00001 	mov	r0, #1	; 0x1
    68e4:	e8bd8010 	pop	{r4, pc}
    68e8:	e5943000 	ldr	r3, [r4]
    68ec:	e2530001 	subs	r0, r3, #1	; 0x1
    68f0:	15840000 	strne	r0, [r4]
    68f4:	0a000001 	beq	6900 <_ZN8Cyg_Mbox6tryputEPv+0xa8>
    68f8:	e3a00000 	mov	r0, #0	; 0x0
    68fc:	e8bd8010 	pop	{r4, pc}
    6900:	ebfffc46 	bl	5a20 <_ZN13Cyg_Scheduler12unlock_innerEj>
    6904:	eafffffb 	b	68f8 <_ZN8Cyg_Mbox6tryputEPv+0xa0>
    6908:	400007c8 	.word	0x400007c8

0000690c <_ZN8Cyg_Mbox3putEPv>:
    690c:	e92d4ff0 	push	{r4, r5, r6, r7, r8, r9, sl, fp, lr}
    6910:	e59f6114 	ldr	r6, [pc, #276]	; 6a2c <_ZN8Cyg_Mbox3putEPv+0x120>
    6914:	e24dd004 	sub	sp, sp, #4	; 0x4
    6918:	e1a04000 	mov	r4, r0
    691c:	e1a0b001 	mov	fp, r1
    6920:	e5965000 	ldr	r5, [r6]
    6924:	e59fa104 	ldr	sl, [pc, #260]	; 6a30 <_ZN8Cyg_Mbox3putEPv+0x124>
    6928:	e59a3000 	ldr	r3, [sl]
    692c:	e2833001 	add	r3, r3, #1	; 0x1
    6930:	e58a3000 	str	r3, [sl]
    6934:	e3a09001 	mov	r9, #1	; 0x1
    6938:	e280700c 	add	r7, r0, #12	; 0xc
    693c:	e3a08000 	mov	r8, #0	; 0x0
    6940:	e5942004 	ldr	r2, [r4, #4]
    6944:	e352000a 	cmp	r2, #10	; 0xa
    6948:	1a000014 	bne	69a0 <_ZN8Cyg_Mbox3putEPv+0x94>
    694c:	e5963000 	ldr	r3, [r6]
    6950:	e5962000 	ldr	r2, [r6]
    6954:	e5c39080 	strb	r9, [r3, #128]
    6958:	e5c28081 	strb	r8, [r2, #129]
    695c:	ebfff52e 	bl	3e1c <_ZN10Cyg_Thread5sleepEv>
    6960:	e1a00007 	mov	r0, r7
    6964:	e1a01005 	mov	r1, r5
    6968:	ebfffac3 	bl	547c <_ZN30Cyg_ThreadQueue_Implementation7enqueueEP10Cyg_Thread>
    696c:	e59a0000 	ldr	r0, [sl]
    6970:	ebfffc2a 	bl	5a20 <_ZN13Cyg_Scheduler12unlock_innerEj>
    6974:	e5d53081 	ldrb	r3, [r5, #129]
    6978:	e3530004 	cmp	r3, #4	; 0x4
    697c:	3affffef 	bcc	6940 <_ZN8Cyg_Mbox3putEPv+0x34>
    6980:	e3530005 	cmp	r3, #5	; 0x5
    6984:	9a00001f 	bls	6a08 <_ZN8Cyg_Mbox3putEPv+0xfc>
    6988:	e3530006 	cmp	r3, #6	; 0x6
    698c:	1affffeb 	bne	6940 <_ZN8Cyg_Mbox3putEPv+0x34>
    6990:	ebfff436 	bl	3a70 <_ZN10Cyg_Thread4exitEv>
    6994:	e5942004 	ldr	r2, [r4, #4]
    6998:	e352000a 	cmp	r2, #10	; 0xa
    699c:	0affffea 	beq	694c <_ZN8Cyg_Mbox3putEPv+0x40>
    69a0:	e5943000 	ldr	r3, [r4]
    69a4:	e0821003 	add	r1, r2, r3
    69a8:	e3510009 	cmp	r1, #9	; 0x9
    69ac:	e5943008 	ldr	r3, [r4, #8]
    69b0:	e2822001 	add	r2, r2, #1	; 0x1
    69b4:	c241100a 	subgt	r1, r1, #10	; 0xa
    69b8:	e5842004 	str	r2, [r4, #4]
    69bc:	e3530000 	cmp	r3, #0	; 0x0
    69c0:	e2812004 	add	r2, r1, #4	; 0x4
    69c4:	e784b102 	str	fp, [r4, r2, lsl #2]
    69c8:	0a000006 	beq	69e8 <_ZN8Cyg_Mbox3putEPv+0xdc>
    69cc:	e2840008 	add	r0, r4, #8	; 0x8
    69d0:	ebfffab9 	bl	54bc <_ZN30Cyg_ThreadQueue_Implementation7dequeueEv>
    69d4:	e3a02007 	mov	r2, #7	; 0x7
    69d8:	e3a01000 	mov	r1, #0	; 0x0
    69dc:	e5c02081 	strb	r2, [r0, #129]
    69e0:	e5c01080 	strb	r1, [r0, #128]
    69e4:	ebfff609 	bl	4210 <_ZN10Cyg_Thread4wakeEv>
    69e8:	e3a04001 	mov	r4, #1	; 0x1
    69ec:	e59a3000 	ldr	r3, [sl]
    69f0:	e2530001 	subs	r0, r3, #1	; 0x1
    69f4:	159f3034 	ldrne	r3, [pc, #52]	; 6a30 <_ZN8Cyg_Mbox3putEPv+0x124>
    69f8:	15830000 	strne	r0, [r3]
    69fc:	1a000007 	bne	6a20 <_ZN8Cyg_Mbox3putEPv+0x114>
    6a00:	ebfffc06 	bl	5a20 <_ZN13Cyg_Scheduler12unlock_innerEj>
    6a04:	ea000005 	b	6a20 <_ZN8Cyg_Mbox3putEPv+0x114>
    6a08:	e3a04000 	mov	r4, #0	; 0x0
    6a0c:	e59a3000 	ldr	r3, [sl]
    6a10:	e2530001 	subs	r0, r3, #1	; 0x1
    6a14:	159f3014 	ldrne	r3, [pc, #20]	; 6a30 <_ZN8Cyg_Mbox3putEPv+0x124>
    6a18:	15830000 	strne	r0, [r3]
    6a1c:	0afffff7 	beq	6a00 <_ZN8Cyg_Mbox3putEPv+0xf4>
    6a20:	e1a00004 	mov	r0, r4
    6a24:	e28dd004 	add	sp, sp, #4	; 0x4
    6a28:	e8bd8ff0 	pop	{r4, r5, r6, r7, r8, r9, sl, fp, pc}
    6a2c:	40002538 	.word	0x40002538
    6a30:	400007c8 	.word	0x400007c8

00006a34 <_ZN8Cyg_Mbox3putEPvy>:
    6a34:	e92d4ff0 	push	{r4, r5, r6, r7, r8, r9, sl, fp, lr}
    6a38:	e59f7168 	ldr	r7, [pc, #360]	; 6ba8 <_ZN8Cyg_Mbox3putEPvy+0x174>
    6a3c:	e24dd00c 	sub	sp, sp, #12	; 0xc
    6a40:	e1a08000 	mov	r8, r0
    6a44:	e1a0b001 	mov	fp, r1
    6a48:	e5976000 	ldr	r6, [r7]
    6a4c:	e59f9158 	ldr	r9, [pc, #344]	; 6bac <_ZN8Cyg_Mbox3putEPvy+0x178>
    6a50:	e5991000 	ldr	r1, [r9]
    6a54:	e2811001 	add	r1, r1, #1	; 0x1
    6a58:	e5891000 	str	r1, [r9]
    6a5c:	e597e000 	ldr	lr, [r7]
    6a60:	e597c000 	ldr	ip, [r7]
    6a64:	e5970000 	ldr	r0, [r7]
    6a68:	e3a01000 	mov	r1, #0	; 0x0
    6a6c:	e3a0a003 	mov	sl, #3	; 0x3
    6a70:	e5cc1081 	strb	r1, [ip, #129]
    6a74:	e5cea080 	strb	sl, [lr, #128]
    6a78:	e3a04000 	mov	r4, #0	; 0x0
    6a7c:	e3a05000 	mov	r5, #0	; 0x0
    6a80:	e2800050 	add	r0, r0, #80	; 0x50
    6a84:	e88d0030 	stm	sp, {r4, r5}
    6a88:	eb001126 	bl	af28 <_ZN9Cyg_Alarm10initializeEyy>
    6a8c:	e5d63081 	ldrb	r3, [r6, #129]
    6a90:	e3530000 	cmp	r3, #0	; 0x0
    6a94:	01a05003 	moveq	r5, r3
    6a98:	0288400c 	addeq	r4, r8, #12	; 0xc
    6a9c:	1a000011 	bne	6ae8 <_ZN8Cyg_Mbox3putEPvy+0xb4>
    6aa0:	e5983004 	ldr	r3, [r8, #4]
    6aa4:	e353000a 	cmp	r3, #10	; 0xa
    6aa8:	1a000020 	bne	6b30 <_ZN8Cyg_Mbox3putEPvy+0xfc>
    6aac:	e5973000 	ldr	r3, [r7]
    6ab0:	e5972000 	ldr	r2, [r7]
    6ab4:	e5c3a080 	strb	sl, [r3, #128]
    6ab8:	e5c25081 	strb	r5, [r2, #129]
    6abc:	ebfff4d6 	bl	3e1c <_ZN10Cyg_Thread5sleepEv>
    6ac0:	e1a00004 	mov	r0, r4
    6ac4:	e1a01006 	mov	r1, r6
    6ac8:	ebfffa6b 	bl	547c <_ZN30Cyg_ThreadQueue_Implementation7enqueueEP10Cyg_Thread>
    6acc:	e5990000 	ldr	r0, [r9]
    6ad0:	ebfffbd2 	bl	5a20 <_ZN13Cyg_Scheduler12unlock_innerEj>
    6ad4:	e5d63081 	ldrb	r3, [r6, #129]
    6ad8:	e3530003 	cmp	r3, #3	; 0x3
    6adc:	3affffef 	bcc	6aa0 <_ZN8Cyg_Mbox3putEPvy+0x6c>
    6ae0:	e3530005 	cmp	r3, #5	; 0x5
    6ae4:	8a00000b 	bhi	6b18 <_ZN8Cyg_Mbox3putEPvy+0xe4>
    6ae8:	e5970000 	ldr	r0, [r7]
    6aec:	e2800050 	add	r0, r0, #80	; 0x50
    6af0:	eb0011a3 	bl	b184 <_ZN9Cyg_Alarm7disableEv>
    6af4:	e3a04000 	mov	r4, #0	; 0x0
    6af8:	e5993000 	ldr	r3, [r9]
    6afc:	e2530001 	subs	r0, r3, #1	; 0x1
    6b00:	159f30a4 	ldrne	r3, [pc, #164]	; 6bac <_ZN8Cyg_Mbox3putEPvy+0x178>
    6b04:	15830000 	strne	r0, [r3]
    6b08:	0a000024 	beq	6ba0 <_ZN8Cyg_Mbox3putEPvy+0x16c>
    6b0c:	e1a00004 	mov	r0, r4
    6b10:	e28dd00c 	add	sp, sp, #12	; 0xc
    6b14:	e8bd8ff0 	pop	{r4, r5, r6, r7, r8, r9, sl, fp, pc}
    6b18:	e3530006 	cmp	r3, #6	; 0x6
    6b1c:	1affffdf 	bne	6aa0 <_ZN8Cyg_Mbox3putEPvy+0x6c>
    6b20:	ebfff3d2 	bl	3a70 <_ZN10Cyg_Thread4exitEv>
    6b24:	e5983004 	ldr	r3, [r8, #4]
    6b28:	e353000a 	cmp	r3, #10	; 0xa
    6b2c:	0affffde 	beq	6aac <_ZN8Cyg_Mbox3putEPvy+0x78>
    6b30:	e5970000 	ldr	r0, [r7]
    6b34:	e2800050 	add	r0, r0, #80	; 0x50
    6b38:	eb001191 	bl	b184 <_ZN9Cyg_Alarm7disableEv>
    6b3c:	e5983004 	ldr	r3, [r8, #4]
    6b40:	e8980006 	ldm	r8, {r1, r2}
    6b44:	e0822001 	add	r2, r2, r1
    6b48:	e2833001 	add	r3, r3, #1	; 0x1
    6b4c:	e3520009 	cmp	r2, #9	; 0x9
    6b50:	e5883004 	str	r3, [r8, #4]
    6b54:	e5983008 	ldr	r3, [r8, #8]
    6b58:	c242200a 	subgt	r2, r2, #10	; 0xa
    6b5c:	e2822004 	add	r2, r2, #4	; 0x4
    6b60:	e3530000 	cmp	r3, #0	; 0x0
    6b64:	e788b102 	str	fp, [r8, r2, lsl #2]
    6b68:	0a000006 	beq	6b88 <_ZN8Cyg_Mbox3putEPvy+0x154>
    6b6c:	e2880008 	add	r0, r8, #8	; 0x8
    6b70:	ebfffa51 	bl	54bc <_ZN30Cyg_ThreadQueue_Implementation7dequeueEv>
    6b74:	e3a02007 	mov	r2, #7	; 0x7
    6b78:	e3a01000 	mov	r1, #0	; 0x0
    6b7c:	e5c02081 	strb	r2, [r0, #129]
    6b80:	e5c01080 	strb	r1, [r0, #128]
    6b84:	ebfff5a1 	bl	4210 <_ZN10Cyg_Thread4wakeEv>
    6b88:	e3a04001 	mov	r4, #1	; 0x1
    6b8c:	e5993000 	ldr	r3, [r9]
    6b90:	e2530001 	subs	r0, r3, #1	; 0x1
    6b94:	159f3010 	ldrne	r3, [pc, #16]	; 6bac <_ZN8Cyg_Mbox3putEPvy+0x178>
    6b98:	15830000 	strne	r0, [r3]
    6b9c:	1affffda 	bne	6b0c <_ZN8Cyg_Mbox3putEPvy+0xd8>
    6ba0:	ebfffb9e 	bl	5a20 <_ZN13Cyg_Scheduler12unlock_innerEj>
    6ba4:	eaffffd8 	b	6b0c <_ZN8Cyg_Mbox3putEPvy+0xd8>
    6ba8:	40002538 	.word	0x40002538
    6bac:	400007c8 	.word	0x400007c8

00006bb0 <_ZN8Cyg_Mbox6trygetEv>:
    6bb0:	e92d4070 	push	{r4, r5, r6, lr}
    6bb4:	e59f50ac 	ldr	r5, [pc, #172]	; 6c68 <_ZN8Cyg_Mbox6trygetEv+0xb8>
    6bb8:	e5953000 	ldr	r3, [r5]
    6bbc:	e2833001 	add	r3, r3, #1	; 0x1
    6bc0:	e5853000 	str	r3, [r5]
    6bc4:	e5902004 	ldr	r2, [r0, #4]
    6bc8:	e3520000 	cmp	r2, #0	; 0x0
    6bcc:	d3a04000 	movle	r4, #0	; 0x0
    6bd0:	c3a04001 	movgt	r4, #1	; 0x1
    6bd4:	e3540000 	cmp	r4, #0	; 0x0
    6bd8:	01a06004 	moveq	r6, r4
    6bdc:	0a000013 	beq	6c30 <_ZN8Cyg_Mbox6trygetEv+0x80>
    6be0:	e5903000 	ldr	r3, [r0]
    6be4:	e2831001 	add	r1, r3, #1	; 0x1
    6be8:	e3510009 	cmp	r1, #9	; 0x9
    6bec:	e2833004 	add	r3, r3, #4	; 0x4
    6bf0:	e7906103 	ldr	r6, [r0, r3, lsl #2]
    6bf4:	c3a03000 	movgt	r3, #0	; 0x0
    6bf8:	e5801000 	str	r1, [r0]
    6bfc:	c5803000 	strgt	r3, [r0]
    6c00:	e590300c 	ldr	r3, [r0, #12]
    6c04:	e2422001 	sub	r2, r2, #1	; 0x1
    6c08:	e3530000 	cmp	r3, #0	; 0x0
    6c0c:	e5802004 	str	r2, [r0, #4]
    6c10:	0a000006 	beq	6c30 <_ZN8Cyg_Mbox6trygetEv+0x80>
    6c14:	e280000c 	add	r0, r0, #12	; 0xc
    6c18:	ebfffa27 	bl	54bc <_ZN30Cyg_ThreadQueue_Implementation7dequeueEv>
    6c1c:	e3a02007 	mov	r2, #7	; 0x7
    6c20:	e3a01000 	mov	r1, #0	; 0x0
    6c24:	e5c02081 	strb	r2, [r0, #129]
    6c28:	e5c01080 	strb	r1, [r0, #128]
    6c2c:	ebfff577 	bl	4210 <_ZN10Cyg_Thread4wakeEv>
    6c30:	e5953000 	ldr	r3, [r5]
    6c34:	e2530001 	subs	r0, r3, #1	; 0x1
    6c38:	159f3028 	ldrne	r3, [pc, #40]	; 6c68 <_ZN8Cyg_Mbox6trygetEv+0xb8>
    6c3c:	15830000 	strne	r0, [r3]
    6c40:	0a000003 	beq	6c54 <_ZN8Cyg_Mbox6trygetEv+0xa4>
    6c44:	e3540000 	cmp	r4, #0	; 0x0
    6c48:	11a00006 	movne	r0, r6
    6c4c:	03a00000 	moveq	r0, #0	; 0x0
    6c50:	e8bd8070 	pop	{r4, r5, r6, pc}
    6c54:	ebfffb71 	bl	5a20 <_ZN13Cyg_Scheduler12unlock_innerEj>
    6c58:	e3540000 	cmp	r4, #0	; 0x0
    6c5c:	11a00006 	movne	r0, r6
    6c60:	03a00000 	moveq	r0, #0	; 0x0
    6c64:	e8bd8070 	pop	{r4, r5, r6, pc}
    6c68:	400007c8 	.word	0x400007c8

00006c6c <_ZN8Cyg_Mbox3getEv>:
    6c6c:	e92d47f0 	push	{r4, r5, r6, r7, r8, r9, sl, lr}
    6c70:	e59f7120 	ldr	r7, [pc, #288]	; 6d98 <_ZN8Cyg_Mbox3getEv+0x12c>
    6c74:	e1a05000 	mov	r5, r0
    6c78:	e5976000 	ldr	r6, [r7]
    6c7c:	e59f9118 	ldr	r9, [pc, #280]	; 6d9c <_ZN8Cyg_Mbox3getEv+0x130>
    6c80:	e5993000 	ldr	r3, [r9]
    6c84:	e2833001 	add	r3, r3, #1	; 0x1
    6c88:	e5893000 	str	r3, [r9]
    6c8c:	e3a0a001 	mov	sl, #1	; 0x1
    6c90:	e2808008 	add	r8, r0, #8	; 0x8
    6c94:	e5954004 	ldr	r4, [r5, #4]
    6c98:	e3540000 	cmp	r4, #0	; 0x0
    6c9c:	1a000014 	bne	6cf4 <_ZN8Cyg_Mbox3getEv+0x88>
    6ca0:	e5973000 	ldr	r3, [r7]
    6ca4:	e5972000 	ldr	r2, [r7]
    6ca8:	e5c3a080 	strb	sl, [r3, #128]
    6cac:	e5c24081 	strb	r4, [r2, #129]
    6cb0:	ebfff459 	bl	3e1c <_ZN10Cyg_Thread5sleepEv>
    6cb4:	e1a00008 	mov	r0, r8
    6cb8:	e1a01006 	mov	r1, r6
    6cbc:	ebfff9ee 	bl	547c <_ZN30Cyg_ThreadQueue_Implementation7enqueueEP10Cyg_Thread>
    6cc0:	e5990000 	ldr	r0, [r9]
    6cc4:	ebfffb55 	bl	5a20 <_ZN13Cyg_Scheduler12unlock_innerEj>
    6cc8:	e5d63081 	ldrb	r3, [r6, #129]
    6ccc:	e3530004 	cmp	r3, #4	; 0x4
    6cd0:	3affffef 	bcc	6c94 <_ZN8Cyg_Mbox3getEv+0x28>
    6cd4:	e3530005 	cmp	r3, #5	; 0x5
    6cd8:	9a000024 	bls	6d70 <_ZN8Cyg_Mbox3getEv+0x104>
    6cdc:	e3530006 	cmp	r3, #6	; 0x6
    6ce0:	1affffeb 	bne	6c94 <_ZN8Cyg_Mbox3getEv+0x28>
    6ce4:	ebfff361 	bl	3a70 <_ZN10Cyg_Thread4exitEv>
    6ce8:	e5954004 	ldr	r4, [r5, #4]
    6cec:	e3540000 	cmp	r4, #0	; 0x0
    6cf0:	0affffea 	beq	6ca0 <_ZN8Cyg_Mbox3getEv+0x34>
    6cf4:	e5953000 	ldr	r3, [r5]
    6cf8:	e2831001 	add	r1, r3, #1	; 0x1
    6cfc:	e3510009 	cmp	r1, #9	; 0x9
    6d00:	e2833004 	add	r3, r3, #4	; 0x4
    6d04:	e7956103 	ldr	r6, [r5, r3, lsl #2]
    6d08:	c3a03000 	movgt	r3, #0	; 0x0
    6d0c:	e5851000 	str	r1, [r5]
    6d10:	c5853000 	strgt	r3, [r5]
    6d14:	e595300c 	ldr	r3, [r5, #12]
    6d18:	e2442001 	sub	r2, r4, #1	; 0x1
    6d1c:	e3530000 	cmp	r3, #0	; 0x0
    6d20:	e5852004 	str	r2, [r5, #4]
    6d24:	0a000006 	beq	6d44 <_ZN8Cyg_Mbox3getEv+0xd8>
    6d28:	e285000c 	add	r0, r5, #12	; 0xc
    6d2c:	ebfff9e2 	bl	54bc <_ZN30Cyg_ThreadQueue_Implementation7dequeueEv>
    6d30:	e3a02007 	mov	r2, #7	; 0x7
    6d34:	e3a01000 	mov	r1, #0	; 0x0
    6d38:	e5c02081 	strb	r2, [r0, #129]
    6d3c:	e5c01080 	strb	r1, [r0, #128]
    6d40:	ebfff532 	bl	4210 <_ZN10Cyg_Thread4wakeEv>
    6d44:	e3a04001 	mov	r4, #1	; 0x1
    6d48:	e5993000 	ldr	r3, [r9]
    6d4c:	e2530001 	subs	r0, r3, #1	; 0x1
    6d50:	159f3044 	ldrne	r3, [pc, #68]	; 6d9c <_ZN8Cyg_Mbox3getEv+0x130>
    6d54:	15830000 	strne	r0, [r3]
    6d58:	1a00000a 	bne	6d88 <_ZN8Cyg_Mbox3getEv+0x11c>
    6d5c:	ebfffb2f 	bl	5a20 <_ZN13Cyg_Scheduler12unlock_innerEj>
    6d60:	e3540000 	cmp	r4, #0	; 0x0
    6d64:	11a00006 	movne	r0, r6
    6d68:	03a00000 	moveq	r0, #0	; 0x0
    6d6c:	e8bd87f0 	pop	{r4, r5, r6, r7, r8, r9, sl, pc}
    6d70:	e1a06004 	mov	r6, r4
    6d74:	e5993000 	ldr	r3, [r9]
    6d78:	e2530001 	subs	r0, r3, #1	; 0x1
    6d7c:	159f3018 	ldrne	r3, [pc, #24]	; 6d9c <_ZN8Cyg_Mbox3getEv+0x130>
    6d80:	15830000 	strne	r0, [r3]
    6d84:	0afffff4 	beq	6d5c <_ZN8Cyg_Mbox3getEv+0xf0>
    6d88:	e3540000 	cmp	r4, #0	; 0x0
    6d8c:	11a00006 	movne	r0, r6
    6d90:	03a00000 	moveq	r0, #0	; 0x0
    6d94:	e8bd87f0 	pop	{r4, r5, r6, r7, r8, r9, sl, pc}
    6d98:	40002538 	.word	0x40002538
    6d9c:	400007c8 	.word	0x400007c8

00006da0 <_ZN9Cyg_MutexC2Ev>:
    6da0:	e3a01000 	mov	r1, #0	; 0x0
    6da4:	e3a02001 	mov	r2, #1	; 0x1
    6da8:	e5c0200c 	strb	r2, [r0, #12]
    6dac:	e5801004 	str	r1, [r0, #4]
    6db0:	e5801008 	str	r1, [r0, #8]
    6db4:	e5c01000 	strb	r1, [r0]
    6db8:	e12fff1e 	bx	lr

00006dbc <_ZN9Cyg_MutexC1Ev>:
    6dbc:	e3a01000 	mov	r1, #0	; 0x0
    6dc0:	e3a02001 	mov	r2, #1	; 0x1
    6dc4:	e5c0200c 	strb	r2, [r0, #12]
    6dc8:	e5801004 	str	r1, [r0, #4]
    6dcc:	e5801008 	str	r1, [r0, #8]
    6dd0:	e5c01000 	strb	r1, [r0]
    6dd4:	e12fff1e 	bx	lr

00006dd8 <_ZN9Cyg_MutexC2ENS_11cyg_protcolE>:
    6dd8:	e3a02000 	mov	r2, #0	; 0x0
    6ddc:	e5802010 	str	r2, [r0, #16]
    6de0:	e5c0100c 	strb	r1, [r0, #12]
    6de4:	e5802008 	str	r2, [r0, #8]
    6de8:	e5c02000 	strb	r2, [r0]
    6dec:	e5802004 	str	r2, [r0, #4]
    6df0:	e12fff1e 	bx	lr

00006df4 <_ZN9Cyg_MutexC1ENS_11cyg_protcolE>:
    6df4:	e3a02000 	mov	r2, #0	; 0x0
    6df8:	e5802010 	str	r2, [r0, #16]
    6dfc:	e5c0100c 	strb	r1, [r0, #12]
    6e00:	e5802008 	str	r2, [r0, #8]
    6e04:	e5c02000 	strb	r2, [r0]
    6e08:	e5802004 	str	r2, [r0, #4]
    6e0c:	e12fff1e 	bx	lr

00006e10 <_ZN9Cyg_MutexD2Ev>:
    6e10:	e52d4004 	push	{r4}		; (str r4, [sp, #-4]!)
    6e14:	e3a04000 	mov	r4, #0	; 0x0
    6e18:	ea000009 	b	6e44 <_ZN9Cyg_MutexD2Ev+0x34>
    6e1c:	e591c000 	ldr	ip, [r1]
    6e20:	e15c0001 	cmp	ip, r1
    6e24:	15913004 	ldrne	r3, [r1, #4]
    6e28:	158c3004 	strne	r3, [ip, #4]
    6e2c:	15912004 	ldrne	r2, [r1, #4]
    6e30:	05804008 	streq	r4, [r0, #8]
    6e34:	1582c000 	strne	ip, [r2]
    6e38:	15811004 	strne	r1, [r1, #4]
    6e3c:	15811000 	strne	r1, [r1]
    6e40:	1580c008 	strne	ip, [r0, #8]
    6e44:	e5901008 	ldr	r1, [r0, #8]
    6e48:	e3510000 	cmp	r1, #0	; 0x0
    6e4c:	1afffff2 	bne	6e1c <_ZN9Cyg_MutexD2Ev+0xc>
    6e50:	e8bd0010 	pop	{r4}
    6e54:	e12fff1e 	bx	lr

00006e58 <_ZN9Cyg_MutexD1Ev>:
    6e58:	e52d4004 	push	{r4}		; (str r4, [sp, #-4]!)
    6e5c:	e3a04000 	mov	r4, #0	; 0x0
    6e60:	ea000009 	b	6e8c <_ZN9Cyg_MutexD1Ev+0x34>
    6e64:	e591c000 	ldr	ip, [r1]
    6e68:	e15c0001 	cmp	ip, r1
    6e6c:	15913004 	ldrne	r3, [r1, #4]
    6e70:	158c3004 	strne	r3, [ip, #4]
    6e74:	15912004 	ldrne	r2, [r1, #4]
    6e78:	05804008 	streq	r4, [r0, #8]
    6e7c:	1582c000 	strne	ip, [r2]
    6e80:	15811004 	strne	r1, [r1, #4]
    6e84:	15811000 	strne	r1, [r1]
    6e88:	1580c008 	strne	ip, [r0, #8]
    6e8c:	e5901008 	ldr	r1, [r0, #8]
    6e90:	e3510000 	cmp	r1, #0	; 0x0
    6e94:	1afffff2 	bne	6e64 <_ZN9Cyg_MutexD1Ev+0xc>
    6e98:	e8bd0010 	pop	{r4}
    6e9c:	e12fff1e 	bx	lr

00006ea0 <_ZN22Cyg_Condition_VariableC2ER9Cyg_Mutex>:
    6ea0:	e3a03000 	mov	r3, #0	; 0x0
    6ea4:	e880000a 	stm	r0, {r1, r3}
    6ea8:	e12fff1e 	bx	lr

00006eac <_ZN22Cyg_Condition_VariableC1ER9Cyg_Mutex>:
    6eac:	e3a03000 	mov	r3, #0	; 0x0
    6eb0:	e880000a 	stm	r0, {r1, r3}
    6eb4:	e12fff1e 	bx	lr

00006eb8 <_ZN22Cyg_Condition_VariableC2Ev>:
    6eb8:	e3a03000 	mov	r3, #0	; 0x0
    6ebc:	e5803000 	str	r3, [r0]
    6ec0:	e5803004 	str	r3, [r0, #4]
    6ec4:	e12fff1e 	bx	lr

00006ec8 <_ZN22Cyg_Condition_VariableC1Ev>:
    6ec8:	e3a03000 	mov	r3, #0	; 0x0
    6ecc:	e5803000 	str	r3, [r0]
    6ed0:	e5803004 	str	r3, [r0, #4]
    6ed4:	e12fff1e 	bx	lr

00006ed8 <_ZN22Cyg_Condition_VariableD2Ev>:
    6ed8:	e5901004 	ldr	r1, [r0, #4]
    6edc:	ea000009 	b	6f08 <_ZN22Cyg_Condition_VariableD2Ev+0x30>
    6ee0:	e591c000 	ldr	ip, [r1]
    6ee4:	e15c0001 	cmp	ip, r1
    6ee8:	15913004 	ldrne	r3, [r1, #4]
    6eec:	158c3004 	strne	r3, [ip, #4]
    6ef0:	15912004 	ldrne	r2, [r1, #4]
    6ef4:	03a0c000 	moveq	ip, #0	; 0x0
    6ef8:	1582c000 	strne	ip, [r2]
    6efc:	15811004 	strne	r1, [r1, #4]
    6f00:	15811000 	strne	r1, [r1]
    6f04:	e1a0100c 	mov	r1, ip
    6f08:	e3510000 	cmp	r1, #0	; 0x0
    6f0c:	1afffff3 	bne	6ee0 <_ZN22Cyg_Condition_VariableD2Ev+0x8>
    6f10:	e5801004 	str	r1, [r0, #4]
    6f14:	e12fff1e 	bx	lr

00006f18 <_ZN22Cyg_Condition_VariableD1Ev>:
    6f18:	e5901004 	ldr	r1, [r0, #4]
    6f1c:	ea000009 	b	6f48 <_ZN22Cyg_Condition_VariableD1Ev+0x30>
    6f20:	e591c000 	ldr	ip, [r1]
    6f24:	e15c0001 	cmp	ip, r1
    6f28:	15913004 	ldrne	r3, [r1, #4]
    6f2c:	158c3004 	strne	r3, [ip, #4]
    6f30:	15912004 	ldrne	r2, [r1, #4]
    6f34:	03a0c000 	moveq	ip, #0	; 0x0
    6f38:	1582c000 	strne	ip, [r2]
    6f3c:	15811004 	strne	r1, [r1, #4]
    6f40:	15811000 	strne	r1, [r1]
    6f44:	e1a0100c 	mov	r1, ip
    6f48:	e3510000 	cmp	r1, #0	; 0x0
    6f4c:	1afffff3 	bne	6f20 <_ZN22Cyg_Condition_VariableD1Ev+0x8>
    6f50:	e5801004 	str	r1, [r0, #4]
    6f54:	e12fff1e 	bx	lr

00006f58 <_ZN9Cyg_Mutex4lockEv>:
    6f58:	e92d4ff0 	push	{r4, r5, r6, r7, r8, r9, sl, fp, lr}
    6f5c:	e59f8170 	ldr	r8, [pc, #368]	; 70d4 <_ZN9Cyg_Mutex4lockEv+0x17c>
    6f60:	e24dd004 	sub	sp, sp, #4	; 0x4
    6f64:	e1a04000 	mov	r4, r0
    6f68:	e5985000 	ldr	r5, [r8]
    6f6c:	e59f7164 	ldr	r7, [pc, #356]	; 70d8 <_ZN9Cyg_Mutex4lockEv+0x180>
    6f70:	e5973000 	ldr	r3, [r7]
    6f74:	e2833001 	add	r3, r3, #1	; 0x1
    6f78:	e5873000 	str	r3, [r7]
    6f7c:	e5d0200c 	ldrb	r2, [r0, #12]
    6f80:	e3520000 	cmp	r2, #0	; 0x0
    6f84:	0a000004 	beq	6f9c <_ZN9Cyg_Mutex4lockEv+0x44>
    6f88:	e5953030 	ldr	r3, [r5, #48]
    6f8c:	e3520002 	cmp	r2, #2	; 0x2
    6f90:	e2833001 	add	r3, r3, #1	; 0x1
    6f94:	e5853030 	str	r3, [r5, #48]
    6f98:	0a000042 	beq	70a8 <_ZN9Cyg_Mutex4lockEv+0x150>
    6f9c:	e284a008 	add	sl, r4, #8	; 0x8
    6fa0:	e3a0b001 	mov	fp, #1	; 0x1
    6fa4:	e3a09000 	mov	r9, #0	; 0x0
    6fa8:	e3a06001 	mov	r6, #1	; 0x1
    6fac:	e5d43000 	ldrb	r3, [r4]
    6fb0:	e3530000 	cmp	r3, #0	; 0x0
    6fb4:	1a00000c 	bne	6fec <_ZN9Cyg_Mutex4lockEv+0x94>
    6fb8:	e3560000 	cmp	r6, #0	; 0x0
    6fbc:	13a03001 	movne	r3, #1	; 0x1
    6fc0:	15845004 	strne	r5, [r4, #4]
    6fc4:	15c43000 	strbne	r3, [r4]
    6fc8:	0a000009 	beq	6ff4 <_ZN9Cyg_Mutex4lockEv+0x9c>
    6fcc:	e5973000 	ldr	r3, [r7]
    6fd0:	e2530001 	subs	r0, r3, #1	; 0x1
    6fd4:	159f30fc 	ldrne	r3, [pc, #252]	; 70d8 <_ZN9Cyg_Mutex4lockEv+0x180>
    6fd8:	15830000 	strne	r0, [r3]
    6fdc:	0a000015 	beq	7038 <_ZN9Cyg_Mutex4lockEv+0xe0>
    6fe0:	e1a00006 	mov	r0, r6
    6fe4:	e28dd004 	add	sp, sp, #4	; 0x4
    6fe8:	e8bd8ff0 	pop	{r4, r5, r6, r7, r8, r9, sl, fp, pc}
    6fec:	e3560000 	cmp	r6, #0	; 0x0
    6ff0:	1a000012 	bne	7040 <_ZN9Cyg_Mutex4lockEv+0xe8>
    6ff4:	e5d4200c 	ldrb	r2, [r4, #12]
    6ff8:	e3520000 	cmp	r2, #0	; 0x0
    6ffc:	0afffff2 	beq	6fcc <_ZN9Cyg_Mutex4lockEv+0x74>
    7000:	e5953030 	ldr	r3, [r5, #48]
    7004:	e3520001 	cmp	r2, #1	; 0x1
    7008:	e2433001 	sub	r3, r3, #1	; 0x1
    700c:	e5853030 	str	r3, [r5, #48]
    7010:	0a00002b 	beq	70c4 <_ZN9Cyg_Mutex4lockEv+0x16c>
    7014:	e3520002 	cmp	r2, #2	; 0x2
    7018:	1affffeb 	bne	6fcc <_ZN9Cyg_Mutex4lockEv+0x74>
    701c:	e285001c 	add	r0, r5, #28	; 0x1c
    7020:	ebfffa3f 	bl	5924 <_ZN15Cyg_SchedThread22clear_priority_ceilingEv>
    7024:	e5973000 	ldr	r3, [r7]
    7028:	e2530001 	subs	r0, r3, #1	; 0x1
    702c:	159f30a4 	ldrne	r3, [pc, #164]	; 70d8 <_ZN9Cyg_Mutex4lockEv+0x180>
    7030:	15830000 	strne	r0, [r3]
    7034:	1affffe9 	bne	6fe0 <_ZN9Cyg_Mutex4lockEv+0x88>
    7038:	ebfffa78 	bl	5a20 <_ZN13Cyg_Scheduler12unlock_innerEj>
    703c:	eaffffe7 	b	6fe0 <_ZN9Cyg_Mutex4lockEv+0x88>
    7040:	e5983000 	ldr	r3, [r8]
    7044:	e5982000 	ldr	r2, [r8]
    7048:	e5c3b080 	strb	fp, [r3, #128]
    704c:	e5c29081 	strb	r9, [r2, #129]
    7050:	ebfff371 	bl	3e1c <_ZN10Cyg_Thread5sleepEv>
    7054:	e1a0000a 	mov	r0, sl
    7058:	e1a01005 	mov	r1, r5
    705c:	ebfff906 	bl	547c <_ZN30Cyg_ThreadQueue_Implementation7enqueueEP10Cyg_Thread>
    7060:	e5d4300c 	ldrb	r3, [r4, #12]
    7064:	e3530001 	cmp	r3, #1	; 0x1
    7068:	05940004 	ldreq	r0, [r4, #4]
    706c:	01a01005 	moveq	r1, r5
    7070:	0280001c 	addeq	r0, r0, #28	; 0x1c
    7074:	0bfffa3d 	bleq	5970 <_ZN15Cyg_SchedThread16inherit_priorityEP10Cyg_Thread>
    7078:	e5970000 	ldr	r0, [r7]
    707c:	ebfffa67 	bl	5a20 <_ZN13Cyg_Scheduler12unlock_innerEj>
    7080:	e5d53081 	ldrb	r3, [r5, #129]
    7084:	e3530004 	cmp	r3, #4	; 0x4
    7088:	3affffc7 	bcc	6fac <_ZN9Cyg_Mutex4lockEv+0x54>
    708c:	e3530005 	cmp	r3, #5	; 0x5
    7090:	93a06000 	movls	r6, #0	; 0x0
    7094:	9affffc4 	bls	6fac <_ZN9Cyg_Mutex4lockEv+0x54>
    7098:	e3530006 	cmp	r3, #6	; 0x6
    709c:	1affffc2 	bne	6fac <_ZN9Cyg_Mutex4lockEv+0x54>
    70a0:	ebfff272 	bl	3a70 <_ZN10Cyg_Thread4exitEv>
    70a4:	eaffffbf 	b	6fa8 <_ZN9Cyg_Mutex4lockEv+0x50>
    70a8:	e285001c 	add	r0, r5, #28	; 0x1c
    70ac:	e5941010 	ldr	r1, [r4, #16]
    70b0:	ebfffa2c 	bl	5968 <_ZN15Cyg_SchedThread20set_priority_ceilingEi>
    70b4:	e284a008 	add	sl, r4, #8	; 0x8
    70b8:	e3a0b001 	mov	fp, #1	; 0x1
    70bc:	e3a09000 	mov	r9, #0	; 0x0
    70c0:	eaffffb8 	b	6fa8 <_ZN9Cyg_Mutex4lockEv+0x50>
    70c4:	e285001c 	add	r0, r5, #28	; 0x1c
    70c8:	ebfffa16 	bl	5928 <_ZN15Cyg_SchedThread19disinherit_priorityEv>
    70cc:	e5d4200c 	ldrb	r2, [r4, #12]
    70d0:	eaffffcf 	b	7014 <_ZN9Cyg_Mutex4lockEv+0xbc>
    70d4:	40002538 	.word	0x40002538
    70d8:	400007c8 	.word	0x400007c8

000070dc <_ZN9Cyg_Mutex7trylockEv>:
    70dc:	e92d4030 	push	{r4, r5, lr}
    70e0:	e1a02000 	mov	r2, r0
    70e4:	e24dd004 	sub	sp, sp, #4	; 0x4
    70e8:	e59f5088 	ldr	r5, [pc, #136]	; 7178 <_ZN9Cyg_Mutex7trylockEv+0x9c>
    70ec:	e5953000 	ldr	r3, [r5]
    70f0:	e2833001 	add	r3, r3, #1	; 0x1
    70f4:	e5853000 	str	r3, [r5]
    70f8:	e5d03000 	ldrb	r3, [r0]
    70fc:	e3530000 	cmp	r3, #0	; 0x0
    7100:	13a04000 	movne	r4, #0	; 0x0
    7104:	1a00000d 	bne	7140 <_ZN9Cyg_Mutex7trylockEv+0x64>
    7108:	e59f306c 	ldr	r3, [pc, #108]	; 717c <_ZN9Cyg_Mutex7trylockEv+0xa0>
    710c:	e5d0100c 	ldrb	r1, [r0, #12]
    7110:	e5930000 	ldr	r0, [r3]
    7114:	e3a04001 	mov	r4, #1	; 0x1
    7118:	e3510000 	cmp	r1, #0	; 0x0
    711c:	e5c24000 	strb	r4, [r2]
    7120:	e5820004 	str	r0, [r2, #4]
    7124:	0a000004 	beq	713c <_ZN9Cyg_Mutex7trylockEv+0x60>
    7128:	e5903030 	ldr	r3, [r0, #48]
    712c:	e3510002 	cmp	r1, #2	; 0x2
    7130:	e0833004 	add	r3, r3, r4
    7134:	e5803030 	str	r3, [r0, #48]
    7138:	0a00000a 	beq	7168 <_ZN9Cyg_Mutex7trylockEv+0x8c>
    713c:	e3a04001 	mov	r4, #1	; 0x1
    7140:	e5953000 	ldr	r3, [r5]
    7144:	e2530001 	subs	r0, r3, #1	; 0x1
    7148:	159f3028 	ldrne	r3, [pc, #40]	; 7178 <_ZN9Cyg_Mutex7trylockEv+0x9c>
    714c:	15830000 	strne	r0, [r3]
    7150:	0a000002 	beq	7160 <_ZN9Cyg_Mutex7trylockEv+0x84>
    7154:	e1a00004 	mov	r0, r4
    7158:	e28dd004 	add	sp, sp, #4	; 0x4
    715c:	e8bd8030 	pop	{r4, r5, pc}
    7160:	ebfffa2e 	bl	5a20 <_ZN13Cyg_Scheduler12unlock_innerEj>
    7164:	eafffffa 	b	7154 <_ZN9Cyg_Mutex7trylockEv+0x78>
    7168:	e280001c 	add	r0, r0, #28	; 0x1c
    716c:	e5921010 	ldr	r1, [r2, #16]
    7170:	ebfff9fc 	bl	5968 <_ZN15Cyg_SchedThread20set_priority_ceilingEi>
    7174:	eafffff1 	b	7140 <_ZN9Cyg_Mutex7trylockEv+0x64>
    7178:	400007c8 	.word	0x400007c8
    717c:	40002538 	.word	0x40002538

00007180 <_ZN9Cyg_Mutex12set_protocolENS_11cyg_protcolE>:
    7180:	e52de004 	push	{lr}		; (str lr, [sp, #-4]!)
    7184:	e24dd004 	sub	sp, sp, #4	; 0x4
    7188:	e59f202c 	ldr	r2, [pc, #44]	; 71bc <_ZN9Cyg_Mutex12set_protocolENS_11cyg_protcolE+0x3c>
    718c:	e5923000 	ldr	r3, [r2]
    7190:	e2833001 	add	r3, r3, #1	; 0x1
    7194:	e5823000 	str	r3, [r2]
    7198:	e5c0100c 	strb	r1, [r0, #12]
    719c:	e5923000 	ldr	r3, [r2]
    71a0:	e2530001 	subs	r0, r3, #1	; 0x1
    71a4:	15820000 	strne	r0, [r2]
    71a8:	0a000001 	beq	71b4 <_ZN9Cyg_Mutex12set_protocolENS_11cyg_protcolE+0x34>
    71ac:	e28dd004 	add	sp, sp, #4	; 0x4
    71b0:	e8bd8000 	pop	{pc}
    71b4:	ebfffa19 	bl	5a20 <_ZN13Cyg_Scheduler12unlock_innerEj>
    71b8:	eafffffb 	b	71ac <_ZN9Cyg_Mutex12set_protocolENS_11cyg_protcolE+0x2c>
    71bc:	400007c8 	.word	0x400007c8

000071c0 <_ZN9Cyg_Mutex11set_ceilingEi>:
    71c0:	e52de004 	push	{lr}		; (str lr, [sp, #-4]!)
    71c4:	e24dd004 	sub	sp, sp, #4	; 0x4
    71c8:	e59f202c 	ldr	r2, [pc, #44]	; 71fc <_ZN9Cyg_Mutex11set_ceilingEi+0x3c>
    71cc:	e5923000 	ldr	r3, [r2]
    71d0:	e2833001 	add	r3, r3, #1	; 0x1
    71d4:	e5823000 	str	r3, [r2]
    71d8:	e5801010 	str	r1, [r0, #16]
    71dc:	e5923000 	ldr	r3, [r2]
    71e0:	e2530001 	subs	r0, r3, #1	; 0x1
    71e4:	15820000 	strne	r0, [r2]
    71e8:	0a000001 	beq	71f4 <_ZN9Cyg_Mutex11set_ceilingEi+0x34>
    71ec:	e28dd004 	add	sp, sp, #4	; 0x4
    71f0:	e8bd8000 	pop	{pc}
    71f4:	ebfffa09 	bl	5a20 <_ZN13Cyg_Scheduler12unlock_innerEj>
    71f8:	eafffffb 	b	71ec <_ZN9Cyg_Mutex11set_ceilingEi+0x2c>
    71fc:	400007c8 	.word	0x400007c8

00007200 <_ZN22Cyg_Condition_Variable9broadcastEv>:
    7200:	e92d41f0 	push	{r4, r5, r6, r7, r8, lr}
    7204:	e1a04000 	mov	r4, r0
    7208:	e59f8060 	ldr	r8, [pc, #96]	; 7270 <_ZN22Cyg_Condition_Variable9broadcastEv+0x70>
    720c:	e5983000 	ldr	r3, [r8]
    7210:	e2833001 	add	r3, r3, #1	; 0x1
    7214:	e5883000 	str	r3, [r8]
    7218:	e5903004 	ldr	r3, [r0, #4]
    721c:	e3530000 	cmp	r3, #0	; 0x0
    7220:	0a00000a 	beq	7250 <_ZN22Cyg_Condition_Variable9broadcastEv+0x50>
    7224:	e2805004 	add	r5, r0, #4	; 0x4
    7228:	e3a07000 	mov	r7, #0	; 0x0
    722c:	e3a06007 	mov	r6, #7	; 0x7
    7230:	e1a00005 	mov	r0, r5
    7234:	ebfff8a0 	bl	54bc <_ZN30Cyg_ThreadQueue_Implementation7dequeueEv>
    7238:	e5c06081 	strb	r6, [r0, #129]
    723c:	e5c07080 	strb	r7, [r0, #128]
    7240:	ebfff3f2 	bl	4210 <_ZN10Cyg_Thread4wakeEv>
    7244:	e5943004 	ldr	r3, [r4, #4]
    7248:	e3530000 	cmp	r3, #0	; 0x0
    724c:	1afffff7 	bne	7230 <_ZN22Cyg_Condition_Variable9broadcastEv+0x30>
    7250:	e5983000 	ldr	r3, [r8]
    7254:	e2530001 	subs	r0, r3, #1	; 0x1
    7258:	159f3010 	ldrne	r3, [pc, #16]	; 7270 <_ZN22Cyg_Condition_Variable9broadcastEv+0x70>
    725c:	15830000 	strne	r0, [r3]
    7260:	0a000000 	beq	7268 <_ZN22Cyg_Condition_Variable9broadcastEv+0x68>
    7264:	e8bd81f0 	pop	{r4, r5, r6, r7, r8, pc}
    7268:	ebfff9ec 	bl	5a20 <_ZN13Cyg_Scheduler12unlock_innerEj>
    726c:	e8bd81f0 	pop	{r4, r5, r6, r7, r8, pc}
    7270:	400007c8 	.word	0x400007c8

00007274 <_ZN22Cyg_Condition_Variable6signalEv>:
    7274:	e92d4010 	push	{r4, lr}
    7278:	e59f4050 	ldr	r4, [pc, #80]	; 72d0 <_ZN22Cyg_Condition_Variable6signalEv+0x5c>
    727c:	e5943000 	ldr	r3, [r4]
    7280:	e2833001 	add	r3, r3, #1	; 0x1
    7284:	e5843000 	str	r3, [r4]
    7288:	e5903004 	ldr	r3, [r0, #4]
    728c:	e3530000 	cmp	r3, #0	; 0x0
    7290:	0a000006 	beq	72b0 <_ZN22Cyg_Condition_Variable6signalEv+0x3c>
    7294:	e2800004 	add	r0, r0, #4	; 0x4
    7298:	ebfff887 	bl	54bc <_ZN30Cyg_ThreadQueue_Implementation7dequeueEv>
    729c:	e3a02007 	mov	r2, #7	; 0x7
    72a0:	e3a01000 	mov	r1, #0	; 0x0
    72a4:	e5c02081 	strb	r2, [r0, #129]
    72a8:	e5c01080 	strb	r1, [r0, #128]
    72ac:	ebfff3d7 	bl	4210 <_ZN10Cyg_Thread4wakeEv>
    72b0:	e5943000 	ldr	r3, [r4]
    72b4:	e2530001 	subs	r0, r3, #1	; 0x1
    72b8:	159f3010 	ldrne	r3, [pc, #16]	; 72d0 <_ZN22Cyg_Condition_Variable6signalEv+0x5c>
    72bc:	15830000 	strne	r0, [r3]
    72c0:	0a000000 	beq	72c8 <_ZN22Cyg_Condition_Variable6signalEv+0x54>
    72c4:	e8bd8010 	pop	{r4, pc}
    72c8:	ebfff9d4 	bl	5a20 <_ZN13Cyg_Scheduler12unlock_innerEj>
    72cc:	e8bd8010 	pop	{r4, pc}
    72d0:	400007c8 	.word	0x400007c8

000072d4 <_ZN9Cyg_Mutex7releaseEv>:
    72d4:	e92d4070 	push	{r4, r5, r6, lr}
    72d8:	e1a05000 	mov	r5, r0
    72dc:	e59f6050 	ldr	r6, [pc, #80]	; 7334 <_ZN9Cyg_Mutex7releaseEv+0x60>
    72e0:	e5963000 	ldr	r3, [r6]
    72e4:	e2833001 	add	r3, r3, #1	; 0x1
    72e8:	e5863000 	str	r3, [r6]
    72ec:	e5903008 	ldr	r3, [r0, #8]
    72f0:	e3530000 	cmp	r3, #0	; 0x0
    72f4:	0a000006 	beq	7314 <_ZN9Cyg_Mutex7releaseEv+0x40>
    72f8:	e2804008 	add	r4, r0, #8	; 0x8
    72fc:	e1a00004 	mov	r0, r4
    7300:	ebfff86d 	bl	54bc <_ZN30Cyg_ThreadQueue_Implementation7dequeueEv>
    7304:	ebfff5e1 	bl	4a90 <_ZN10Cyg_Thread7releaseEv>
    7308:	e5953008 	ldr	r3, [r5, #8]
    730c:	e3530000 	cmp	r3, #0	; 0x0
    7310:	1afffff9 	bne	72fc <_ZN9Cyg_Mutex7releaseEv+0x28>
    7314:	e5963000 	ldr	r3, [r6]
    7318:	e2530001 	subs	r0, r3, #1	; 0x1
    731c:	159f3010 	ldrne	r3, [pc, #16]	; 7334 <_ZN9Cyg_Mutex7releaseEv+0x60>
    7320:	15830000 	strne	r0, [r3]
    7324:	0a000000 	beq	732c <_ZN9Cyg_Mutex7releaseEv+0x58>
    7328:	e8bd8070 	pop	{r4, r5, r6, pc}
    732c:	ebfff9bb 	bl	5a20 <_ZN13Cyg_Scheduler12unlock_innerEj>
    7330:	e8bd8070 	pop	{r4, r5, r6, pc}
    7334:	400007c8 	.word	0x400007c8

00007338 <_ZN9Cyg_Mutex6unlockEv>:
    7338:	e92d40f0 	push	{r4, r5, r6, r7, lr}
    733c:	e1a04000 	mov	r4, r0
    7340:	e24dd004 	sub	sp, sp, #4	; 0x4
    7344:	e59f70e0 	ldr	r7, [pc, #224]	; 742c <_ZN9Cyg_Mutex6unlockEv+0xf4>
    7348:	e5973000 	ldr	r3, [r7]
    734c:	e2833001 	add	r3, r3, #1	; 0x1
    7350:	e5873000 	str	r3, [r7]
    7354:	e5903008 	ldr	r3, [r0, #8]
    7358:	e3530000 	cmp	r3, #0	; 0x0
    735c:	0a00000c 	beq	7394 <_ZN9Cyg_Mutex6unlockEv+0x5c>
    7360:	e2806008 	add	r6, r0, #8	; 0x8
    7364:	e1a00006 	mov	r0, r6
    7368:	ebfff853 	bl	54bc <_ZN30Cyg_ThreadQueue_Implementation7dequeueEv>
    736c:	e5d4300c 	ldrb	r3, [r4, #12]
    7370:	e3530001 	cmp	r3, #1	; 0x1
    7374:	e1a05000 	mov	r5, r0
    7378:	0a000026 	beq	7418 <_ZN9Cyg_Mutex6unlockEv+0xe0>
    737c:	e3a03000 	mov	r3, #0	; 0x0
    7380:	e3a02007 	mov	r2, #7	; 0x7
    7384:	e5c53080 	strb	r3, [r5, #128]
    7388:	e5c52081 	strb	r2, [r5, #129]
    738c:	e1a00005 	mov	r0, r5
    7390:	ebfff39e 	bl	4210 <_ZN10Cyg_Thread4wakeEv>
    7394:	e5d4200c 	ldrb	r2, [r4, #12]
    7398:	e3520000 	cmp	r2, #0	; 0x0
    739c:	0a000007 	beq	73c0 <_ZN9Cyg_Mutex6unlockEv+0x88>
    73a0:	e5940004 	ldr	r0, [r4, #4]
    73a4:	e5903030 	ldr	r3, [r0, #48]
    73a8:	e3520001 	cmp	r2, #1	; 0x1
    73ac:	e2433001 	sub	r3, r3, #1	; 0x1
    73b0:	e5803030 	str	r3, [r0, #48]
    73b4:	0a000011 	beq	7400 <_ZN9Cyg_Mutex6unlockEv+0xc8>
    73b8:	e3520002 	cmp	r2, #2	; 0x2
    73bc:	0a00000b 	beq	73f0 <_ZN9Cyg_Mutex6unlockEv+0xb8>
    73c0:	e3a03000 	mov	r3, #0	; 0x0
    73c4:	e5843004 	str	r3, [r4, #4]
    73c8:	e5c43000 	strb	r3, [r4]
    73cc:	e5973000 	ldr	r3, [r7]
    73d0:	e2530001 	subs	r0, r3, #1	; 0x1
    73d4:	159f3050 	ldrne	r3, [pc, #80]	; 742c <_ZN9Cyg_Mutex6unlockEv+0xf4>
    73d8:	15830000 	strne	r0, [r3]
    73dc:	0a000001 	beq	73e8 <_ZN9Cyg_Mutex6unlockEv+0xb0>
    73e0:	e28dd004 	add	sp, sp, #4	; 0x4
    73e4:	e8bd80f0 	pop	{r4, r5, r6, r7, pc}
    73e8:	ebfff98c 	bl	5a20 <_ZN13Cyg_Scheduler12unlock_innerEj>
    73ec:	eafffffb 	b	73e0 <_ZN9Cyg_Mutex6unlockEv+0xa8>
    73f0:	e5940004 	ldr	r0, [r4, #4]
    73f4:	e280001c 	add	r0, r0, #28	; 0x1c
    73f8:	ebfff949 	bl	5924 <_ZN15Cyg_SchedThread22clear_priority_ceilingEv>
    73fc:	eaffffef 	b	73c0 <_ZN9Cyg_Mutex6unlockEv+0x88>
    7400:	e280001c 	add	r0, r0, #28	; 0x1c
    7404:	ebfff947 	bl	5928 <_ZN15Cyg_SchedThread19disinherit_priorityEv>
    7408:	e5d4200c 	ldrb	r2, [r4, #12]
    740c:	e3520002 	cmp	r2, #2	; 0x2
    7410:	1affffea 	bne	73c0 <_ZN9Cyg_Mutex6unlockEv+0x88>
    7414:	eafffff5 	b	73f0 <_ZN9Cyg_Mutex6unlockEv+0xb8>
    7418:	e1a02006 	mov	r2, r6
    741c:	e280001c 	add	r0, r0, #28	; 0x1c
    7420:	e5941004 	ldr	r1, [r4, #4]
    7424:	ebfff95a 	bl	5994 <_ZN15Cyg_SchedThread14relay_priorityEP10Cyg_ThreadP15Cyg_ThreadQueue>
    7428:	eaffffd3 	b	737c <_ZN9Cyg_Mutex6unlockEv+0x44>
    742c:	400007c8 	.word	0x400007c8

00007430 <_ZN22Cyg_Condition_Variable10wait_innerEP9Cyg_Mutexy>:
    7430:	e92d4ff0 	push	{r4, r5, r6, r7, r8, r9, sl, fp, lr}
    7434:	e59f90f4 	ldr	r9, [pc, #244]	; 7530 <_ZN22Cyg_Condition_Variable10wait_innerEP9Cyg_Mutexy+0x100>
    7438:	e24dd014 	sub	sp, sp, #20	; 0x14
    743c:	e58d000c 	str	r0, [sp, #12]
    7440:	e1a0a001 	mov	sl, r1
    7444:	e1a06002 	mov	r6, r2
    7448:	e1a07003 	mov	r7, r3
    744c:	e5998000 	ldr	r8, [r9]
    7450:	e59fb0dc 	ldr	fp, [pc, #220]	; 7534 <_ZN22Cyg_Condition_Variable10wait_innerEP9Cyg_Mutexy+0x104>
    7454:	e59b3000 	ldr	r3, [fp]
    7458:	e2833001 	add	r3, r3, #1	; 0x1
    745c:	e58b3000 	str	r3, [fp]
    7460:	e1a00001 	mov	r0, r1
    7464:	ebffffb3 	bl	7338 <_ZN9Cyg_Mutex6unlockEv>
    7468:	ebfff26b 	bl	3e1c <_ZN10Cyg_Thread5sleepEv>
    746c:	e5991000 	ldr	r1, [r9]
    7470:	e599c000 	ldr	ip, [r9]
    7474:	e5990000 	ldr	r0, [r9]
    7478:	e3a03003 	mov	r3, #3	; 0x3
    747c:	e3a02000 	mov	r2, #0	; 0x0
    7480:	e5c13080 	strb	r3, [r1, #128]
    7484:	e5cc2081 	strb	r2, [ip, #129]
    7488:	e1a03007 	mov	r3, r7
    748c:	e2800050 	add	r0, r0, #80	; 0x50
    7490:	e1a02006 	mov	r2, r6
    7494:	e3a04000 	mov	r4, #0	; 0x0
    7498:	e3a05000 	mov	r5, #0	; 0x0
    749c:	e88d0030 	stm	sp, {r4, r5}
    74a0:	eb000ea0 	bl	af28 <_ZN9Cyg_Alarm10initializeEyy>
    74a4:	e5d83081 	ldrb	r3, [r8, #129]
    74a8:	e3530000 	cmp	r3, #0	; 0x0
    74ac:	0a00001a 	beq	751c <_ZN22Cyg_Condition_Variable10wait_innerEP9Cyg_Mutexy+0xec>
    74b0:	e59b0000 	ldr	r0, [fp]
    74b4:	e2400001 	sub	r0, r0, #1	; 0x1
    74b8:	ebfff958 	bl	5a20 <_ZN13Cyg_Scheduler12unlock_innerEj>
    74bc:	e5990000 	ldr	r0, [r9]
    74c0:	e2800050 	add	r0, r0, #80	; 0x50
    74c4:	eb000f2e 	bl	b184 <_ZN9Cyg_Alarm7disableEv>
    74c8:	e5d81081 	ldrb	r1, [r8, #129]
    74cc:	e3510003 	cmp	r1, #3	; 0x3
    74d0:	3a00000b 	bcc	7504 <_ZN22Cyg_Condition_Variable10wait_innerEP9Cyg_Mutexy+0xd4>
    74d4:	e3510005 	cmp	r1, #5	; 0x5
    74d8:	93a04000 	movls	r4, #0	; 0x0
    74dc:	8a000006 	bhi	74fc <_ZN22Cyg_Condition_Variable10wait_innerEP9Cyg_Mutexy+0xcc>
    74e0:	e1a0000a 	mov	r0, sl
    74e4:	ebfffe9b 	bl	6f58 <_ZN9Cyg_Mutex4lockEv>
    74e8:	e3500000 	cmp	r0, #0	; 0x0
    74ec:	0afffffb 	beq	74e0 <_ZN22Cyg_Condition_Variable10wait_innerEP9Cyg_Mutexy+0xb0>
    74f0:	e1a00004 	mov	r0, r4
    74f4:	e28dd014 	add	sp, sp, #20	; 0x14
    74f8:	e8bd8ff0 	pop	{r4, r5, r6, r7, r8, r9, sl, fp, pc}
    74fc:	e3510006 	cmp	r1, #6	; 0x6
    7500:	0bfff15a 	bleq	3a70 <_ZN10Cyg_Thread4exitEv>
    7504:	e1a0000a 	mov	r0, sl
    7508:	ebfffe92 	bl	6f58 <_ZN9Cyg_Mutex4lockEv>
    750c:	e3500000 	cmp	r0, #0	; 0x0
    7510:	e3a04001 	mov	r4, #1	; 0x1
    7514:	0afffff1 	beq	74e0 <_ZN22Cyg_Condition_Variable10wait_innerEP9Cyg_Mutexy+0xb0>
    7518:	eafffff4 	b	74f0 <_ZN22Cyg_Condition_Variable10wait_innerEP9Cyg_Mutexy+0xc0>
    751c:	e59d300c 	ldr	r3, [sp, #12]
    7520:	e1a01008 	mov	r1, r8
    7524:	e2830004 	add	r0, r3, #4	; 0x4
    7528:	ebfff7d3 	bl	547c <_ZN30Cyg_ThreadQueue_Implementation7enqueueEP10Cyg_Thread>
    752c:	eaffffdf 	b	74b0 <_ZN22Cyg_Condition_Variable10wait_innerEP9Cyg_Mutexy+0x80>
    7530:	40002538 	.word	0x40002538
    7534:	400007c8 	.word	0x400007c8

00007538 <_ZN22Cyg_Condition_Variable10wait_innerEP9Cyg_Mutex>:
    7538:	e92d45f0 	push	{r4, r5, r6, r7, r8, sl, lr}
    753c:	e59f40b0 	ldr	r4, [pc, #176]	; 75f4 <_ZN22Cyg_Condition_Variable10wait_innerEP9Cyg_Mutex+0xbc>
    7540:	e24dd004 	sub	sp, sp, #4	; 0x4
    7544:	e1a07000 	mov	r7, r0
    7548:	e1a08001 	mov	r8, r1
    754c:	e5946000 	ldr	r6, [r4]
    7550:	e59f50a0 	ldr	r5, [pc, #160]	; 75f8 <_ZN22Cyg_Condition_Variable10wait_innerEP9Cyg_Mutex+0xc0>
    7554:	e5953000 	ldr	r3, [r5]
    7558:	e2833001 	add	r3, r3, #1	; 0x1
    755c:	e5853000 	str	r3, [r5]
    7560:	e1a00001 	mov	r0, r1
    7564:	ebffff73 	bl	7338 <_ZN9Cyg_Mutex6unlockEv>
    7568:	e5943000 	ldr	r3, [r4]
    756c:	e5942000 	ldr	r2, [r4]
    7570:	e3a0a001 	mov	sl, #1	; 0x1
    7574:	e3a04000 	mov	r4, #0	; 0x0
    7578:	e5c3a080 	strb	sl, [r3, #128]
    757c:	e5c24081 	strb	r4, [r2, #129]
    7580:	ebfff225 	bl	3e1c <_ZN10Cyg_Thread5sleepEv>
    7584:	e2870004 	add	r0, r7, #4	; 0x4
    7588:	e1a01006 	mov	r1, r6
    758c:	ebfff7ba 	bl	547c <_ZN30Cyg_ThreadQueue_Implementation7enqueueEP10Cyg_Thread>
    7590:	e5950000 	ldr	r0, [r5]
    7594:	e2400001 	sub	r0, r0, #1	; 0x1
    7598:	ebfff920 	bl	5a20 <_ZN13Cyg_Scheduler12unlock_innerEj>
    759c:	e5d63081 	ldrb	r3, [r6, #129]
    75a0:	e3530004 	cmp	r3, #4	; 0x4
    75a4:	2a000007 	bcs	75c8 <_ZN22Cyg_Condition_Variable10wait_innerEP9Cyg_Mutex+0x90>
    75a8:	e3a04001 	mov	r4, #1	; 0x1
    75ac:	e1a00008 	mov	r0, r8
    75b0:	ebfffe68 	bl	6f58 <_ZN9Cyg_Mutex4lockEv>
    75b4:	e3500000 	cmp	r0, #0	; 0x0
    75b8:	0afffffb 	beq	75ac <_ZN22Cyg_Condition_Variable10wait_innerEP9Cyg_Mutex+0x74>
    75bc:	e1a00004 	mov	r0, r4
    75c0:	e28dd004 	add	sp, sp, #4	; 0x4
    75c4:	e8bd85f0 	pop	{r4, r5, r6, r7, r8, sl, pc}
    75c8:	e3530005 	cmp	r3, #5	; 0x5
    75cc:	9afffff6 	bls	75ac <_ZN22Cyg_Condition_Variable10wait_innerEP9Cyg_Mutex+0x74>
    75d0:	e3530006 	cmp	r3, #6	; 0x6
    75d4:	1afffff3 	bne	75a8 <_ZN22Cyg_Condition_Variable10wait_innerEP9Cyg_Mutex+0x70>
    75d8:	ebfff124 	bl	3a70 <_ZN10Cyg_Thread4exitEv>
    75dc:	e1a00008 	mov	r0, r8
    75e0:	ebfffe5c 	bl	6f58 <_ZN9Cyg_Mutex4lockEv>
    75e4:	e3500000 	cmp	r0, #0	; 0x0
    75e8:	e1a0400a 	mov	r4, sl
    75ec:	0affffee 	beq	75ac <_ZN22Cyg_Condition_Variable10wait_innerEP9Cyg_Mutex+0x74>
    75f0:	eafffff1 	b	75bc <_ZN22Cyg_Condition_Variable10wait_innerEP9Cyg_Mutex+0x84>
    75f4:	40002538 	.word	0x40002538
    75f8:	400007c8 	.word	0x400007c8

000075fc <_Z41__static_initialization_and_destruction_0ii>:
    75fc:	e52de004 	push	{lr}		; (str lr, [sp, #-4]!)
    7600:	e3500001 	cmp	r0, #1	; 0x1
    7604:	e24dd014 	sub	sp, sp, #20	; 0x14
    7608:	0a000007 	beq	762c <_Z41__static_initialization_and_destruction_0ii+0x30>
    760c:	e3500000 	cmp	r0, #0	; 0x0
    7610:	1a000003 	bne	7624 <_Z41__static_initialization_and_destruction_0ii+0x28>
    7614:	e3a03cda 	mov	r3, #55808	; 0xda00
    7618:	e28330c0 	add	r3, r3, #192	; 0xc0
    761c:	e1510003 	cmp	r1, r3
    7620:	0a000011 	beq	766c <_Z41__static_initialization_and_destruction_0ii+0x70>
    7624:	e28dd014 	add	sp, sp, #20	; 0x14
    7628:	e8bd8000 	pop	{pc}
    762c:	e3a03cda 	mov	r3, #55808	; 0xda00
    7630:	e28330c0 	add	r3, r3, #192	; 0xc0
    7634:	e1510003 	cmp	r1, r3
    7638:	1afffff9 	bne	7624 <_Z41__static_initialization_and_destruction_0ii+0x28>
    763c:	e59fc038 	ldr	ip, [pc, #56]	; 767c <_Z41__static_initialization_and_destruction_0ii+0x80>
    7640:	e59fe038 	ldr	lr, [pc, #56]	; 7680 <_Z41__static_initialization_and_destruction_0ii+0x84>
    7644:	e58dc000 	str	ip, [sp]
    7648:	e3a0100a 	mov	r1, #10	; 0xa
    764c:	e3a0ca02 	mov	ip, #8192	; 0x2000
    7650:	e59f202c 	ldr	r2, [pc, #44]	; 7684 <_Z41__static_initialization_and_destruction_0ii+0x88>
    7654:	e3a03000 	mov	r3, #0	; 0x0
    7658:	e59f0028 	ldr	r0, [pc, #40]	; 7688 <_Z41__static_initialization_and_destruction_0ii+0x8c>
    765c:	e58de004 	str	lr, [sp, #4]
    7660:	e58dc008 	str	ip, [sp, #8]
    7664:	ebfff14d 	bl	3ba0 <_ZN10Cyg_ThreadC1EjPFvjEjPcjj>
    7668:	eaffffed 	b	7624 <_Z41__static_initialization_and_destruction_0ii+0x28>
    766c:	e59f0014 	ldr	r0, [pc, #20]	; 7688 <_Z41__static_initialization_and_destruction_0ii+0x8c>
    7670:	e28dd014 	add	sp, sp, #20	; 0x14
    7674:	e49de004 	pop	{lr}		; (ldr lr, [sp], #4)
    7678:	eafff375 	b	4454 <_ZN10Cyg_ThreadD1Ev>
    767c:	0000f698 	.word	0x0000f698
    7680:	40002670 	.word	0x40002670
    7684:	0000b2a8 	.word	0x0000b2a8
    7688:	400025c8 	.word	0x400025c8

0000768c <_GLOBAL__D.56000_cyg_libc_main_thread>:
    768c:	e3a01cda 	mov	r1, #55808	; 0xda00
    7690:	e28110c0 	add	r1, r1, #192	; 0xc0
    7694:	e3a00000 	mov	r0, #0	; 0x0
    7698:	eaffffd7 	b	75fc <_Z41__static_initialization_and_destruction_0ii>

0000769c <_GLOBAL__I.56000_cyg_libc_main_thread>:
    769c:	e3a01cda 	mov	r1, #55808	; 0xda00
    76a0:	e28110c0 	add	r1, r1, #192	; 0xc0
    76a4:	e3a00001 	mov	r0, #1	; 0x1
    76a8:	eaffffd3 	b	75fc <_Z41__static_initialization_and_destruction_0ii>

000076ac <printf>:
    76ac:	e92d000f 	push	{r0, r1, r2, r3}
    76b0:	e52de004 	push	{lr}		; (str lr, [sp, #-4]!)
    76b4:	e59f3024 	ldr	r3, [pc, #36]	; 76e0 <printf+0x34>
    76b8:	e24dd004 	sub	sp, sp, #4	; 0x4
    76bc:	e5930000 	ldr	r0, [r3]
    76c0:	e3e01102 	mvn	r1, #-2147483648	; 0x80000000
    76c4:	e59d2008 	ldr	r2, [sp, #8]
    76c8:	e28d300c 	add	r3, sp, #12	; 0xc
    76cc:	eb00004f 	bl	7810 <vfnprintf>
    76d0:	e28dd004 	add	sp, sp, #4	; 0x4
    76d4:	e49de004 	pop	{lr}		; (ldr lr, [sp], #4)
    76d8:	e28dd010 	add	sp, sp, #16	; 0x10
    76dc:	e12fff1e 	bx	lr
    76e0:	0000f740 	.word	0x0000f740

000076e4 <_ZL5rounddPiPcS0_cS0_>:
    76e4:	e92d41f0 	push	{r4, r5, r6, r7, r8, lr}
    76e8:	e1a08002 	mov	r8, r2
    76ec:	e24dd008 	sub	sp, sp, #8	; 0x8
    76f0:	e1a05003 	mov	r5, r3
    76f4:	e3a02000 	mov	r2, #0	; 0x0
    76f8:	e3a03000 	mov	r3, #0	; 0x0
    76fc:	e1a06000 	mov	r6, r0
    7700:	e1a07001 	mov	r7, r1
    7704:	eb001c4e 	bl	e844 <__aeabi_dcmpeq>
    7708:	e3500000 	cmp	r0, #0	; 0x0
    770c:	e59d4020 	ldr	r4, [sp, #32]
    7710:	e5dd0024 	ldrb	r0, [sp, #36]
    7714:	0a00002a 	beq	77c4 <_ZL5rounddPiPcS0_cS0_+0xe0>
    7718:	e2400030 	sub	r0, r0, #48	; 0x30
    771c:	eb001ab8 	bl	e204 <__aeabi_i2d>
    7720:	e88d0003 	stm	sp, {r0, r1}
    7724:	e3a03101 	mov	r3, #1073741824	; 0x40000000
    7728:	e89d0003 	ldm	sp, {r0, r1}
    772c:	e3a02000 	mov	r2, #0	; 0x0
    7730:	e2833601 	add	r3, r3, #1048576	; 0x100000
    7734:	eb001c5a 	bl	e8a4 <__aeabi_dcmpgt>
    7738:	e3500000 	cmp	r0, #0	; 0x0
    773c:	0a000010 	beq	7784 <_ZL5rounddPiPcS0_cS0_+0xa0>
    7740:	e3a02030 	mov	r2, #48	; 0x30
    7744:	ea000003 	b	7758 <_ZL5rounddPiPcS0_cS0_+0x74>
    7748:	e1540005 	cmp	r4, r5
    774c:	e5c42000 	strb	r2, [r4]
    7750:	e2444001 	sub	r4, r4, #1	; 0x1
    7754:	0a000023 	beq	77e8 <_ZL5rounddPiPcS0_cS0_+0x104>
    7758:	e5d43000 	ldrb	r3, [r4]
    775c:	e353002e 	cmp	r3, #46	; 0x2e
    7760:	05743001 	ldrbeq	r3, [r4, #-1]!
    7764:	e2833001 	add	r3, r3, #1	; 0x1
    7768:	e20330ff 	and	r3, r3, #255	; 0xff
    776c:	e3530039 	cmp	r3, #57	; 0x39
    7770:	e5c43000 	strb	r3, [r4]
    7774:	8afffff3 	bhi	7748 <_ZL5rounddPiPcS0_cS0_+0x64>
    7778:	e1a00005 	mov	r0, r5
    777c:	e28dd008 	add	sp, sp, #8	; 0x8
    7780:	e8bd81f0 	pop	{r4, r5, r6, r7, r8, pc}
    7784:	e59d2028 	ldr	r2, [sp, #40]
    7788:	e5d23000 	ldrb	r3, [r2]
    778c:	e353002d 	cmp	r3, #45	; 0x2d
    7790:	1afffff8 	bne	7778 <_ZL5rounddPiPcS0_cS0_+0x94>
    7794:	e3a02000 	mov	r2, #0	; 0x0
    7798:	ea000003 	b	77ac <_ZL5rounddPiPcS0_cS0_+0xc8>
    779c:	e1540005 	cmp	r4, r5
    77a0:	059d3028 	ldreq	r3, [sp, #40]
    77a4:	05c32000 	strbeq	r2, [r3]
    77a8:	e2444001 	sub	r4, r4, #1	; 0x1
    77ac:	e5d43000 	ldrb	r3, [r4]
    77b0:	e353002e 	cmp	r3, #46	; 0x2e
    77b4:	05743001 	ldrbeq	r3, [r4, #-1]!
    77b8:	e3530030 	cmp	r3, #48	; 0x30
    77bc:	0afffff6 	beq	779c <_ZL5rounddPiPcS0_cS0_+0xb8>
    77c0:	eaffffec 	b	7778 <_ZL5rounddPiPcS0_cS0_+0x94>
    77c4:	e3a03101 	mov	r3, #1073741824	; 0x40000000
    77c8:	e1a00006 	mov	r0, r6
    77cc:	e1a01007 	mov	r1, r7
    77d0:	e3a02000 	mov	r2, #0	; 0x0
    77d4:	e2833709 	add	r3, r3, #2359296	; 0x240000
    77d8:	eb001ac0 	bl	e2e0 <__aeabi_dmul>
    77dc:	e1a0200d 	mov	r2, sp
    77e0:	eb00087d 	bl	99dc <modf>
    77e4:	eaffffce 	b	7724 <_ZL5rounddPiPcS0_cS0_+0x40>
    77e8:	e3580000 	cmp	r8, #0	; 0x0
    77ec:	13a02031 	movne	r2, #49	; 0x31
    77f0:	15c52000 	strbne	r2, [r5]
    77f4:	15983000 	ldrne	r3, [r8]
    77f8:	03a03031 	moveq	r3, #49	; 0x31
    77fc:	12833001 	addne	r3, r3, #1	; 0x1
    7800:	05453001 	strbeq	r3, [r5, #-1]
    7804:	15883000 	strne	r3, [r8]
    7808:	02455001 	subeq	r5, r5, #1	; 0x1
    780c:	eaffffd9 	b	7778 <_ZL5rounddPiPcS0_cS0_+0x94>

00007810 <vfnprintf>:
    7810:	e92d4ff0 	push	{r4, r5, r6, r7, r8, r9, sl, fp, lr}
    7814:	e24ddfc3 	sub	sp, sp, #780	; 0x30c
    7818:	e3a04000 	mov	r4, #0	; 0x0
    781c:	e28d5f6f 	add	r5, sp, #444	; 0x1bc
    7820:	e58d4040 	str	r4, [sp, #64]
    7824:	e58d1030 	str	r1, [sp, #48]
    7828:	e58d302c 	str	r3, [sp, #44]
    782c:	e58d2058 	str	r2, [sp, #88]
    7830:	e58d4050 	str	r4, [sp, #80]
    7834:	e58d5014 	str	r5, [sp, #20]
    7838:	e1a0a000 	mov	sl, r0
    783c:	e59d4058 	ldr	r4, [sp, #88]
    7840:	ea000000 	b	7848 <vfnprintf+0x38>
    7844:	e1a04002 	mov	r4, r2
    7848:	e5d43000 	ldrb	r3, [r4]
    784c:	e3530000 	cmp	r3, #0	; 0x0
    7850:	e2842001 	add	r2, r4, #1	; 0x1
    7854:	0a0000ab 	beq	7b08 <vfnprintf+0x2f8>
    7858:	e3530025 	cmp	r3, #37	; 0x25
    785c:	1afffff8 	bne	7844 <vfnprintf+0x34>
    7860:	e3a05001 	mov	r5, #1	; 0x1
    7864:	e59dc058 	ldr	ip, [sp, #88]
    7868:	e054600c 	subs	r6, r4, ip
    786c:	1a00008e 	bne	7aac <vfnprintf+0x29c>
    7870:	e59dc030 	ldr	ip, [sp, #48]
    7874:	e59de040 	ldr	lr, [sp, #64]
    7878:	e3550000 	cmp	r5, #0	; 0x0
    787c:	115c000e 	cmpne	ip, lr
    7880:	c3a03000 	movgt	r3, #0	; 0x0
    7884:	d3a03001 	movle	r3, #1	; 0x1
    7888:	da00007e 	ble	7a88 <vfnprintf+0x278>
    788c:	e5cd3307 	strb	r3, [sp, #775]
    7890:	e58d303c 	str	r3, [sp, #60]
    7894:	e3e00000 	mvn	r0, #0	; 0x0
    7898:	e5d42001 	ldrb	r2, [r4, #1]
    789c:	e59d502c 	ldr	r5, [sp, #44]
    78a0:	e58d3044 	str	r3, [sp, #68]
    78a4:	e58d005c 	str	r0, [sp, #92]
    78a8:	e284c001 	add	ip, r4, #1	; 0x1
    78ac:	e3a0e02b 	mov	lr, #43	; 0x2b
    78b0:	e3a04020 	mov	r4, #32	; 0x20
    78b4:	e28cc001 	add	ip, ip, #1	; 0x1
    78b8:	e58d2038 	str	r2, [sp, #56]
    78bc:	e58dc058 	str	ip, [sp, #88]
    78c0:	e59d2038 	ldr	r2, [sp, #56]
    78c4:	e2423020 	sub	r3, r2, #32	; 0x20
    78c8:	e353005a 	cmp	r3, #90	; 0x5a
    78cc:	979ff103 	ldrls	pc, [pc, r3, lsl #2]
    78d0:	ea000136 	b	7db0 <vfnprintf+0x5a0>
    78d4:	00007dfc 	.word	0x00007dfc
    78d8:	00007db0 	.word	0x00007db0
    78dc:	00007db0 	.word	0x00007db0
    78e0:	00007e20 	.word	0x00007e20
    78e4:	00007db0 	.word	0x00007db0
    78e8:	00007db0 	.word	0x00007db0
    78ec:	00007db0 	.word	0x00007db0
    78f0:	00007db0 	.word	0x00007db0
    78f4:	00007db0 	.word	0x00007db0
    78f8:	00007db0 	.word	0x00007db0
    78fc:	00007e40 	.word	0x00007e40
    7900:	00007ed4 	.word	0x00007ed4
    7904:	00007db0 	.word	0x00007db0
    7908:	00007eec 	.word	0x00007eec
    790c:	00007f0c 	.word	0x00007f0c
    7910:	00007db0 	.word	0x00007db0
    7914:	00007f7c 	.word	0x00007f7c
    7918:	00007f9c 	.word	0x00007f9c
    791c:	00007f9c 	.word	0x00007f9c
    7920:	00007f9c 	.word	0x00007f9c
    7924:	00007f9c 	.word	0x00007f9c
    7928:	00007f9c 	.word	0x00007f9c
    792c:	00007f9c 	.word	0x00007f9c
    7930:	00007f9c 	.word	0x00007f9c
    7934:	00007f9c 	.word	0x00007f9c
    7938:	00007f9c 	.word	0x00007f9c
    793c:	00007db0 	.word	0x00007db0
    7940:	00007db0 	.word	0x00007db0
    7944:	00007db0 	.word	0x00007db0
    7948:	00007db0 	.word	0x00007db0
    794c:	00007db0 	.word	0x00007db0
    7950:	00007db0 	.word	0x00007db0
    7954:	00007db0 	.word	0x00007db0
    7958:	00007db0 	.word	0x00007db0
    795c:	00007db0 	.word	0x00007db0
    7960:	00007db0 	.word	0x00007db0
    7964:	00007d20 	.word	0x00007d20
    7968:	00007fe0 	.word	0x00007fe0
    796c:	00007db0 	.word	0x00007db0
    7970:	00007fe0 	.word	0x00007fe0
    7974:	00007db0 	.word	0x00007db0
    7978:	00007db0 	.word	0x00007db0
    797c:	00007db0 	.word	0x00007db0
    7980:	00007db0 	.word	0x00007db0
    7984:	00008128 	.word	0x00008128
    7988:	00007db0 	.word	0x00007db0
    798c:	00007db0 	.word	0x00007db0
    7990:	00007d5c 	.word	0x00007d5c
    7994:	00007db0 	.word	0x00007db0
    7998:	00007db0 	.word	0x00007db0
    799c:	00007db0 	.word	0x00007db0
    79a0:	00007db0 	.word	0x00007db0
    79a4:	00007db0 	.word	0x00007db0
    79a8:	00007b10 	.word	0x00007b10
    79ac:	00007db0 	.word	0x00007db0
    79b0:	00007db0 	.word	0x00007db0
    79b4:	00008148 	.word	0x00008148
    79b8:	00007db0 	.word	0x00007db0
    79bc:	00007db0 	.word	0x00007db0
    79c0:	00007db0 	.word	0x00007db0
    79c4:	00007db0 	.word	0x00007db0
    79c8:	00007db0 	.word	0x00007db0
    79cc:	00007db0 	.word	0x00007db0
    79d0:	00007db0 	.word	0x00007db0
    79d4:	00007db0 	.word	0x00007db0
    79d8:	00007db0 	.word	0x00007db0
    79dc:	00007db0 	.word	0x00007db0
    79e0:	00008154 	.word	0x00008154
    79e4:	00007d2c 	.word	0x00007d2c
    79e8:	00007fe0 	.word	0x00007fe0
    79ec:	00007fe0 	.word	0x00007fe0
    79f0:	00007fe0 	.word	0x00007fe0
    79f4:	000081d0 	.word	0x000081d0
    79f8:	00007d2c 	.word	0x00007d2c
    79fc:	00007db0 	.word	0x00007db0
    7a00:	00007db0 	.word	0x00007db0
    7a04:	00008174 	.word	0x00008174
    7a08:	00007db0 	.word	0x00007db0
    7a0c:	000081a0 	.word	0x000081a0
    7a10:	00007d68 	.word	0x00007d68
    7a14:	000081e4 	.word	0x000081e4
    7a18:	00007d90 	.word	0x00007d90
    7a1c:	00007db0 	.word	0x00007db0
    7a20:	0000821c 	.word	0x0000821c
    7a24:	00007db0 	.word	0x00007db0
    7a28:	00007b1c 	.word	0x00007b1c
    7a2c:	00007db0 	.word	0x00007db0
    7a30:	00007db0 	.word	0x00007db0
    7a34:	00007e64 	.word	0x00007e64
    7a38:	00007db0 	.word	0x00007db0
    7a3c:	00007eb4 	.word	0x00007eb4
    7a40:	e1540006 	cmp	r4, r6
    7a44:	31a02004 	movcc	r2, r4
    7a48:	21a02006 	movcs	r2, r6
    7a4c:	e58d2300 	str	r2, [sp, #768]
    7a50:	e59ac000 	ldr	ip, [sl]
    7a54:	e1a0000a 	mov	r0, sl
    7a58:	e59f1f64 	ldr	r1, [pc, #3940]	; 89c4 <vfnprintf+0x11b4>
    7a5c:	e1a03007 	mov	r3, r7
    7a60:	e1a0e00f 	mov	lr, pc
    7a64:	e59cf008 	ldr	pc, [ip, #8]
    7a68:	e3500000 	cmp	r0, #0	; 0x0
    7a6c:	1a000005 	bne	7a88 <vfnprintf+0x278>
    7a70:	e59d3300 	ldr	r3, [sp, #768]
    7a74:	e1540003 	cmp	r4, r3
    7a78:	9a0002c8 	bls	85a0 <vfnprintf+0xd90>
    7a7c:	e59d4040 	ldr	r4, [sp, #64]
    7a80:	e0834004 	add	r4, r3, r4
    7a84:	e58d4040 	str	r4, [sp, #64]
    7a88:	e1a0000a 	mov	r0, sl
    7a8c:	e59a3000 	ldr	r3, [sl]
    7a90:	e1a0e00f 	mov	lr, pc
    7a94:	e593f00c 	ldr	pc, [r3, #12]
    7a98:	e3500000 	cmp	r0, #0	; 0x0
    7a9c:	e59d0040 	ldr	r0, [sp, #64]
    7aa0:	13e00000 	mvnne	r0, #0	; 0x0
    7aa4:	e28ddfc3 	add	sp, sp, #780	; 0x30c
    7aa8:	e8bd8ff0 	pop	{r4, r5, r6, r7, r8, r9, sl, fp, pc}
    7aac:	e59de030 	ldr	lr, [sp, #48]
    7ab0:	e59d0040 	ldr	r0, [sp, #64]
    7ab4:	e24e2001 	sub	r2, lr, #1	; 0x1
    7ab8:	e0602002 	rsb	r2, r0, r2
    7abc:	e1560002 	cmp	r6, r2
    7ac0:	31a02006 	movcc	r2, r6
    7ac4:	e28d7fc2 	add	r7, sp, #776	; 0x308
    7ac8:	e5272008 	str	r2, [r7, #-8]!
    7acc:	e1a0100c 	mov	r1, ip
    7ad0:	e1a03007 	mov	r3, r7
    7ad4:	e59ac000 	ldr	ip, [sl]
    7ad8:	e1a0000a 	mov	r0, sl
    7adc:	e1a0e00f 	mov	lr, pc
    7ae0:	e59cf008 	ldr	pc, [ip, #8]
    7ae4:	e3500000 	cmp	r0, #0	; 0x0
    7ae8:	1affffe6 	bne	7a88 <vfnprintf+0x278>
    7aec:	e59d3300 	ldr	r3, [sp, #768]
    7af0:	e1560003 	cmp	r6, r3
    7af4:	8a0005bf 	bhi	91f8 <vfnprintf+0x19e8>
    7af8:	e59d2040 	ldr	r2, [sp, #64]
    7afc:	e0822006 	add	r2, r2, r6
    7b00:	e58d2040 	str	r2, [sp, #64]
    7b04:	eaffff59 	b	7870 <vfnprintf+0x60>
    7b08:	e1a05003 	mov	r5, r3
    7b0c:	eaffff54 	b	7864 <vfnprintf+0x54>
    7b10:	e59d103c 	ldr	r1, [sp, #60]
    7b14:	e3811010 	orr	r1, r1, #16	; 0x10
    7b18:	e58d103c 	str	r1, [sp, #60]
    7b1c:	e59d203c 	ldr	r2, [sp, #60]
    7b20:	e3120020 	tst	r2, #32	; 0x20
    7b24:	0a000322 	beq	87b4 <vfnprintf+0xfa4>
    7b28:	e2853007 	add	r3, r5, #7	; 0x7
    7b2c:	e3c33007 	bic	r3, r3, #7	; 0x7
    7b30:	e89300c0 	ldm	r3, {r6, r7}
    7b34:	e2833008 	add	r3, r3, #8	; 0x8
    7b38:	e58d302c 	str	r3, [sp, #44]
    7b3c:	e3a0c001 	mov	ip, #1	; 0x1
    7b40:	e3a0e000 	mov	lr, #0	; 0x0
    7b44:	e5cde307 	strb	lr, [sp, #775]
    7b48:	e59d005c 	ldr	r0, [sp, #92]
    7b4c:	e3500000 	cmp	r0, #0	; 0x0
    7b50:	ba00000c 	blt	7b88 <vfnprintf+0x378>
    7b54:	e1961007 	orrs	r1, r6, r7
    7b58:	e59d405c 	ldr	r4, [sp, #92]
    7b5c:	e59d203c 	ldr	r2, [sp, #60]
    7b60:	e3a03000 	mov	r3, #0	; 0x0
    7b64:	13a03001 	movne	r3, #1	; 0x1
    7b68:	e3540000 	cmp	r4, #0	; 0x0
    7b6c:	13833001 	orrne	r3, r3, #1	; 0x1
    7b70:	e21300ff 	ands	r0, r3, #255	; 0xff
    7b74:	e3c22080 	bic	r2, r2, #128	; 0x80
    7b78:	e58d203c 	str	r2, [sp, #60]
    7b7c:	01a0b000 	moveq	fp, r0
    7b80:	028d9f6f 	addeq	r9, sp, #444	; 0x1bc
    7b84:	0a000058 	beq	7cec <vfnprintf+0x4dc>
    7b88:	e35c0001 	cmp	ip, #1	; 0x1
    7b8c:	0a0002df 	beq	8710 <vfnprintf+0xf00>
    7b90:	328d9f6f 	addcc	r9, sp, #444	; 0x1bc
    7b94:	3a00003e 	bcc	7c94 <vfnprintf+0x484>
    7b98:	e35c0002 	cmp	ip, #2	; 0x2
    7b9c:	0a0002ca 	beq	86cc <vfnprintf+0xebc>
    7ba0:	e3a00000 	mov	r0, #0	; 0x0
    7ba4:	e3a0b019 	mov	fp, #25	; 0x19
    7ba8:	e59d805c 	ldr	r8, [sp, #92]
    7bac:	e59f9e14 	ldr	r9, [pc, #3604]	; 89c8 <vfnprintf+0x11b8>
    7bb0:	e58d0054 	str	r0, [sp, #84]
    7bb4:	e1a0200b 	mov	r2, fp
    7bb8:	e28d7c03 	add	r7, sp, #768	; 0x300
    7bbc:	e5dd3307 	ldrb	r3, [sp, #775]
    7bc0:	e3530000 	cmp	r3, #0	; 0x0
    7bc4:	12822001 	addne	r2, r2, #1	; 0x1
    7bc8:	158d2048 	strne	r2, [sp, #72]
    7bcc:	0a000050 	beq	7d14 <vfnprintf+0x504>
    7bd0:	e59d0048 	ldr	r0, [sp, #72]
    7bd4:	e59d103c 	ldr	r1, [sp, #60]
    7bd8:	e1500008 	cmp	r0, r8
    7bdc:	b1a00008 	movlt	r0, r8
    7be0:	e2111084 	ands	r1, r1, #132	; 0x84
    7be4:	159d2030 	ldrne	r2, [sp, #48]
    7be8:	12422001 	subne	r2, r2, #1	; 0x1
    7bec:	e58d004c 	str	r0, [sp, #76]
    7bf0:	e58d1034 	str	r1, [sp, #52]
    7bf4:	158d2074 	strne	r2, [sp, #116]
    7bf8:	1a0001bc 	bne	82f0 <vfnprintf+0xae0>
    7bfc:	e59d3044 	ldr	r3, [sp, #68]
    7c00:	e59d404c 	ldr	r4, [sp, #76]
    7c04:	e0646003 	rsb	r6, r4, r3
    7c08:	e3560000 	cmp	r6, #0	; 0x0
    7c0c:	d59d5030 	ldrle	r5, [sp, #48]
    7c10:	d2455001 	suble	r5, r5, #1	; 0x1
    7c14:	d58d5074 	strle	r5, [sp, #116]
    7c18:	da0001b4 	ble	82f0 <vfnprintf+0xae0>
    7c1c:	e3560010 	cmp	r6, #16	; 0x10
    7c20:	da000199 	ble	828c <vfnprintf+0xa7c>
    7c24:	e59d0030 	ldr	r0, [sp, #48]
    7c28:	e59d1040 	ldr	r1, [sp, #64]
    7c2c:	e2400001 	sub	r0, r0, #1	; 0x1
    7c30:	e0611000 	rsb	r1, r1, r0
    7c34:	e1a05001 	mov	r5, r1
    7c38:	e58d0074 	str	r0, [sp, #116]
    7c3c:	e58d1070 	str	r1, [sp, #112]
    7c40:	e3550010 	cmp	r5, #16	; 0x10
    7c44:	23a05010 	movcs	r5, #16	; 0x10
    7c48:	e1a04006 	mov	r4, r6
    7c4c:	ea000004 	b	7c64 <vfnprintf+0x454>
    7c50:	e59d3300 	ldr	r3, [sp, #768]
    7c54:	e353000f 	cmp	r3, #15	; 0xf
    7c58:	9a000297 	bls	86bc <vfnprintf+0xeac>
    7c5c:	e3540010 	cmp	r4, #16	; 0x10
    7c60:	da000190 	ble	82a8 <vfnprintf+0xa98>
    7c64:	e58d5300 	str	r5, [sp, #768]
    7c68:	e59ac000 	ldr	ip, [sl]
    7c6c:	e1a0000a 	mov	r0, sl
    7c70:	e59f1d54 	ldr	r1, [pc, #3412]	; 89cc <vfnprintf+0x11bc>
    7c74:	e1a02005 	mov	r2, r5
    7c78:	e1a03007 	mov	r3, r7
    7c7c:	e1a0e00f 	mov	lr, pc
    7c80:	e59cf008 	ldr	pc, [ip, #8]
    7c84:	e3500000 	cmp	r0, #0	; 0x0
    7c88:	e2444010 	sub	r4, r4, #16	; 0x10
    7c8c:	0affffef 	beq	7c50 <vfnprintf+0x440>
    7c90:	eaffff7c 	b	7a88 <vfnprintf+0x278>
    7c94:	e1a021a6 	lsr	r2, r6, #3
    7c98:	e1822e87 	orr	r2, r2, r7, lsl #29
    7c9c:	e1a011a7 	lsr	r1, r7, #3
    7ca0:	e1a03002 	mov	r3, r2
    7ca4:	e2062007 	and	r2, r6, #7	; 0x7
    7ca8:	e2822030 	add	r2, r2, #48	; 0x30
    7cac:	e1935001 	orrs	r5, r3, r1
    7cb0:	e1a04001 	mov	r4, r1
    7cb4:	e1a06003 	mov	r6, r3
    7cb8:	e1a07001 	mov	r7, r1
    7cbc:	e5692001 	strb	r2, [r9, #-1]!
    7cc0:	1afffff3 	bne	7c94 <vfnprintf+0x484>
    7cc4:	e59dc03c 	ldr	ip, [sp, #60]
    7cc8:	e31c0001 	tst	ip, #1	; 0x1
    7ccc:	0a00028c 	beq	8704 <vfnprintf+0xef4>
    7cd0:	e3520030 	cmp	r2, #48	; 0x30
    7cd4:	13a03030 	movne	r3, #48	; 0x30
    7cd8:	15693001 	strbne	r3, [r9, #-1]!
    7cdc:	059d0014 	ldreq	r0, [sp, #20]
    7ce0:	159d1014 	ldrne	r1, [sp, #20]
    7ce4:	0069b000 	rsbeq	fp, r9, r0
    7ce8:	1069b001 	rsbne	fp, r9, r1
    7cec:	e5dd3307 	ldrb	r3, [sp, #775]
    7cf0:	e1a0200b 	mov	r2, fp
    7cf4:	e3530000 	cmp	r3, #0	; 0x0
    7cf8:	e3a01000 	mov	r1, #0	; 0x0
    7cfc:	12822001 	addne	r2, r2, #1	; 0x1
    7d00:	e59d805c 	ldr	r8, [sp, #92]
    7d04:	e58d1054 	str	r1, [sp, #84]
    7d08:	e28d7c03 	add	r7, sp, #768	; 0x300
    7d0c:	158d2048 	strne	r2, [sp, #72]
    7d10:	1affffae 	bne	7bd0 <vfnprintf+0x3c0>
    7d14:	e59d502c 	ldr	r5, [sp, #44]
    7d18:	e58d2048 	str	r2, [sp, #72]
    7d1c:	ea00002f 	b	7de0 <vfnprintf+0x5d0>
    7d20:	e59d403c 	ldr	r4, [sp, #60]
    7d24:	e3844010 	orr	r4, r4, #16	; 0x10
    7d28:	e58d403c 	str	r4, [sp, #60]
    7d2c:	e59dc03c 	ldr	ip, [sp, #60]
    7d30:	e31c0020 	tst	ip, #32	; 0x20
    7d34:	0a0002c9 	beq	8860 <vfnprintf+0x1050>
    7d38:	e2853007 	add	r3, r5, #7	; 0x7
    7d3c:	e3c33007 	bic	r3, r3, #7	; 0x7
    7d40:	e89300c0 	ldm	r3, {r6, r7}
    7d44:	e2833008 	add	r3, r3, #8	; 0x8
    7d48:	e58d302c 	str	r3, [sp, #44]
    7d4c:	e3570000 	cmp	r7, #0	; 0x0
    7d50:	ba000147 	blt	8274 <vfnprintf+0xa64>
    7d54:	e3a0c001 	mov	ip, #1	; 0x1
    7d58:	eaffff7a 	b	7b48 <vfnprintf+0x338>
    7d5c:	e59d303c 	ldr	r3, [sp, #60]
    7d60:	e3833010 	orr	r3, r3, #16	; 0x10
    7d64:	e58d303c 	str	r3, [sp, #60]
    7d68:	e59d403c 	ldr	r4, [sp, #60]
    7d6c:	e214c020 	ands	ip, r4, #32	; 0x20
    7d70:	0a0002a5 	beq	880c <vfnprintf+0xffc>
    7d74:	e2853007 	add	r3, r5, #7	; 0x7
    7d78:	e3c33007 	bic	r3, r3, #7	; 0x7
    7d7c:	e89300c0 	ldm	r3, {r6, r7}
    7d80:	e2833008 	add	r3, r3, #8	; 0x8
    7d84:	e58d302c 	str	r3, [sp, #44]
    7d88:	e3a0c000 	mov	ip, #0	; 0x0
    7d8c:	eaffff6b 	b	7b40 <vfnprintf+0x330>
    7d90:	e59d203c 	ldr	r2, [sp, #60]
    7d94:	e3822020 	orr	r2, r2, #32	; 0x20
    7d98:	e58d203c 	str	r2, [sp, #60]
    7d9c:	e59dc058 	ldr	ip, [sp, #88]
    7da0:	e1a03005 	mov	r3, r5
    7da4:	e5dc2000 	ldrb	r2, [ip]
    7da8:	e1a05003 	mov	r5, r3
    7dac:	eafffec0 	b	78b4 <vfnprintf+0xa4>
    7db0:	e59d3038 	ldr	r3, [sp, #56]
    7db4:	e3530000 	cmp	r3, #0	; 0x0
    7db8:	0affff32 	beq	7a88 <vfnprintf+0x278>
    7dbc:	e3a04000 	mov	r4, #0	; 0x0
    7dc0:	e5cd3078 	strb	r3, [sp, #120]
    7dc4:	e5cd4307 	strb	r4, [sp, #775]
    7dc8:	e28d9078 	add	r9, sp, #120	; 0x78
    7dcc:	e3a0b001 	mov	fp, #1	; 0x1
    7dd0:	e3a08000 	mov	r8, #0	; 0x0
    7dd4:	e58db048 	str	fp, [sp, #72]
    7dd8:	e58d8054 	str	r8, [sp, #84]
    7ddc:	e28d7c03 	add	r7, sp, #768	; 0x300
    7de0:	e59dc03c 	ldr	ip, [sp, #60]
    7de4:	e31c0002 	tst	ip, #2	; 0x2
    7de8:	159de048 	ldrne	lr, [sp, #72]
    7dec:	128ee002 	addne	lr, lr, #2	; 0x2
    7df0:	158de048 	strne	lr, [sp, #72]
    7df4:	e58d502c 	str	r5, [sp, #44]
    7df8:	eaffff74 	b	7bd0 <vfnprintf+0x3c0>
    7dfc:	e5dd3307 	ldrb	r3, [sp, #775]
    7e00:	e3530000 	cmp	r3, #0	; 0x0
    7e04:	1a00030d 	bne	8a40 <vfnprintf+0x1230>
    7e08:	e5cd4307 	strb	r4, [sp, #775]
    7e0c:	e59dc058 	ldr	ip, [sp, #88]
    7e10:	e1a03005 	mov	r3, r5
    7e14:	e5dc2000 	ldrb	r2, [ip]
    7e18:	e1a05003 	mov	r5, r3
    7e1c:	eafffea4 	b	78b4 <vfnprintf+0xa4>
    7e20:	e59d303c 	ldr	r3, [sp, #60]
    7e24:	e3833001 	orr	r3, r3, #1	; 0x1
    7e28:	e58d303c 	str	r3, [sp, #60]
    7e2c:	e59dc058 	ldr	ip, [sp, #88]
    7e30:	e1a03005 	mov	r3, r5
    7e34:	e5dc2000 	ldrb	r2, [ip]
    7e38:	e1a05003 	mov	r5, r3
    7e3c:	eafffe9c 	b	78b4 <vfnprintf+0xa4>
    7e40:	e595c000 	ldr	ip, [r5]
    7e44:	e35c0000 	cmp	ip, #0	; 0x0
    7e48:	e58dc044 	str	ip, [sp, #68]
    7e4c:	e2853004 	add	r3, r5, #4	; 0x4
    7e50:	ba000491 	blt	909c <vfnprintf+0x188c>
    7e54:	e59dc058 	ldr	ip, [sp, #88]
    7e58:	e1a05003 	mov	r5, r3
    7e5c:	e5dc2000 	ldrb	r2, [ip]
    7e60:	eafffe93 	b	78b4 <vfnprintf+0xa4>
    7e64:	e59f0b64 	ldr	r0, [pc, #2916]	; 89d0 <vfnprintf+0x11c0>
    7e68:	e58d0050 	str	r0, [sp, #80]
    7e6c:	e59d103c 	ldr	r1, [sp, #60]
    7e70:	e3110020 	tst	r1, #32	; 0x20
    7e74:	0a00028d 	beq	88b0 <vfnprintf+0x10a0>
    7e78:	e2853007 	add	r3, r5, #7	; 0x7
    7e7c:	e3c33007 	bic	r3, r3, #7	; 0x7
    7e80:	e89300c0 	ldm	r3, {r6, r7}
    7e84:	e2833008 	add	r3, r3, #8	; 0x8
    7e88:	e58d302c 	str	r3, [sp, #44]
    7e8c:	e59d503c 	ldr	r5, [sp, #60]
    7e90:	e3150001 	tst	r5, #1	; 0x1
    7e94:	0a000004 	beq	7eac <vfnprintf+0x69c>
    7e98:	e196c007 	orrs	ip, r6, r7
    7e9c:	13855002 	orrne	r5, r5, #2	; 0x2
    7ea0:	158d503c 	strne	r5, [sp, #60]
    7ea4:	13a0c002 	movne	ip, #2	; 0x2
    7ea8:	1affff24 	bne	7b40 <vfnprintf+0x330>
    7eac:	e3a0c002 	mov	ip, #2	; 0x2
    7eb0:	eaffff22 	b	7b40 <vfnprintf+0x330>
    7eb4:	e59d203c 	ldr	r2, [sp, #60]
    7eb8:	e3822c02 	orr	r2, r2, #512	; 0x200
    7ebc:	e58d203c 	str	r2, [sp, #60]
    7ec0:	e59dc058 	ldr	ip, [sp, #88]
    7ec4:	e1a03005 	mov	r3, r5
    7ec8:	e5dc2000 	ldrb	r2, [ip]
    7ecc:	e1a05003 	mov	r5, r3
    7ed0:	eafffe77 	b	78b4 <vfnprintf+0xa4>
    7ed4:	e5cde307 	strb	lr, [sp, #775]
    7ed8:	e59dc058 	ldr	ip, [sp, #88]
    7edc:	e1a03005 	mov	r3, r5
    7ee0:	e5dc2000 	ldrb	r2, [ip]
    7ee4:	e1a05003 	mov	r5, r3
    7ee8:	eafffe71 	b	78b4 <vfnprintf+0xa4>
    7eec:	e1a03005 	mov	r3, r5
    7ef0:	e59d103c 	ldr	r1, [sp, #60]
    7ef4:	e3811004 	orr	r1, r1, #4	; 0x4
    7ef8:	e58d103c 	str	r1, [sp, #60]
    7efc:	e59dc058 	ldr	ip, [sp, #88]
    7f00:	e1a05003 	mov	r5, r3
    7f04:	e5dc2000 	ldrb	r2, [ip]
    7f08:	eafffe69 	b	78b4 <vfnprintf+0xa4>
    7f0c:	e59dc058 	ldr	ip, [sp, #88]
    7f10:	e4dc2001 	ldrb	r2, [ip], #1
    7f14:	e352002a 	cmp	r2, #42	; 0x2a
    7f18:	e58d2038 	str	r2, [sp, #56]
    7f1c:	0a00061d 	beq	9798 <vfnprintf+0x1f88>
    7f20:	e2420030 	sub	r0, r2, #48	; 0x30
    7f24:	e3500009 	cmp	r0, #9	; 0x9
    7f28:	83a03000 	movhi	r3, #0	; 0x0
    7f2c:	858d305c 	strhi	r3, [sp, #92]
    7f30:	8a00000f 	bhi	7f74 <vfnprintf+0x764>
    7f34:	e59dc058 	ldr	ip, [sp, #88]
    7f38:	e3a03000 	mov	r3, #0	; 0x0
    7f3c:	e28c1002 	add	r1, ip, #2	; 0x2
    7f40:	e551c001 	ldrb	ip, [r1, #-1]
    7f44:	e1a02183 	lsl	r2, r3, #3
    7f48:	e1a03083 	lsl	r3, r3, #1
    7f4c:	e0833002 	add	r3, r3, r2
    7f50:	e0833000 	add	r3, r3, r0
    7f54:	e24c0030 	sub	r0, ip, #48	; 0x30
    7f58:	e3500009 	cmp	r0, #9	; 0x9
    7f5c:	e58dc038 	str	ip, [sp, #56]
    7f60:	e1a0c001 	mov	ip, r1
    7f64:	e2811001 	add	r1, r1, #1	; 0x1
    7f68:	9afffff4 	bls	7f40 <vfnprintf+0x730>
    7f6c:	e1833fc3 	orr	r3, r3, r3, asr #31
    7f70:	e58d305c 	str	r3, [sp, #92]
    7f74:	e58dc058 	str	ip, [sp, #88]
    7f78:	eafffe50 	b	78c0 <vfnprintf+0xb0>
    7f7c:	e59d003c 	ldr	r0, [sp, #60]
    7f80:	e3800080 	orr	r0, r0, #128	; 0x80
    7f84:	e58d003c 	str	r0, [sp, #60]
    7f88:	e59dc058 	ldr	ip, [sp, #88]
    7f8c:	e1a03005 	mov	r3, r5
    7f90:	e5dc2000 	ldrb	r2, [ip]
    7f94:	e1a05003 	mov	r5, r3
    7f98:	eafffe45 	b	78b4 <vfnprintf+0xa4>
    7f9c:	e59d1038 	ldr	r1, [sp, #56]
    7fa0:	e3a03000 	mov	r3, #0	; 0x0
    7fa4:	e2410030 	sub	r0, r1, #48	; 0x30
    7fa8:	e59dc058 	ldr	ip, [sp, #88]
    7fac:	e1a02183 	lsl	r2, r3, #3
    7fb0:	e4dc1001 	ldrb	r1, [ip], #1
    7fb4:	e1a03083 	lsl	r3, r3, #1
    7fb8:	e0833002 	add	r3, r3, r2
    7fbc:	e0803003 	add	r3, r0, r3
    7fc0:	e2410030 	sub	r0, r1, #48	; 0x30
    7fc4:	e3500009 	cmp	r0, #9	; 0x9
    7fc8:	e58d1038 	str	r1, [sp, #56]
    7fcc:	e58dc058 	str	ip, [sp, #88]
    7fd0:	9afffff4 	bls	7fa8 <vfnprintf+0x798>
    7fd4:	e58d3044 	str	r3, [sp, #68]
    7fd8:	e58dc058 	str	ip, [sp, #88]
    7fdc:	eafffe37 	b	78c0 <vfnprintf+0xb0>
    7fe0:	e2853007 	add	r3, r5, #7	; 0x7
    7fe4:	e59d205c 	ldr	r2, [sp, #92]
    7fe8:	e3c33007 	bic	r3, r3, #7	; 0x7
    7fec:	e2834008 	add	r4, r3, #8	; 0x8
    7ff0:	e352000f 	cmp	r2, #15	; 0xf
    7ff4:	e5938004 	ldr	r8, [r3, #4]
    7ff8:	e58d402c 	str	r4, [sp, #44]
    7ffc:	e5937000 	ldr	r7, [r3]
    8000:	ca00027e 	bgt	8a00 <vfnprintf+0x11f0>
    8004:	e59d205c 	ldr	r2, [sp, #92]
    8008:	e3720001 	cmn	r2, #1	; 0x1
    800c:	03a03006 	moveq	r3, #6	; 0x6
    8010:	03a04000 	moveq	r4, #0	; 0x0
    8014:	13a05000 	movne	r5, #0	; 0x0
    8018:	058d305c 	streq	r3, [sp, #92]
    801c:	058d4054 	streq	r4, [sp, #84]
    8020:	158d5054 	strne	r5, [sp, #84]
    8024:	e3a0c000 	mov	ip, #0	; 0x0
    8028:	e3580000 	cmp	r8, #0	; 0x0
    802c:	e5cdc078 	strb	ip, [sp, #120]
    8030:	e5cdc306 	strb	ip, [sp, #774]
    8034:	b3a0002d 	movlt	r0, #45	; 0x2d
    8038:	b2882102 	addlt	r2, r8, #-2147483648	; 0x80000000
    803c:	b5cd0306 	strblt	r0, [sp, #774]
    8040:	b1a08002 	movlt	r8, r2
    8044:	e3c84102 	bic	r4, r8, #-2147483648	; 0x80000000
    8048:	e1a05004 	mov	r5, r4
    804c:	e3e03102 	mvn	r3, #-2147483648	; 0x80000000
    8050:	e1a00007 	mov	r0, r7
    8054:	e1a01005 	mov	r1, r5
    8058:	e3e02000 	mvn	r2, #0	; 0x0
    805c:	e2433601 	sub	r3, r3, #1048576	; 0x100000
    8060:	eb001a15 	bl	e8bc <__aeabi_dcmpun>
    8064:	e3500000 	cmp	r0, #0	; 0x0
    8068:	e3a06000 	mov	r6, #0	; 0x0
    806c:	1a00027e 	bne	8a6c <vfnprintf+0x125c>
    8070:	e3e03102 	mvn	r3, #-2147483648	; 0x80000000
    8074:	e1a00007 	mov	r0, r7
    8078:	e1a01005 	mov	r1, r5
    807c:	e3e02000 	mvn	r2, #0	; 0x0
    8080:	e2433601 	sub	r3, r3, #1048576	; 0x100000
    8084:	eb001a06 	bl	e8a4 <__aeabi_dcmpgt>
    8088:	e1500006 	cmp	r0, r6
    808c:	1a000276 	bne	8a6c <vfnprintf+0x125c>
    8090:	e3560001 	cmp	r6, #1	; 0x1
    8094:	1a000287 	bne	8ab8 <vfnprintf+0x12a8>
    8098:	e59d3038 	ldr	r3, [sp, #56]
    809c:	e2432065 	sub	r2, r3, #101	; 0x65
    80a0:	e3520002 	cmp	r2, #2	; 0x2
    80a4:	e1a00007 	mov	r0, r7
    80a8:	e1a01008 	mov	r1, r8
    80ac:	e1a02007 	mov	r2, r7
    80b0:	e1a03008 	mov	r3, r8
    80b4:	83a0504e 	movhi	r5, #78	; 0x4e
    80b8:	93a0506e 	movls	r5, #110	; 0x6e
    80bc:	83a04000 	movhi	r4, #0	; 0x0
    80c0:	93a04020 	movls	r4, #32	; 0x20
    80c4:	eb0019fc 	bl	e8bc <__aeabi_dcmpun>
    80c8:	e3500000 	cmp	r0, #0	; 0x0
    80cc:	1a00044d 	bne	9208 <vfnprintf+0x19f8>
    80d0:	e2842046 	add	r2, r4, #70	; 0x46
    80d4:	e2843049 	add	r3, r4, #73	; 0x49
    80d8:	e5cd5079 	strb	r5, [sp, #121]
    80dc:	e28d5078 	add	r5, sp, #120	; 0x78
    80e0:	e5cd3078 	strb	r3, [sp, #120]
    80e4:	e5cd207a 	strb	r2, [sp, #122]
    80e8:	e58d501c 	str	r5, [sp, #28]
    80ec:	e3a0b003 	mov	fp, #3	; 0x3
    80f0:	e28d7c03 	add	r7, sp, #768	; 0x300
    80f4:	e5dd3306 	ldrb	r3, [sp, #774]
    80f8:	e3530000 	cmp	r3, #0	; 0x0
    80fc:	13a0302d 	movne	r3, #45	; 0x2d
    8100:	15cd3307 	strbne	r3, [sp, #775]
    8104:	e5dd3078 	ldrb	r3, [sp, #120]
    8108:	e3530000 	cmp	r3, #0	; 0x0
    810c:	1a00025c 	bne	8a84 <vfnprintf+0x1274>
    8110:	e59dc01c 	ldr	ip, [sp, #28]
    8114:	e59de054 	ldr	lr, [sp, #84]
    8118:	e28c9001 	add	r9, ip, #1	; 0x1
    811c:	e1a08003 	mov	r8, r3
    8120:	e08b200e 	add	r2, fp, lr
    8124:	eafffea4 	b	7bbc <vfnprintf+0x3ac>
    8128:	e59d203c 	ldr	r2, [sp, #60]
    812c:	e3822008 	orr	r2, r2, #8	; 0x8
    8130:	e58d203c 	str	r2, [sp, #60]
    8134:	e59dc058 	ldr	ip, [sp, #88]
    8138:	e1a03005 	mov	r3, r5
    813c:	e5dc2000 	ldrb	r2, [ip]
    8140:	e1a05003 	mov	r5, r3
    8144:	eafffdda 	b	78b4 <vfnprintf+0xa4>
    8148:	e59fe884 	ldr	lr, [pc, #2180]	; 89d4 <vfnprintf+0x11c4>
    814c:	e58de050 	str	lr, [sp, #80]
    8150:	eaffff45 	b	7e6c <vfnprintf+0x65c>
    8154:	e5953000 	ldr	r3, [r5]
    8158:	e5cd3078 	strb	r3, [sp, #120]
    815c:	e3a03000 	mov	r3, #0	; 0x0
    8160:	e5cd3307 	strb	r3, [sp, #775]
    8164:	e2855004 	add	r5, r5, #4	; 0x4
    8168:	e28d9078 	add	r9, sp, #120	; 0x78
    816c:	e3a0b001 	mov	fp, #1	; 0x1
    8170:	eaffff16 	b	7dd0 <vfnprintf+0x5c0>
    8174:	e59dc058 	ldr	ip, [sp, #88]
    8178:	e5dc2000 	ldrb	r2, [ip]
    817c:	e352006c 	cmp	r2, #108	; 0x6c
    8180:	0a000244 	beq	8a98 <vfnprintf+0x1288>
    8184:	e59d103c 	ldr	r1, [sp, #60]
    8188:	e1a03005 	mov	r3, r5
    818c:	e3811010 	orr	r1, r1, #16	; 0x10
    8190:	e58d103c 	str	r1, [sp, #60]
    8194:	e59dc058 	ldr	ip, [sp, #88]
    8198:	e1a05003 	mov	r5, r3
    819c:	eafffdc4 	b	78b4 <vfnprintf+0xa4>
    81a0:	e59d003c 	ldr	r0, [sp, #60]
    81a4:	e3100020 	tst	r0, #32	; 0x20
    81a8:	1a00020c 	bne	89e0 <vfnprintf+0x11d0>
    81ac:	e59d203c 	ldr	r2, [sp, #60]
    81b0:	e3120010 	tst	r2, #16	; 0x10
    81b4:	0a0003dd 	beq	9130 <vfnprintf+0x1920>
    81b8:	e5953000 	ldr	r3, [r5]
    81bc:	e59d4040 	ldr	r4, [sp, #64]
    81c0:	e2855004 	add	r5, r5, #4	; 0x4
    81c4:	e5834000 	str	r4, [r3]
    81c8:	e58d502c 	str	r5, [sp, #44]
    81cc:	eafffd9a 	b	783c <vfnprintf+0x2c>
    81d0:	e59d303c 	ldr	r3, [sp, #60]
    81d4:	e3833040 	orr	r3, r3, #64	; 0x40
    81d8:	e58d303c 	str	r3, [sp, #60]
    81dc:	e1a03005 	mov	r3, r5
    81e0:	eaffff1b 	b	7e54 <vfnprintf+0x644>
    81e4:	e5953000 	ldr	r3, [r5]
    81e8:	e59d203c 	ldr	r2, [sp, #60]
    81ec:	e1a06003 	mov	r6, r3
    81f0:	e3a07000 	mov	r7, #0	; 0x0
    81f4:	e59f37d4 	ldr	r3, [pc, #2004]	; 89d0 <vfnprintf+0x11c0>
    81f8:	e3822002 	orr	r2, r2, #2	; 0x2
    81fc:	e2855004 	add	r5, r5, #4	; 0x4
    8200:	e3a04078 	mov	r4, #120	; 0x78
    8204:	e58d203c 	str	r2, [sp, #60]
    8208:	e58d502c 	str	r5, [sp, #44]
    820c:	e58d3050 	str	r3, [sp, #80]
    8210:	e58d4038 	str	r4, [sp, #56]
    8214:	e3a0c002 	mov	ip, #2	; 0x2
    8218:	eafffe48 	b	7b40 <vfnprintf+0x330>
    821c:	e5959000 	ldr	r9, [r5]
    8220:	e59f37b0 	ldr	r3, [pc, #1968]	; 89d8 <vfnprintf+0x11c8>
    8224:	e59dc05c 	ldr	ip, [sp, #92]
    8228:	e3590000 	cmp	r9, #0	; 0x0
    822c:	01a09003 	moveq	r9, r3
    8230:	e35c0000 	cmp	ip, #0	; 0x0
    8234:	ba00039c 	blt	90ac <vfnprintf+0x189c>
    8238:	e1a00009 	mov	r0, r9
    823c:	e3a01000 	mov	r1, #0	; 0x0
    8240:	e1a0200c 	mov	r2, ip
    8244:	eb000565 	bl	97e0 <__memchr>
    8248:	e3500000 	cmp	r0, #0	; 0x0
    824c:	0a000003 	beq	8260 <vfnprintf+0xa50>
    8250:	e59de05c 	ldr	lr, [sp, #92]
    8254:	e069b000 	rsb	fp, r9, r0
    8258:	e15b000e 	cmp	fp, lr
    825c:	da000000 	ble	8264 <vfnprintf+0xa54>
    8260:	e59db05c 	ldr	fp, [sp, #92]
    8264:	e3a00000 	mov	r0, #0	; 0x0
    8268:	e2855004 	add	r5, r5, #4	; 0x4
    826c:	e5cd0307 	strb	r0, [sp, #775]
    8270:	eafffed6 	b	7dd0 <vfnprintf+0x5c0>
    8274:	e3a0302d 	mov	r3, #45	; 0x2d
    8278:	e2766000 	rsbs	r6, r6, #0	; 0x0
    827c:	e2e77000 	rsc	r7, r7, #0	; 0x0
    8280:	e5cd3307 	strb	r3, [sp, #775]
    8284:	e3a0c001 	mov	ip, #1	; 0x1
    8288:	eafffe2e 	b	7b48 <vfnprintf+0x338>
    828c:	e59dc030 	ldr	ip, [sp, #48]
    8290:	e59de040 	ldr	lr, [sp, #64]
    8294:	e24cc001 	sub	ip, ip, #1	; 0x1
    8298:	e06ee00c 	rsb	lr, lr, ip
    829c:	e58dc074 	str	ip, [sp, #116]
    82a0:	e58de070 	str	lr, [sp, #112]
    82a4:	e1a04006 	mov	r4, r6
    82a8:	e59d2070 	ldr	r2, [sp, #112]
    82ac:	e1540002 	cmp	r4, r2
    82b0:	31a02004 	movcc	r2, r4
    82b4:	e58d2300 	str	r2, [sp, #768]
    82b8:	e59ac000 	ldr	ip, [sl]
    82bc:	e1a0000a 	mov	r0, sl
    82c0:	e59f1704 	ldr	r1, [pc, #1796]	; 89cc <vfnprintf+0x11bc>
    82c4:	e1a03007 	mov	r3, r7
    82c8:	e1a0e00f 	mov	lr, pc
    82cc:	e59cf008 	ldr	pc, [ip, #8]
    82d0:	e3500000 	cmp	r0, #0	; 0x0
    82d4:	1afffdeb 	bne	7a88 <vfnprintf+0x278>
    82d8:	e59d3300 	ldr	r3, [sp, #768]
    82dc:	e1540003 	cmp	r4, r3
    82e0:	8a0003b3 	bhi	91b4 <vfnprintf+0x19a4>
    82e4:	e59d5040 	ldr	r5, [sp, #64]
    82e8:	e0855006 	add	r5, r5, r6
    82ec:	e58d5040 	str	r5, [sp, #64]
    82f0:	e5dd3307 	ldrb	r3, [sp, #775]
    82f4:	e3530000 	cmp	r3, #0	; 0x0
    82f8:	1a00006f 	bne	84bc <vfnprintf+0xcac>
    82fc:	e59d103c 	ldr	r1, [sp, #60]
    8300:	e3110002 	tst	r1, #2	; 0x2
    8304:	1a0000d3 	bne	8658 <vfnprintf+0xe48>
    8308:	e59de034 	ldr	lr, [sp, #52]
    830c:	e35e0080 	cmp	lr, #128	; 0x80
    8310:	0a000081 	beq	851c <vfnprintf+0xd0c>
    8314:	e59d1048 	ldr	r1, [sp, #72]
    8318:	e0616008 	rsb	r6, r1, r8
    831c:	e3560000 	cmp	r6, #0	; 0x0
    8320:	da000030 	ble	83e8 <vfnprintf+0xbd8>
    8324:	e3560010 	cmp	r6, #16	; 0x10
    8328:	da000018 	ble	8390 <vfnprintf+0xb80>
    832c:	e59d4074 	ldr	r4, [sp, #116]
    8330:	e59d5040 	ldr	r5, [sp, #64]
    8334:	e0658004 	rsb	r8, r5, r4
    8338:	e3580010 	cmp	r8, #16	; 0x10
    833c:	31a05008 	movcc	r5, r8
    8340:	23a05010 	movcs	r5, #16	; 0x10
    8344:	e1a04006 	mov	r4, r6
    8348:	ea000004 	b	8360 <vfnprintf+0xb50>
    834c:	e59d3300 	ldr	r3, [sp, #768]
    8350:	e353000f 	cmp	r3, #15	; 0xf
    8354:	9a0000bb 	bls	8648 <vfnprintf+0xe38>
    8358:	e3540010 	cmp	r4, #16	; 0x10
    835c:	da00000f 	ble	83a0 <vfnprintf+0xb90>
    8360:	e58d5300 	str	r5, [sp, #768]
    8364:	e59ac000 	ldr	ip, [sl]
    8368:	e1a0000a 	mov	r0, sl
    836c:	e59f1650 	ldr	r1, [pc, #1616]	; 89c4 <vfnprintf+0x11b4>
    8370:	e1a02005 	mov	r2, r5
    8374:	e1a03007 	mov	r3, r7
    8378:	e1a0e00f 	mov	lr, pc
    837c:	e59cf008 	ldr	pc, [ip, #8]
    8380:	e3500000 	cmp	r0, #0	; 0x0
    8384:	e2444010 	sub	r4, r4, #16	; 0x10
    8388:	0affffef 	beq	834c <vfnprintf+0xb3c>
    838c:	eafffdbd 	b	7a88 <vfnprintf+0x278>
    8390:	e59d2074 	ldr	r2, [sp, #116]
    8394:	e59d3040 	ldr	r3, [sp, #64]
    8398:	e1a04006 	mov	r4, r6
    839c:	e0638002 	rsb	r8, r3, r2
    83a0:	e1540008 	cmp	r4, r8
    83a4:	31a02004 	movcc	r2, r4
    83a8:	21a02008 	movcs	r2, r8
    83ac:	e58d2300 	str	r2, [sp, #768]
    83b0:	e59ac000 	ldr	ip, [sl]
    83b4:	e1a0000a 	mov	r0, sl
    83b8:	e59f1604 	ldr	r1, [pc, #1540]	; 89c4 <vfnprintf+0x11b4>
    83bc:	e1a03007 	mov	r3, r7
    83c0:	e1a0e00f 	mov	lr, pc
    83c4:	e59cf008 	ldr	pc, [ip, #8]
    83c8:	e3500000 	cmp	r0, #0	; 0x0
    83cc:	1afffdad 	bne	7a88 <vfnprintf+0x278>
    83d0:	e59d3300 	ldr	r3, [sp, #768]
    83d4:	e1540003 	cmp	r4, r3
    83d8:	8a0001a5 	bhi	8a74 <vfnprintf+0x1264>
    83dc:	e59d0040 	ldr	r0, [sp, #64]
    83e0:	e0800006 	add	r0, r0, r6
    83e4:	e58d0040 	str	r0, [sp, #64]
    83e8:	e59d1074 	ldr	r1, [sp, #116]
    83ec:	e59d3040 	ldr	r3, [sp, #64]
    83f0:	e0632001 	rsb	r2, r3, r1
    83f4:	e152000b 	cmp	r2, fp
    83f8:	21a0200b 	movcs	r2, fp
    83fc:	e58d2300 	str	r2, [sp, #768]
    8400:	e1a01009 	mov	r1, r9
    8404:	e59ac000 	ldr	ip, [sl]
    8408:	e1a0000a 	mov	r0, sl
    840c:	e1a03007 	mov	r3, r7
    8410:	e1a0e00f 	mov	lr, pc
    8414:	e59cf008 	ldr	pc, [ip, #8]
    8418:	e3500000 	cmp	r0, #0	; 0x0
    841c:	1afffd99 	bne	7a88 <vfnprintf+0x278>
    8420:	e59d3300 	ldr	r3, [sp, #768]
    8424:	e15b0003 	cmp	fp, r3
    8428:	8a000361 	bhi	91b4 <vfnprintf+0x19a4>
    842c:	e59dc040 	ldr	ip, [sp, #64]
    8430:	e59d5054 	ldr	r5, [sp, #84]
    8434:	e08cc00b 	add	ip, ip, fp
    8438:	e3550000 	cmp	r5, #0	; 0x0
    843c:	e58dc040 	str	ip, [sp, #64]
    8440:	0a000056 	beq	85a0 <vfnprintf+0xd90>
    8444:	e3550010 	cmp	r5, #16	; 0x10
    8448:	d59de074 	ldrle	lr, [sp, #116]
    844c:	d1a04005 	movle	r4, r5
    8450:	d06c600e 	rsble	r6, ip, lr
    8454:	dafffd79 	ble	7a40 <vfnprintf+0x230>
    8458:	e59d0074 	ldr	r0, [sp, #116]
    845c:	e59d1040 	ldr	r1, [sp, #64]
    8460:	e0616000 	rsb	r6, r1, r0
    8464:	e3560010 	cmp	r6, #16	; 0x10
    8468:	31a05006 	movcc	r5, r6
    846c:	23a05010 	movcs	r5, #16	; 0x10
    8470:	e59d4054 	ldr	r4, [sp, #84]
    8474:	ea000004 	b	848c <vfnprintf+0xc7c>
    8478:	e59d3300 	ldr	r3, [sp, #768]
    847c:	e353000f 	cmp	r3, #15	; 0xf
    8480:	9a00008d 	bls	86bc <vfnprintf+0xeac>
    8484:	e3540010 	cmp	r4, #16	; 0x10
    8488:	dafffd6c 	ble	7a40 <vfnprintf+0x230>
    848c:	e58d5300 	str	r5, [sp, #768]
    8490:	e59ac000 	ldr	ip, [sl]
    8494:	e1a0000a 	mov	r0, sl
    8498:	e59f1524 	ldr	r1, [pc, #1316]	; 89c4 <vfnprintf+0x11b4>
    849c:	e1a02005 	mov	r2, r5
    84a0:	e1a03007 	mov	r3, r7
    84a4:	e1a0e00f 	mov	lr, pc
    84a8:	e59cf008 	ldr	pc, [ip, #8]
    84ac:	e3500000 	cmp	r0, #0	; 0x0
    84b0:	e2444010 	sub	r4, r4, #16	; 0x10
    84b4:	0affffef 	beq	8478 <vfnprintf+0xc68>
    84b8:	eafffd72 	b	7a88 <vfnprintf+0x278>
    84bc:	e59dc074 	ldr	ip, [sp, #116]
    84c0:	e59de040 	ldr	lr, [sp, #64]
    84c4:	e06e200c 	rsb	r2, lr, ip
    84c8:	e3520001 	cmp	r2, #1	; 0x1
    84cc:	23a02001 	movcs	r2, #1	; 0x1
    84d0:	e28d1fc1 	add	r1, sp, #772	; 0x304
    84d4:	e58d2300 	str	r2, [sp, #768]
    84d8:	e59ac000 	ldr	ip, [sl]
    84dc:	e1a0000a 	mov	r0, sl
    84e0:	e2811003 	add	r1, r1, #3	; 0x3
    84e4:	e1a03007 	mov	r3, r7
    84e8:	e1a0e00f 	mov	lr, pc
    84ec:	e59cf008 	ldr	pc, [ip, #8]
    84f0:	e3500000 	cmp	r0, #0	; 0x0
    84f4:	1afffd63 	bne	7a88 <vfnprintf+0x278>
    84f8:	e59d3300 	ldr	r3, [sp, #768]
    84fc:	e3530000 	cmp	r3, #0	; 0x0
    8500:	0afffd60 	beq	7a88 <vfnprintf+0x278>
    8504:	e59d0040 	ldr	r0, [sp, #64]
    8508:	e59de034 	ldr	lr, [sp, #52]
    850c:	e2800001 	add	r0, r0, #1	; 0x1
    8510:	e35e0080 	cmp	lr, #128	; 0x80
    8514:	e58d0040 	str	r0, [sp, #64]
    8518:	1affff7d 	bne	8314 <vfnprintf+0xb04>
    851c:	e59d0044 	ldr	r0, [sp, #68]
    8520:	e59d104c 	ldr	r1, [sp, #76]
    8524:	e0616000 	rsb	r6, r1, r0
    8528:	e3560000 	cmp	r6, #0	; 0x0
    852c:	daffff78 	ble	8314 <vfnprintf+0xb04>
    8530:	e3560010 	cmp	r6, #16	; 0x10
    8534:	da00010a 	ble	8964 <vfnprintf+0x1154>
    8538:	e59d5040 	ldr	r5, [sp, #64]
    853c:	e59d4074 	ldr	r4, [sp, #116]
    8540:	e0654004 	rsb	r4, r5, r4
    8544:	e1a05004 	mov	r5, r4
    8548:	e58d406c 	str	r4, [sp, #108]
    854c:	e3550010 	cmp	r5, #16	; 0x10
    8550:	23a05010 	movcs	r5, #16	; 0x10
    8554:	e1a04006 	mov	r4, r6
    8558:	ea000004 	b	8570 <vfnprintf+0xd60>
    855c:	e59d3300 	ldr	r3, [sp, #768]
    8560:	e353000f 	cmp	r3, #15	; 0xf
    8564:	9a000037 	bls	8648 <vfnprintf+0xe38>
    8568:	e3540010 	cmp	r4, #16	; 0x10
    856c:	da000101 	ble	8978 <vfnprintf+0x1168>
    8570:	e58d5300 	str	r5, [sp, #768]
    8574:	e59ac000 	ldr	ip, [sl]
    8578:	e1a0000a 	mov	r0, sl
    857c:	e59f1440 	ldr	r1, [pc, #1088]	; 89c4 <vfnprintf+0x11b4>
    8580:	e1a02005 	mov	r2, r5
    8584:	e1a03007 	mov	r3, r7
    8588:	e1a0e00f 	mov	lr, pc
    858c:	e59cf008 	ldr	pc, [ip, #8]
    8590:	e3500000 	cmp	r0, #0	; 0x0
    8594:	e2444010 	sub	r4, r4, #16	; 0x10
    8598:	0affffef 	beq	855c <vfnprintf+0xd4c>
    859c:	eafffd39 	b	7a88 <vfnprintf+0x278>
    85a0:	e28d503c 	add	r5, sp, #60	; 0x3c
    85a4:	e8951020 	ldm	r5, {r5, ip}
    85a8:	e59de054 	ldr	lr, [sp, #84]
    85ac:	e3150004 	tst	r5, #4	; 0x4
    85b0:	e08cc00e 	add	ip, ip, lr
    85b4:	e58dc040 	str	ip, [sp, #64]
    85b8:	0afffc9f 	beq	783c <vfnprintf+0x2c>
    85bc:	e59d0044 	ldr	r0, [sp, #68]
    85c0:	e59d104c 	ldr	r1, [sp, #76]
    85c4:	e0616000 	rsb	r6, r1, r0
    85c8:	e3560000 	cmp	r6, #0	; 0x0
    85cc:	dafffc9a 	ble	783c <vfnprintf+0x2c>
    85d0:	e3560010 	cmp	r6, #16	; 0x10
    85d4:	d59d2074 	ldrle	r2, [sp, #116]
    85d8:	d1a04006 	movle	r4, r6
    85dc:	d06c8002 	rsble	r8, ip, r2
    85e0:	da0002b5 	ble	90bc <vfnprintf+0x18ac>
    85e4:	e59d4040 	ldr	r4, [sp, #64]
    85e8:	e59d3074 	ldr	r3, [sp, #116]
    85ec:	e0648003 	rsb	r8, r4, r3
    85f0:	e3580010 	cmp	r8, #16	; 0x10
    85f4:	31a05008 	movcc	r5, r8
    85f8:	23a05010 	movcs	r5, #16	; 0x10
    85fc:	e1a04006 	mov	r4, r6
    8600:	ea000004 	b	8618 <vfnprintf+0xe08>
    8604:	e59d3300 	ldr	r3, [sp, #768]
    8608:	e353000f 	cmp	r3, #15	; 0xf
    860c:	9a0002d0 	bls	9154 <vfnprintf+0x1944>
    8610:	e3540010 	cmp	r4, #16	; 0x10
    8614:	da0002a8 	ble	90bc <vfnprintf+0x18ac>
    8618:	e58d5300 	str	r5, [sp, #768]
    861c:	e59ac000 	ldr	ip, [sl]
    8620:	e1a0000a 	mov	r0, sl
    8624:	e59f13a0 	ldr	r1, [pc, #928]	; 89cc <vfnprintf+0x11bc>
    8628:	e1a02005 	mov	r2, r5
    862c:	e1a03007 	mov	r3, r7
    8630:	e1a0e00f 	mov	lr, pc
    8634:	e59cf008 	ldr	pc, [ip, #8]
    8638:	e3500000 	cmp	r0, #0	; 0x0
    863c:	e2444010 	sub	r4, r4, #16	; 0x10
    8640:	0affffef 	beq	8604 <vfnprintf+0xdf4>
    8644:	eafffd0f 	b	7a88 <vfnprintf+0x278>
    8648:	e59dc040 	ldr	ip, [sp, #64]
    864c:	e083c00c 	add	ip, r3, ip
    8650:	e58dc040 	str	ip, [sp, #64]
    8654:	eafffd0b 	b	7a88 <vfnprintf+0x278>
    8658:	e59d3074 	ldr	r3, [sp, #116]
    865c:	e59d4040 	ldr	r4, [sp, #64]
    8660:	e59d5038 	ldr	r5, [sp, #56]
    8664:	e0642003 	rsb	r2, r4, r3
    8668:	e3a03030 	mov	r3, #48	; 0x30
    866c:	e5cd3304 	strb	r3, [sp, #772]
    8670:	e5cd5305 	strb	r5, [sp, #773]
    8674:	e3520002 	cmp	r2, #2	; 0x2
    8678:	23a02002 	movcs	r2, #2	; 0x2
    867c:	e58d2300 	str	r2, [sp, #768]
    8680:	e59ac000 	ldr	ip, [sl]
    8684:	e1a0000a 	mov	r0, sl
    8688:	e28d1fc1 	add	r1, sp, #772	; 0x304
    868c:	e1a03007 	mov	r3, r7
    8690:	e1a0e00f 	mov	lr, pc
    8694:	e59cf008 	ldr	pc, [ip, #8]
    8698:	e3500000 	cmp	r0, #0	; 0x0
    869c:	1afffcf9 	bne	7a88 <vfnprintf+0x278>
    86a0:	e59d3300 	ldr	r3, [sp, #768]
    86a4:	e3530001 	cmp	r3, #1	; 0x1
    86a8:	9afffcf4 	bls	7a80 <vfnprintf+0x270>
    86ac:	e59dc040 	ldr	ip, [sp, #64]
    86b0:	e28cc002 	add	ip, ip, #2	; 0x2
    86b4:	e58dc040 	str	ip, [sp, #64]
    86b8:	eaffff12 	b	8308 <vfnprintf+0xaf8>
    86bc:	e59d2040 	ldr	r2, [sp, #64]
    86c0:	e0832002 	add	r2, r3, r2
    86c4:	e58d2040 	str	r2, [sp, #64]
    86c8:	eafffcee 	b	7a88 <vfnprintf+0x278>
    86cc:	e28d9f6f 	add	r9, sp, #444	; 0x1bc
    86d0:	e1a02226 	lsr	r2, r6, #4
    86d4:	e1822e07 	orr	r2, r2, r7, lsl #28
    86d8:	e59d5050 	ldr	r5, [sp, #80]
    86dc:	e1a01227 	lsr	r1, r7, #4
    86e0:	e1a03002 	mov	r3, r2
    86e4:	e206200f 	and	r2, r6, #15	; 0xf
    86e8:	e1a04001 	mov	r4, r1
    86ec:	e7d51002 	ldrb	r1, [r5, r2]
    86f0:	e193c004 	orrs	ip, r3, r4
    86f4:	e1a06003 	mov	r6, r3
    86f8:	e1a07004 	mov	r7, r4
    86fc:	e5691001 	strb	r1, [r9, #-1]!
    8700:	1afffff2 	bne	86d0 <vfnprintf+0xec0>
    8704:	e59de014 	ldr	lr, [sp, #20]
    8708:	e069b00e 	rsb	fp, r9, lr
    870c:	eafffd76 	b	7cec <vfnprintf+0x4dc>
    8710:	e59d203c 	ldr	r2, [sp, #60]
    8714:	e3120020 	tst	r2, #32	; 0x20
    8718:	0a000079 	beq	8904 <vfnprintf+0x10f4>
    871c:	e3570000 	cmp	r7, #0	; 0x0
    8720:	0a0000cc 	beq	8a58 <vfnprintf+0x1248>
    8724:	e28dbf6f 	add	fp, sp, #444	; 0x1bc
    8728:	e1a00006 	mov	r0, r6
    872c:	e1a01007 	mov	r1, r7
    8730:	e3a0200a 	mov	r2, #10	; 0xa
    8734:	e3a03000 	mov	r3, #0	; 0x0
    8738:	eb001884 	bl	e950 <__aeabi_uldivmod>
    873c:	e1a08000 	mov	r8, r0
    8740:	e1a09001 	mov	r9, r1
    8744:	e0901008 	adds	r1, r0, r8
    8748:	e0a92009 	adc	r2, r9, r9
    874c:	e1a0e102 	lsl	lr, r2, #2
    8750:	e18e0f21 	orr	r0, lr, r1, lsr #30
    8754:	e1a03101 	lsl	r3, r1, #2
    8758:	e58de024 	str	lr, [sp, #36]
    875c:	e58d3020 	str	r3, [sp, #32]
    8760:	e58d0024 	str	r0, [sp, #36]
    8764:	e28d3020 	add	r3, sp, #32	; 0x20
    8768:	e8930018 	ldm	r3, {r3, r4}
    876c:	e2860030 	add	r0, r6, #48	; 0x30
    8770:	e0911003 	adds	r1, r1, r3
    8774:	e0610000 	rsb	r0, r1, r0
    8778:	e3590000 	cmp	r9, #0	; 0x0
    877c:	e1a05008 	mov	r5, r8
    8780:	e56b0001 	strb	r0, [fp, #-1]!
    8784:	e1a06008 	mov	r6, r8
    8788:	e1a07009 	mov	r7, r9
    878c:	1affffe5 	bne	8728 <vfnprintf+0xf18>
    8790:	e3580009 	cmp	r8, #9	; 0x9
    8794:	8affffe3 	bhi	8728 <vfnprintf+0xf18>
    8798:	e24b9001 	sub	r9, fp, #1	; 0x1
    879c:	e1a06008 	mov	r6, r8
    87a0:	e2863030 	add	r3, r6, #48	; 0x30
    87a4:	e5c93000 	strb	r3, [r9]
    87a8:	e59d4014 	ldr	r4, [sp, #20]
    87ac:	e069b004 	rsb	fp, r9, r4
    87b0:	eafffd4d 	b	7cec <vfnprintf+0x4dc>
    87b4:	e59d303c 	ldr	r3, [sp, #60]
    87b8:	e3130010 	tst	r3, #16	; 0x10
    87bc:	1a00000b 	bne	87f0 <vfnprintf+0xfe0>
    87c0:	e59d403c 	ldr	r4, [sp, #60]
    87c4:	e3140040 	tst	r4, #64	; 0x40
    87c8:	0a000008 	beq	87f0 <vfnprintf+0xfe0>
    87cc:	e5953000 	ldr	r3, [r5]
    87d0:	e1a03803 	lsl	r3, r3, #16
    87d4:	e1a03823 	lsr	r3, r3, #16
    87d8:	e2855004 	add	r5, r5, #4	; 0x4
    87dc:	e1a06003 	mov	r6, r3
    87e0:	e3a07000 	mov	r7, #0	; 0x0
    87e4:	e58d502c 	str	r5, [sp, #44]
    87e8:	e3a0c001 	mov	ip, #1	; 0x1
    87ec:	eafffcd3 	b	7b40 <vfnprintf+0x330>
    87f0:	e5953000 	ldr	r3, [r5]
    87f4:	e2855004 	add	r5, r5, #4	; 0x4
    87f8:	e1a06003 	mov	r6, r3
    87fc:	e3a07000 	mov	r7, #0	; 0x0
    8800:	e58d502c 	str	r5, [sp, #44]
    8804:	e3a0c001 	mov	ip, #1	; 0x1
    8808:	eafffccc 	b	7b40 <vfnprintf+0x330>
    880c:	e59de03c 	ldr	lr, [sp, #60]
    8810:	e21e2010 	ands	r2, lr, #16	; 0x10
    8814:	1a00000b 	bne	8848 <vfnprintf+0x1038>
    8818:	e59d003c 	ldr	r0, [sp, #60]
    881c:	e210c040 	ands	ip, r0, #64	; 0x40
    8820:	0a000238 	beq	9108 <vfnprintf+0x18f8>
    8824:	e5953000 	ldr	r3, [r5]
    8828:	e1a03803 	lsl	r3, r3, #16
    882c:	e1a03823 	lsr	r3, r3, #16
    8830:	e2855004 	add	r5, r5, #4	; 0x4
    8834:	e1a06003 	mov	r6, r3
    8838:	e3a07000 	mov	r7, #0	; 0x0
    883c:	e1a0c002 	mov	ip, r2
    8840:	e58d502c 	str	r5, [sp, #44]
    8844:	eafffcbd 	b	7b40 <vfnprintf+0x330>
    8848:	e5953000 	ldr	r3, [r5]
    884c:	e2855004 	add	r5, r5, #4	; 0x4
    8850:	e1a06003 	mov	r6, r3
    8854:	e3a07000 	mov	r7, #0	; 0x0
    8858:	e58d502c 	str	r5, [sp, #44]
    885c:	eafffcb7 	b	7b40 <vfnprintf+0x330>
    8860:	e59de03c 	ldr	lr, [sp, #60]
    8864:	e31e0010 	tst	lr, #16	; 0x10
    8868:	1a00000a 	bne	8898 <vfnprintf+0x1088>
    886c:	e59d003c 	ldr	r0, [sp, #60]
    8870:	e3100040 	tst	r0, #64	; 0x40
    8874:	0a000007 	beq	8898 <vfnprintf+0x1088>
    8878:	e5953000 	ldr	r3, [r5]
    887c:	e1a03803 	lsl	r3, r3, #16
    8880:	e1a03843 	asr	r3, r3, #16
    8884:	e2855004 	add	r5, r5, #4	; 0x4
    8888:	e1a06003 	mov	r6, r3
    888c:	e1a07fc6 	asr	r7, r6, #31
    8890:	e58d502c 	str	r5, [sp, #44]
    8894:	eafffd2c 	b	7d4c <vfnprintf+0x53c>
    8898:	e5953000 	ldr	r3, [r5]
    889c:	e2855004 	add	r5, r5, #4	; 0x4
    88a0:	e1a06003 	mov	r6, r3
    88a4:	e1a07fc6 	asr	r7, r6, #31
    88a8:	e58d502c 	str	r5, [sp, #44]
    88ac:	eafffd26 	b	7d4c <vfnprintf+0x53c>
    88b0:	e59d203c 	ldr	r2, [sp, #60]
    88b4:	e3120010 	tst	r2, #16	; 0x10
    88b8:	1a00000b 	bne	88ec <vfnprintf+0x10dc>
    88bc:	e59d303c 	ldr	r3, [sp, #60]
    88c0:	e3130040 	tst	r3, #64	; 0x40
    88c4:	059d403c 	ldreq	r4, [sp, #60]
    88c8:	0a000007 	beq	88ec <vfnprintf+0x10dc>
    88cc:	e5953000 	ldr	r3, [r5]
    88d0:	e1a03803 	lsl	r3, r3, #16
    88d4:	e1a03823 	lsr	r3, r3, #16
    88d8:	e2855004 	add	r5, r5, #4	; 0x4
    88dc:	e1a06003 	mov	r6, r3
    88e0:	e3a07000 	mov	r7, #0	; 0x0
    88e4:	e58d502c 	str	r5, [sp, #44]
    88e8:	eafffd67 	b	7e8c <vfnprintf+0x67c>
    88ec:	e5953000 	ldr	r3, [r5]
    88f0:	e2855004 	add	r5, r5, #4	; 0x4
    88f4:	e1a06003 	mov	r6, r3
    88f8:	e3a07000 	mov	r7, #0	; 0x0
    88fc:	e58d502c 	str	r5, [sp, #44]
    8900:	eafffd61 	b	7e8c <vfnprintf+0x67c>
    8904:	e3560009 	cmp	r6, #9	; 0x9
    8908:	928d9f6f 	addls	r9, sp, #444	; 0x1bc
    890c:	e1a0c006 	mov	ip, r6
    8910:	92499001 	subls	r9, r9, #1	; 0x1
    8914:	9a00000d 	bls	8950 <vfnprintf+0x1140>
    8918:	e28def6f 	add	lr, sp, #444	; 0x1bc
    891c:	e59f40b8 	ldr	r4, [pc, #184]	; 89dc <vfnprintf+0x11cc>
    8920:	e0835c94 	umull	r5, r3, r4, ip
    8924:	e1a031a3 	lsr	r3, r3, #3
    8928:	e1a00083 	lsl	r0, r3, #1
    892c:	e1a02183 	lsl	r2, r3, #3
    8930:	e28c1030 	add	r1, ip, #48	; 0x30
    8934:	e0800002 	add	r0, r0, r2
    8938:	e0601001 	rsb	r1, r0, r1
    893c:	e3530009 	cmp	r3, #9	; 0x9
    8940:	e1a0c003 	mov	ip, r3
    8944:	e56e1001 	strb	r1, [lr, #-1]!
    8948:	8afffff3 	bhi	891c <vfnprintf+0x110c>
    894c:	e24e9001 	sub	r9, lr, #1	; 0x1
    8950:	e28c3030 	add	r3, ip, #48	; 0x30
    8954:	e5c93000 	strb	r3, [r9]
    8958:	e59dc014 	ldr	ip, [sp, #20]
    895c:	e069b00c 	rsb	fp, r9, ip
    8960:	eafffce1 	b	7cec <vfnprintf+0x4dc>
    8964:	e59d2074 	ldr	r2, [sp, #116]
    8968:	e59d3040 	ldr	r3, [sp, #64]
    896c:	e0632002 	rsb	r2, r3, r2
    8970:	e58d206c 	str	r2, [sp, #108]
    8974:	e1a04006 	mov	r4, r6
    8978:	e59d206c 	ldr	r2, [sp, #108]
    897c:	e1540002 	cmp	r4, r2
    8980:	31a02004 	movcc	r2, r4
    8984:	e58d2300 	str	r2, [sp, #768]
    8988:	e59ac000 	ldr	ip, [sl]
    898c:	e1a0000a 	mov	r0, sl
    8990:	e59f102c 	ldr	r1, [pc, #44]	; 89c4 <vfnprintf+0x11b4>
    8994:	e1a03007 	mov	r3, r7
    8998:	e1a0e00f 	mov	lr, pc
    899c:	e59cf008 	ldr	pc, [ip, #8]
    89a0:	e3500000 	cmp	r0, #0	; 0x0
    89a4:	1afffc37 	bne	7a88 <vfnprintf+0x278>
    89a8:	e59d3300 	ldr	r3, [sp, #768]
    89ac:	e1540003 	cmp	r4, r3
    89b0:	8a00002f 	bhi	8a74 <vfnprintf+0x1264>
    89b4:	e59d0040 	ldr	r0, [sp, #64]
    89b8:	e0800006 	add	r0, r0, r6
    89bc:	e58d0040 	str	r0, [sp, #64]
    89c0:	eafffe53 	b	8314 <vfnprintf+0xb04>
    89c4:	400007cc 	.word	0x400007cc
    89c8:	0000f6a8 	.word	0x0000f6a8
    89cc:	400007dc 	.word	0x400007dc
    89d0:	0000f638 	.word	0x0000f638
    89d4:	0000f5f8 	.word	0x0000f5f8
    89d8:	0000f6a0 	.word	0x0000f6a0
    89dc:	cccccccd 	.word	0xcccccccd
    89e0:	e59d1040 	ldr	r1, [sp, #64]
    89e4:	e5952000 	ldr	r2, [r5]
    89e8:	e1a03001 	mov	r3, r1
    89ec:	e1a04fc3 	asr	r4, r3, #31
    89f0:	e2855004 	add	r5, r5, #4	; 0x4
    89f4:	e8820018 	stm	r2, {r3, r4}
    89f8:	e58d502c 	str	r5, [sp, #44]
    89fc:	eafffb8e 	b	783c <vfnprintf+0x2c>
    8a00:	e59d5038 	ldr	r5, [sp, #56]
    8a04:	e3550067 	cmp	r5, #103	; 0x67
    8a08:	13550047 	cmpne	r5, #71	; 0x47
    8a0c:	1a000005 	bne	8a28 <vfnprintf+0x1218>
    8a10:	e59dc03c 	ldr	ip, [sp, #60]
    8a14:	e21c9001 	ands	r9, ip, #1	; 0x1
    8a18:	03a0e00f 	moveq	lr, #15	; 0xf
    8a1c:	058d9054 	streq	r9, [sp, #84]
    8a20:	058de05c 	streq	lr, [sp, #92]
    8a24:	0afffd7e 	beq	8024 <vfnprintf+0x814>
    8a28:	e59d005c 	ldr	r0, [sp, #92]
    8a2c:	e3a0100f 	mov	r1, #15	; 0xf
    8a30:	e240000f 	sub	r0, r0, #15	; 0xf
    8a34:	e58d0054 	str	r0, [sp, #84]
    8a38:	e58d105c 	str	r1, [sp, #92]
    8a3c:	eafffd78 	b	8024 <vfnprintf+0x814>
    8a40:	e59d1058 	ldr	r1, [sp, #88]
    8a44:	e1a03005 	mov	r3, r5
    8a48:	e5d12000 	ldrb	r2, [r1]
    8a4c:	e1a0c001 	mov	ip, r1
    8a50:	e1a05003 	mov	r5, r3
    8a54:	eafffb96 	b	78b4 <vfnprintf+0xa4>
    8a58:	e3560009 	cmp	r6, #9	; 0x9
    8a5c:	928d9f6f 	addls	r9, sp, #444	; 0x1bc
    8a60:	92499001 	subls	r9, r9, #1	; 0x1
    8a64:	9affff4d 	bls	87a0 <vfnprintf+0xf90>
    8a68:	eaffff2d 	b	8724 <vfnprintf+0xf14>
    8a6c:	e3a06001 	mov	r6, #1	; 0x1
    8a70:	eafffd86 	b	8090 <vfnprintf+0x880>
    8a74:	e59de040 	ldr	lr, [sp, #64]
    8a78:	e083e00e 	add	lr, r3, lr
    8a7c:	e58de040 	str	lr, [sp, #64]
    8a80:	eafffc00 	b	7a88 <vfnprintf+0x278>
    8a84:	e59d5054 	ldr	r5, [sp, #84]
    8a88:	e59d901c 	ldr	r9, [sp, #28]
    8a8c:	e08b2005 	add	r2, fp, r5
    8a90:	e3a08000 	mov	r8, #0	; 0x0
    8a94:	eafffc48 	b	7bbc <vfnprintf+0x3ac>
    8a98:	e59d003c 	ldr	r0, [sp, #60]
    8a9c:	e3800020 	orr	r0, r0, #32	; 0x20
    8aa0:	e58d003c 	str	r0, [sp, #60]
    8aa4:	e1a03005 	mov	r3, r5
    8aa8:	e5dc2001 	ldrb	r2, [ip, #1]
    8aac:	e1a05003 	mov	r5, r3
    8ab0:	e28cc001 	add	ip, ip, #1	; 0x1
    8ab4:	eafffb7e 	b	78b4 <vfnprintf+0xa4>
    8ab8:	e28d9fbe 	add	r9, sp, #760	; 0x2f8
    8abc:	e1a00007 	mov	r0, r7
    8ac0:	e3a0e000 	mov	lr, #0	; 0x0
    8ac4:	e1a02009 	mov	r2, r9
    8ac8:	e1a01008 	mov	r1, r8
    8acc:	e58de300 	str	lr, [sp, #768]
    8ad0:	eb0003c1 	bl	99dc <modf>
    8ad4:	e28d4fbe 	add	r4, sp, #760	; 0x2f8
    8ad8:	e8940030 	ldm	r4, {r4, r5}
    8adc:	e58d0060 	str	r0, [sp, #96]
    8ae0:	e58d1064 	str	r1, [sp, #100]
    8ae4:	e3a02000 	mov	r2, #0	; 0x0
    8ae8:	e3a03000 	mov	r3, #0	; 0x0
    8aec:	e1a00004 	mov	r0, r4
    8af0:	e1a01005 	mov	r1, r5
    8af4:	eb001752 	bl	e844 <__aeabi_dcmpeq>
    8af8:	e3500000 	cmp	r0, #0	; 0x0
    8afc:	128d7f6f 	addne	r7, sp, #444	; 0x1bc
    8b00:	128d0078 	addne	r0, sp, #120	; 0x78
    8b04:	12477001 	subne	r7, r7, #1	; 0x1
    8b08:	158d001c 	strne	r0, [sp, #28]
    8b0c:	1a000025 	bne	8ba8 <vfnprintf+0x1398>
    8b10:	e28d1078 	add	r1, sp, #120	; 0x78
    8b14:	e28d6f6f 	add	r6, sp, #444	; 0x1bc
    8b18:	e58d101c 	str	r1, [sp, #28]
    8b1c:	e2466002 	sub	r6, r6, #2	; 0x2
    8b20:	e3a03101 	mov	r3, #1073741824	; 0x40000000
    8b24:	e2833709 	add	r3, r3, #2359296	; 0x240000
    8b28:	e1a00004 	mov	r0, r4
    8b2c:	e1a01005 	mov	r1, r5
    8b30:	e3a02000 	mov	r2, #0	; 0x0
    8b34:	eb00168d 	bl	e570 <__aeabi_ddiv>
    8b38:	e1a02009 	mov	r2, r9
    8b3c:	eb0003a6 	bl	99dc <modf>
    8b40:	e28f2e3d 	add	r2, pc, #976	; 0x3d0
    8b44:	e892000c 	ldm	r2, {r2, r3}
    8b48:	e58d02f0 	str	r0, [sp, #752]
    8b4c:	e58d12f4 	str	r1, [sp, #756]
    8b50:	eb0014de 	bl	ded0 <__adddf3>
    8b54:	e3a03101 	mov	r3, #1073741824	; 0x40000000
    8b58:	e3a02000 	mov	r2, #0	; 0x0
    8b5c:	e2833709 	add	r3, r3, #2359296	; 0x240000
    8b60:	eb0015de 	bl	e2e0 <__aeabi_dmul>
    8b64:	eb001762 	bl	e8f4 <__aeabi_d2iz>
    8b68:	e2800030 	add	r0, r0, #48	; 0x30
    8b6c:	e5c60001 	strb	r0, [r6, #1]
    8b70:	e59d8300 	ldr	r8, [sp, #768]
    8b74:	e28d4fbe 	add	r4, sp, #760	; 0x2f8
    8b78:	e8940030 	ldm	r4, {r4, r5}
    8b7c:	e288c001 	add	ip, r8, #1	; 0x1
    8b80:	e1a00004 	mov	r0, r4
    8b84:	e1a01005 	mov	r1, r5
    8b88:	e3a02000 	mov	r2, #0	; 0x0
    8b8c:	e3a03000 	mov	r3, #0	; 0x0
    8b90:	e58dc300 	str	ip, [sp, #768]
    8b94:	eb00172a 	bl	e844 <__aeabi_dcmpeq>
    8b98:	e3500000 	cmp	r0, #0	; 0x0
    8b9c:	e1a07006 	mov	r7, r6
    8ba0:	e2466001 	sub	r6, r6, #1	; 0x1
    8ba4:	0affffdd 	beq	8b20 <vfnprintf+0x1310>
    8ba8:	e59d2038 	ldr	r2, [sp, #56]
    8bac:	e2423045 	sub	r3, r2, #69	; 0x45
    8bb0:	e3530022 	cmp	r3, #34	; 0x22
    8bb4:	979ff103 	ldrls	pc, [pc, r3, lsl #2]
    8bb8:	ea000022 	b	8c48 <vfnprintf+0x1438>
    8bbc:	00008f28 	.word	0x00008f28
    8bc0:	00008c48 	.word	0x00008c48
    8bc4:	00008d2c 	.word	0x00008d2c
    8bc8:	00008c48 	.word	0x00008c48
    8bcc:	00008c48 	.word	0x00008c48
    8bd0:	00008c48 	.word	0x00008c48
    8bd4:	00008c48 	.word	0x00008c48
    8bd8:	00008c48 	.word	0x00008c48
    8bdc:	00008c48 	.word	0x00008c48
    8be0:	00008c48 	.word	0x00008c48
    8be4:	00008c48 	.word	0x00008c48
    8be8:	00008c48 	.word	0x00008c48
    8bec:	00008c48 	.word	0x00008c48
    8bf0:	00008c48 	.word	0x00008c48
    8bf4:	00008c48 	.word	0x00008c48
    8bf8:	00008c48 	.word	0x00008c48
    8bfc:	00008c48 	.word	0x00008c48
    8c00:	00008c48 	.word	0x00008c48
    8c04:	00008c48 	.word	0x00008c48
    8c08:	00008c48 	.word	0x00008c48
    8c0c:	00008c48 	.word	0x00008c48
    8c10:	00008c48 	.word	0x00008c48
    8c14:	00008c48 	.word	0x00008c48
    8c18:	00008c48 	.word	0x00008c48
    8c1c:	00008c48 	.word	0x00008c48
    8c20:	00008c48 	.word	0x00008c48
    8c24:	00008c48 	.word	0x00008c48
    8c28:	00008c48 	.word	0x00008c48
    8c2c:	00008c48 	.word	0x00008c48
    8c30:	00008c48 	.word	0x00008c48
    8c34:	00008c48 	.word	0x00008c48
    8c38:	00008c48 	.word	0x00008c48
    8c3c:	00008f28 	.word	0x00008f28
    8c40:	00008c54 	.word	0x00008c54
    8c44:	00008d2c 	.word	0x00008d2c
    8c48:	e3a0b000 	mov	fp, #0	; 0x0
    8c4c:	e28d7c03 	add	r7, sp, #768	; 0x300
    8c50:	eafffd27 	b	80f4 <vfnprintf+0x8e4>
    8c54:	e59d3300 	ldr	r3, [sp, #768]
    8c58:	e3530000 	cmp	r3, #0	; 0x0
    8c5c:	0a000214 	beq	94b4 <vfnprintf+0x1ca4>
    8c60:	e59d4014 	ldr	r4, [sp, #20]
    8c64:	e2873001 	add	r3, r7, #1	; 0x1
    8c68:	e1540003 	cmp	r4, r3
    8c6c:	959d501c 	ldrls	r5, [sp, #28]
    8c70:	92854001 	addls	r4, r5, #1	; 0x1
    8c74:	9a00000a 	bls	8ca4 <vfnprintf+0x1494>
    8c78:	e59dc01c 	ldr	ip, [sp, #28]
    8c7c:	e28c0d05 	add	r0, ip, #320	; 0x140
    8c80:	e1a01007 	mov	r1, r7
    8c84:	e2800003 	add	r0, r0, #3	; 0x3
    8c88:	e28c2002 	add	r2, ip, #2	; 0x2
    8c8c:	e5f13001 	ldrb	r3, [r1, #1]!
    8c90:	e1510000 	cmp	r1, r0
    8c94:	e5423001 	strb	r3, [r2, #-1]
    8c98:	e1a04002 	mov	r4, r2
    8c9c:	e2822001 	add	r2, r2, #1	; 0x1
    8ca0:	1afffff9 	bne	8c8c <vfnprintf+0x147c>
    8ca4:	e59d005c 	ldr	r0, [sp, #92]
    8ca8:	e3500000 	cmp	r0, #0	; 0x0
    8cac:	1a000002 	bne	8cbc <vfnprintf+0x14ac>
    8cb0:	e59d103c 	ldr	r1, [sp, #60]
    8cb4:	e3110001 	tst	r1, #1	; 0x1
    8cb8:	0a000001 	beq	8cc4 <vfnprintf+0x14b4>
    8cbc:	e3a0302e 	mov	r3, #46	; 0x2e
    8cc0:	e4c43001 	strb	r3, [r4], #1
    8cc4:	e28d0060 	add	r0, sp, #96	; 0x60
    8cc8:	e8900003 	ldm	r0, {r0, r1}
    8ccc:	e3a02000 	mov	r2, #0	; 0x0
    8cd0:	e3a03000 	mov	r3, #0	; 0x0
    8cd4:	eb0016da 	bl	e844 <__aeabi_dcmpeq>
    8cd8:	e3500000 	cmp	r0, #0	; 0x0
    8cdc:	0a0001dc 	beq	9454 <vfnprintf+0x1c44>
    8ce0:	e59d205c 	ldr	r2, [sp, #92]
    8ce4:	e3520000 	cmp	r2, #0	; 0x0
    8ce8:	059d301c 	ldreq	r3, [sp, #28]
    8cec:	e2422001 	sub	r2, r2, #1	; 0x1
    8cf0:	02830001 	addeq	r0, r3, #1	; 0x1
    8cf4:	0a0001e4 	beq	948c <vfnprintf+0x1c7c>
    8cf8:	e2822001 	add	r2, r2, #1	; 0x1
    8cfc:	e3a01000 	mov	r1, #0	; 0x0
    8d00:	e3a03030 	mov	r3, #48	; 0x30
    8d04:	e7c43001 	strb	r3, [r4, r1]
    8d08:	e2811001 	add	r1, r1, #1	; 0x1
    8d0c:	e1510002 	cmp	r1, r2
    8d10:	1afffffb 	bne	8d04 <vfnprintf+0x14f4>
    8d14:	e59dc01c 	ldr	ip, [sp, #28]
    8d18:	e0842001 	add	r2, r4, r1
    8d1c:	e28c3001 	add	r3, ip, #1	; 0x1
    8d20:	e063b002 	rsb	fp, r3, r2
    8d24:	e28d7c03 	add	r7, sp, #768	; 0x300
    8d28:	eafffcf1 	b	80f4 <vfnprintf+0x8e4>
    8d2c:	e59d305c 	ldr	r3, [sp, #92]
    8d30:	e59d8300 	ldr	r8, [sp, #768]
    8d34:	e3530000 	cmp	r3, #0	; 0x0
    8d38:	e1a04003 	mov	r4, r3
    8d3c:	03a03001 	moveq	r3, #1	; 0x1
    8d40:	e1580003 	cmp	r8, r3
    8d44:	e58d305c 	str	r3, [sp, #92]
    8d48:	ca0001d2 	bgt	9498 <vfnprintf+0x1c88>
    8d4c:	e3580000 	cmp	r8, #0	; 0x0
    8d50:	0a00027d 	beq	974c <vfnprintf+0x1f3c>
    8d54:	e59d5014 	ldr	r5, [sp, #20]
    8d58:	e2873001 	add	r3, r7, #1	; 0x1
    8d5c:	e1550003 	cmp	r5, r3
    8d60:	959dc01c 	ldrls	ip, [sp, #28]
    8d64:	928c6001 	addls	r6, ip, #1	; 0x1
    8d68:	9a000010 	bls	8db0 <vfnprintf+0x15a0>
    8d6c:	e59d101c 	ldr	r1, [sp, #28]
    8d70:	e2810d05 	add	r0, r1, #320	; 0x140
    8d74:	e2800003 	add	r0, r0, #3	; 0x3
    8d78:	e2811002 	add	r1, r1, #2	; 0x2
    8d7c:	e1a02007 	mov	r2, r7
    8d80:	e5f23001 	ldrb	r3, [r2, #1]!
    8d84:	e1520000 	cmp	r2, r0
    8d88:	e1a06001 	mov	r6, r1
    8d8c:	e5413001 	strb	r3, [r1, #-1]
    8d90:	e2811001 	add	r1, r1, #1	; 0x1
    8d94:	1afffff9 	bne	8d80 <vfnprintf+0x1570>
    8d98:	e59d2014 	ldr	r2, [sp, #20]
    8d9c:	e59d405c 	ldr	r4, [sp, #92]
    8da0:	e0623007 	rsb	r3, r2, r7
    8da4:	e2833001 	add	r3, r3, #1	; 0x1
    8da8:	e0844003 	add	r4, r4, r3
    8dac:	e58d405c 	str	r4, [sp, #92]
    8db0:	e59dc05c 	ldr	ip, [sp, #92]
    8db4:	e35c0000 	cmp	ip, #0	; 0x0
    8db8:	159de03c 	ldrne	lr, [sp, #60]
    8dbc:	120e9001 	andne	r9, lr, #1	; 0x1
    8dc0:	1a000003 	bne	8dd4 <vfnprintf+0x15c4>
    8dc4:	e59d003c 	ldr	r0, [sp, #60]
    8dc8:	e2109001 	ands	r9, r0, #1	; 0x1
    8dcc:	059d705c 	ldreq	r7, [sp, #92]
    8dd0:	0a000002 	beq	8de0 <vfnprintf+0x15d0>
    8dd4:	e3a0302e 	mov	r3, #46	; 0x2e
    8dd8:	e4c63001 	strb	r3, [r6], #1
    8ddc:	e3a07001 	mov	r7, #1	; 0x1
    8de0:	e28d0060 	add	r0, sp, #96	; 0x60
    8de4:	e8900003 	ldm	r0, {r0, r1}
    8de8:	e3a02000 	mov	r2, #0	; 0x0
    8dec:	e3a03000 	mov	r3, #0	; 0x0
    8df0:	eb001693 	bl	e844 <__aeabi_dcmpeq>
    8df4:	e3500000 	cmp	r0, #0	; 0x0
    8df8:	159d101c 	ldrne	r1, [sp, #28]
    8dfc:	12810001 	addne	r0, r1, #1	; 0x1
    8e00:	1a000033 	bne	8ed4 <vfnprintf+0x16c4>
    8e04:	e59d205c 	ldr	r2, [sp, #92]
    8e08:	e3520000 	cmp	r2, #0	; 0x0
    8e0c:	0a000023 	beq	8ea0 <vfnprintf+0x1690>
    8e10:	e28d8e2f 	add	r8, sp, #752	; 0x2f0
    8e14:	e3a03101 	mov	r3, #1073741824	; 0x40000000
    8e18:	e2833709 	add	r3, r3, #2359296	; 0x240000
    8e1c:	e28d0060 	add	r0, sp, #96	; 0x60
    8e20:	e8900003 	ldm	r0, {r0, r1}
    8e24:	e3a02000 	mov	r2, #0	; 0x0
    8e28:	eb00152c 	bl	e2e0 <__aeabi_dmul>
    8e2c:	e1a02008 	mov	r2, r8
    8e30:	eb0002e9 	bl	99dc <modf>
    8e34:	e28d4e2f 	add	r4, sp, #752	; 0x2f0
    8e38:	e8940030 	ldm	r4, {r4, r5}
    8e3c:	e58d0060 	str	r0, [sp, #96]
    8e40:	e58d1064 	str	r1, [sp, #100]
    8e44:	e1a01005 	mov	r1, r5
    8e48:	e1a00004 	mov	r0, r4
    8e4c:	eb0016a8 	bl	e8f4 <__aeabi_d2iz>
    8e50:	e2800030 	add	r0, r0, #48	; 0x30
    8e54:	e4c60001 	strb	r0, [r6], #1
    8e58:	e1a01005 	mov	r1, r5
    8e5c:	e1a00004 	mov	r0, r4
    8e60:	e3a02000 	mov	r2, #0	; 0x0
    8e64:	e3a03000 	mov	r3, #0	; 0x0
    8e68:	eb001675 	bl	e844 <__aeabi_dcmpeq>
    8e6c:	e3500000 	cmp	r0, #0	; 0x0
    8e70:	1affffe7 	bne	8e14 <vfnprintf+0x1604>
    8e74:	e59d305c 	ldr	r3, [sp, #92]
    8e78:	e2533001 	subs	r3, r3, #1	; 0x1
    8e7c:	e58d305c 	str	r3, [sp, #92]
    8e80:	1a00014f 	bne	93c4 <vfnprintf+0x1bb4>
    8e84:	e28d0060 	add	r0, sp, #96	; 0x60
    8e88:	e8900003 	ldm	r0, {r0, r1}
    8e8c:	e3a02000 	mov	r2, #0	; 0x0
    8e90:	e3a03000 	mov	r3, #0	; 0x0
    8e94:	eb00166a 	bl	e844 <__aeabi_dcmpeq>
    8e98:	e3500000 	cmp	r0, #0	; 0x0
    8e9c:	1a000248 	bne	97c4 <vfnprintf+0x1fb4>
    8ea0:	e59d401c 	ldr	r4, [sp, #28]
    8ea4:	e28dcfc1 	add	ip, sp, #772	; 0x304
    8ea8:	e246e001 	sub	lr, r6, #1	; 0x1
    8eac:	e3a02000 	mov	r2, #0	; 0x0
    8eb0:	e28cc002 	add	ip, ip, #2	; 0x2
    8eb4:	e28d0060 	add	r0, sp, #96	; 0x60
    8eb8:	e8900003 	ldm	r0, {r0, r1}
    8ebc:	e2843001 	add	r3, r4, #1	; 0x1
    8ec0:	e3a05000 	mov	r5, #0	; 0x0
    8ec4:	e58de000 	str	lr, [sp]
    8ec8:	e98d1004 	stmib	sp, {r2, ip}
    8ecc:	ebfffa04 	bl	76e4 <_ZL5rounddPiPcS0_cS0_>
    8ed0:	e58d505c 	str	r5, [sp, #92]
    8ed4:	e3590000 	cmp	r9, #0	; 0x0
    8ed8:	0a0001ce 	beq	9618 <vfnprintf+0x1e08>
    8edc:	e59dc05c 	ldr	ip, [sp, #92]
    8ee0:	e35c0000 	cmp	ip, #0	; 0x0
    8ee4:	13a03000 	movne	r3, #0	; 0x0
    8ee8:	13a02030 	movne	r2, #48	; 0x30
    8eec:	0a0001d7 	beq	9650 <vfnprintf+0x1e40>
    8ef0:	e7c62003 	strb	r2, [r6, r3]
    8ef4:	e59de05c 	ldr	lr, [sp, #92]
    8ef8:	e2833001 	add	r3, r3, #1	; 0x1
    8efc:	e153000e 	cmp	r3, lr
    8f00:	1afffffa 	bne	8ef0 <vfnprintf+0x16e0>
    8f04:	e0863003 	add	r3, r6, r3
    8f08:	e060b003 	rsb	fp, r0, r3
    8f0c:	e28d7c03 	add	r7, sp, #768	; 0x300
    8f10:	eafffc77 	b	80f4 <vfnprintf+0x8e4>
    8f14:	e1a00000 	nop			(mov r0,r0)
    8f18:	47ae147b 	.word	0x47ae147b
    8f1c:	3f847ae1 	.word	0x3f847ae1
    8f20:	400007dc 	.word	0x400007dc
    8f24:	66666667 	.word	0x66666667
    8f28:	e59d8300 	ldr	r8, [sp, #768]
    8f2c:	e59d9038 	ldr	r9, [sp, #56]
    8f30:	e3a0b000 	mov	fp, #0	; 0x0
    8f34:	e3580000 	cmp	r8, #0	; 0x0
    8f38:	0a0000ef 	beq	92fc <vfnprintf+0x1aec>
    8f3c:	e59de05c 	ldr	lr, [sp, #92]
    8f40:	e5d73001 	ldrb	r3, [r7, #1]
    8f44:	e35e0000 	cmp	lr, #0	; 0x0
    8f48:	e5cd3079 	strb	r3, [sp, #121]
    8f4c:	e2871001 	add	r1, r7, #1	; 0x1
    8f50:	1a000186 	bne	9570 <vfnprintf+0x1d60>
    8f54:	e59d003c 	ldr	r0, [sp, #60]
    8f58:	e3100001 	tst	r0, #1	; 0x1
    8f5c:	059d001c 	ldreq	r0, [sp, #28]
    8f60:	02804002 	addeq	r4, r0, #2	; 0x2
    8f64:	13a0302e 	movne	r3, #46	; 0x2e
    8f68:	159d201c 	ldrne	r2, [sp, #28]
    8f6c:	15cd307a 	strbne	r3, [sp, #122]
    8f70:	12824003 	addne	r4, r2, #3	; 0x3
    8f74:	e59d2014 	ldr	r2, [sp, #20]
    8f78:	e2813001 	add	r3, r1, #1	; 0x1
    8f7c:	e1530002 	cmp	r3, r2
    8f80:	2a000084 	bcs	9198 <vfnprintf+0x1988>
    8f84:	e244c001 	sub	ip, r4, #1	; 0x1
    8f88:	e59d501c 	ldr	r5, [sp, #28]
    8f8c:	e5d1e001 	ldrb	lr, [r1, #1]
    8f90:	e28d7c03 	add	r7, sp, #768	; 0x300
    8f94:	e58dc000 	str	ip, [sp]
    8f98:	e28dcfc1 	add	ip, sp, #772	; 0x304
    8f9c:	e3a01000 	mov	r1, #0	; 0x0
    8fa0:	e28cc002 	add	ip, ip, #2	; 0x2
    8fa4:	e3a00000 	mov	r0, #0	; 0x0
    8fa8:	e1a02007 	mov	r2, r7
    8fac:	e2853001 	add	r3, r5, #1	; 0x1
    8fb0:	e58de004 	str	lr, [sp, #4]
    8fb4:	e58dc008 	str	ip, [sp, #8]
    8fb8:	ebfff9c9 	bl	76e4 <_ZL5rounddPiPcS0_cS0_>
    8fbc:	e3a01000 	mov	r1, #0	; 0x0
    8fc0:	e1a06000 	mov	r6, r0
    8fc4:	e3a00000 	mov	r0, #0	; 0x0
    8fc8:	e58d0060 	str	r0, [sp, #96]
    8fcc:	e58d1064 	str	r1, [sp, #100]
    8fd0:	e3a01000 	mov	r1, #0	; 0x0
    8fd4:	e59d8300 	ldr	r8, [sp, #768]
    8fd8:	e58d105c 	str	r1, [sp, #92]
    8fdc:	e2483001 	sub	r3, r8, #1	; 0x1
    8fe0:	e59d205c 	ldr	r2, [sp, #92]
    8fe4:	e58d3300 	str	r3, [sp, #768]
    8fe8:	e2425001 	sub	r5, r2, #1	; 0x1
    8fec:	e28d0060 	add	r0, sp, #96	; 0x60
    8ff0:	e8900003 	ldm	r0, {r0, r1}
    8ff4:	e3a02000 	mov	r2, #0	; 0x0
    8ff8:	e3a03000 	mov	r3, #0	; 0x0
    8ffc:	eb001610 	bl	e844 <__aeabi_dcmpeq>
    9000:	e3500000 	cmp	r0, #0	; 0x0
    9004:	0a0000ab 	beq	92b8 <vfnprintf+0x1aa8>
    9008:	e59de05c 	ldr	lr, [sp, #92]
    900c:	e35e0000 	cmp	lr, #0	; 0x0
    9010:	0a000007 	beq	9034 <vfnprintf+0x1824>
    9014:	e2852001 	add	r2, r5, #1	; 0x1
    9018:	e3a03000 	mov	r3, #0	; 0x0
    901c:	e3a01030 	mov	r1, #48	; 0x30
    9020:	e7c41003 	strb	r1, [r4, r3]
    9024:	e2833001 	add	r3, r3, #1	; 0x1
    9028:	e1530002 	cmp	r3, r2
    902c:	1afffffb 	bne	9020 <vfnprintf+0x1810>
    9030:	e0844003 	add	r4, r4, r3
    9034:	e35b0000 	cmp	fp, #0	; 0x0
    9038:	0a000002 	beq	9048 <vfnprintf+0x1838>
    903c:	e59d003c 	ldr	r0, [sp, #60]
    9040:	e3100001 	tst	r0, #1	; 0x1
    9044:	0a000046 	beq	9164 <vfnprintf+0x1954>
    9048:	e59dc300 	ldr	ip, [sp, #768]
    904c:	e1a02004 	mov	r2, r4
    9050:	e35c0000 	cmp	ip, #0	; 0x0
    9054:	e4c29001 	strb	r9, [r2], #1
    9058:	b3a0302d 	movlt	r3, #45	; 0x2d
    905c:	a3a0302b 	movge	r3, #43	; 0x2b
    9060:	b26cc000 	rsblt	ip, ip, #0	; 0x0
    9064:	b5c43001 	strblt	r3, [r4, #1]
    9068:	b2820001 	addlt	r0, r2, #1	; 0x1
    906c:	a5c43001 	strbge	r3, [r4, #1]
    9070:	a2820001 	addge	r0, r2, #1	; 0x1
    9074:	e35c0009 	cmp	ip, #9	; 0x9
    9078:	ca00006b 	bgt	922c <vfnprintf+0x1a1c>
    907c:	e1a03000 	mov	r3, r0
    9080:	e3a02030 	mov	r2, #48	; 0x30
    9084:	e4c32001 	strb	r2, [r3], #1
    9088:	e08c1002 	add	r1, ip, r2
    908c:	e5c01001 	strb	r1, [r0, #1]
    9090:	e2830001 	add	r0, r3, #1	; 0x1
    9094:	e066b000 	rsb	fp, r6, r0
    9098:	eafffc15 	b	80f4 <vfnprintf+0x8e4>
    909c:	e59d0044 	ldr	r0, [sp, #68]
    90a0:	e2600000 	rsb	r0, r0, #0	; 0x0
    90a4:	e58d0044 	str	r0, [sp, #68]
    90a8:	eafffb90 	b	7ef0 <vfnprintf+0x6e0>
    90ac:	e1a00009 	mov	r0, r9
    90b0:	eb00021d 	bl	992c <__strlen>
    90b4:	e1a0b000 	mov	fp, r0
    90b8:	eafffc69 	b	8264 <vfnprintf+0xa54>
    90bc:	e1540008 	cmp	r4, r8
    90c0:	31a02004 	movcc	r2, r4
    90c4:	21a02008 	movcs	r2, r8
    90c8:	e58d2300 	str	r2, [sp, #768]
    90cc:	e1a03007 	mov	r3, r7
    90d0:	e59ac000 	ldr	ip, [sl]
    90d4:	e1a0000a 	mov	r0, sl
    90d8:	e51f11c0 	ldr	r1, [pc, #-448]	; 8f20 <vfnprintf+0x1710>
    90dc:	e1a0e00f 	mov	lr, pc
    90e0:	e59cf008 	ldr	pc, [ip, #8]
    90e4:	e3500000 	cmp	r0, #0	; 0x0
    90e8:	1afffa66 	bne	7a88 <vfnprintf+0x278>
    90ec:	e59d3300 	ldr	r3, [sp, #768]
    90f0:	e1540003 	cmp	r4, r3
    90f4:	8afffd53 	bhi	8648 <vfnprintf+0xe38>
    90f8:	e59de040 	ldr	lr, [sp, #64]
    90fc:	e08ee006 	add	lr, lr, r6
    9100:	e58de040 	str	lr, [sp, #64]
    9104:	eafff9cc 	b	783c <vfnprintf+0x2c>
    9108:	e59d103c 	ldr	r1, [sp, #60]
    910c:	e211ec02 	ands	lr, r1, #512	; 0x200
    9110:	1afffdcc 	bne	8848 <vfnprintf+0x1038>
    9114:	e5953000 	ldr	r3, [r5]
    9118:	e2855004 	add	r5, r5, #4	; 0x4
    911c:	e1a0c00e 	mov	ip, lr
    9120:	e1a06003 	mov	r6, r3
    9124:	e3a07000 	mov	r7, #0	; 0x0
    9128:	e58d502c 	str	r5, [sp, #44]
    912c:	eafffa83 	b	7b40 <vfnprintf+0x330>
    9130:	e59dc03c 	ldr	ip, [sp, #60]
    9134:	e31c0040 	tst	ip, #64	; 0x40
    9138:	0a000021 	beq	91c4 <vfnprintf+0x19b4>
    913c:	e5953000 	ldr	r3, [r5]
    9140:	e59de040 	ldr	lr, [sp, #64]
    9144:	e2855004 	add	r5, r5, #4	; 0x4
    9148:	e1c3e0b0 	strh	lr, [r3]
    914c:	e58d502c 	str	r5, [sp, #44]
    9150:	eafff9b9 	b	783c <vfnprintf+0x2c>
    9154:	e59d5040 	ldr	r5, [sp, #64]
    9158:	e0835005 	add	r5, r3, r5
    915c:	e58d5040 	str	r5, [sp, #64]
    9160:	eafffa48 	b	7a88 <vfnprintf+0x278>
    9164:	e1560004 	cmp	r6, r4
    9168:	25d43000 	ldrbcs	r3, [r4]
    916c:	2a000003 	bcs	9180 <vfnprintf+0x1970>
    9170:	e5742001 	ldrb	r2, [r4, #-1]!
    9174:	e3520030 	cmp	r2, #48	; 0x30
    9178:	e1a03002 	mov	r3, r2
    917c:	0a0000f7 	beq	9560 <vfnprintf+0x1d50>
    9180:	e353002e 	cmp	r3, #46	; 0x2e
    9184:	12844001 	addne	r4, r4, #1	; 0x1
    9188:	1affffae 	bne	9048 <vfnprintf+0x1838>
    918c:	e2444001 	sub	r4, r4, #1	; 0x1
    9190:	e2844001 	add	r4, r4, #1	; 0x1
    9194:	eaffffab 	b	9048 <vfnprintf+0x1838>
    9198:	e59d301c 	ldr	r3, [sp, #28]
    919c:	e3a05000 	mov	r5, #0	; 0x0
    91a0:	e2836001 	add	r6, r3, #1	; 0x1
    91a4:	e58d505c 	str	r5, [sp, #92]
    91a8:	e28d7c03 	add	r7, sp, #768	; 0x300
    91ac:	e59d8300 	ldr	r8, [sp, #768]
    91b0:	eaffff89 	b	8fdc <vfnprintf+0x17cc>
    91b4:	e59d4040 	ldr	r4, [sp, #64]
    91b8:	e0834004 	add	r4, r3, r4
    91bc:	e58d4040 	str	r4, [sp, #64]
    91c0:	eafffa30 	b	7a88 <vfnprintf+0x278>
    91c4:	e59d003c 	ldr	r0, [sp, #60]
    91c8:	e3100c02 	tst	r0, #512	; 0x200
    91cc:	15953000 	ldrne	r3, [r5]
    91d0:	05953000 	ldreq	r3, [r5]
    91d4:	159d1040 	ldrne	r1, [sp, #64]
    91d8:	059d2040 	ldreq	r2, [sp, #64]
    91dc:	12855004 	addne	r5, r5, #4	; 0x4
    91e0:	02855004 	addeq	r5, r5, #4	; 0x4
    91e4:	15831000 	strne	r1, [r3]
    91e8:	158d502c 	strne	r5, [sp, #44]
    91ec:	05832000 	streq	r2, [r3]
    91f0:	058d502c 	streq	r5, [sp, #44]
    91f4:	eafff990 	b	783c <vfnprintf+0x2c>
    91f8:	e59d1040 	ldr	r1, [sp, #64]
    91fc:	e0831001 	add	r1, r3, r1
    9200:	e58d1040 	str	r1, [sp, #64]
    9204:	eafffa1f 	b	7a88 <vfnprintf+0x278>
    9208:	e2843041 	add	r3, r4, #65	; 0x41
    920c:	e28d4078 	add	r4, sp, #120	; 0x78
    9210:	e5cd3079 	strb	r3, [sp, #121]
    9214:	e5cd507a 	strb	r5, [sp, #122]
    9218:	e5cd5078 	strb	r5, [sp, #120]
    921c:	e3a0b003 	mov	fp, #3	; 0x3
    9220:	e28d7c03 	add	r7, sp, #768	; 0x300
    9224:	e58d401c 	str	r4, [sp, #28]
    9228:	eafffbb1 	b	80f4 <vfnprintf+0x8e4>
    922c:	e28d8e2f 	add	r8, sp, #752	; 0x2f0
    9230:	e51fe314 	ldr	lr, [pc, #-788]	; 8f24 <vfnprintf+0x1714>
    9234:	e1a04008 	mov	r4, r8
    9238:	e0c12c9e 	smull	r2, r1, lr, ip
    923c:	e1a02fcc 	asr	r2, ip, #31
    9240:	e0622141 	rsb	r2, r2, r1, asr #2
    9244:	e1a03082 	lsl	r3, r2, #1
    9248:	e1a01182 	lsl	r1, r2, #3
    924c:	e0833001 	add	r3, r3, r1
    9250:	e063300c 	rsb	r3, r3, ip
    9254:	e2833030 	add	r3, r3, #48	; 0x30
    9258:	e3520009 	cmp	r2, #9	; 0x9
    925c:	e1a0c002 	mov	ip, r2
    9260:	e5643001 	strb	r3, [r4, #-1]!
    9264:	cafffff3 	bgt	9238 <vfnprintf+0x1a28>
    9268:	e2822030 	add	r2, r2, #48	; 0x30
    926c:	e2443001 	sub	r3, r4, #1	; 0x1
    9270:	e20210ff 	and	r1, r2, #255	; 0xff
    9274:	e1530008 	cmp	r3, r8
    9278:	e5441001 	strb	r1, [r4, #-1]
    927c:	2affff84 	bcs	9094 <vfnprintf+0x1884>
    9280:	e3a0c000 	mov	ip, #0	; 0x0
    9284:	ea000001 	b	9290 <vfnprintf+0x1a80>
    9288:	e7d4100c 	ldrb	r1, [r4, ip]
    928c:	e28cc001 	add	ip, ip, #1	; 0x1
    9290:	e084300c 	add	r3, r4, ip
    9294:	e1580003 	cmp	r8, r3
    9298:	e7c0100c 	strb	r1, [r0, ip]
    929c:	8afffff9 	bhi	9288 <vfnprintf+0x1a78>
    92a0:	e28d3e2f 	add	r3, sp, #752	; 0x2f0
    92a4:	e2833001 	add	r3, r3, #1	; 0x1
    92a8:	e0643003 	rsb	r3, r4, r3
    92ac:	e0800003 	add	r0, r0, r3
    92b0:	e066b000 	rsb	fp, r6, r0
    92b4:	eafffb8e 	b	80f4 <vfnprintf+0x8e4>
    92b8:	e59de05c 	ldr	lr, [sp, #92]
    92bc:	e35e0000 	cmp	lr, #0	; 0x0
    92c0:	1a000080 	bne	94c8 <vfnprintf+0x1cb8>
    92c4:	e28dcfc1 	add	ip, sp, #772	; 0x304
    92c8:	e28cc002 	add	ip, ip, #2	; 0x2
    92cc:	e1a03006 	mov	r3, r6
    92d0:	e244e001 	sub	lr, r4, #1	; 0x1
    92d4:	e58dc008 	str	ip, [sp, #8]
    92d8:	e28d0060 	add	r0, sp, #96	; 0x60
    92dc:	e8900003 	ldm	r0, {r0, r1}
    92e0:	e3a0c000 	mov	ip, #0	; 0x0
    92e4:	e1a02007 	mov	r2, r7
    92e8:	e58de000 	str	lr, [sp]
    92ec:	e58dc004 	str	ip, [sp, #4]
    92f0:	ebfff8fb 	bl	76e4 <_ZL5rounddPiPcS0_cS0_>
    92f4:	e1a06000 	mov	r6, r0
    92f8:	eaffff4d 	b	9034 <vfnprintf+0x1824>
    92fc:	e28d0060 	add	r0, sp, #96	; 0x60
    9300:	e8900003 	ldm	r0, {r0, r1}
    9304:	e3a02000 	mov	r2, #0	; 0x0
    9308:	e3a03000 	mov	r3, #0	; 0x0
    930c:	eb00154c 	bl	e844 <__aeabi_dcmpeq>
    9310:	e3500000 	cmp	r0, #0	; 0x0
    9314:	1a0000b1 	bne	95e0 <vfnprintf+0x1dd0>
    9318:	e3e03000 	mvn	r3, #0	; 0x0
    931c:	e58d3300 	str	r3, [sp, #768]
    9320:	e28d8e2f 	add	r8, sp, #752	; 0x2f0
    9324:	ea000002 	b	9334 <vfnprintf+0x1b24>
    9328:	e59d3300 	ldr	r3, [sp, #768]
    932c:	e2433001 	sub	r3, r3, #1	; 0x1
    9330:	e58d3300 	str	r3, [sp, #768]
    9334:	e3a03101 	mov	r3, #1073741824	; 0x40000000
    9338:	e2833709 	add	r3, r3, #2359296	; 0x240000
    933c:	e28d0060 	add	r0, sp, #96	; 0x60
    9340:	e8900003 	ldm	r0, {r0, r1}
    9344:	e3a02000 	mov	r2, #0	; 0x0
    9348:	eb0013e4 	bl	e2e0 <__aeabi_dmul>
    934c:	e1a02008 	mov	r2, r8
    9350:	eb0001a1 	bl	99dc <modf>
    9354:	e28d4e2f 	add	r4, sp, #752	; 0x2f0
    9358:	e8940030 	ldm	r4, {r4, r5}
    935c:	e58d0060 	str	r0, [sp, #96]
    9360:	e58d1064 	str	r1, [sp, #100]
    9364:	e3a02000 	mov	r2, #0	; 0x0
    9368:	e3a03000 	mov	r3, #0	; 0x0
    936c:	e1a00004 	mov	r0, r4
    9370:	e1a01005 	mov	r1, r5
    9374:	eb001532 	bl	e844 <__aeabi_dcmpeq>
    9378:	e3500000 	cmp	r0, #0	; 0x0
    937c:	1affffe9 	bne	9328 <vfnprintf+0x1b18>
    9380:	e1a00004 	mov	r0, r4
    9384:	e1a01005 	mov	r1, r5
    9388:	eb001559 	bl	e8f4 <__aeabi_d2iz>
    938c:	e59d305c 	ldr	r3, [sp, #92]
    9390:	e2800030 	add	r0, r0, #48	; 0x30
    9394:	e3530000 	cmp	r3, #0	; 0x0
    9398:	e5cd0079 	strb	r0, [sp, #121]
    939c:	1a0000e1 	bne	9728 <vfnprintf+0x1f18>
    93a0:	e59d403c 	ldr	r4, [sp, #60]
    93a4:	e3140001 	tst	r4, #1	; 0x1
    93a8:	1a0000de 	bne	9728 <vfnprintf+0x1f18>
    93ac:	e59d501c 	ldr	r5, [sp, #28]
    93b0:	e28d7c03 	add	r7, sp, #768	; 0x300
    93b4:	e2854002 	add	r4, r5, #2	; 0x2
    93b8:	e2856001 	add	r6, r5, #1	; 0x1
    93bc:	e3e05000 	mvn	r5, #0	; 0x0
    93c0:	eaffff09 	b	8fec <vfnprintf+0x17dc>
    93c4:	e28d0060 	add	r0, sp, #96	; 0x60
    93c8:	e8900003 	ldm	r0, {r0, r1}
    93cc:	e3a02000 	mov	r2, #0	; 0x0
    93d0:	e3a03000 	mov	r3, #0	; 0x0
    93d4:	eb00151a 	bl	e844 <__aeabi_dcmpeq>
    93d8:	e3500000 	cmp	r0, #0	; 0x0
    93dc:	1a000019 	bne	9448 <vfnprintf+0x1c38>
    93e0:	e3a03101 	mov	r3, #1073741824	; 0x40000000
    93e4:	e2833709 	add	r3, r3, #2359296	; 0x240000
    93e8:	e28d0060 	add	r0, sp, #96	; 0x60
    93ec:	e8900003 	ldm	r0, {r0, r1}
    93f0:	e3a02000 	mov	r2, #0	; 0x0
    93f4:	eb0013b9 	bl	e2e0 <__aeabi_dmul>
    93f8:	e1a02008 	mov	r2, r8
    93fc:	eb000176 	bl	99dc <modf>
    9400:	e58d0060 	str	r0, [sp, #96]
    9404:	e58d1064 	str	r1, [sp, #100]
    9408:	e28d0e2f 	add	r0, sp, #752	; 0x2f0
    940c:	e8900003 	ldm	r0, {r0, r1}
    9410:	eb001537 	bl	e8f4 <__aeabi_d2iz>
    9414:	e59d405c 	ldr	r4, [sp, #92]
    9418:	e280c030 	add	ip, r0, #48	; 0x30
    941c:	e2544001 	subs	r4, r4, #1	; 0x1
    9420:	e28d0060 	add	r0, sp, #96	; 0x60
    9424:	e8900003 	ldm	r0, {r0, r1}
    9428:	e58d405c 	str	r4, [sp, #92]
    942c:	e3a02000 	mov	r2, #0	; 0x0
    9430:	e3a03000 	mov	r3, #0	; 0x0
    9434:	e4c6c001 	strb	ip, [r6], #1
    9438:	0afffe91 	beq	8e84 <vfnprintf+0x1674>
    943c:	eb001500 	bl	e844 <__aeabi_dcmpeq>
    9440:	e3500000 	cmp	r0, #0	; 0x0
    9444:	0affffe5 	beq	93e0 <vfnprintf+0x1bd0>
    9448:	e59dc01c 	ldr	ip, [sp, #28]
    944c:	e28c0001 	add	r0, ip, #1	; 0x1
    9450:	eafffe9f 	b	8ed4 <vfnprintf+0x16c4>
    9454:	e59d505c 	ldr	r5, [sp, #92]
    9458:	e3550000 	cmp	r5, #0	; 0x0
    945c:	1a000087 	bne	9680 <vfnprintf+0x1e70>
    9460:	e59d501c 	ldr	r5, [sp, #28]
    9464:	e28dcfc1 	add	ip, sp, #772	; 0x304
    9468:	e244e001 	sub	lr, r4, #1	; 0x1
    946c:	e3a02000 	mov	r2, #0	; 0x0
    9470:	e28cc002 	add	ip, ip, #2	; 0x2
    9474:	e28d0060 	add	r0, sp, #96	; 0x60
    9478:	e8900003 	ldm	r0, {r0, r1}
    947c:	e2853001 	add	r3, r5, #1	; 0x1
    9480:	e58de000 	str	lr, [sp]
    9484:	e98d1004 	stmib	sp, {r2, ip}
    9488:	ebfff895 	bl	76e4 <_ZL5rounddPiPcS0_cS0_>
    948c:	e060b004 	rsb	fp, r0, r4
    9490:	e28d7c03 	add	r7, sp, #768	; 0x300
    9494:	eafffb16 	b	80f4 <vfnprintf+0x8e4>
    9498:	e59de05c 	ldr	lr, [sp, #92]
    949c:	e59d0038 	ldr	r0, [sp, #56]
    94a0:	e24ee001 	sub	lr, lr, #1	; 0x1
    94a4:	e58de05c 	str	lr, [sp, #92]
    94a8:	e2409002 	sub	r9, r0, #2	; 0x2
    94ac:	e3a0b001 	mov	fp, #1	; 0x1
    94b0:	eafffe9f 	b	8f34 <vfnprintf+0x1724>
    94b4:	e59de01c 	ldr	lr, [sp, #28]
    94b8:	e3a03030 	mov	r3, #48	; 0x30
    94bc:	e5cd3079 	strb	r3, [sp, #121]
    94c0:	e28e4002 	add	r4, lr, #2	; 0x2
    94c4:	eafffdf6 	b	8ca4 <vfnprintf+0x1494>
    94c8:	e28d8e2f 	add	r8, sp, #752	; 0x2f0
    94cc:	e3a03101 	mov	r3, #1073741824	; 0x40000000
    94d0:	e2833709 	add	r3, r3, #2359296	; 0x240000
    94d4:	e28d0060 	add	r0, sp, #96	; 0x60
    94d8:	e8900003 	ldm	r0, {r0, r1}
    94dc:	e3a02000 	mov	r2, #0	; 0x0
    94e0:	eb00137e 	bl	e2e0 <__aeabi_dmul>
    94e4:	e1a02008 	mov	r2, r8
    94e8:	eb00013b 	bl	99dc <modf>
    94ec:	e58d0060 	str	r0, [sp, #96]
    94f0:	e58d1064 	str	r1, [sp, #100]
    94f4:	e28d0e2f 	add	r0, sp, #752	; 0x2f0
    94f8:	e8900003 	ldm	r0, {r0, r1}
    94fc:	eb0014fc 	bl	e8f4 <__aeabi_d2iz>
    9500:	e59d505c 	ldr	r5, [sp, #92]
    9504:	e280c030 	add	ip, r0, #48	; 0x30
    9508:	e2555001 	subs	r5, r5, #1	; 0x1
    950c:	e28d0060 	add	r0, sp, #96	; 0x60
    9510:	e8900003 	ldm	r0, {r0, r1}
    9514:	e58d505c 	str	r5, [sp, #92]
    9518:	e3a02000 	mov	r2, #0	; 0x0
    951c:	e3a03000 	mov	r3, #0	; 0x0
    9520:	e4c4c001 	strb	ip, [r4], #1
    9524:	1a000007 	bne	9548 <vfnprintf+0x1d38>
    9528:	e28d0060 	add	r0, sp, #96	; 0x60
    952c:	e8900003 	ldm	r0, {r0, r1}
    9530:	e3a02000 	mov	r2, #0	; 0x0
    9534:	e3a03000 	mov	r3, #0	; 0x0
    9538:	eb0014c1 	bl	e844 <__aeabi_dcmpeq>
    953c:	e3500000 	cmp	r0, #0	; 0x0
    9540:	0affff5f 	beq	92c4 <vfnprintf+0x1ab4>
    9544:	eafffeba 	b	9034 <vfnprintf+0x1824>
    9548:	eb0014bd 	bl	e844 <__aeabi_dcmpeq>
    954c:	e3500000 	cmp	r0, #0	; 0x0
    9550:	0affffdd 	beq	94cc <vfnprintf+0x1cbc>
    9554:	e59d105c 	ldr	r1, [sp, #92]
    9558:	e2415001 	sub	r5, r1, #1	; 0x1
    955c:	eafffeac 	b	9014 <vfnprintf+0x1804>
    9560:	e1560004 	cmp	r6, r4
    9564:	3affff01 	bcc	9170 <vfnprintf+0x1960>
    9568:	e1a03002 	mov	r3, r2
    956c:	eaffff03 	b	9180 <vfnprintf+0x1970>
    9570:	e59d2014 	ldr	r2, [sp, #20]
    9574:	e2811001 	add	r1, r1, #1	; 0x1
    9578:	e1510002 	cmp	r1, r2
    957c:	e3a0302e 	mov	r3, #46	; 0x2e
    9580:	e5cd307a 	strb	r3, [sp, #122]
    9584:	259d301c 	ldrcs	r3, [sp, #28]
    9588:	228d7c03 	addcs	r7, sp, #768	; 0x300
    958c:	22836001 	addcs	r6, r3, #1	; 0x1
    9590:	22834003 	addcs	r4, r3, #3	; 0x3
    9594:	2afffe90 	bcs	8fdc <vfnprintf+0x17cc>
    9598:	e28d207c 	add	r2, sp, #124	; 0x7c
    959c:	e59dc05c 	ldr	ip, [sp, #92]
    95a0:	e5d13000 	ldrb	r3, [r1]
    95a4:	e25cc001 	subs	ip, ip, #1	; 0x1
    95a8:	e58dc05c 	str	ip, [sp, #92]
    95ac:	e1a04002 	mov	r4, r2
    95b0:	e5423001 	strb	r3, [r2, #-1]
    95b4:	0afffe6e 	beq	8f74 <vfnprintf+0x1764>
    95b8:	e59d3014 	ldr	r3, [sp, #20]
    95bc:	e2811001 	add	r1, r1, #1	; 0x1
    95c0:	e1510003 	cmp	r1, r3
    95c4:	e2842001 	add	r2, r4, #1	; 0x1
    95c8:	3afffff3 	bcc	959c <vfnprintf+0x1d8c>
    95cc:	e59d501c 	ldr	r5, [sp, #28]
    95d0:	e28d7c03 	add	r7, sp, #768	; 0x300
    95d4:	e2856001 	add	r6, r5, #1	; 0x1
    95d8:	e59d8300 	ldr	r8, [sp, #768]
    95dc:	eafffe7e 	b	8fdc <vfnprintf+0x17cc>
    95e0:	e59d005c 	ldr	r0, [sp, #92]
    95e4:	e3a03030 	mov	r3, #48	; 0x30
    95e8:	e3500000 	cmp	r0, #0	; 0x0
    95ec:	e5cd3079 	strb	r3, [sp, #121]
    95f0:	1a000019 	bne	965c <vfnprintf+0x1e4c>
    95f4:	e59d103c 	ldr	r1, [sp, #60]
    95f8:	e3110001 	tst	r1, #1	; 0x1
    95fc:	1a000016 	bne	965c <vfnprintf+0x1e4c>
    9600:	e59d201c 	ldr	r2, [sp, #28]
    9604:	e3e05000 	mvn	r5, #0	; 0x0
    9608:	e2824002 	add	r4, r2, #2	; 0x2
    960c:	e2826001 	add	r6, r2, #1	; 0x1
    9610:	e28d7c03 	add	r7, sp, #768	; 0x300
    9614:	eafffe74 	b	8fec <vfnprintf+0x17dc>
    9618:	e3570000 	cmp	r7, #0	; 0x0
    961c:	0a00000b 	beq	9650 <vfnprintf+0x1e40>
    9620:	e1500006 	cmp	r0, r6
    9624:	25d63000 	ldrbcs	r3, [r6]
    9628:	2a000003 	bcs	963c <vfnprintf+0x1e2c>
    962c:	e5761001 	ldrb	r1, [r6, #-1]!
    9630:	e3510030 	cmp	r1, #48	; 0x30
    9634:	e1a03001 	mov	r3, r1
    9638:	0a00005d 	beq	97b4 <vfnprintf+0x1fa4>
    963c:	e353002e 	cmp	r3, #46	; 0x2e
    9640:	12863001 	addne	r3, r6, #1	; 0x1
    9644:	1060b003 	rsbne	fp, r0, r3
    9648:	128d7c03 	addne	r7, sp, #768	; 0x300
    964c:	1afffaa8 	bne	80f4 <vfnprintf+0x8e4>
    9650:	e060b006 	rsb	fp, r0, r6
    9654:	e28d7c03 	add	r7, sp, #768	; 0x300
    9658:	eafffaa5 	b	80f4 <vfnprintf+0x8e4>
    965c:	e3a0302e 	mov	r3, #46	; 0x2e
    9660:	e59dc01c 	ldr	ip, [sp, #28]
    9664:	e5cd307a 	strb	r3, [sp, #122]
    9668:	e59d305c 	ldr	r3, [sp, #92]
    966c:	e28c4003 	add	r4, ip, #3	; 0x3
    9670:	e2435001 	sub	r5, r3, #1	; 0x1
    9674:	e28c6001 	add	r6, ip, #1	; 0x1
    9678:	e28d7c03 	add	r7, sp, #768	; 0x300
    967c:	eafffe5a 	b	8fec <vfnprintf+0x17dc>
    9680:	e28d8e2f 	add	r8, sp, #752	; 0x2f0
    9684:	e3a03101 	mov	r3, #1073741824	; 0x40000000
    9688:	e2833709 	add	r3, r3, #2359296	; 0x240000
    968c:	e28d0060 	add	r0, sp, #96	; 0x60
    9690:	e8900003 	ldm	r0, {r0, r1}
    9694:	e3a02000 	mov	r2, #0	; 0x0
    9698:	eb001310 	bl	e2e0 <__aeabi_dmul>
    969c:	e1a02008 	mov	r2, r8
    96a0:	eb0000cd 	bl	99dc <modf>
    96a4:	e58d0060 	str	r0, [sp, #96]
    96a8:	e58d1064 	str	r1, [sp, #100]
    96ac:	e28d0e2f 	add	r0, sp, #752	; 0x2f0
    96b0:	e8900003 	ldm	r0, {r0, r1}
    96b4:	eb00148e 	bl	e8f4 <__aeabi_d2iz>
    96b8:	e59de05c 	ldr	lr, [sp, #92]
    96bc:	e280c030 	add	ip, r0, #48	; 0x30
    96c0:	e25ee001 	subs	lr, lr, #1	; 0x1
    96c4:	e28d0060 	add	r0, sp, #96	; 0x60
    96c8:	e8900003 	ldm	r0, {r0, r1}
    96cc:	e58de05c 	str	lr, [sp, #92]
    96d0:	e3a02000 	mov	r2, #0	; 0x0
    96d4:	e3a03000 	mov	r3, #0	; 0x0
    96d8:	e4c4c001 	strb	ip, [r4], #1
    96dc:	1a00000b 	bne	9710 <vfnprintf+0x1f00>
    96e0:	e3a03000 	mov	r3, #0	; 0x0
    96e4:	e28d0060 	add	r0, sp, #96	; 0x60
    96e8:	e8900003 	ldm	r0, {r0, r1}
    96ec:	e3a02000 	mov	r2, #0	; 0x0
    96f0:	eb001453 	bl	e844 <__aeabi_dcmpeq>
    96f4:	e3500000 	cmp	r0, #0	; 0x0
    96f8:	159d001c 	ldrne	r0, [sp, #28]
    96fc:	12803001 	addne	r3, r0, #1	; 0x1
    9700:	1063b004 	rsbne	fp, r3, r4
    9704:	128d7c03 	addne	r7, sp, #768	; 0x300
    9708:	0affff54 	beq	9460 <vfnprintf+0x1c50>
    970c:	eafffa78 	b	80f4 <vfnprintf+0x8e4>
    9710:	eb00144b 	bl	e844 <__aeabi_dcmpeq>
    9714:	e3500000 	cmp	r0, #0	; 0x0
    9718:	0affffd9 	beq	9684 <vfnprintf+0x1e74>
    971c:	e59de05c 	ldr	lr, [sp, #92]
    9720:	e24e2001 	sub	r2, lr, #1	; 0x1
    9724:	eafffd73 	b	8cf8 <vfnprintf+0x14e8>
    9728:	e59de01c 	ldr	lr, [sp, #28]
    972c:	e59dc05c 	ldr	ip, [sp, #92]
    9730:	e3a0302e 	mov	r3, #46	; 0x2e
    9734:	e5cd307a 	strb	r3, [sp, #122]
    9738:	e24c5001 	sub	r5, ip, #1	; 0x1
    973c:	e28e4003 	add	r4, lr, #3	; 0x3
    9740:	e28e6001 	add	r6, lr, #1	; 0x1
    9744:	e28d7c03 	add	r7, sp, #768	; 0x300
    9748:	eafffe27 	b	8fec <vfnprintf+0x17dc>
    974c:	e28d0060 	add	r0, sp, #96	; 0x60
    9750:	e8900003 	ldm	r0, {r0, r1}
    9754:	e3a02000 	mov	r2, #0	; 0x0
    9758:	e3a03000 	mov	r3, #0	; 0x0
    975c:	eb001438 	bl	e844 <__aeabi_dcmpeq>
    9760:	e3500000 	cmp	r0, #0	; 0x0
    9764:	1a000006 	bne	9784 <vfnprintf+0x1f74>
    9768:	e28d0060 	add	r0, sp, #96	; 0x60
    976c:	e8900003 	ldm	r0, {r0, r1}
    9770:	e28f2060 	add	r2, pc, #96	; 0x60
    9774:	e892000c 	ldm	r2, {r2, r3}
    9778:	eb001437 	bl	e85c <__aeabi_dcmplt>
    977c:	e3500000 	cmp	r0, #0	; 0x0
    9780:	1affff44 	bne	9498 <vfnprintf+0x1c88>
    9784:	e59d501c 	ldr	r5, [sp, #28]
    9788:	e3a03030 	mov	r3, #48	; 0x30
    978c:	e5cd3079 	strb	r3, [sp, #121]
    9790:	e2856002 	add	r6, r5, #2	; 0x2
    9794:	eafffd85 	b	8db0 <vfnprintf+0x15a0>
    9798:	e5953000 	ldr	r3, [r5]
    979c:	e1833fc3 	orr	r3, r3, r3, asr #31
    97a0:	e58d305c 	str	r3, [sp, #92]
    97a4:	e2853004 	add	r3, r5, #4	; 0x4
    97a8:	e5dc2000 	ldrb	r2, [ip]
    97ac:	e1a05003 	mov	r5, r3
    97b0:	eafff83f 	b	78b4 <vfnprintf+0xa4>
    97b4:	e1500006 	cmp	r0, r6
    97b8:	3affff9b 	bcc	962c <vfnprintf+0x1e1c>
    97bc:	e1a03001 	mov	r3, r1
    97c0:	eaffff9d 	b	963c <vfnprintf+0x1e2c>
    97c4:	e59d501c 	ldr	r5, [sp, #28]
    97c8:	e3a0c000 	mov	ip, #0	; 0x0
    97cc:	e2850001 	add	r0, r5, #1	; 0x1
    97d0:	e58dc05c 	str	ip, [sp, #92]
    97d4:	eafffdbe 	b	8ed4 <vfnprintf+0x16c4>
    97d8:	eb1c432d 	.word	0xeb1c432d
    97dc:	3f1a36e2 	.word	0x3f1a36e2

000097e0 <__memchr>:
    97e0:	e3520003 	cmp	r2, #3	; 0x3
    97e4:	e92d0070 	push	{r4, r5, r6}
    97e8:	e1a0c002 	mov	ip, r2
    97ec:	e1a03000 	mov	r3, r0
    97f0:	e20110ff 	and	r1, r1, #255	; 0xff
    97f4:	9a000047 	bls	9918 <__memchr+0x138>
    97f8:	e2132003 	ands	r2, r3, #3	; 0x3
    97fc:	0a00000d 	beq	9838 <__memchr+0x58>
    9800:	e5d33000 	ldrb	r3, [r3]
    9804:	e1530001 	cmp	r3, r1
    9808:	124c2001 	subne	r2, ip, #1	; 0x1
    980c:	1a000003 	bne	9820 <__memchr+0x40>
    9810:	ea000006 	b	9830 <__memchr+0x50>
    9814:	e5f03001 	ldrb	r3, [r0, #1]!
    9818:	e1530001 	cmp	r3, r1
    981c:	0a000003 	beq	9830 <__memchr+0x50>
    9820:	e3520000 	cmp	r2, #0	; 0x0
    9824:	e2422001 	sub	r2, r2, #1	; 0x1
    9828:	1afffff9 	bne	9814 <__memchr+0x34>
    982c:	e3a00000 	mov	r0, #0	; 0x0
    9830:	e8bd0070 	pop	{r4, r5, r6}
    9834:	e12fff1e 	bx	lr
    9838:	e1a04002 	mov	r4, r2
    983c:	e1a00003 	mov	r0, r3
    9840:	e2822001 	add	r2, r2, #1	; 0x1
    9844:	e1a03404 	lsl	r3, r4, #8
    9848:	e3520004 	cmp	r2, #4	; 0x4
    984c:	e0834001 	add	r4, r3, r1
    9850:	1afffffa 	bne	9840 <__memchr+0x60>
    9854:	e35c0004 	cmp	ip, #4	; 0x4
    9858:	0a00001f 	beq	98dc <__memchr+0xfc>
    985c:	e59f30c0 	ldr	r3, [pc, #192]	; 9924 <__memchr+0x144>
    9860:	e59f20c0 	ldr	r2, [pc, #192]	; 9928 <__memchr+0x148>
    9864:	e5936000 	ldr	r6, [r3]
    9868:	e5925000 	ldr	r5, [r2]
    986c:	e5903000 	ldr	r3, [r0]
    9870:	e0243003 	eor	r3, r4, r3
    9874:	e1e02003 	mvn	r2, r3
    9878:	e0663003 	rsb	r3, r6, r3
    987c:	e0033002 	and	r3, r3, r2
    9880:	e1130005 	tst	r3, r5
    9884:	e24cc004 	sub	ip, ip, #4	; 0x4
    9888:	0a00000e 	beq	98c8 <__memchr+0xe8>
    988c:	e5d03000 	ldrb	r3, [r0]
    9890:	e1530001 	cmp	r3, r1
    9894:	0a00001c 	beq	990c <__memchr+0x12c>
    9898:	e5d03001 	ldrb	r3, [r0, #1]
    989c:	e1530001 	cmp	r3, r1
    98a0:	e2803001 	add	r3, r0, #1	; 0x1
    98a4:	0a000019 	beq	9910 <__memchr+0x130>
    98a8:	e5d03002 	ldrb	r3, [r0, #2]
    98ac:	e1530001 	cmp	r3, r1
    98b0:	e2803002 	add	r3, r0, #2	; 0x2
    98b4:	0a000015 	beq	9910 <__memchr+0x130>
    98b8:	e5d03003 	ldrb	r3, [r0, #3]
    98bc:	e1530001 	cmp	r3, r1
    98c0:	e2803003 	add	r3, r0, #3	; 0x3
    98c4:	0a000011 	beq	9910 <__memchr+0x130>
    98c8:	e35c0004 	cmp	ip, #4	; 0x4
    98cc:	e2800004 	add	r0, r0, #4	; 0x4
    98d0:	8affffe5 	bhi	986c <__memchr+0x8c>
    98d4:	e35c0000 	cmp	ip, #0	; 0x0
    98d8:	0affffd3 	beq	982c <__memchr+0x4c>
    98dc:	e5d03000 	ldrb	r3, [r0]
    98e0:	e1530001 	cmp	r3, r1
    98e4:	124c2001 	subne	r2, ip, #1	; 0x1
    98e8:	1a000003 	bne	98fc <__memchr+0x11c>
    98ec:	eaffffcf 	b	9830 <__memchr+0x50>
    98f0:	e5f03001 	ldrb	r3, [r0, #1]!
    98f4:	e1530001 	cmp	r3, r1
    98f8:	0affffcc 	beq	9830 <__memchr+0x50>
    98fc:	e3520000 	cmp	r2, #0	; 0x0
    9900:	e2422001 	sub	r2, r2, #1	; 0x1
    9904:	1afffff9 	bne	98f0 <__memchr+0x110>
    9908:	eaffffc7 	b	982c <__memchr+0x4c>
    990c:	e1a03000 	mov	r3, r0
    9910:	e1a00003 	mov	r0, r3
    9914:	eaffffc5 	b	9830 <__memchr+0x50>
    9918:	e3520000 	cmp	r2, #0	; 0x0
    991c:	0affffc2 	beq	982c <__memchr+0x4c>
    9920:	eaffffb6 	b	9800 <__memchr+0x20>
    9924:	0000f6c8 	.word	0x0000f6c8
    9928:	0000f6d0 	.word	0x0000f6d0

0000992c <__strlen>:
    992c:	e3100003 	tst	r0, #3	; 0x3
    9930:	e52d4004 	push	{r4}		; (str r4, [sp, #-4]!)
    9934:	e1a0c000 	mov	ip, r0
    9938:	0a000009 	beq	9964 <__strlen+0x38>
    993c:	e5d00000 	ldrb	r0, [r0]
    9940:	e3500000 	cmp	r0, #0	; 0x0
    9944:	0a000004 	beq	995c <__strlen+0x30>
    9948:	e1a0000c 	mov	r0, ip
    994c:	e5f03001 	ldrb	r3, [r0, #1]!
    9950:	e3530000 	cmp	r3, #0	; 0x0
    9954:	1afffffc 	bne	994c <__strlen+0x20>
    9958:	e06c0000 	rsb	r0, ip, r0
    995c:	e8bd0010 	pop	{r4}
    9960:	e12fff1e 	bx	lr
    9964:	e59f2068 	ldr	r2, [pc, #104]	; 99d4 <__strlen+0xa8>
    9968:	e5903000 	ldr	r3, [r0]
    996c:	e5924000 	ldr	r4, [r2]
    9970:	e59f2060 	ldr	r2, [pc, #96]	; 99d8 <__strlen+0xac>
    9974:	e1e01003 	mvn	r1, r3
    9978:	e5920000 	ldr	r0, [r2]
    997c:	e0643003 	rsb	r3, r4, r3
    9980:	e0033001 	and	r3, r3, r1
    9984:	e1130000 	tst	r3, r0
    9988:	e1a0100c 	mov	r1, ip
    998c:	1a000005 	bne	99a8 <__strlen+0x7c>
    9990:	e5b12004 	ldr	r2, [r1, #4]!
    9994:	e1e03002 	mvn	r3, r2
    9998:	e0003003 	and	r3, r0, r3
    999c:	e0642002 	rsb	r2, r4, r2
    99a0:	e1130002 	tst	r3, r2
    99a4:	0afffff9 	beq	9990 <__strlen+0x64>
    99a8:	e5d13000 	ldrb	r3, [r1]
    99ac:	e3530000 	cmp	r3, #0	; 0x0
    99b0:	e1a00001 	mov	r0, r1
    99b4:	0affffe7 	beq	9958 <__strlen+0x2c>
    99b8:	e5f03001 	ldrb	r3, [r0, #1]!
    99bc:	e3530000 	cmp	r3, #0	; 0x0
    99c0:	0affffe4 	beq	9958 <__strlen+0x2c>
    99c4:	e5f03001 	ldrb	r3, [r0, #1]!
    99c8:	e3530000 	cmp	r3, #0	; 0x0
    99cc:	1afffff9 	bne	99b8 <__strlen+0x8c>
    99d0:	eaffffe0 	b	9958 <__strlen+0x2c>
    99d4:	0000f6c8 	.word	0x0000f6c8
    99d8:	0000f6d0 	.word	0x0000f6d0

000099dc <modf>:
    99dc:	e92d40f0 	push	{r4, r5, r6, r7, lr}
    99e0:	e24dd00c 	sub	sp, sp, #12	; 0xc
    99e4:	e28d4008 	add	r4, sp, #8	; 0x8
    99e8:	e9240003 	stmdb	r4!, {r0, r1}
    99ec:	e5945004 	ldr	r5, [r4, #4]
    99f0:	e1a03a45 	asr	r3, r5, #20
    99f4:	e1a03a83 	lsl	r3, r3, #21
    99f8:	e1a03aa3 	lsr	r3, r3, #21
    99fc:	e243cfff 	sub	ip, r3, #1020	; 0x3fc
    9a00:	e24cc003 	sub	ip, ip, #3	; 0x3
    9a04:	e35c0013 	cmp	ip, #19	; 0x13
    9a08:	e1a07002 	mov	r7, r2
    9a0c:	e59d6000 	ldr	r6, [sp]
    9a10:	ca000011 	bgt	9a5c <modf+0x80>
    9a14:	e35c0000 	cmp	ip, #0	; 0x0
    9a18:	b2052102 	andlt	r2, r5, #-2147483648	; 0x80000000
    9a1c:	b3a03000 	movlt	r3, #0	; 0x0
    9a20:	b5873000 	strlt	r3, [r7]
    9a24:	b5872004 	strlt	r2, [r7, #4]
    9a28:	ba000009 	blt	9a54 <modf+0x78>
    9a2c:	e3a03601 	mov	r3, #1048576	; 0x100000
    9a30:	e2433001 	sub	r3, r3, #1	; 0x1
    9a34:	e1a03c53 	asr	r3, r3, ip
    9a38:	e0032005 	and	r2, r3, r5
    9a3c:	e1922006 	orrs	r2, r2, r6
    9a40:	1a000019 	bne	9aac <modf+0xd0>
    9a44:	e2053102 	and	r3, r5, #-2147483648	; 0x80000000
    9a48:	e884000c 	stm	r4, {r2, r3}
    9a4c:	e8870003 	stm	r7, {r0, r1}
    9a50:	e89d0003 	ldm	sp, {r0, r1}
    9a54:	e28dd00c 	add	sp, sp, #12	; 0xc
    9a58:	e8bd80f0 	pop	{r4, r5, r6, r7, pc}
    9a5c:	e35c0033 	cmp	ip, #51	; 0x33
    9a60:	ca00000a 	bgt	9a90 <modf+0xb4>
    9a64:	e24c2014 	sub	r2, ip, #20	; 0x14
    9a68:	e3e03000 	mvn	r3, #0	; 0x0
    9a6c:	e1a02233 	lsr	r2, r3, r2
    9a70:	e012c006 	ands	ip, r2, r6
    9a74:	0a000013 	beq	9ac8 <modf+0xec>
    9a78:	e1e03002 	mvn	r3, r2
    9a7c:	e0033006 	and	r3, r3, r6
    9a80:	e8870028 	stm	r7, {r3, r5}
    9a84:	e897000c 	ldm	r7, {r2, r3}
    9a88:	eb00110f 	bl	decc <__aeabi_dsub>
    9a8c:	eafffff0 	b	9a54 <modf+0x78>
    9a90:	e2052102 	and	r2, r5, #-2147483648	; 0x80000000
    9a94:	e3a03000 	mov	r3, #0	; 0x0
    9a98:	e5843000 	str	r3, [r4]
    9a9c:	e5842004 	str	r2, [r4, #4]
    9aa0:	e8870003 	stm	r7, {r0, r1}
    9aa4:	e89d0003 	ldm	sp, {r0, r1}
    9aa8:	eaffffe9 	b	9a54 <modf+0x78>
    9aac:	e1e03003 	mvn	r3, r3
    9ab0:	e0033005 	and	r3, r3, r5
    9ab4:	e3a02000 	mov	r2, #0	; 0x0
    9ab8:	e887000c 	stm	r7, {r2, r3}
    9abc:	e897000c 	ldm	r7, {r2, r3}
    9ac0:	eb001101 	bl	decc <__aeabi_dsub>
    9ac4:	eaffffe2 	b	9a54 <modf+0x78>
    9ac8:	e2053102 	and	r3, r5, #-2147483648	; 0x80000000
    9acc:	e584c000 	str	ip, [r4]
    9ad0:	e5843004 	str	r3, [r4, #4]
    9ad4:	e8870003 	stm	r7, {r0, r1}
    9ad8:	e89d0003 	ldm	sp, {r0, r1}
    9adc:	eaffffdc 	b	9a54 <modf+0x78>

00009ae0 <hal_spurious_IRQ>:
    9ae0:	e12fff1e 	bx	lr

00009ae4 <cyg_hal_invoke_constructors>:
    9ae4:	e92d4030 	push	{r4, r5, lr}
    9ae8:	e59f302c 	ldr	r3, [pc, #44]	; 9b1c <cyg_hal_invoke_constructors+0x38>
    9aec:	e59f502c 	ldr	r5, [pc, #44]	; 9b20 <cyg_hal_invoke_constructors+0x3c>
    9af0:	e1530005 	cmp	r3, r5
    9af4:	e24dd004 	sub	sp, sp, #4	; 0x4
    9af8:	0a000005 	beq	9b14 <cyg_hal_invoke_constructors+0x30>
    9afc:	e1a04003 	mov	r4, r3
    9b00:	e4943004 	ldr	r3, [r4], #4
    9b04:	e1a0e00f 	mov	lr, pc
    9b08:	e12fff13 	bx	r3
    9b0c:	e1540005 	cmp	r4, r5
    9b10:	1afffffa 	bne	9b00 <cyg_hal_invoke_constructors+0x1c>
    9b14:	e28dd004 	add	sp, sp, #4	; 0x4
    9b18:	e8bd8030 	pop	{r4, r5, pc}
    9b1c:	40000854 	.word	0x40000854
    9b20:	40000884 	.word	0x40000884

00009b24 <hal_arch_default_isr>:
    9b24:	e3a00000 	mov	r0, #0	; 0x0
    9b28:	e12fff1e 	bx	lr

00009b2c <hal_lsbindex>:
    9b2c:	e1a02000 	mov	r2, r0
    9b30:	e3a00000 	mov	r0, #0	; 0x0
    9b34:	e1a03052 	asr	r3, r2, r0
    9b38:	e3130001 	tst	r3, #1	; 0x1
    9b3c:	112fff1e 	bxne	lr
    9b40:	e2800001 	add	r0, r0, #1	; 0x1
    9b44:	e3500020 	cmp	r0, #32	; 0x20
    9b48:	1afffff9 	bne	9b34 <hal_lsbindex+0x8>
    9b4c:	e2400021 	sub	r0, r0, #33	; 0x21
    9b50:	e12fff1e 	bx	lr

00009b54 <hal_msbindex>:
    9b54:	e1a02000 	mov	r2, r0
    9b58:	e3a0001f 	mov	r0, #31	; 0x1f
    9b5c:	e1a03052 	asr	r3, r2, r0
    9b60:	e3130001 	tst	r3, #1	; 0x1
    9b64:	112fff1e 	bxne	lr
    9b68:	e2500001 	subs	r0, r0, #1	; 0x1
    9b6c:	2afffffa 	bcs	9b5c <hal_msbindex+0x8>
    9b70:	e12fff1e 	bx	lr

00009b74 <exception_handler>:
    9b74:	e1a01000 	mov	r1, r0
    9b78:	e5900044 	ldr	r0, [r0, #68]
    9b7c:	eaffec34 	b	4c54 <cyg_hal_deliver_exception>

00009b80 <hal_thread_switch_context>:
    9b80:	e1a0c00d 	mov	ip, sp
    9b84:	e24dd014 	sub	sp, sp, #20	; 0x14
    9b88:	e92d5000 	push	{ip, lr}
    9b8c:	e92d1fff 	push	{r0, r1, r2, r3, r4, r5, r6, r7, r8, r9, sl, fp, ip}
    9b90:	e10f2000 	mrs	r2, CPSR
    9b94:	e58d2040 	str	r2, [sp, #64]
    9b98:	e581d000 	str	sp, [r1]

00009b9c <hal_thread_load_context>:
    9b9c:	e590b000 	ldr	fp, [r0]
    9ba0:	e10f0000 	mrs	r0, CPSR
    9ba4:	e38000c0 	orr	r0, r0, #192	; 0xc0
    9ba8:	e129f000 	msr	CPSR_fc, r0
    9bac:	e59b0040 	ldr	r0, [fp, #64]
    9bb0:	e169f000 	msr	SPSR_fc, r0
    9bb4:	e89b7fff 	ldm	fp, {r0, r1, r2, r3, r4, r5, r6, r7, r8, r9, sl, fp, ip, sp, lr}
    9bb8:	e1b0f00e 	movs	pc, lr

00009bbc <hal_setjmp>:
    9bbc:	e8807ff0 	stm	r0, {r4, r5, r6, r7, r8, r9, sl, fp, ip, sp, lr}
    9bc0:	e3a00000 	mov	r0, #0	; 0x0
    9bc4:	e1a0f00e 	mov	pc, lr

00009bc8 <hal_longjmp>:
    9bc8:	e8907ff0 	ldm	r0, {r4, r5, r6, r7, r8, r9, sl, fp, ip, sp, lr}
    9bcc:	e1a00001 	mov	r0, r1
    9bd0:	e1a0f00e 	mov	pc, lr

00009bd4 <hal_clock_initialize>:
    9bd4:	e3a0320e 	mov	r3, #-536870912	; 0xe0000000
    9bd8:	e2833901 	add	r3, r3, #16384	; 0x4000
    9bdc:	e3a02002 	mov	r2, #2	; 0x2
    9be0:	e3a01000 	mov	r1, #0	; 0x0
    9be4:	e5832004 	str	r2, [r3, #4]
    9be8:	e1a00120 	lsr	r0, r0, #2
    9bec:	e583100c 	str	r1, [r3, #12]
    9bf0:	e2822001 	add	r2, r2, #1	; 0x1
    9bf4:	e2811001 	add	r1, r1, #1	; 0x1
    9bf8:	e5830018 	str	r0, [r3, #24]
    9bfc:	e5832014 	str	r2, [r3, #20]
    9c00:	e5831004 	str	r1, [r3, #4]
    9c04:	e12fff1e 	bx	lr

00009c08 <hal_clock_reset>:
    9c08:	e3a0320e 	mov	r3, #-536870912	; 0xe0000000
    9c0c:	e2833901 	add	r3, r3, #16384	; 0x4000
    9c10:	e3a02001 	mov	r2, #1	; 0x1
    9c14:	e92d4030 	push	{r4, r5, lr}
    9c18:	e5832000 	str	r2, [r3]
    9c1c:	e59f5020 	ldr	r5, [pc, #32]	; 9c44 <hal_clock_reset+0x3c>
    9c20:	e5953000 	ldr	r3, [r5]
    9c24:	e1510003 	cmp	r1, r3
    9c28:	e24dd004 	sub	sp, sp, #4	; 0x4
    9c2c:	e1a04001 	mov	r4, r1
    9c30:	11a00001 	movne	r0, r1
    9c34:	1bffffe6 	blne	9bd4 <hal_clock_initialize>
    9c38:	e5854000 	str	r4, [r5]
    9c3c:	e28dd004 	add	sp, sp, #4	; 0x4
    9c40:	e8bd8030 	pop	{r4, r5, pc}
    9c44:	40004670 	.word	0x40004670

00009c48 <hal_clock_read>:
    9c48:	e3a0320e 	mov	r3, #-536870912	; 0xe0000000
    9c4c:	e2833901 	add	r3, r3, #16384	; 0x4000
    9c50:	e5932008 	ldr	r2, [r3, #8]
    9c54:	e5802000 	str	r2, [r0]
    9c58:	e12fff1e 	bx	lr

00009c5c <hal_delay_us>:
    9c5c:	e3a038e1 	mov	r3, #14745600	; 0xe10000
    9c60:	e92d4030 	push	{r4, r5, lr}
    9c64:	e0c54390 	smull	r4, r5, r0, r3
    9c68:	e3a0293d 	mov	r2, #999424	; 0xf4000
    9c6c:	e2822d09 	add	r2, r2, #576	; 0x240
    9c70:	e3a03000 	mov	r3, #0	; 0x0
    9c74:	e24dd004 	sub	sp, sp, #4	; 0x4
    9c78:	e1a00004 	mov	r0, r4
    9c7c:	e1a01005 	mov	r1, r5
    9c80:	eb001332 	bl	e950 <__aeabi_uldivmod>
    9c84:	e3a0320e 	mov	r3, #-536870912	; 0xe0000000
    9c88:	e2833902 	add	r3, r3, #32768	; 0x8000
    9c8c:	e3a02002 	mov	r2, #2	; 0x2
    9c90:	e5832004 	str	r2, [r3, #4]
    9c94:	e2822004 	add	r2, r2, #4	; 0x4
    9c98:	e5830018 	str	r0, [r3, #24]
    9c9c:	e3a0c000 	mov	ip, #0	; 0x0
    9ca0:	e5832014 	str	r2, [r3, #20]
    9ca4:	e2422005 	sub	r2, r2, #5	; 0x5
    9ca8:	e583c00c 	str	ip, [r3, #12]
    9cac:	e5832004 	str	r2, [r3, #4]
    9cb0:	e1a0c000 	mov	ip, r0
    9cb4:	e1a00001 	mov	r0, r1
    9cb8:	e3500000 	cmp	r0, #0	; 0x0
    9cbc:	e5932008 	ldr	r2, [r3, #8]
    9cc0:	8afffffc 	bhi	9cb8 <hal_delay_us+0x5c>
    9cc4:	0a000001 	beq	9cd0 <hal_delay_us+0x74>
    9cc8:	e28dd004 	add	sp, sp, #4	; 0x4
    9ccc:	e8bd8030 	pop	{r4, r5, pc}
    9cd0:	e15c0002 	cmp	ip, r2
    9cd4:	8afffff7 	bhi	9cb8 <hal_delay_us+0x5c>
    9cd8:	eafffffa 	b	9cc8 <hal_delay_us+0x6c>

00009cdc <lpc_get_vpbdiv>:
    9cdc:	e3a0320e 	mov	r3, #-536870912	; 0xe0000000
    9ce0:	e283397f 	add	r3, r3, #2080768	; 0x1fc000
    9ce4:	e5932100 	ldr	r2, [r3, #256]
    9ce8:	e5930100 	ldr	r0, [r3, #256]
    9cec:	e12fff1e 	bx	lr

00009cf0 <lpc_set_vpbdiv>:
    9cf0:	e3a0320e 	mov	r3, #-536870912	; 0xe0000000
    9cf4:	e2000003 	and	r0, r0, #3	; 0x3
    9cf8:	e283397f 	add	r3, r3, #2080768	; 0x1fc000
    9cfc:	e5830100 	str	r0, [r3, #256]
    9d00:	e12fff1e 	bx	lr

00009d04 <hal_IRQ_handler>:
    9d04:	e3e03000 	mvn	r3, #0	; 0x0
    9d08:	e5130fcf 	ldr	r0, [r3, #-4047]
    9d0c:	e1500003 	cmp	r0, r3
    9d10:	112fff1e 	bxne	lr
    9d14:	e5100fff 	ldr	r0, [r0, #-4095]
    9d18:	e2103001 	ands	r3, r0, #1	; 0x1
    9d1c:	13a03000 	movne	r3, #0	; 0x0
    9d20:	1a000006 	bne	9d40 <hal_IRQ_handler+0x3c>
    9d24:	e1a000a0 	lsr	r0, r0, #1
    9d28:	e3100001 	tst	r0, #1	; 0x1
    9d2c:	e2833001 	add	r3, r3, #1	; 0x1
    9d30:	0afffffb 	beq	9d24 <hal_IRQ_handler+0x20>
    9d34:	e353001f 	cmp	r3, #31	; 0x1f
    9d38:	83e00000 	mvnhi	r0, #0	; 0x0
    9d3c:	812fff1e 	bxhi	lr
    9d40:	e1a00003 	mov	r0, r3
    9d44:	e12fff1e 	bx	lr

00009d48 <hal_interrupt_mask>:
    9d48:	e3a03001 	mov	r3, #1	; 0x1
    9d4c:	e1a03013 	lsl	r3, r3, r0
    9d50:	e3e02000 	mvn	r2, #0	; 0x0
    9d54:	e5023feb 	str	r3, [r2, #-4075]
    9d58:	e12fff1e 	bx	lr

00009d5c <hal_interrupt_unmask>:
    9d5c:	e3a03001 	mov	r3, #1	; 0x1
    9d60:	e1a03013 	lsl	r3, r3, r0
    9d64:	e3e02000 	mvn	r2, #0	; 0x0
    9d68:	e5023fef 	str	r3, [r2, #-4079]
    9d6c:	e12fff1e 	bx	lr

00009d70 <hal_interrupt_acknowledge>:
    9d70:	e240000e 	sub	r0, r0, #14	; 0xe
    9d74:	e3500003 	cmp	r0, #3	; 0x3
    9d78:	93a02001 	movls	r2, #1	; 0x1
    9d7c:	91a02012 	lslls	r2, r2, r0
    9d80:	93a0320e 	movls	r3, #-536870912	; 0xe0000000
    9d84:	9283397f 	addls	r3, r3, #2080768	; 0x1fc000
    9d88:	95832140 	strls	r2, [r3, #320]
    9d8c:	e3a02000 	mov	r2, #0	; 0x0
    9d90:	e3e03000 	mvn	r3, #0	; 0x0
    9d94:	e5032fcf 	str	r2, [r3, #-4047]
    9d98:	e12fff1e 	bx	lr

00009d9c <hal_interrupt_configure>:
    9d9c:	e3a0c20e 	mov	ip, #-536870912	; 0xe0000000
    9da0:	e28cc97f 	add	ip, ip, #2080768	; 0x1fc000
    9da4:	e59c3100 	ldr	r3, [ip, #256]
    9da8:	e3a03000 	mov	r3, #0	; 0x0
    9dac:	e1510003 	cmp	r1, r3
    9db0:	e240000e 	sub	r0, r0, #14	; 0xe
    9db4:	e52d4004 	push	{r4}		; (str r4, [sp, #-4]!)
    9db8:	e59c4100 	ldr	r4, [ip, #256]
    9dbc:	e58c3100 	str	r3, [ip, #256]
    9dc0:	e2833001 	add	r3, r3, #1	; 0x1
    9dc4:	e1a01013 	lsl	r1, r3, r0
    9dc8:	e1a00002 	mov	r0, r2
    9dcc:	e59c2148 	ldr	r2, [ip, #328]
    9dd0:	11e03001 	mvnne	r3, r1
    9dd4:	10032002 	andne	r2, r3, r2
    9dd8:	e3a0320e 	mov	r3, #-536870912	; 0xe0000000
    9ddc:	e283397f 	add	r3, r3, #2080768	; 0x1fc000
    9de0:	01812002 	orreq	r2, r1, r2
    9de4:	e5832148 	str	r2, [r3, #328]
    9de8:	e5832100 	str	r2, [r3, #256]
    9dec:	e3a02000 	mov	r2, #0	; 0x0
    9df0:	e5832100 	str	r2, [r3, #256]
    9df4:	e1500002 	cmp	r0, r2
    9df8:	e593214c 	ldr	r2, [r3, #332]
    9dfc:	01e03001 	mvneq	r3, r1
    9e00:	00032002 	andeq	r2, r3, r2
    9e04:	e3a0320e 	mov	r3, #-536870912	; 0xe0000000
    9e08:	e283397f 	add	r3, r3, #2080768	; 0x1fc000
    9e0c:	11812002 	orrne	r2, r1, r2
    9e10:	e583214c 	str	r2, [r3, #332]
    9e14:	e5832100 	str	r2, [r3, #256]
    9e18:	e5834100 	str	r4, [r3, #256]
    9e1c:	e5831140 	str	r1, [r3, #320]
    9e20:	e8bd0010 	pop	{r4}
    9e24:	e12fff1e 	bx	lr

00009e28 <hal_interrupt_set_level>:
    9e28:	e351000f 	cmp	r1, #15	; 0xf
    9e2c:	d1a03101 	lslle	r3, r1, #2
    9e30:	d3802020 	orrle	r2, r0, #32	; 0x20
    9e34:	d5131e00 	ldrle	r1, [r3, #-3584]
    9e38:	d5032e00 	strle	r2, [r3, #-3584]
    9e3c:	d5030f00 	strle	r0, [r3, #-3840]
    9e40:	e12fff1e 	bx	lr

00009e44 <hal_lpc_watchdog_reset>:
    9e44:	e3a0120e 	mov	r1, #-536870912	; 0xe0000000
    9e48:	e3a030ff 	mov	r3, #255	; 0xff
    9e4c:	e3a02003 	mov	r2, #3	; 0x3
    9e50:	e5813004 	str	r3, [r1, #4]
    9e54:	e5812000 	str	r2, [r1]
    9e58:	e2433055 	sub	r3, r3, #85	; 0x55
    9e5c:	e2822052 	add	r2, r2, #82	; 0x52
    9e60:	e5813008 	str	r3, [r1, #8]
    9e64:	e5812008 	str	r2, [r1, #8]
    9e68:	eafffffe 	b	9e68 <hal_lpc_watchdog_reset+0x24>

00009e6c <hal_hardware_init>:
    9e6c:	e3a0320e 	mov	r3, #-536870912	; 0xe0000000
    9e70:	e3e01000 	mvn	r1, #0	; 0x0
    9e74:	e3a02000 	mov	r2, #0	; 0x0
    9e78:	e283397f 	add	r3, r3, #2080768	; 0x1fc000
    9e7c:	e5832100 	str	r2, [r3, #256]
    9e80:	e5011fcb 	str	r1, [r1, #-4043]
    9e84:	eaffddf8 	b	166c <hal_if_init>

00009e88 <hal_lpc2xxx_set_leds>:
    9e88:	e3a0320e 	mov	r3, #-536870912	; 0xe0000000
    9e8c:	e283390a 	add	r3, r3, #163840	; 0x28000
    9e90:	e3a02080 	mov	r2, #128	; 0x80
    9e94:	e3100001 	tst	r0, #1	; 0x1
    9e98:	e5832004 	str	r2, [r3, #4]
    9e9c:	1583200c 	strne	r2, [r3, #12]
    9ea0:	e12fff1e 	bx	lr

00009ea4 <cyg_hal_plf_comms_init>:
    9ea4:	e59f2014 	ldr	r2, [pc, #20]	; 9ec0 <cyg_hal_plf_comms_init+0x1c>
    9ea8:	e5923000 	ldr	r3, [r2]
    9eac:	e3530000 	cmp	r3, #0	; 0x0
    9eb0:	112fff1e 	bxne	lr
    9eb4:	e2833001 	add	r3, r3, #1	; 0x1
    9eb8:	e5823000 	str	r3, [r2]
    9ebc:	ea000936 	b	c39c <cyg_hal_plf_serial_init>
    9ec0:	40004674 	.word	0x40004674

00009ec4 <_ZN11Cyg_CounterC2Ej>:
    9ec4:	e52d4004 	push	{r4}		; (str r4, [sp, #-4]!)
    9ec8:	e3a02000 	mov	r2, #0	; 0x0
    9ecc:	e3a03000 	mov	r3, #0	; 0x0
    9ed0:	e3a04000 	mov	r4, #0	; 0x0
    9ed4:	e5801010 	str	r1, [r0, #16]
    9ed8:	e5802000 	str	r2, [r0]
    9edc:	e5803008 	str	r3, [r0, #8]
    9ee0:	e580400c 	str	r4, [r0, #12]
    9ee4:	e8bd0010 	pop	{r4}
    9ee8:	e12fff1e 	bx	lr

00009eec <_ZN11Cyg_CounterC1Ej>:
    9eec:	e52d4004 	push	{r4}		; (str r4, [sp, #-4]!)
    9ef0:	e3a02000 	mov	r2, #0	; 0x0
    9ef4:	e3a03000 	mov	r3, #0	; 0x0
    9ef8:	e3a04000 	mov	r4, #0	; 0x0
    9efc:	e5801010 	str	r1, [r0, #16]
    9f00:	e5802000 	str	r2, [r0]
    9f04:	e5803008 	str	r3, [r0, #8]
    9f08:	e580400c 	str	r4, [r0, #12]
    9f0c:	e8bd0010 	pop	{r4}
    9f10:	e12fff1e 	bx	lr

00009f14 <_ZN11Cyg_CounterD2Ev>:
    9f14:	e5901000 	ldr	r1, [r0]
    9f18:	ea000009 	b	9f44 <_ZN11Cyg_CounterD2Ev+0x30>
    9f1c:	e591c000 	ldr	ip, [r1]
    9f20:	e15c0001 	cmp	ip, r1
    9f24:	15913004 	ldrne	r3, [r1, #4]
    9f28:	158c3004 	strne	r3, [ip, #4]
    9f2c:	15912004 	ldrne	r2, [r1, #4]
    9f30:	03a0c000 	moveq	ip, #0	; 0x0
    9f34:	1582c000 	strne	ip, [r2]
    9f38:	15811004 	strne	r1, [r1, #4]
    9f3c:	15811000 	strne	r1, [r1]
    9f40:	e1a0100c 	mov	r1, ip
    9f44:	e3510000 	cmp	r1, #0	; 0x0
    9f48:	1afffff3 	bne	9f1c <_ZN11Cyg_CounterD2Ev+0x8>
    9f4c:	e5801000 	str	r1, [r0]
    9f50:	e12fff1e 	bx	lr

00009f54 <_ZN11Cyg_CounterD1Ev>:
    9f54:	e5901000 	ldr	r1, [r0]
    9f58:	ea000009 	b	9f84 <_ZN11Cyg_CounterD1Ev+0x30>
    9f5c:	e591c000 	ldr	ip, [r1]
    9f60:	e15c0001 	cmp	ip, r1
    9f64:	15913004 	ldrne	r3, [r1, #4]
    9f68:	158c3004 	strne	r3, [ip, #4]
    9f6c:	15912004 	ldrne	r2, [r1, #4]
    9f70:	03a0c000 	moveq	ip, #0	; 0x0
    9f74:	1582c000 	strne	ip, [r2]
    9f78:	15811004 	strne	r1, [r1, #4]
    9f7c:	15811000 	strne	r1, [r1]
    9f80:	e1a0100c 	mov	r1, ip
    9f84:	e3510000 	cmp	r1, #0	; 0x0
    9f88:	1afffff3 	bne	9f5c <_ZN11Cyg_CounterD1Ev+0x8>
    9f8c:	e5801000 	str	r1, [r0]
    9f90:	e12fff1e 	bx	lr

00009f94 <_ZN11Cyg_Counter9rem_alarmEP9Cyg_Alarm>:
    9f94:	e5903000 	ldr	r3, [r0]
    9f98:	e1510003 	cmp	r1, r3
    9f9c:	e1a0c001 	mov	ip, r1
    9fa0:	0a000009 	beq	9fcc <_ZN11Cyg_Counter9rem_alarmEP9Cyg_Alarm+0x38>
    9fa4:	e5913000 	ldr	r3, [r1]
    9fa8:	e5912004 	ldr	r2, [r1, #4]
    9fac:	e5832004 	str	r2, [r3, #4]
    9fb0:	e5911004 	ldr	r1, [r1, #4]
    9fb4:	e58cc004 	str	ip, [ip, #4]
    9fb8:	e5813000 	str	r3, [r1]
    9fbc:	e58cc000 	str	ip, [ip]
    9fc0:	e3a03000 	mov	r3, #0	; 0x0
    9fc4:	e58c3028 	str	r3, [ip, #40]
    9fc8:	e12fff1e 	bx	lr
    9fcc:	e3510000 	cmp	r1, #0	; 0x0
    9fd0:	0afffffa 	beq	9fc0 <_ZN11Cyg_Counter9rem_alarmEP9Cyg_Alarm+0x2c>
    9fd4:	e5911000 	ldr	r1, [r1]
    9fd8:	e15c0001 	cmp	ip, r1
    9fdc:	159c3004 	ldrne	r3, [ip, #4]
    9fe0:	15813004 	strne	r3, [r1, #4]
    9fe4:	03a03000 	moveq	r3, #0	; 0x0
    9fe8:	159c2004 	ldrne	r2, [ip, #4]
    9fec:	05803000 	streq	r3, [r0]
    9ff0:	e3a03000 	mov	r3, #0	; 0x0
    9ff4:	15821000 	strne	r1, [r2]
    9ff8:	158cc004 	strne	ip, [ip, #4]
    9ffc:	158cc000 	strne	ip, [ip]
    a000:	e58c3028 	str	r3, [ip, #40]
    a004:	15801000 	strne	r1, [r0]
    a008:	e12fff1e 	bx	lr

0000a00c <_ZN9Cyg_ClockC2ENS_14cyg_resolutionE>:
    a00c:	e52d4004 	push	{r4}		; (str r4, [sp, #-4]!)
    a010:	e24dd00c 	sub	sp, sp, #12	; 0xc
    a014:	e88d0006 	stm	sp, {r1, r2}
    a018:	e59d3000 	ldr	r3, [sp]
    a01c:	e1a0c002 	mov	ip, r2
    a020:	e3a02000 	mov	r2, #0	; 0x0
    a024:	e5803014 	str	r3, [r0, #20]
    a028:	e5802000 	str	r2, [r0]
    a02c:	e3a03000 	mov	r3, #0	; 0x0
    a030:	e3a04000 	mov	r4, #0	; 0x0
    a034:	e2822001 	add	r2, r2, #1	; 0x1
    a038:	e5803008 	str	r3, [r0, #8]
    a03c:	e580400c 	str	r4, [r0, #12]
    a040:	e5802010 	str	r2, [r0, #16]
    a044:	e580c018 	str	ip, [r0, #24]
    a048:	e28dd00c 	add	sp, sp, #12	; 0xc
    a04c:	e8bd0010 	pop	{r4}
    a050:	e12fff1e 	bx	lr

0000a054 <_ZN9Cyg_ClockC1ENS_14cyg_resolutionE>:
    a054:	e52d4004 	push	{r4}		; (str r4, [sp, #-4]!)
    a058:	e24dd00c 	sub	sp, sp, #12	; 0xc
    a05c:	e88d0006 	stm	sp, {r1, r2}
    a060:	e59d3000 	ldr	r3, [sp]
    a064:	e1a0c002 	mov	ip, r2
    a068:	e3a02000 	mov	r2, #0	; 0x0
    a06c:	e5803014 	str	r3, [r0, #20]
    a070:	e5802000 	str	r2, [r0]
    a074:	e3a03000 	mov	r3, #0	; 0x0
    a078:	e3a04000 	mov	r4, #0	; 0x0
    a07c:	e2822001 	add	r2, r2, #1	; 0x1
    a080:	e5803008 	str	r3, [r0, #8]
    a084:	e580400c 	str	r4, [r0, #12]
    a088:	e5802010 	str	r2, [r0, #16]
    a08c:	e580c018 	str	ip, [r0, #24]
    a090:	e28dd00c 	add	sp, sp, #12	; 0xc
    a094:	e8bd0010 	pop	{r4}
    a098:	e12fff1e 	bx	lr

0000a09c <_ZN9Cyg_ClockD2Ev>:
    a09c:	e5901000 	ldr	r1, [r0]
    a0a0:	ea000009 	b	a0cc <_ZN9Cyg_ClockD2Ev+0x30>
    a0a4:	e591c000 	ldr	ip, [r1]
    a0a8:	e15c0001 	cmp	ip, r1
    a0ac:	15913004 	ldrne	r3, [r1, #4]
    a0b0:	158c3004 	strne	r3, [ip, #4]
    a0b4:	15912004 	ldrne	r2, [r1, #4]
    a0b8:	03a0c000 	moveq	ip, #0	; 0x0
    a0bc:	1582c000 	strne	ip, [r2]
    a0c0:	15811004 	strne	r1, [r1, #4]
    a0c4:	15811000 	strne	r1, [r1]
    a0c8:	e1a0100c 	mov	r1, ip
    a0cc:	e3510000 	cmp	r1, #0	; 0x0
    a0d0:	1afffff3 	bne	a0a4 <_ZN9Cyg_ClockD2Ev+0x8>
    a0d4:	e5801000 	str	r1, [r0]
    a0d8:	e12fff1e 	bx	lr

0000a0dc <_ZN9Cyg_ClockD1Ev>:
    a0dc:	e5901000 	ldr	r1, [r0]
    a0e0:	ea000009 	b	a10c <_ZN9Cyg_ClockD1Ev+0x30>
    a0e4:	e591c000 	ldr	ip, [r1]
    a0e8:	e15c0001 	cmp	ip, r1
    a0ec:	15913004 	ldrne	r3, [r1, #4]
    a0f0:	158c3004 	strne	r3, [ip, #4]
    a0f4:	15912004 	ldrne	r2, [r1, #4]
    a0f8:	03a0c000 	moveq	ip, #0	; 0x0
    a0fc:	1582c000 	strne	ip, [r2]
    a100:	15811004 	strne	r1, [r1, #4]
    a104:	15811000 	strne	r1, [r1]
    a108:	e1a0100c 	mov	r1, ip
    a10c:	e3510000 	cmp	r1, #0	; 0x0
    a110:	1afffff3 	bne	a0e4 <_ZN9Cyg_ClockD1Ev+0x8>
    a114:	e5801000 	str	r1, [r0]
    a118:	e12fff1e 	bx	lr

0000a11c <_ZL19construct_converterPN9Cyg_Clock9converterEyyyy>:
    a11c:	e92d4ff0 	push	{r4, r5, r6, r7, r8, r9, sl, fp, lr}
    a120:	e24dd064 	sub	sp, sp, #100	; 0x64
    a124:	e59dc090 	ldr	ip, [sp, #144]
    a128:	e004039c 	mul	r4, ip, r3
    a12c:	e59de098 	ldr	lr, [sp, #152]
    a130:	e59d308c 	ldr	r3, [sp, #140]
    a134:	e005039e 	mul	r5, lr, r3
    a138:	e59d3094 	ldr	r3, [sp, #148]
    a13c:	e0264392 	mla	r6, r2, r3, r4
    a140:	e084329c 	umull	r3, r4, ip, r2
    a144:	e59d1088 	ldr	r1, [sp, #136]
    a148:	e58d3030 	str	r3, [sp, #48]
    a14c:	e58d4034 	str	r4, [sp, #52]
    a150:	e59d309c 	ldr	r3, [sp, #156]
    a154:	e0225391 	mla	r2, r1, r3, r5
    a158:	e084319e 	umull	r3, r4, lr, r1
    a15c:	e58d3038 	str	r3, [sp, #56]
    a160:	e58d403c 	str	r4, [sp, #60]
    a164:	e59de03c 	ldr	lr, [sp, #60]
    a168:	e59d4034 	ldr	r4, [sp, #52]
    a16c:	e58d002c 	str	r0, [sp, #44]
    a170:	e0864004 	add	r4, r6, r4
    a174:	e082e00e 	add	lr, r2, lr
    a178:	e3a00000 	mov	r0, #0	; 0x0
    a17c:	e58d4034 	str	r4, [sp, #52]
    a180:	e58de03c 	str	lr, [sp, #60]
    a184:	e58d0048 	str	r0, [sp, #72]
    a188:	e28d3030 	add	r3, sp, #48	; 0x30
    a18c:	e8930018 	ldm	r3, {r3, r4}
    a190:	e3a01001 	mov	r1, #1	; 0x1
    a194:	e3a02000 	mov	r2, #0	; 0x0
    a198:	e0033001 	and	r3, r3, r1
    a19c:	e0044002 	and	r4, r4, r2
    a1a0:	e193e004 	orrs	lr, r3, r4
    a1a4:	1a000019 	bne	a210 <_ZL19construct_converterPN9Cyg_Clock9converterEyyyy+0xf4>
    a1a8:	e28d3038 	add	r3, sp, #56	; 0x38
    a1ac:	e8930018 	ldm	r3, {r3, r4}
    a1b0:	e0033001 	and	r3, r3, r1
    a1b4:	e0044002 	and	r4, r4, r2
    a1b8:	e1930004 	orrs	r0, r3, r4
    a1bc:	1a000013 	bne	a210 <_ZL19construct_converterPN9Cyg_Clock9converterEyyyy+0xf4>
    a1c0:	e28d1030 	add	r1, sp, #48	; 0x30
    a1c4:	e8910006 	ldm	r1, {r1, r2}
    a1c8:	e1b020a2 	lsrs	r2, r2, #1
    a1cc:	e1a01061 	rrx	r1, r1
    a1d0:	e58d1030 	str	r1, [sp, #48]
    a1d4:	e58d2034 	str	r2, [sp, #52]
    a1d8:	e28d2038 	add	r2, sp, #56	; 0x38
    a1dc:	e892000c 	ldm	r2, {r2, r3}
    a1e0:	e1b030a3 	lsrs	r3, r3, #1
    a1e4:	e1a02062 	rrx	r2, r2
    a1e8:	e58d2038 	str	r2, [sp, #56]
    a1ec:	e58d303c 	str	r3, [sp, #60]
    a1f0:	e28d3030 	add	r3, sp, #48	; 0x30
    a1f4:	e8930018 	ldm	r3, {r3, r4}
    a1f8:	e3a01001 	mov	r1, #1	; 0x1
    a1fc:	e3a02000 	mov	r2, #0	; 0x0
    a200:	e0033001 	and	r3, r3, r1
    a204:	e0044002 	and	r4, r4, r2
    a208:	e193e004 	orrs	lr, r3, r4
    a20c:	0affffe5 	beq	a1a8 <_ZL19construct_converterPN9Cyg_Clock9converterEyyyy+0x8c>
    a210:	e3a01000 	mov	r1, #0	; 0x0
    a214:	e58d104c 	str	r1, [sp, #76]
    a218:	ea000004 	b	a230 <_ZL19construct_converterPN9Cyg_Clock9converterEyyyy+0x114>
    a21c:	e59de04c 	ldr	lr, [sp, #76]
    a220:	e28ee002 	add	lr, lr, #2	; 0x2
    a224:	e35e0060 	cmp	lr, #96	; 0x60
    a228:	e58de04c 	str	lr, [sp, #76]
    a22c:	0a00003f 	beq	a330 <_ZL19construct_converterPN9Cyg_Clock9converterEyyyy+0x214>
    a230:	e59f2838 	ldr	r2, [pc, #2104]	; aa70 <_ZL19construct_converterPN9Cyg_Clock9converterEyyyy+0x954>
    a234:	e59d404c 	ldr	r4, [sp, #76]
    a238:	e19230b4 	ldrh	r3, [r2, r4]
    a23c:	e28d0030 	add	r0, sp, #48	; 0x30
    a240:	e8900003 	ldm	r0, {r0, r1}
    a244:	e58d3008 	str	r3, [sp, #8]
    a248:	e1a02003 	mov	r2, r3
    a24c:	e3a03000 	mov	r3, #0	; 0x0
    a250:	eb0011be 	bl	e950 <__aeabi_uldivmod>
    a254:	e59de008 	ldr	lr, [sp, #8]
    a258:	e0843e90 	umull	r3, r4, r0, lr
    a25c:	e1a05000 	mov	r5, r0
    a260:	e59d0030 	ldr	r0, [sp, #48]
    a264:	e1500003 	cmp	r0, r3
    a268:	e1a06001 	mov	r6, r1
    a26c:	e024419e 	mla	r4, lr, r1, r4
    a270:	1affffe9 	bne	a21c <_ZL19construct_converterPN9Cyg_Clock9converterEyyyy+0x100>
    a274:	e59d1034 	ldr	r1, [sp, #52]
    a278:	e1510004 	cmp	r1, r4
    a27c:	1affffe6 	bne	a21c <_ZL19construct_converterPN9Cyg_Clock9converterEyyyy+0x100>
    a280:	e1a0200e 	mov	r2, lr
    a284:	e3a03000 	mov	r3, #0	; 0x0
    a288:	e28d0038 	add	r0, sp, #56	; 0x38
    a28c:	e8900003 	ldm	r0, {r0, r1}
    a290:	eb0011ae 	bl	e950 <__aeabi_uldivmod>
    a294:	e59d2008 	ldr	r2, [sp, #8]
    a298:	e0843290 	umull	r3, r4, r0, r2
    a29c:	e59de038 	ldr	lr, [sp, #56]
    a2a0:	e15e0003 	cmp	lr, r3
    a2a4:	e1a0a000 	mov	sl, r0
    a2a8:	e1a0b001 	mov	fp, r1
    a2ac:	e0244192 	mla	r4, r2, r1, r4
    a2b0:	1affffd9 	bne	a21c <_ZL19construct_converterPN9Cyg_Clock9converterEyyyy+0x100>
    a2b4:	e59d003c 	ldr	r0, [sp, #60]
    a2b8:	e1500004 	cmp	r0, r4
    a2bc:	1affffd6 	bne	a21c <_ZL19construct_converterPN9Cyg_Clock9converterEyyyy+0x100>
    a2c0:	e59d2008 	ldr	r2, [sp, #8]
    a2c4:	e3a03000 	mov	r3, #0	; 0x0
    a2c8:	e1a00005 	mov	r0, r5
    a2cc:	e1a01006 	mov	r1, r6
    a2d0:	eb00119e 	bl	e950 <__aeabi_uldivmod>
    a2d4:	e3a0c000 	mov	ip, #0	; 0x0
    a2d8:	e00c0c90 	mul	ip, r0, ip
    a2dc:	e59d2008 	ldr	r2, [sp, #8]
    a2e0:	e1a08000 	mov	r8, r0
    a2e4:	e1a09001 	mov	r9, r1
    a2e8:	e0810298 	umull	r0, r1, r8, r2
    a2ec:	e022c299 	mla	r2, r9, r2, ip
    a2f0:	e58d0030 	str	r0, [sp, #48]
    a2f4:	e58d1034 	str	r1, [sp, #52]
    a2f8:	e59d3030 	ldr	r3, [sp, #48]
    a2fc:	e0821001 	add	r1, r2, r1
    a300:	e1530005 	cmp	r3, r5
    a304:	e58d1034 	str	r1, [sp, #52]
    a308:	0a000028 	beq	a3b0 <_ZL19construct_converterPN9Cyg_Clock9converterEyyyy+0x294>
    a30c:	e58d5030 	str	r5, [sp, #48]
    a310:	e58d6034 	str	r6, [sp, #52]
    a314:	e59de04c 	ldr	lr, [sp, #76]
    a318:	e28ee002 	add	lr, lr, #2	; 0x2
    a31c:	e35e0060 	cmp	lr, #96	; 0x60
    a320:	e58da038 	str	sl, [sp, #56]
    a324:	e58db03c 	str	fp, [sp, #60]
    a328:	e58de04c 	str	lr, [sp, #76]
    a32c:	1affffbf 	bne	a230 <_ZL19construct_converterPN9Cyg_Clock9converterEyyyy+0x114>
    a330:	e59d0034 	ldr	r0, [sp, #52]
    a334:	e59d1030 	ldr	r1, [sp, #48]
    a338:	e28d2038 	add	r2, sp, #56	; 0x38
    a33c:	e892000c 	ldm	r2, {r2, r3}
    a340:	e3500000 	cmp	r0, #0	; 0x0
    a344:	e58d001c 	str	r0, [sp, #28]
    a348:	e58d1020 	str	r1, [sp, #32]
    a34c:	e58d2028 	str	r2, [sp, #40]
    a350:	e58d3024 	str	r3, [sp, #36]
    a354:	1a00002e 	bne	a414 <_ZL19construct_converterPN9Cyg_Clock9converterEyyyy+0x2f8>
    a358:	e3510801 	cmp	r1, #65536	; 0x10000
    a35c:	8a00002c 	bhi	a414 <_ZL19construct_converterPN9Cyg_Clock9converterEyyyy+0x2f8>
    a360:	e3a07001 	mov	r7, #1	; 0x1
    a364:	e3a08000 	mov	r8, #0	; 0x0
    a368:	e58d3014 	str	r3, [sp, #20]
    a36c:	e58d2018 	str	r2, [sp, #24]
    a370:	e1a0c000 	mov	ip, r0
    a374:	e1a0a007 	mov	sl, r7
    a378:	e1a00001 	mov	r0, r1
    a37c:	e1a0b008 	mov	fp, r8
    a380:	e59d302c 	ldr	r3, [sp, #44]
    a384:	e59d4018 	ldr	r4, [sp, #24]
    a388:	e59de014 	ldr	lr, [sp, #20]
    a38c:	e583a018 	str	sl, [r3, #24]
    a390:	e583b01c 	str	fp, [r3, #28]
    a394:	e5837010 	str	r7, [r3, #16]
    a398:	e5838014 	str	r8, [r3, #20]
    a39c:	e8831001 	stm	r3, {r0, ip}
    a3a0:	e5834008 	str	r4, [r3, #8]
    a3a4:	e583e00c 	str	lr, [r3, #12]
    a3a8:	e28dd064 	add	sp, sp, #100	; 0x64
    a3ac:	e8bd8ff0 	pop	{r4, r5, r6, r7, r8, r9, sl, fp, pc}
    a3b0:	e1510006 	cmp	r1, r6
    a3b4:	1affffd4 	bne	a30c <_ZL19construct_converterPN9Cyg_Clock9converterEyyyy+0x1f0>
    a3b8:	e59d2008 	ldr	r2, [sp, #8]
    a3bc:	e1a0000a 	mov	r0, sl
    a3c0:	e1a0100b 	mov	r1, fp
    a3c4:	e3a03000 	mov	r3, #0	; 0x0
    a3c8:	eb001160 	bl	e950 <__aeabi_uldivmod>
    a3cc:	e1a06000 	mov	r6, r0
    a3d0:	e1a07001 	mov	r7, r1
    a3d4:	e3a01000 	mov	r1, #0	; 0x0
    a3d8:	e0010196 	mul	r1, r6, r1
    a3dc:	e59d2008 	ldr	r2, [sp, #8]
    a3e0:	e0854296 	umull	r4, r5, r6, r2
    a3e4:	e0221297 	mla	r2, r7, r2, r1
    a3e8:	e154000a 	cmp	r4, sl
    a3ec:	e0825005 	add	r5, r2, r5
    a3f0:	1affffc7 	bne	a314 <_ZL19construct_converterPN9Cyg_Clock9converterEyyyy+0x1f8>
    a3f4:	e155000b 	cmp	r5, fp
    a3f8:	1affffc5 	bne	a314 <_ZL19construct_converterPN9Cyg_Clock9converterEyyyy+0x1f8>
    a3fc:	e1a0c006 	mov	ip, r6
    a400:	e1a05008 	mov	r5, r8
    a404:	e1a06009 	mov	r6, r9
    a408:	e1a0a00c 	mov	sl, ip
    a40c:	e1a0b007 	mov	fp, r7
    a410:	eaffffaa 	b	a2c0 <_ZL19construct_converterPN9Cyg_Clock9converterEyyyy+0x1a4>
    a414:	e59d003c 	ldr	r0, [sp, #60]
    a418:	e59d1038 	ldr	r1, [sp, #56]
    a41c:	e3500000 	cmp	r0, #0	; 0x0
    a420:	e1e03001 	mvn	r3, r1
    a424:	e2033001 	and	r3, r3, #1	; 0x1
    a428:	e3a02000 	mov	r2, #0	; 0x0
    a42c:	1a000073 	bne	a600 <_ZL19construct_converterPN9Cyg_Clock9converterEyyyy+0x4e4>
    a430:	e3510001 	cmp	r1, #1	; 0x1
    a434:	8a000071 	bhi	a600 <_ZL19construct_converterPN9Cyg_Clock9converterEyyyy+0x4e4>
    a438:	e1130002 	tst	r3, r2
    a43c:	1a000072 	bne	a60c <_ZL19construct_converterPN9Cyg_Clock9converterEyyyy+0x4f0>
    a440:	e28d5038 	add	r5, sp, #56	; 0x38
    a444:	e8950060 	ldm	r5, {r5, r6}
    a448:	e3a02000 	mov	r2, #0	; 0x0
    a44c:	e3a01001 	mov	r1, #1	; 0x1
    a450:	e1560002 	cmp	r6, r2
    a454:	e58d5058 	str	r5, [sp, #88]
    a458:	e58d605c 	str	r6, [sp, #92]
    a45c:	e1a0a001 	mov	sl, r1
    a460:	e1a0b002 	mov	fp, r2
    a464:	8a000081 	bhi	a670 <_ZL19construct_converterPN9Cyg_Clock9converterEyyyy+0x554>
    a468:	0a000172 	beq	aa38 <_ZL19construct_converterPN9Cyg_Clock9converterEyyyy+0x91c>
    a46c:	e28d3058 	add	r3, sp, #88	; 0x58
    a470:	e8930018 	ldm	r3, {r3, r4}
    a474:	e58d3018 	str	r3, [sp, #24]
    a478:	e58d4014 	str	r4, [sp, #20]
    a47c:	e28d2058 	add	r2, sp, #88	; 0x58
    a480:	e8924004 	ldm	r2, {r2, lr}
    a484:	e1a0128e 	lsl	r1, lr, #5
    a488:	e1811da2 	orr	r1, r1, r2, lsr #27
    a48c:	e1a0c282 	lsl	ip, r2, #5
    a490:	e28d2030 	add	r2, sp, #48	; 0x30
    a494:	e892000c 	ldm	r2, {r2, r3}
    a498:	e58d2050 	str	r2, [sp, #80]
    a49c:	e58d3054 	str	r3, [sp, #84]
    a4a0:	e3a07001 	mov	r7, #1	; 0x1
    a4a4:	e3a08000 	mov	r8, #0	; 0x0
    a4a8:	e3a00801 	mov	r0, #65536	; 0x10000
    a4ac:	e2400001 	sub	r0, r0, #1	; 0x1
    a4b0:	e1a05007 	mov	r5, r7
    a4b4:	e1a06008 	mov	r6, r8
    a4b8:	e59d3054 	ldr	r3, [sp, #84]
    a4bc:	e1530008 	cmp	r3, r8
    a4c0:	e28d3050 	add	r3, sp, #80	; 0x50
    a4c4:	e8930018 	ldm	r3, {r3, r4}
    a4c8:	e0233005 	eor	r3, r3, r5
    a4cc:	e2033001 	and	r3, r3, #1	; 0x1
    a4d0:	e3a02000 	mov	r2, #0	; 0x0
    a4d4:	8a00009f 	bhi	a758 <_ZL19construct_converterPN9Cyg_Clock9converterEyyyy+0x63c>
    a4d8:	0a0000c3 	beq	a7ec <_ZL19construct_converterPN9Cyg_Clock9converterEyyyy+0x6d0>
    a4dc:	e1130002 	tst	r3, r2
    a4e0:	1a000081 	bne	a6ec <_ZL19construct_converterPN9Cyg_Clock9converterEyyyy+0x5d0>
    a4e4:	e59d3054 	ldr	r3, [sp, #84]
    a4e8:	e1530008 	cmp	r3, r8
    a4ec:	8a0000c5 	bhi	a808 <_ZL19construct_converterPN9Cyg_Clock9converterEyyyy+0x6ec>
    a4f0:	0a0000c1 	beq	a7fc <_ZL19construct_converterPN9Cyg_Clock9converterEyyyy+0x6e0>
    a4f4:	e28d3050 	add	r3, sp, #80	; 0x50
    a4f8:	e8930018 	ldm	r3, {r3, r4}
    a4fc:	e3a01001 	mov	r1, #1	; 0x1
    a500:	e3a02000 	mov	r2, #0	; 0x0
    a504:	e0033001 	and	r3, r3, r1
    a508:	e0044002 	and	r4, r4, r2
    a50c:	e1931004 	orrs	r1, r3, r4
    a510:	e28d0050 	add	r0, sp, #80	; 0x50
    a514:	e8901001 	ldm	r0, {r0, ip}
    a518:	0a000013 	beq	a56c <_ZL19construct_converterPN9Cyg_Clock9converterEyyyy+0x450>
    a51c:	e59d3020 	ldr	r3, [sp, #32]
    a520:	e1500003 	cmp	r0, r3
    a524:	e3a03000 	mov	r3, #0	; 0x0
    a528:	1a000002 	bne	a538 <_ZL19construct_converterPN9Cyg_Clock9converterEyyyy+0x41c>
    a52c:	e59de01c 	ldr	lr, [sp, #28]
    a530:	e15c000e 	cmp	ip, lr
    a534:	03a03001 	moveq	r3, #1	; 0x1
    a538:	e59d1054 	ldr	r1, [sp, #84]
    a53c:	e3510000 	cmp	r1, #0	; 0x0
    a540:	e3a02000 	mov	r2, #0	; 0x0
    a544:	1a000066 	bne	a6e4 <_ZL19construct_converterPN9Cyg_Clock9converterEyyyy+0x5c8>
    a548:	e59d4050 	ldr	r4, [sp, #80]
    a54c:	e3540801 	cmp	r4, #65536	; 0x10000
    a550:	8a000063 	bhi	a6e4 <_ZL19construct_converterPN9Cyg_Clock9converterEyyyy+0x5c8>
    a554:	e0033002 	and	r3, r3, r2
    a558:	e3130001 	tst	r3, #1	; 0x1
    a55c:	0a000002 	beq	a56c <_ZL19construct_converterPN9Cyg_Clock9converterEyyyy+0x450>
    a560:	e59de048 	ldr	lr, [sp, #72]
    a564:	e35e0001 	cmp	lr, #1	; 0x1
    a568:	da000135 	ble	aa44 <_ZL19construct_converterPN9Cyg_Clock9converterEyyyy+0x928>
    a56c:	e28d3058 	add	r3, sp, #88	; 0x58
    a570:	e8930018 	ldm	r3, {r3, r4}
    a574:	e3a01001 	mov	r1, #1	; 0x1
    a578:	e3a02000 	mov	r2, #0	; 0x0
    a57c:	e0033001 	and	r3, r3, r1
    a580:	e0044002 	and	r4, r4, r2
    a584:	e193e004 	orrs	lr, r3, r4
    a588:	0affff7c 	beq	a380 <_ZL19construct_converterPN9Cyg_Clock9converterEyyyy+0x264>
    a58c:	e59d1058 	ldr	r1, [sp, #88]
    a590:	e59d2028 	ldr	r2, [sp, #40]
    a594:	e1510002 	cmp	r1, r2
    a598:	e3a03000 	mov	r3, #0	; 0x0
    a59c:	0a000120 	beq	aa24 <_ZL19construct_converterPN9Cyg_Clock9converterEyyyy+0x908>
    a5a0:	e59d105c 	ldr	r1, [sp, #92]
    a5a4:	e3510000 	cmp	r1, #0	; 0x0
    a5a8:	e3a02000 	mov	r2, #0	; 0x0
    a5ac:	1a00004a 	bne	a6dc <_ZL19construct_converterPN9Cyg_Clock9converterEyyyy+0x5c0>
    a5b0:	e59d4058 	ldr	r4, [sp, #88]
    a5b4:	e3540801 	cmp	r4, #65536	; 0x10000
    a5b8:	8a000047 	bhi	a6dc <_ZL19construct_converterPN9Cyg_Clock9converterEyyyy+0x5c0>
    a5bc:	e0033002 	and	r3, r3, r2
    a5c0:	e3130001 	tst	r3, #1	; 0x1
    a5c4:	0affff6d 	beq	a380 <_ZL19construct_converterPN9Cyg_Clock9converterEyyyy+0x264>
    a5c8:	e59de048 	ldr	lr, [sp, #72]
    a5cc:	e35e0001 	cmp	lr, #1	; 0x1
    a5d0:	caffff6a 	bgt	a380 <_ZL19construct_converterPN9Cyg_Clock9converterEyyyy+0x264>
    a5d4:	e28d2058 	add	r2, sp, #88	; 0x58
    a5d8:	e892000c 	ldm	r2, {r2, r3}
    a5dc:	e3e00000 	mvn	r0, #0	; 0x0
    a5e0:	e0922000 	adds	r2, r2, r0
    a5e4:	e3e01000 	mvn	r1, #0	; 0x0
    a5e8:	e0a33001 	adc	r3, r3, r1
    a5ec:	e28ee001 	add	lr, lr, #1	; 0x1
    a5f0:	e58d2038 	str	r2, [sp, #56]
    a5f4:	e58d303c 	str	r3, [sp, #60]
    a5f8:	e58de048 	str	lr, [sp, #72]
    a5fc:	eafffee1 	b	a188 <_ZL19construct_converterPN9Cyg_Clock9converterEyyyy+0x6c>
    a600:	e3a02001 	mov	r2, #1	; 0x1
    a604:	e1130002 	tst	r3, r2
    a608:	0affff8c 	beq	a440 <_ZL19construct_converterPN9Cyg_Clock9converterEyyyy+0x324>
    a60c:	e3a01001 	mov	r1, #1	; 0x1
    a610:	e28d5038 	add	r5, sp, #56	; 0x38
    a614:	e8950060 	ldm	r5, {r5, r6}
    a618:	e3a02000 	mov	r2, #0	; 0x0
    a61c:	e1a0a001 	mov	sl, r1
    a620:	e0917001 	adds	r7, r1, r1
    a624:	e0a28002 	adc	r8, r2, r2
    a628:	e1b060a6 	lsrs	r6, r6, #1
    a62c:	e1a05065 	rrx	r5, r5
    a630:	e025300a 	eor	r3, r5, sl
    a634:	e1560008 	cmp	r6, r8
    a638:	e1a01007 	mov	r1, r7
    a63c:	e1a02008 	mov	r2, r8
    a640:	e2033001 	and	r3, r3, #1	; 0x1
    a644:	e3a00000 	mov	r0, #0	; 0x0
    a648:	8a000065 	bhi	a7e4 <_ZL19construct_converterPN9Cyg_Clock9converterEyyyy+0x6c8>
    a64c:	0a000062 	beq	a7dc <_ZL19construct_converterPN9Cyg_Clock9converterEyyyy+0x6c0>
    a650:	e1130000 	tst	r3, r0
    a654:	1afffff1 	bne	a620 <_ZL19construct_converterPN9Cyg_Clock9converterEyyyy+0x504>
    a658:	e1560002 	cmp	r6, r2
    a65c:	e1a0a007 	mov	sl, r7
    a660:	e1a0b008 	mov	fp, r8
    a664:	e58d5058 	str	r5, [sp, #88]
    a668:	e58d605c 	str	r6, [sp, #92]
    a66c:	9affff7d 	bls	a468 <_ZL19construct_converterPN9Cyg_Clock9converterEyyyy+0x34c>
    a670:	e3a09000 	mov	r9, #0	; 0x0
    a674:	e59fe3f4 	ldr	lr, [pc, #1012]	; aa70 <_ZL19construct_converterPN9Cyg_Clock9converterEyyyy+0x954>
    a678:	e1a03089 	lsl	r3, r9, #1
    a67c:	e19e20b3 	ldrh	r2, [lr, r3]
    a680:	e3a07000 	mov	r7, #0	; 0x0
    a684:	e28d0058 	add	r0, sp, #88	; 0x58
    a688:	e8900003 	ldm	r0, {r0, r1}
    a68c:	e1a03007 	mov	r3, r7
    a690:	e1a06002 	mov	r6, r2
    a694:	eb0010ad 	bl	e950 <__aeabi_uldivmod>
    a698:	e3a08001 	mov	r8, #1	; 0x1
    a69c:	e1a04000 	mov	r4, r0
    a6a0:	e1a05001 	mov	r5, r1
    a6a4:	e0030794 	mul	r3, r4, r7
    a6a8:	e0810694 	umull	r0, r1, r4, r6
    a6ac:	e0223596 	mla	r2, r6, r5, r3
    a6b0:	e0821001 	add	r1, r2, r1
    a6b4:	e59d2058 	ldr	r2, [sp, #88]
    a6b8:	e1500002 	cmp	r0, r2
    a6bc:	0a000027 	beq	a760 <_ZL19construct_converterPN9Cyg_Clock9converterEyyyy+0x644>
    a6c0:	e2899001 	add	r9, r9, #1	; 0x1
    a6c4:	e359002f 	cmp	r9, #47	; 0x2f
    a6c8:	83a03000 	movhi	r3, #0	; 0x0
    a6cc:	92083001 	andls	r3, r8, #1	; 0x1
    a6d0:	e3530000 	cmp	r3, #0	; 0x0
    a6d4:	1affffe6 	bne	a674 <_ZL19construct_converterPN9Cyg_Clock9converterEyyyy+0x558>
    a6d8:	eaffff63 	b	a46c <_ZL19construct_converterPN9Cyg_Clock9converterEyyyy+0x350>
    a6dc:	e3a02001 	mov	r2, #1	; 0x1
    a6e0:	eaffffb5 	b	a5bc <_ZL19construct_converterPN9Cyg_Clock9converterEyyyy+0x4a0>
    a6e4:	e3a02001 	mov	r2, #1	; 0x1
    a6e8:	eaffff99 	b	a554 <_ZL19construct_converterPN9Cyg_Clock9converterEyyyy+0x438>
    a6ec:	e59de054 	ldr	lr, [sp, #84]
    a6f0:	e15e0001 	cmp	lr, r1
    a6f4:	8a000003 	bhi	a708 <_ZL19construct_converterPN9Cyg_Clock9converterEyyyy+0x5ec>
    a6f8:	1affff79 	bne	a4e4 <_ZL19construct_converterPN9Cyg_Clock9converterEyyyy+0x3c8>
    a6fc:	e59d2050 	ldr	r2, [sp, #80]
    a700:	e152000c 	cmp	r2, ip
    a704:	9affff76 	bls	a4e4 <_ZL19construct_converterPN9Cyg_Clock9converterEyyyy+0x3c8>
    a708:	e28d2050 	add	r2, sp, #80	; 0x50
    a70c:	e892000c 	ldm	r2, {r2, r3}
    a710:	e1b030a3 	lsrs	r3, r3, #1
    a714:	e1a02062 	rrx	r2, r2
    a718:	e0977007 	adds	r7, r7, r7
    a71c:	e0a88008 	adc	r8, r8, r8
    a720:	e3530000 	cmp	r3, #0	; 0x0
    a724:	e58d2050 	str	r2, [sp, #80]
    a728:	e58d3054 	str	r3, [sp, #84]
    a72c:	1affff61 	bne	a4b8 <_ZL19construct_converterPN9Cyg_Clock9converterEyyyy+0x39c>
    a730:	e1520000 	cmp	r2, r0
    a734:	9affff6a 	bls	a4e4 <_ZL19construct_converterPN9Cyg_Clock9converterEyyyy+0x3c8>
    a738:	e59d3054 	ldr	r3, [sp, #84]
    a73c:	e1530008 	cmp	r3, r8
    a740:	e28d3050 	add	r3, sp, #80	; 0x50
    a744:	e8930018 	ldm	r3, {r3, r4}
    a748:	e0233005 	eor	r3, r3, r5
    a74c:	e2033001 	and	r3, r3, #1	; 0x1
    a750:	e3a02000 	mov	r2, #0	; 0x0
    a754:	9affff5f 	bls	a4d8 <_ZL19construct_converterPN9Cyg_Clock9converterEyyyy+0x3bc>
    a758:	e3a02001 	mov	r2, #1	; 0x1
    a75c:	eaffff5e 	b	a4dc <_ZL19construct_converterPN9Cyg_Clock9converterEyyyy+0x3c0>
    a760:	e59d305c 	ldr	r3, [sp, #92]
    a764:	e1510003 	cmp	r1, r3
    a768:	1affffd4 	bne	a6c0 <_ZL19construct_converterPN9Cyg_Clock9converterEyyyy+0x5a4>
    a76c:	e003079a 	mul	r3, sl, r7
    a770:	e081069a 	umull	r0, r1, sl, r6
    a774:	e02c3b96 	mla	ip, r6, fp, r3
    a778:	e1a0b001 	mov	fp, r1
    a77c:	e08cb00b 	add	fp, ip, fp
    a780:	e155000b 	cmp	r5, fp
    a784:	e1a0a000 	mov	sl, r0
    a788:	e1a01005 	mov	r1, r5
    a78c:	e1a00004 	mov	r0, r4
    a790:	e1a02006 	mov	r2, r6
    a794:	e1a03007 	mov	r3, r7
    a798:	e58d4058 	str	r4, [sp, #88]
    a79c:	e58d505c 	str	r5, [sp, #92]
    a7a0:	e3a08001 	mov	r8, #1	; 0x1
    a7a4:	8a000008 	bhi	a7cc <_ZL19construct_converterPN9Cyg_Clock9converterEyyyy+0x6b0>
    a7a8:	0a000005 	beq	a7c4 <_ZL19construct_converterPN9Cyg_Clock9converterEyyyy+0x6a8>
    a7ac:	e58d4058 	str	r4, [sp, #88]
    a7b0:	e58d505c 	str	r5, [sp, #92]
    a7b4:	e59d105c 	ldr	r1, [sp, #92]
    a7b8:	e58d4018 	str	r4, [sp, #24]
    a7bc:	e58d1014 	str	r1, [sp, #20]
    a7c0:	eaffff2d 	b	a47c <_ZL19construct_converterPN9Cyg_Clock9converterEyyyy+0x360>
    a7c4:	e154000a 	cmp	r4, sl
    a7c8:	9afffff7 	bls	a7ac <_ZL19construct_converterPN9Cyg_Clock9converterEyyyy+0x690>
    a7cc:	eb00105f 	bl	e950 <__aeabi_uldivmod>
    a7d0:	e1a05001 	mov	r5, r1
    a7d4:	e1a04000 	mov	r4, r0
    a7d8:	eaffffb1 	b	a6a4 <_ZL19construct_converterPN9Cyg_Clock9converterEyyyy+0x588>
    a7dc:	e1550007 	cmp	r5, r7
    a7e0:	9affff9a 	bls	a650 <_ZL19construct_converterPN9Cyg_Clock9converterEyyyy+0x534>
    a7e4:	e3a00001 	mov	r0, #1	; 0x1
    a7e8:	eaffff98 	b	a650 <_ZL19construct_converterPN9Cyg_Clock9converterEyyyy+0x534>
    a7ec:	e59d4050 	ldr	r4, [sp, #80]
    a7f0:	e1540007 	cmp	r4, r7
    a7f4:	83a02001 	movhi	r2, #1	; 0x1
    a7f8:	eaffff37 	b	a4dc <_ZL19construct_converterPN9Cyg_Clock9converterEyyyy+0x3c0>
    a7fc:	e59d4050 	ldr	r4, [sp, #80]
    a800:	e1540007 	cmp	r4, r7
    a804:	9affff3a 	bls	a4f4 <_ZL19construct_converterPN9Cyg_Clock9converterEyyyy+0x3d8>
    a808:	e28d0058 	add	r0, sp, #88	; 0x58
    a80c:	e8904001 	ldm	r0, {r0, lr}
    a810:	e1a0e20e 	lsl	lr, lr, #4
    a814:	e59d1054 	ldr	r1, [sp, #84]
    a818:	e18eee20 	orr	lr, lr, r0, lsr #28
    a81c:	e1a02200 	lsl	r2, r0, #4
    a820:	e151000e 	cmp	r1, lr
    a824:	e58de00c 	str	lr, [sp, #12]
    a828:	e58d2010 	str	r2, [sp, #16]
    a82c:	e3a03000 	mov	r3, #0	; 0x0
    a830:	8a000079 	bhi	aa1c <_ZL19construct_converterPN9Cyg_Clock9converterEyyyy+0x900>
    a834:	0a000075 	beq	aa10 <_ZL19construct_converterPN9Cyg_Clock9converterEyyyy+0x8f4>
    a838:	e59de054 	ldr	lr, [sp, #84]
    a83c:	e35e0000 	cmp	lr, #0	; 0x0
    a840:	e3a02000 	mov	r2, #0	; 0x0
    a844:	1a00002f 	bne	a908 <_ZL19construct_converterPN9Cyg_Clock9converterEyyyy+0x7ec>
    a848:	e59d0050 	ldr	r0, [sp, #80]
    a84c:	e3500801 	cmp	r0, #65536	; 0x10000
    a850:	8a00002c 	bhi	a908 <_ZL19construct_converterPN9Cyg_Clock9converterEyyyy+0x7ec>
    a854:	e0033002 	and	r3, r3, r2
    a858:	e3130001 	tst	r3, #1	; 0x1
    a85c:	0affff24 	beq	a4f4 <_ZL19construct_converterPN9Cyg_Clock9converterEyyyy+0x3d8>
    a860:	e3a01000 	mov	r1, #0	; 0x0
    a864:	e58d1044 	str	r1, [sp, #68]
    a868:	e59d2044 	ldr	r2, [sp, #68]
    a86c:	e59f41fc 	ldr	r4, [pc, #508]	; aa70 <_ZL19construct_converterPN9Cyg_Clock9converterEyyyy+0x954>
    a870:	e1a03082 	lsl	r3, r2, #1
    a874:	e3a0c000 	mov	ip, #0	; 0x0
    a878:	e19420b3 	ldrh	r2, [r4, r3]
    a87c:	e28d0050 	add	r0, sp, #80	; 0x50
    a880:	e8900003 	ldm	r0, {r0, r1}
    a884:	e1a0300c 	mov	r3, ip
    a888:	e58dc004 	str	ip, [sp, #4]
    a88c:	e1a09002 	mov	r9, r2
    a890:	eb00102e 	bl	e950 <__aeabi_uldivmod>
    a894:	e59de00c 	ldr	lr, [sp, #12]
    a898:	e151000e 	cmp	r1, lr
    a89c:	e1a05000 	mov	r5, r0
    a8a0:	e1a06001 	mov	r6, r1
    a8a4:	e3a03000 	mov	r3, #0	; 0x0
    a8a8:	e59dc004 	ldr	ip, [sp, #4]
    a8ac:	8a00001a 	bhi	a91c <_ZL19construct_converterPN9Cyg_Clock9converterEyyyy+0x800>
    a8b0:	0a000016 	beq	a910 <_ZL19construct_converterPN9Cyg_Clock9converterEyyyy+0x7f4>
    a8b4:	e3560000 	cmp	r6, #0	; 0x0
    a8b8:	e3a02000 	mov	r2, #0	; 0x0
    a8bc:	1a00000f 	bne	a900 <_ZL19construct_converterPN9Cyg_Clock9converterEyyyy+0x7e4>
    a8c0:	e3550801 	cmp	r5, #65536	; 0x10000
    a8c4:	8a00000d 	bhi	a900 <_ZL19construct_converterPN9Cyg_Clock9converterEyyyy+0x7e4>
    a8c8:	e0033002 	and	r3, r3, r2
    a8cc:	e3130001 	tst	r3, #1	; 0x1
    a8d0:	0affff07 	beq	a4f4 <_ZL19construct_converterPN9Cyg_Clock9converterEyyyy+0x3d8>
    a8d4:	e0843995 	umull	r3, r4, r5, r9
    a8d8:	e59d1050 	ldr	r1, [sp, #80]
    a8dc:	e1530001 	cmp	r3, r1
    a8e0:	e0244699 	mla	r4, r9, r6, r4
    a8e4:	0a00000e 	beq	a924 <_ZL19construct_converterPN9Cyg_Clock9converterEyyyy+0x808>
    a8e8:	e59d0044 	ldr	r0, [sp, #68]
    a8ec:	e2800001 	add	r0, r0, #1	; 0x1
    a8f0:	e350002f 	cmp	r0, #47	; 0x2f
    a8f4:	e58d0044 	str	r0, [sp, #68]
    a8f8:	9affffda 	bls	a868 <_ZL19construct_converterPN9Cyg_Clock9converterEyyyy+0x74c>
    a8fc:	eafffefc 	b	a4f4 <_ZL19construct_converterPN9Cyg_Clock9converterEyyyy+0x3d8>
    a900:	e3a02001 	mov	r2, #1	; 0x1
    a904:	eaffffef 	b	a8c8 <_ZL19construct_converterPN9Cyg_Clock9converterEyyyy+0x7ac>
    a908:	e3a02001 	mov	r2, #1	; 0x1
    a90c:	eaffffd0 	b	a854 <_ZL19construct_converterPN9Cyg_Clock9converterEyyyy+0x738>
    a910:	e59d0010 	ldr	r0, [sp, #16]
    a914:	e1550000 	cmp	r5, r0
    a918:	9affffe5 	bls	a8b4 <_ZL19construct_converterPN9Cyg_Clock9converterEyyyy+0x798>
    a91c:	e3a03001 	mov	r3, #1	; 0x1
    a920:	eaffffe3 	b	a8b4 <_ZL19construct_converterPN9Cyg_Clock9converterEyyyy+0x798>
    a924:	e59d2054 	ldr	r2, [sp, #84]
    a928:	e1540002 	cmp	r4, r2
    a92c:	1affffed 	bne	a8e8 <_ZL19construct_converterPN9Cyg_Clock9converterEyyyy+0x7cc>
    a930:	e0030c97 	mul	r3, r7, ip
    a934:	e0223899 	mla	r2, r9, r8, r3
    a938:	e0843997 	umull	r3, r4, r7, r9
    a93c:	e0828004 	add	r8, r2, r4
    a940:	e1560008 	cmp	r6, r8
    a944:	e1a07003 	mov	r7, r3
    a948:	8a000005 	bhi	a964 <_ZL19construct_converterPN9Cyg_Clock9converterEyyyy+0x848>
    a94c:	0a000002 	beq	a95c <_ZL19construct_converterPN9Cyg_Clock9converterEyyyy+0x840>
    a950:	e58d5050 	str	r5, [sp, #80]
    a954:	e58d6054 	str	r6, [sp, #84]
    a958:	eafffee5 	b	a4f4 <_ZL19construct_converterPN9Cyg_Clock9converterEyyyy+0x3d8>
    a95c:	e1550003 	cmp	r5, r3
    a960:	9afffffa 	bls	a950 <_ZL19construct_converterPN9Cyg_Clock9converterEyyyy+0x834>
    a964:	e1a0300c 	mov	r3, ip
    a968:	e1a00005 	mov	r0, r5
    a96c:	e1a01006 	mov	r1, r6
    a970:	e1a02009 	mov	r2, r9
    a974:	e58dc004 	str	ip, [sp, #4]
    a978:	eb000ff4 	bl	e950 <__aeabi_uldivmod>
    a97c:	e59d400c 	ldr	r4, [sp, #12]
    a980:	e1510004 	cmp	r1, r4
    a984:	e3a03000 	mov	r3, #0	; 0x0
    a988:	e59dc004 	ldr	ip, [sp, #4]
    a98c:	8a000016 	bhi	a9ec <_ZL19construct_converterPN9Cyg_Clock9converterEyyyy+0x8d0>
    a990:	0a000012 	beq	a9e0 <_ZL19construct_converterPN9Cyg_Clock9converterEyyyy+0x8c4>
    a994:	e3510000 	cmp	r1, #0	; 0x0
    a998:	e3a02000 	mov	r2, #0	; 0x0
    a99c:	1a00000d 	bne	a9d8 <_ZL19construct_converterPN9Cyg_Clock9converterEyyyy+0x8bc>
    a9a0:	e3500801 	cmp	r0, #65536	; 0x10000
    a9a4:	8a00000b 	bhi	a9d8 <_ZL19construct_converterPN9Cyg_Clock9converterEyyyy+0x8bc>
    a9a8:	e0033002 	and	r3, r3, r2
    a9ac:	e3130001 	tst	r3, #1	; 0x1
    a9b0:	0affffe6 	beq	a950 <_ZL19construct_converterPN9Cyg_Clock9converterEyyyy+0x834>
    a9b4:	e0030c90 	mul	r3, r0, ip
    a9b8:	e0223991 	mla	r2, r1, r9, r3
    a9bc:	e0843990 	umull	r3, r4, r0, r9
    a9c0:	e1530005 	cmp	r3, r5
    a9c4:	e0824004 	add	r4, r2, r4
    a9c8:	0a000009 	beq	a9f4 <_ZL19construct_converterPN9Cyg_Clock9converterEyyyy+0x8d8>
    a9cc:	e58d5050 	str	r5, [sp, #80]
    a9d0:	e58d6054 	str	r6, [sp, #84]
    a9d4:	eaffffc3 	b	a8e8 <_ZL19construct_converterPN9Cyg_Clock9converterEyyyy+0x7cc>
    a9d8:	e3a02001 	mov	r2, #1	; 0x1
    a9dc:	eafffff1 	b	a9a8 <_ZL19construct_converterPN9Cyg_Clock9converterEyyyy+0x88c>
    a9e0:	e59de010 	ldr	lr, [sp, #16]
    a9e4:	e150000e 	cmp	r0, lr
    a9e8:	9affffe9 	bls	a994 <_ZL19construct_converterPN9Cyg_Clock9converterEyyyy+0x878>
    a9ec:	e3a03001 	mov	r3, #1	; 0x1
    a9f0:	eaffffe7 	b	a994 <_ZL19construct_converterPN9Cyg_Clock9converterEyyyy+0x878>
    a9f4:	e1540006 	cmp	r4, r6
    a9f8:	1afffff3 	bne	a9cc <_ZL19construct_converterPN9Cyg_Clock9converterEyyyy+0x8b0>
    a9fc:	e1a03000 	mov	r3, r0
    aa00:	e1a00001 	mov	r0, r1
    aa04:	e1a05003 	mov	r5, r3
    aa08:	e1a06000 	mov	r6, r0
    aa0c:	eaffffc7 	b	a930 <_ZL19construct_converterPN9Cyg_Clock9converterEyyyy+0x814>
    aa10:	e59d4050 	ldr	r4, [sp, #80]
    aa14:	e1540002 	cmp	r4, r2
    aa18:	9affff86 	bls	a838 <_ZL19construct_converterPN9Cyg_Clock9converterEyyyy+0x71c>
    aa1c:	e3a03001 	mov	r3, #1	; 0x1
    aa20:	eaffff84 	b	a838 <_ZL19construct_converterPN9Cyg_Clock9converterEyyyy+0x71c>
    aa24:	e59d405c 	ldr	r4, [sp, #92]
    aa28:	e59de024 	ldr	lr, [sp, #36]
    aa2c:	e154000e 	cmp	r4, lr
    aa30:	03a03001 	moveq	r3, #1	; 0x1
    aa34:	eafffed9 	b	a5a0 <_ZL19construct_converterPN9Cyg_Clock9converterEyyyy+0x484>
    aa38:	e1550001 	cmp	r5, r1
    aa3c:	9afffe8a 	bls	a46c <_ZL19construct_converterPN9Cyg_Clock9converterEyyyy+0x350>
    aa40:	eaffff0a 	b	a670 <_ZL19construct_converterPN9Cyg_Clock9converterEyyyy+0x554>
    aa44:	e28d2050 	add	r2, sp, #80	; 0x50
    aa48:	e892000c 	ldm	r2, {r2, r3}
    aa4c:	e3e00000 	mvn	r0, #0	; 0x0
    aa50:	e0922000 	adds	r2, r2, r0
    aa54:	e3e01000 	mvn	r1, #0	; 0x0
    aa58:	e0a33001 	adc	r3, r3, r1
    aa5c:	e28ee001 	add	lr, lr, #1	; 0x1
    aa60:	e58d2030 	str	r2, [sp, #48]
    aa64:	e58d3034 	str	r3, [sp, #52]
    aa68:	e58de048 	str	lr, [sp, #72]
    aa6c:	eafffdc5 	b	a188 <_ZL19construct_converterPN9Cyg_Clock9converterEyyyy+0x6c>
    aa70:	0000f6d8 	.word	0x0000f6d8

0000aa74 <_ZN9Cyg_Clock28get_other_to_clock_converterEyPNS_9converterE>:
    aa74:	e92d4030 	push	{r4, r5, lr}
    aa78:	e590c018 	ldr	ip, [r0, #24]
    aa7c:	e24dd01c 	sub	sp, sp, #28	; 0x1c
    aa80:	e590e014 	ldr	lr, [r0, #20]
    aa84:	e3a01000 	mov	r1, #0	; 0x0
    aa88:	e3a04001 	mov	r4, #1	; 0x1
    aa8c:	e3a05000 	mov	r5, #0	; 0x0
    aa90:	e59d0028 	ldr	r0, [sp, #40]
    aa94:	e88d0030 	stm	sp, {r4, r5}
    aa98:	e58dc008 	str	ip, [sp, #8]
    aa9c:	e58de010 	str	lr, [sp, #16]
    aaa0:	e58d1014 	str	r1, [sp, #20]
    aaa4:	e58d100c 	str	r1, [sp, #12]
    aaa8:	ebfffd9b 	bl	a11c <_ZL19construct_converterPN9Cyg_Clock9converterEyyyy>
    aaac:	e28dd01c 	add	sp, sp, #28	; 0x1c
    aab0:	e8bd8030 	pop	{r4, r5, pc}

0000aab4 <_ZN9Cyg_Clock28get_clock_to_other_converterEyPNS_9converterE>:
    aab4:	e52de004 	push	{lr}		; (str lr, [sp, #-4]!)
    aab8:	e590c014 	ldr	ip, [r0, #20]
    aabc:	e24dd01c 	sub	sp, sp, #28	; 0x1c
    aac0:	e590e018 	ldr	lr, [r0, #24]
    aac4:	e3a01000 	mov	r1, #0	; 0x0
    aac8:	e88d000c 	stm	sp, {r2, r3}
    aacc:	e59d0020 	ldr	r0, [sp, #32]
    aad0:	e3a02001 	mov	r2, #1	; 0x1
    aad4:	e3a03000 	mov	r3, #0	; 0x0
    aad8:	e58dc008 	str	ip, [sp, #8]
    aadc:	e58de010 	str	lr, [sp, #16]
    aae0:	e58d1014 	str	r1, [sp, #20]
    aae4:	e58d100c 	str	r1, [sp, #12]
    aae8:	ebfffd8b 	bl	a11c <_ZL19construct_converterPN9Cyg_Clock9converterEyyyy>
    aaec:	e28dd01c 	add	sp, sp, #28	; 0x1c
    aaf0:	e8bd8000 	pop	{pc}

0000aaf4 <_ZN9Cyg_AlarmC2EP11Cyg_CounterPFvPS_jEj>:
    aaf4:	e92d0070 	push	{r4, r5, r6}
    aaf8:	e1a0c000 	mov	ip, r0
    aafc:	e3a05000 	mov	r5, #0	; 0x0
    ab00:	e3a06000 	mov	r6, #0	; 0x0
    ab04:	e3a04000 	mov	r4, #0	; 0x0
    ab08:	e5804028 	str	r4, [r0, #40]
    ab0c:	e5801008 	str	r1, [r0, #8]
    ab10:	e580200c 	str	r2, [r0, #12]
    ab14:	e5803010 	str	r3, [r0, #16]
    ab18:	e5805020 	str	r5, [r0, #32]
    ab1c:	e5806024 	str	r6, [r0, #36]
    ab20:	e58c0004 	str	r0, [ip, #4]
    ab24:	e58c0000 	str	r0, [ip]
    ab28:	e5805018 	str	r5, [r0, #24]
    ab2c:	e580601c 	str	r6, [r0, #28]
    ab30:	e8bd0070 	pop	{r4, r5, r6}
    ab34:	e12fff1e 	bx	lr

0000ab38 <_ZN9Cyg_AlarmC1EP11Cyg_CounterPFvPS_jEj>:
    ab38:	e92d0070 	push	{r4, r5, r6}
    ab3c:	e1a0c000 	mov	ip, r0
    ab40:	e3a05000 	mov	r5, #0	; 0x0
    ab44:	e3a06000 	mov	r6, #0	; 0x0
    ab48:	e3a04000 	mov	r4, #0	; 0x0
    ab4c:	e5804028 	str	r4, [r0, #40]
    ab50:	e5801008 	str	r1, [r0, #8]
    ab54:	e580200c 	str	r2, [r0, #12]
    ab58:	e5803010 	str	r3, [r0, #16]
    ab5c:	e5805020 	str	r5, [r0, #32]
    ab60:	e5806024 	str	r6, [r0, #36]
    ab64:	e58c0004 	str	r0, [ip, #4]
    ab68:	e58c0000 	str	r0, [ip]
    ab6c:	e5805018 	str	r5, [r0, #24]
    ab70:	e580601c 	str	r6, [r0, #28]
    ab74:	e8bd0070 	pop	{r4, r5, r6}
    ab78:	e12fff1e 	bx	lr

0000ab7c <_ZN9Cyg_AlarmC2Ev>:
    ab7c:	e1a03000 	mov	r3, r0
    ab80:	e5830000 	str	r0, [r3]
    ab84:	e5830004 	str	r0, [r3, #4]
    ab88:	e12fff1e 	bx	lr

0000ab8c <_ZN9Cyg_AlarmC1Ev>:
    ab8c:	e1a03000 	mov	r3, r0
    ab90:	e5830000 	str	r0, [r3]
    ab94:	e5830004 	str	r0, [r3, #4]
    ab98:	e12fff1e 	bx	lr

0000ab9c <_ZN9Cyg_Alarm11synchronizeEv>:
    ab9c:	e92d43f0 	push	{r4, r5, r6, r7, r8, r9, lr}
    aba0:	e2805020 	add	r5, r0, #32	; 0x20
    aba4:	e8950060 	ldm	r5, {r5, r6}
    aba8:	e1953006 	orrs	r3, r5, r6
    abac:	e24dd004 	sub	sp, sp, #4	; 0x4
    abb0:	e1a07000 	mov	r7, r0
    abb4:	0a000019 	beq	ac20 <_ZN9Cyg_Alarm11synchronizeEv+0x84>
    abb8:	e5903008 	ldr	r3, [r0, #8]
    abbc:	e2830008 	add	r0, r3, #8	; 0x8
    abc0:	e8900003 	ldm	r0, {r0, r1}
    abc4:	e2878018 	add	r8, r7, #24	; 0x18
    abc8:	e8980300 	ldm	r8, {r8, r9}
    abcc:	e0900005 	adds	r0, r0, r5
    abd0:	e0a11006 	adc	r1, r1, r6
    abd4:	e0500008 	subs	r0, r0, r8
    abd8:	e0c11009 	sbc	r1, r1, r9
    abdc:	e1510006 	cmp	r1, r6
    abe0:	9a000010 	bls	ac28 <_ZN9Cyg_Alarm11synchronizeEv+0x8c>
    abe4:	e3e03000 	mvn	r3, #0	; 0x0
    abe8:	e0900003 	adds	r0, r0, r3
    abec:	e3e04000 	mvn	r4, #0	; 0x0
    abf0:	e0a11004 	adc	r1, r1, r4
    abf4:	e1a02005 	mov	r2, r5
    abf8:	e1a03006 	mov	r3, r6
    abfc:	eb000f53 	bl	e950 <__aeabi_uldivmod>
    ac00:	e00c0690 	mul	ip, r0, r6
    ac04:	e0843590 	umull	r3, r4, r0, r5
    ac08:	e022c195 	mla	r2, r5, r1, ip
    ac0c:	e0933008 	adds	r3, r3, r8
    ac10:	e0824004 	add	r4, r2, r4
    ac14:	e0a44009 	adc	r4, r4, r9
    ac18:	e5873018 	str	r3, [r7, #24]
    ac1c:	e587401c 	str	r4, [r7, #28]
    ac20:	e28dd004 	add	sp, sp, #4	; 0x4
    ac24:	e8bd83f0 	pop	{r4, r5, r6, r7, r8, r9, pc}
    ac28:	1afffffc 	bne	ac20 <_ZN9Cyg_Alarm11synchronizeEv+0x84>
    ac2c:	e1500005 	cmp	r0, r5
    ac30:	9afffffa 	bls	ac20 <_ZN9Cyg_Alarm11synchronizeEv+0x84>
    ac34:	eaffffea 	b	abe4 <_ZN9Cyg_Alarm11synchronizeEv+0x48>

0000ac38 <_ZN11Cyg_Counter9add_alarmEP9Cyg_Alarm>:
    ac38:	e92d4070 	push	{r4, r5, r6, lr}
    ac3c:	e1a05001 	mov	r5, r1
    ac40:	e1a06000 	mov	r6, r0
    ac44:	e595301c 	ldr	r3, [r5, #28]
    ac48:	e2800008 	add	r0, r0, #8	; 0x8
    ac4c:	e8900003 	ldm	r0, {r0, r1}
    ac50:	e3a02001 	mov	r2, #1	; 0x1
    ac54:	e1530001 	cmp	r3, r1
    ac58:	e5852028 	str	r2, [r5, #40]
    ac5c:	8a000013 	bhi	acb0 <_ZN11Cyg_Counter9add_alarmEP9Cyg_Alarm+0x78>
    ac60:	0a00001f 	beq	ace4 <_ZN11Cyg_Counter9add_alarmEP9Cyg_Alarm+0xac>
    ac64:	e5951010 	ldr	r1, [r5, #16]
    ac68:	e1a00005 	mov	r0, r5
    ac6c:	e1a0e00f 	mov	lr, pc
    ac70:	e595f00c 	ldr	pc, [r5, #12]
    ac74:	e2851020 	add	r1, r5, #32	; 0x20
    ac78:	e8910006 	ldm	r1, {r1, r2}
    ac7c:	e1913002 	orrs	r3, r1, r2
    ac80:	0a000014 	beq	acd8 <_ZN11Cyg_Counter9add_alarmEP9Cyg_Alarm+0xa0>
    ac84:	e5953028 	ldr	r3, [r5, #40]
    ac88:	e3530000 	cmp	r3, #0	; 0x0
    ac8c:	0a000011 	beq	acd8 <_ZN11Cyg_Counter9add_alarmEP9Cyg_Alarm+0xa0>
    ac90:	e2853018 	add	r3, r5, #24	; 0x18
    ac94:	e8930018 	ldm	r3, {r3, r4}
    ac98:	e0933001 	adds	r3, r3, r1
    ac9c:	e0a44002 	adc	r4, r4, r2
    aca0:	e5853018 	str	r3, [r5, #24]
    aca4:	e585401c 	str	r4, [r5, #28]
    aca8:	e1a00005 	mov	r0, r5
    acac:	ebffffba 	bl	ab9c <_ZN9Cyg_Alarm11synchronizeEv>
    acb0:	e5961000 	ldr	r1, [r6]
    acb4:	e3510000 	cmp	r1, #0	; 0x0
    acb8:	15913004 	ldrne	r3, [r1, #4]
    acbc:	15853004 	strne	r3, [r5, #4]
    acc0:	15912004 	ldrne	r2, [r1, #4]
    acc4:	15851000 	strne	r1, [r5]
    acc8:	05865000 	streq	r5, [r6]
    accc:	15815004 	strne	r5, [r1, #4]
    acd0:	15825000 	strne	r5, [r2]
    acd4:	e8bd8070 	pop	{r4, r5, r6, pc}
    acd8:	e3a03000 	mov	r3, #0	; 0x0
    acdc:	e5853028 	str	r3, [r5, #40]
    ace0:	e8bd8070 	pop	{r4, r5, r6, pc}
    ace4:	e5953018 	ldr	r3, [r5, #24]
    ace8:	e1530000 	cmp	r3, r0
    acec:	8affffef 	bhi	acb0 <_ZN11Cyg_Counter9add_alarmEP9Cyg_Alarm+0x78>
    acf0:	eaffffdb 	b	ac64 <_ZN11Cyg_Counter9add_alarmEP9Cyg_Alarm+0x2c>

0000acf4 <_ZN17Cyg_RealTimeClock3isrEjj>:
    acf4:	e52de004 	push	{lr}		; (str lr, [sp, #-4]!)
    acf8:	e3a01809 	mov	r1, #589824	; 0x90000
    acfc:	e24dd004 	sub	sp, sp, #4	; 0x4
    ad00:	e3a00004 	mov	r0, #4	; 0x4
    ad04:	ebfffbbf 	bl	9c08 <hal_clock_reset>
    ad08:	e3a00004 	mov	r0, #4	; 0x4
    ad0c:	ebffe8d2 	bl	505c <_ZN13Cyg_Interrupt21acknowledge_interruptEj>
    ad10:	e3a00003 	mov	r0, #3	; 0x3
    ad14:	e28dd004 	add	sp, sp, #4	; 0x4
    ad18:	e8bd8000 	pop	{pc}

0000ad1c <_ZN17Cyg_RealTimeClockC1Ev>:
    ad1c:	e92d4070 	push	{r4, r5, r6, lr}
    ad20:	e59f3088 	ldr	r3, [pc, #136]	; adb0 <_ZN17Cyg_RealTimeClockC1Ev+0x94>
    ad24:	e593c000 	ldr	ip, [r3]
    ad28:	e1a05000 	mov	r5, r0
    ad2c:	e3a04000 	mov	r4, #0	; 0x0
    ad30:	e5930004 	ldr	r0, [r3, #4]
    ad34:	e3a03000 	mov	r3, #0	; 0x0
    ad38:	e5853008 	str	r3, [r5, #8]
    ad3c:	e585400c 	str	r4, [r5, #12]
    ad40:	e585c014 	str	ip, [r5, #20]
    ad44:	e3a01000 	mov	r1, #0	; 0x0
    ad48:	e59fc064 	ldr	ip, [pc, #100]	; adb4 <_ZN17Cyg_RealTimeClockC1Ev+0x98>
    ad4c:	e285601c 	add	r6, r5, #28	; 0x1c
    ad50:	e3a02001 	mov	r2, #1	; 0x1
    ad54:	e59f405c 	ldr	r4, [pc, #92]	; adb8 <_ZN17Cyg_RealTimeClockC1Ev+0x9c>
    ad58:	e24dd008 	sub	sp, sp, #8	; 0x8
    ad5c:	e1a03005 	mov	r3, r5
    ad60:	e5852010 	str	r2, [r5, #16]
    ad64:	e5850018 	str	r0, [r5, #24]
    ad68:	e1a02001 	mov	r2, r1
    ad6c:	e5851000 	str	r1, [r5]
    ad70:	e1a00006 	mov	r0, r6
    ad74:	e2811004 	add	r1, r1, #4	; 0x4
    ad78:	e58dc000 	str	ip, [sp]
    ad7c:	e58d4004 	str	r4, [sp, #4]
    ad80:	ebffe7c9 	bl	4cac <_ZN13Cyg_InterruptC1EjijPFjjjEPFvjjjE>
    ad84:	e3a00809 	mov	r0, #589824	; 0x90000
    ad88:	ebfffb91 	bl	9bd4 <hal_clock_initialize>
    ad8c:	e1a00006 	mov	r0, r6
    ad90:	ebffe8d0 	bl	50d8 <_ZN13Cyg_Interrupt6attachEv>
    ad94:	e3a00004 	mov	r0, #4	; 0x4
    ad98:	ebffe8b1 	bl	5064 <_ZN13Cyg_Interrupt16unmask_interruptEj>
    ad9c:	e59f3018 	ldr	r3, [pc, #24]	; adbc <_ZN17Cyg_RealTimeClockC1Ev+0xa0>
    ada0:	e1a00005 	mov	r0, r5
    ada4:	e5835000 	str	r5, [r3]
    ada8:	e28dd008 	add	sp, sp, #8	; 0x8
    adac:	e8bd8070 	pop	{r4, r5, r6, pc}
    adb0:	400007ec 	.word	0x400007ec
    adb4:	0000acf4 	.word	0x0000acf4
    adb8:	0000b108 	.word	0x0000b108
    adbc:	40004678 	.word	0x40004678

0000adc0 <_Z41__static_initialization_and_destruction_0ii>:
    adc0:	e3500001 	cmp	r0, #1	; 0x1
    adc4:	e92d4010 	push	{r4, lr}
    adc8:	e1a04000 	mov	r4, r0
    adcc:	0a00001b 	beq	ae40 <_Z41__static_initialization_and_destruction_0ii+0x80>
    add0:	e3500000 	cmp	r0, #0	; 0x0
    add4:	18bd8010 	popne	{r4, pc}
    add8:	e3a03dda 	mov	r3, #13952	; 0x3680
    addc:	e2833030 	add	r3, r3, #48	; 0x30
    ade0:	e1510003 	cmp	r1, r3
    ade4:	18bd8010 	popne	{r4, pc}
    ade8:	e59f006c 	ldr	r0, [pc, #108]	; ae5c <_Z41__static_initialization_and_destruction_0ii+0x9c>
    adec:	ebffe7ce 	bl	4d2c <_ZN13Cyg_InterruptD1Ev>
    adf0:	e59fe068 	ldr	lr, [pc, #104]	; ae60 <_Z41__static_initialization_and_destruction_0ii+0xa0>
    adf4:	e59e1000 	ldr	r1, [lr]
    adf8:	e3510000 	cmp	r1, #0	; 0x0
    adfc:	e1a00004 	mov	r0, r4
    ae00:	e1a0400e 	mov	r4, lr
    ae04:	0a00000c 	beq	ae3c <_Z41__static_initialization_and_destruction_0ii+0x7c>
    ae08:	e591c000 	ldr	ip, [r1]
    ae0c:	e15c0001 	cmp	ip, r1
    ae10:	15913004 	ldrne	r3, [r1, #4]
    ae14:	158c3004 	strne	r3, [ip, #4]
    ae18:	15912004 	ldrne	r2, [r1, #4]
    ae1c:	05840000 	streq	r0, [r4]
    ae20:	1582c000 	strne	ip, [r2]
    ae24:	15811004 	strne	r1, [r1, #4]
    ae28:	15811000 	strne	r1, [r1]
    ae2c:	1584c000 	strne	ip, [r4]
    ae30:	e59e1000 	ldr	r1, [lr]
    ae34:	e3510000 	cmp	r1, #0	; 0x0
    ae38:	1afffff2 	bne	ae08 <_Z41__static_initialization_and_destruction_0ii+0x48>
    ae3c:	e8bd8010 	pop	{r4, pc}
    ae40:	e3a03dda 	mov	r3, #13952	; 0x3680
    ae44:	e2833030 	add	r3, r3, #48	; 0x30
    ae48:	e1510003 	cmp	r1, r3
    ae4c:	18bd8010 	popne	{r4, pc}
    ae50:	e59f0008 	ldr	r0, [pc, #8]	; ae60 <_Z41__static_initialization_and_destruction_0ii+0xa0>
    ae54:	e8bd4010 	pop	{r4, lr}
    ae58:	eaffffaf 	b	ad1c <_ZN17Cyg_RealTimeClockC1Ev>
    ae5c:	4000469c 	.word	0x4000469c
    ae60:	40004680 	.word	0x40004680

0000ae64 <_GLOBAL__D.14000__ZN9Cyg_Clock15real_time_clockE>:
    ae64:	e3a01dda 	mov	r1, #13952	; 0x3680
    ae68:	e2811030 	add	r1, r1, #48	; 0x30
    ae6c:	e3a00000 	mov	r0, #0	; 0x0
    ae70:	eaffffd2 	b	adc0 <_Z41__static_initialization_and_destruction_0ii>

0000ae74 <_GLOBAL__I.14000__ZN9Cyg_Clock15real_time_clockE>:
    ae74:	e3a01dda 	mov	r1, #13952	; 0x3680
    ae78:	e2811030 	add	r1, r1, #48	; 0x30
    ae7c:	e3a00001 	mov	r0, #1	; 0x1
    ae80:	eaffffce 	b	adc0 <_Z41__static_initialization_and_destruction_0ii>

0000ae84 <_ZN17Cyg_RealTimeClockC2Ev>:
    ae84:	e92d4070 	push	{r4, r5, r6, lr}
    ae88:	e59f3088 	ldr	r3, [pc, #136]	; af18 <_ZN17Cyg_RealTimeClockC2Ev+0x94>
    ae8c:	e593c000 	ldr	ip, [r3]
    ae90:	e1a05000 	mov	r5, r0
    ae94:	e3a04000 	mov	r4, #0	; 0x0
    ae98:	e5930004 	ldr	r0, [r3, #4]
    ae9c:	e3a03000 	mov	r3, #0	; 0x0
    aea0:	e5853008 	str	r3, [r5, #8]
    aea4:	e585400c 	str	r4, [r5, #12]
    aea8:	e585c014 	str	ip, [r5, #20]
    aeac:	e3a01000 	mov	r1, #0	; 0x0
    aeb0:	e59fc064 	ldr	ip, [pc, #100]	; af1c <_ZN17Cyg_RealTimeClockC2Ev+0x98>
    aeb4:	e285601c 	add	r6, r5, #28	; 0x1c
    aeb8:	e3a02001 	mov	r2, #1	; 0x1
    aebc:	e59f405c 	ldr	r4, [pc, #92]	; af20 <_ZN17Cyg_RealTimeClockC2Ev+0x9c>
    aec0:	e24dd008 	sub	sp, sp, #8	; 0x8
    aec4:	e1a03005 	mov	r3, r5
    aec8:	e5852010 	str	r2, [r5, #16]
    aecc:	e5850018 	str	r0, [r5, #24]
    aed0:	e1a02001 	mov	r2, r1
    aed4:	e5851000 	str	r1, [r5]
    aed8:	e1a00006 	mov	r0, r6
    aedc:	e2811004 	add	r1, r1, #4	; 0x4
    aee0:	e58dc000 	str	ip, [sp]
    aee4:	e58d4004 	str	r4, [sp, #4]
    aee8:	ebffe76f 	bl	4cac <_ZN13Cyg_InterruptC1EjijPFjjjEPFvjjjE>
    aeec:	e3a00809 	mov	r0, #589824	; 0x90000
    aef0:	ebfffb37 	bl	9bd4 <hal_clock_initialize>
    aef4:	e1a00006 	mov	r0, r6
    aef8:	ebffe876 	bl	50d8 <_ZN13Cyg_Interrupt6attachEv>
    aefc:	e3a00004 	mov	r0, #4	; 0x4
    af00:	ebffe857 	bl	5064 <_ZN13Cyg_Interrupt16unmask_interruptEj>
    af04:	e59f3018 	ldr	r3, [pc, #24]	; af24 <_ZN17Cyg_RealTimeClockC2Ev+0xa0>
    af08:	e1a00005 	mov	r0, r5
    af0c:	e5835000 	str	r5, [r3]
    af10:	e28dd008 	add	sp, sp, #8	; 0x8
    af14:	e8bd8070 	pop	{r4, r5, r6, pc}
    af18:	400007ec 	.word	0x400007ec
    af1c:	0000acf4 	.word	0x0000acf4
    af20:	0000b108 	.word	0x0000b108
    af24:	40004678 	.word	0x40004678

0000af28 <_ZN9Cyg_Alarm10initializeEyy>:
    af28:	e92d41f0 	push	{r4, r5, r6, r7, r8, lr}
    af2c:	e1a05000 	mov	r5, r0
    af30:	e1a06002 	mov	r6, r2
    af34:	e1a07003 	mov	r7, r3
    af38:	e59f8060 	ldr	r8, [pc, #96]	; afa0 <_ZN9Cyg_Alarm10initializeEyy+0x78>
    af3c:	e5983000 	ldr	r3, [r8]
    af40:	e2833001 	add	r3, r3, #1	; 0x1
    af44:	e5883000 	str	r3, [r8]
    af48:	e5903028 	ldr	r3, [r0, #40]
    af4c:	e3530000 	cmp	r3, #0	; 0x0
    af50:	15900008 	ldrne	r0, [r0, #8]
    af54:	11a01005 	movne	r1, r5
    af58:	1bfffc0d 	blne	9f94 <_ZN11Cyg_Counter9rem_alarmEP9Cyg_Alarm>
    af5c:	e5856018 	str	r6, [r5, #24]
    af60:	e585701c 	str	r7, [r5, #28]
    af64:	e28d3018 	add	r3, sp, #24	; 0x18
    af68:	e8930018 	ldm	r3, {r3, r4}
    af6c:	e1a01005 	mov	r1, r5
    af70:	e5853020 	str	r3, [r5, #32]
    af74:	e5854024 	str	r4, [r5, #36]
    af78:	e5950008 	ldr	r0, [r5, #8]
    af7c:	ebffff2d 	bl	ac38 <_ZN11Cyg_Counter9add_alarmEP9Cyg_Alarm>
    af80:	e5983000 	ldr	r3, [r8]
    af84:	e2530001 	subs	r0, r3, #1	; 0x1
    af88:	159f3010 	ldrne	r3, [pc, #16]	; afa0 <_ZN9Cyg_Alarm10initializeEyy+0x78>
    af8c:	15830000 	strne	r0, [r3]
    af90:	0a000000 	beq	af98 <_ZN9Cyg_Alarm10initializeEyy+0x70>
    af94:	e8bd81f0 	pop	{r4, r5, r6, r7, r8, pc}
    af98:	ebffeaa0 	bl	5a20 <_ZN13Cyg_Scheduler12unlock_innerEj>
    af9c:	e8bd81f0 	pop	{r4, r5, r6, r7, r8, pc}
    afa0:	400007c8 	.word	0x400007c8

0000afa4 <_ZN11Cyg_Counter4tickEj>:
    afa4:	e92d47f0 	push	{r4, r5, r6, r7, r8, r9, sl, lr}
    afa8:	e2518000 	subs	r8, r1, #0	; 0x0
    afac:	e1a07000 	mov	r7, r0
    afb0:	08bd87f0 	popeq	{r4, r5, r6, r7, r8, r9, sl, pc}
    afb4:	e59f6148 	ldr	r6, [pc, #328]	; b104 <_ZN11Cyg_Counter4tickEj+0x160>
    afb8:	e3a09000 	mov	r9, #0	; 0x0
    afbc:	e1a0a006 	mov	sl, r6
    afc0:	ea000001 	b	afcc <_ZN11Cyg_Counter4tickEj+0x28>
    afc4:	e2588001 	subs	r8, r8, #1	; 0x1
    afc8:	0a000015 	beq	b024 <_ZN11Cyg_Counter4tickEj+0x80>
    afcc:	e5963000 	ldr	r3, [r6]
    afd0:	e2833001 	add	r3, r3, #1	; 0x1
    afd4:	e5863000 	str	r3, [r6]
    afd8:	e5973010 	ldr	r3, [r7, #16]
    afdc:	e2871008 	add	r1, r7, #8	; 0x8
    afe0:	e8910006 	ldm	r1, {r1, r2}
    afe4:	e3a04000 	mov	r4, #0	; 0x0
    afe8:	e0933001 	adds	r3, r3, r1
    afec:	e0a44002 	adc	r4, r4, r2
    aff0:	e5873008 	str	r3, [r7, #8]
    aff4:	e587400c 	str	r4, [r7, #12]
    aff8:	e597c000 	ldr	ip, [r7]
    affc:	e1a0500c 	mov	r5, ip
    b000:	e3550000 	cmp	r5, #0	; 0x0
    b004:	1a000007 	bne	b028 <_ZN11Cyg_Counter4tickEj+0x84>
    b008:	e5963000 	ldr	r3, [r6]
    b00c:	e2530001 	subs	r0, r3, #1	; 0x1
    b010:	158a0000 	strne	r0, [sl]
    b014:	1affffea 	bne	afc4 <_ZN11Cyg_Counter4tickEj+0x20>
    b018:	ebffea80 	bl	5a20 <_ZN13Cyg_Scheduler12unlock_innerEj>
    b01c:	e2588001 	subs	r8, r8, #1	; 0x1
    b020:	1affffe9 	bne	afcc <_ZN11Cyg_Counter4tickEj+0x28>
    b024:	e8bd87f0 	pop	{r4, r5, r6, r7, r8, r9, sl, pc}
    b028:	e2871008 	add	r1, r7, #8	; 0x8
    b02c:	e8910006 	ldm	r1, {r1, r2}
    b030:	e595301c 	ldr	r3, [r5, #28]
    b034:	e1530002 	cmp	r3, r2
    b038:	e5950000 	ldr	r0, [r5]
    b03c:	8a000015 	bhi	b098 <_ZN11Cyg_Counter4tickEj+0xf4>
    b040:	0a000011 	beq	b08c <_ZN11Cyg_Counter4tickEj+0xe8>
    b044:	e155000c 	cmp	r5, ip
    b048:	0a000022 	beq	b0d8 <_ZN11Cyg_Counter4tickEj+0x134>
    b04c:	e5953004 	ldr	r3, [r5, #4]
    b050:	e5803004 	str	r3, [r0, #4]
    b054:	e895000c 	ldm	r5, {r2, r3}
    b058:	e5855004 	str	r5, [r5, #4]
    b05c:	e5832000 	str	r2, [r3]
    b060:	e5855000 	str	r5, [r5]
    b064:	e2851020 	add	r1, r5, #32	; 0x20
    b068:	e8910006 	ldm	r1, {r1, r2}
    b06c:	e1913002 	orrs	r3, r1, r2
    b070:	05853028 	streq	r3, [r5, #40]
    b074:	1a00000d 	bne	b0b0 <_ZN11Cyg_Counter4tickEj+0x10c>
    b078:	e1a00005 	mov	r0, r5
    b07c:	e5951010 	ldr	r1, [r5, #16]
    b080:	e1a0e00f 	mov	lr, pc
    b084:	e595f00c 	ldr	pc, [r5, #12]
    b088:	eaffffda 	b	aff8 <_ZN11Cyg_Counter4tickEj+0x54>
    b08c:	e5953018 	ldr	r3, [r5, #24]
    b090:	e1530001 	cmp	r3, r1
    b094:	9affffea 	bls	b044 <_ZN11Cyg_Counter4tickEj+0xa0>
    b098:	e15c0000 	cmp	ip, r0
    b09c:	0affffd9 	beq	b008 <_ZN11Cyg_Counter4tickEj+0x64>
    b0a0:	e1550000 	cmp	r5, r0
    b0a4:	0affffd7 	beq	b008 <_ZN11Cyg_Counter4tickEj+0x64>
    b0a8:	e1a05000 	mov	r5, r0
    b0ac:	eaffffd3 	b	b000 <_ZN11Cyg_Counter4tickEj+0x5c>
    b0b0:	e2853018 	add	r3, r5, #24	; 0x18
    b0b4:	e8930018 	ldm	r3, {r3, r4}
    b0b8:	e0933001 	adds	r3, r3, r1
    b0bc:	e0a44002 	adc	r4, r4, r2
    b0c0:	e5853018 	str	r3, [r5, #24]
    b0c4:	e585401c 	str	r4, [r5, #28]
    b0c8:	e1a00007 	mov	r0, r7
    b0cc:	e1a01005 	mov	r1, r5
    b0d0:	ebfffed8 	bl	ac38 <_ZN11Cyg_Counter9add_alarmEP9Cyg_Alarm>
    b0d4:	eaffffe7 	b	b078 <_ZN11Cyg_Counter4tickEj+0xd4>
    b0d8:	e1550000 	cmp	r5, r0
    b0dc:	15953004 	ldrne	r3, [r5, #4]
    b0e0:	15803004 	strne	r3, [r0, #4]
    b0e4:	15952000 	ldrne	r2, [r5]
    b0e8:	15953004 	ldrne	r3, [r5, #4]
    b0ec:	05879000 	streq	r9, [r7]
    b0f0:	15832000 	strne	r2, [r3]
    b0f4:	15855004 	strne	r5, [r5, #4]
    b0f8:	15855000 	strne	r5, [r5]
    b0fc:	15870000 	strne	r0, [r7]
    b100:	eaffffd7 	b	b064 <_ZN11Cyg_Counter4tickEj+0xc0>
    b104:	400007c8 	.word	0x400007c8

0000b108 <_ZN17Cyg_RealTimeClock3dsrEjjj>:
    b108:	e52de004 	push	{lr}		; (str lr, [sp, #-4]!)
    b10c:	e1a00002 	mov	r0, r2
    b110:	e24dd004 	sub	sp, sp, #4	; 0x4
    b114:	ebffffa2 	bl	afa4 <_ZN11Cyg_Counter4tickEj>
    b118:	e59f0008 	ldr	r0, [pc, #8]	; b128 <_ZN17Cyg_RealTimeClock3dsrEjjj+0x20>
    b11c:	e28dd004 	add	sp, sp, #4	; 0x4
    b120:	e49de004 	pop	{lr}		; (ldr lr, [sp], #4)
    b124:	eaffe8bf 	b	5428 <_ZN28Cyg_Scheduler_Implementation9timesliceEv>
    b128:	40002540 	.word	0x40002540

0000b12c <_ZN9Cyg_Alarm9get_timesEPyS0_>:
    b12c:	e92d4010 	push	{r4, lr}
    b130:	e59fc048 	ldr	ip, [pc, #72]	; b180 <_ZN9Cyg_Alarm9get_timesEPyS0_+0x54>
    b134:	e59c3000 	ldr	r3, [ip]
    b138:	e2833001 	add	r3, r3, #1	; 0x1
    b13c:	e58c3000 	str	r3, [ip]
    b140:	e3510000 	cmp	r1, #0	; 0x0
    b144:	12803018 	addne	r3, r0, #24	; 0x18
    b148:	18930018 	ldmne	r3, {r3, r4}
    b14c:	18810018 	stmne	r1, {r3, r4}
    b150:	e3520000 	cmp	r2, #0	; 0x0
    b154:	12803020 	addne	r3, r0, #32	; 0x20
    b158:	18930018 	ldmne	r3, {r3, r4}
    b15c:	18820018 	stmne	r2, {r3, r4}
    b160:	e59c3000 	ldr	r3, [ip]
    b164:	e2530001 	subs	r0, r3, #1	; 0x1
    b168:	159f3010 	ldrne	r3, [pc, #16]	; b180 <_ZN9Cyg_Alarm9get_timesEPyS0_+0x54>
    b16c:	15830000 	strne	r0, [r3]
    b170:	0a000000 	beq	b178 <_ZN9Cyg_Alarm9get_timesEPyS0_+0x4c>
    b174:	e8bd8010 	pop	{r4, pc}
    b178:	ebffea28 	bl	5a20 <_ZN13Cyg_Scheduler12unlock_innerEj>
    b17c:	e8bd8010 	pop	{r4, pc}
    b180:	400007c8 	.word	0x400007c8

0000b184 <_ZN9Cyg_Alarm7disableEv>:
    b184:	e92d4010 	push	{r4, lr}
    b188:	e59f403c 	ldr	r4, [pc, #60]	; b1cc <_ZN9Cyg_Alarm7disableEv+0x48>
    b18c:	e5943000 	ldr	r3, [r4]
    b190:	e2833001 	add	r3, r3, #1	; 0x1
    b194:	e5843000 	str	r3, [r4]
    b198:	e5903028 	ldr	r3, [r0, #40]
    b19c:	e3530000 	cmp	r3, #0	; 0x0
    b1a0:	11a01000 	movne	r1, r0
    b1a4:	15900008 	ldrne	r0, [r0, #8]
    b1a8:	1bfffb79 	blne	9f94 <_ZN11Cyg_Counter9rem_alarmEP9Cyg_Alarm>
    b1ac:	e5943000 	ldr	r3, [r4]
    b1b0:	e2530001 	subs	r0, r3, #1	; 0x1
    b1b4:	159f3010 	ldrne	r3, [pc, #16]	; b1cc <_ZN9Cyg_Alarm7disableEv+0x48>
    b1b8:	15830000 	strne	r0, [r3]
    b1bc:	0a000000 	beq	b1c4 <_ZN9Cyg_Alarm7disableEv+0x40>
    b1c0:	e8bd8010 	pop	{r4, pc}
    b1c4:	ebffea15 	bl	5a20 <_ZN13Cyg_Scheduler12unlock_innerEj>
    b1c8:	e8bd8010 	pop	{r4, pc}
    b1cc:	400007c8 	.word	0x400007c8

0000b1d0 <_ZN9Cyg_AlarmD1Ev>:
    b1d0:	e92d4010 	push	{r4, lr}
    b1d4:	e1a04000 	mov	r4, r0
    b1d8:	ebffffe9 	bl	b184 <_ZN9Cyg_Alarm7disableEv>
    b1dc:	e5941000 	ldr	r1, [r4]
    b1e0:	e1540001 	cmp	r4, r1
    b1e4:	0a000005 	beq	b200 <_ZN9Cyg_AlarmD1Ev+0x30>
    b1e8:	e5943004 	ldr	r3, [r4, #4]
    b1ec:	e5813004 	str	r3, [r1, #4]
    b1f0:	e5942004 	ldr	r2, [r4, #4]
    b1f4:	e5844004 	str	r4, [r4, #4]
    b1f8:	e5821000 	str	r1, [r2]
    b1fc:	e5844000 	str	r4, [r4]
    b200:	e1a00004 	mov	r0, r4
    b204:	e8bd8010 	pop	{r4, pc}

0000b208 <_ZN9Cyg_AlarmD2Ev>:
    b208:	e92d4010 	push	{r4, lr}
    b20c:	e1a04000 	mov	r4, r0
    b210:	ebffffdb 	bl	b184 <_ZN9Cyg_Alarm7disableEv>
    b214:	e5941000 	ldr	r1, [r4]
    b218:	e1540001 	cmp	r4, r1
    b21c:	0a000005 	beq	b238 <_ZN9Cyg_AlarmD2Ev+0x30>
    b220:	e5943004 	ldr	r3, [r4, #4]
    b224:	e5813004 	str	r3, [r1, #4]
    b228:	e5942004 	ldr	r2, [r4, #4]
    b22c:	e5844004 	str	r4, [r4, #4]
    b230:	e5821000 	str	r1, [r2]
    b234:	e5844000 	str	r4, [r4]
    b238:	e1a00004 	mov	r0, r4
    b23c:	e8bd8010 	pop	{r4, pc}

0000b240 <_ZN9Cyg_Alarm6enableEv>:
    b240:	e92d4030 	push	{r4, r5, lr}
    b244:	e1a04000 	mov	r4, r0
    b248:	e24dd004 	sub	sp, sp, #4	; 0x4
    b24c:	e59f5050 	ldr	r5, [pc, #80]	; b2a4 <_ZN9Cyg_Alarm6enableEv+0x64>
    b250:	e5953000 	ldr	r3, [r5]
    b254:	e2833001 	add	r3, r3, #1	; 0x1
    b258:	e5853000 	str	r3, [r5]
    b25c:	e5903028 	ldr	r3, [r0, #40]
    b260:	e3530000 	cmp	r3, #0	; 0x0
    b264:	1a000005 	bne	b280 <_ZN9Cyg_Alarm6enableEv+0x40>
    b268:	ebfffe4b 	bl	ab9c <_ZN9Cyg_Alarm11synchronizeEv>
    b26c:	e3a03001 	mov	r3, #1	; 0x1
    b270:	e5843028 	str	r3, [r4, #40]
    b274:	e1a01004 	mov	r1, r4
    b278:	e5940008 	ldr	r0, [r4, #8]
    b27c:	ebfffe6d 	bl	ac38 <_ZN11Cyg_Counter9add_alarmEP9Cyg_Alarm>
    b280:	e5953000 	ldr	r3, [r5]
    b284:	e2530001 	subs	r0, r3, #1	; 0x1
    b288:	159f3014 	ldrne	r3, [pc, #20]	; b2a4 <_ZN9Cyg_Alarm6enableEv+0x64>
    b28c:	15830000 	strne	r0, [r3]
    b290:	0a000001 	beq	b29c <_ZN9Cyg_Alarm6enableEv+0x5c>
    b294:	e28dd004 	add	sp, sp, #4	; 0x4
    b298:	e8bd8030 	pop	{r4, r5, pc}
    b29c:	ebffe9df 	bl	5a20 <_ZN13Cyg_Scheduler12unlock_innerEj>
    b2a0:	eafffffb 	b	b294 <_ZN9Cyg_Alarm6enableEv+0x54>
    b2a4:	400007c8 	.word	0x400007c8

0000b2a8 <cyg_libc_invoke_main>:
    b2a8:	e52de004 	push	{lr}		; (str lr, [sp, #-4]!)
    b2ac:	e59f2018 	ldr	r2, [pc, #24]	; b2cc <cyg_libc_invoke_main+0x24>
    b2b0:	e8920003 	ldm	r2, {r0, r1}
    b2b4:	e24dd00c 	sub	sp, sp, #12	; 0xc
    b2b8:	e88d0003 	stm	sp, {r0, r1}
    b2bc:	e1a0100d 	mov	r1, sp
    b2c0:	e3a00001 	mov	r0, #1	; 0x1
    b2c4:	ebffd4be 	bl	5c4 <main>
    b2c8:	eb000642 	bl	cbd8 <exit>
    b2cc:	0000f738 	.word	0x0000f738

0000b2d0 <_Z41__static_initialization_and_destruction_0ii>:
    b2d0:	e92d4070 	push	{r4, r5, r6, lr}
    b2d4:	e3500001 	cmp	r0, #1	; 0x1
    b2d8:	e24dd010 	sub	sp, sp, #16	; 0x10
    b2dc:	e1a04000 	mov	r4, r0
    b2e0:	0a000007 	beq	b304 <_Z41__static_initialization_and_destruction_0ii+0x34>
    b2e4:	e3500000 	cmp	r0, #0	; 0x0
    b2e8:	1a000003 	bne	b2fc <_Z41__static_initialization_and_destruction_0ii+0x2c>
    b2ec:	e3a03cdb 	mov	r3, #56064	; 0xdb00
    b2f0:	e243303f 	sub	r3, r3, #63	; 0x3f
    b2f4:	e1510003 	cmp	r1, r3
    b2f8:	0a00001a 	beq	b368 <_Z41__static_initialization_and_destruction_0ii+0x98>
    b2fc:	e28dd010 	add	sp, sp, #16	; 0x10
    b300:	e8bd8070 	pop	{r4, r5, r6, pc}
    b304:	e3a03cdb 	mov	r3, #56064	; 0xdb00
    b308:	e243303f 	sub	r3, r3, #63	; 0x3f
    b30c:	e1510003 	cmp	r1, r3
    b310:	1afffff9 	bne	b2fc <_Z41__static_initialization_and_destruction_0ii+0x2c>
    b314:	e3a02000 	mov	r2, #0	; 0x0
    b318:	e1a03002 	mov	r3, r2
    b31c:	e1a01000 	mov	r1, r0
    b320:	e59f00c0 	ldr	r0, [pc, #192]	; b3e8 <_Z41__static_initialization_and_destruction_0ii+0x118>
    b324:	eb0006c5 	bl	ce40 <Cyg_libc_stdio_find_filename>
    b328:	e59f60bc 	ldr	r6, [pc, #188]	; b3ec <_Z41__static_initialization_and_destruction_0ii+0x11c>
    b32c:	e3a05000 	mov	r5, #0	; 0x0
    b330:	e1a01000 	mov	r1, r0
    b334:	e1a02004 	mov	r2, r4
    b338:	e1a03005 	mov	r3, r5
    b33c:	e3e0c003 	mvn	ip, #3	; 0x3
    b340:	e1a00006 	mov	r0, r6
    b344:	e28440ff 	add	r4, r4, #255	; 0xff
    b348:	e58dc004 	str	ip, [sp, #4]
    b34c:	e58d4008 	str	r4, [sp, #8]
    b350:	e58d5000 	str	r5, [sp]
    b354:	e58d500c 	str	r5, [sp, #12]
    b358:	eb000329 	bl	c004 <_ZN15Cyg_StdioStreamC1EPvNS_8OpenModeEiiijPh>
    b35c:	e59f308c 	ldr	r3, [pc, #140]	; b3f0 <_Z41__static_initialization_and_destruction_0ii+0x120>
    b360:	e5836004 	str	r6, [r3, #4]
    b364:	eaffffe4 	b	b2fc <_Z41__static_initialization_and_destruction_0ii+0x2c>
    b368:	e59f507c 	ldr	r5, [pc, #124]	; b3ec <_Z41__static_initialization_and_destruction_0ii+0x11c>
    b36c:	e5953008 	ldr	r3, [r5, #8]
    b370:	e59f207c 	ldr	r2, [pc, #124]	; b3f4 <_Z41__static_initialization_and_destruction_0ii+0x124>
    b374:	e3530000 	cmp	r3, #0	; 0x0
    b378:	e5852000 	str	r2, [r5]
    b37c:	0a00000b 	beq	b3b0 <_Z41__static_initialization_and_destruction_0ii+0xe0>
    b380:	e2850030 	add	r0, r5, #48	; 0x30
    b384:	ebffeef3 	bl	6f58 <_ZN9Cyg_Mutex4lockEv>
    b388:	e3500000 	cmp	r0, #0	; 0x0
    b38c:	0a000007 	beq	b3b0 <_Z41__static_initialization_and_destruction_0ii+0xe0>
    b390:	e5953008 	ldr	r3, [r5, #8]
    b394:	e3530000 	cmp	r3, #0	; 0x0
    b398:	0a000002 	beq	b3a8 <_Z41__static_initialization_and_destruction_0ii+0xd8>
    b39c:	e1a00005 	mov	r0, r5
    b3a0:	eb00003c 	bl	b498 <_ZN15Cyg_StdioStream21flush_output_unlockedEv>
    b3a4:	e5854008 	str	r4, [r5, #8]
    b3a8:	e59f0048 	ldr	r0, [pc, #72]	; b3f8 <_Z41__static_initialization_and_destruction_0ii+0x128>
    b3ac:	ebffefe1 	bl	7338 <_ZN9Cyg_Mutex6unlockEv>
    b3b0:	e59f0040 	ldr	r0, [pc, #64]	; b3f8 <_Z41__static_initialization_and_destruction_0ii+0x128>
    b3b4:	ebffeea7 	bl	6e58 <_ZN9Cyg_MutexD1Ev>
    b3b8:	e5950014 	ldr	r0, [r5, #20]
    b3bc:	e3500000 	cmp	r0, #0	; 0x0
    b3c0:	0a000003 	beq	b3d4 <_Z41__static_initialization_and_destruction_0ii+0x104>
    b3c4:	e59f3020 	ldr	r3, [pc, #32]	; b3ec <_Z41__static_initialization_and_destruction_0ii+0x11c>
    b3c8:	e5932010 	ldr	r2, [r3, #16]
    b3cc:	e3520000 	cmp	r2, #0	; 0x0
    b3d0:	1a000002 	bne	b3e0 <_Z41__static_initialization_and_destruction_0ii+0x110>
    b3d4:	e59f3020 	ldr	r3, [pc, #32]	; b3fc <_Z41__static_initialization_and_destruction_0ii+0x12c>
    b3d8:	e5853000 	str	r3, [r5]
    b3dc:	eaffffc6 	b	b2fc <_Z41__static_initialization_and_destruction_0ii+0x2c>
    b3e0:	eb0004cf 	bl	c724 <free>
    b3e4:	eafffffa 	b	b3d4 <_Z41__static_initialization_and_destruction_0ii+0x104>
    b3e8:	0000f58c 	.word	0x0000f58c
    b3ec:	400046b8 	.word	0x400046b8
    b3f0:	40004b14 	.word	0x40004b14
    b3f4:	0000f750 	.word	0x0000f750
    b3f8:	400046e8 	.word	0x400046e8
    b3fc:	0000f768 	.word	0x0000f768

0000b400 <_GLOBAL__D.56001_cyg_libc_stdio_stdout>:
    b400:	e3a01cdb 	mov	r1, #56064	; 0xdb00
    b404:	e241103f 	sub	r1, r1, #63	; 0x3f
    b408:	e3a00000 	mov	r0, #0	; 0x0
    b40c:	eaffffaf 	b	b2d0 <_Z41__static_initialization_and_destruction_0ii>

0000b410 <_GLOBAL__I.56001_cyg_libc_stdio_stdout>:
    b410:	e3a01cdb 	mov	r1, #56064	; 0xdb00
    b414:	e241103f 	sub	r1, r1, #63	; 0x3f
    b418:	e3a00001 	mov	r0, #1	; 0x1
    b41c:	eaffffab 	b	b2d0 <_Z41__static_initialization_and_destruction_0ii>

0000b420 <_ZN16Cyg_OutputStreamD1Ev>:
    b420:	e59f3004 	ldr	r3, [pc, #4]	; b42c <_ZN16Cyg_OutputStreamD1Ev+0xc>
    b424:	e5803000 	str	r3, [r0]
    b428:	e12fff1e 	bx	lr
    b42c:	0000f768 	.word	0x0000f768

0000b430 <_ZN16Cyg_OutputStream5writeEPKhjPj>:
    b430:	e3a00026 	mov	r0, #38	; 0x26
    b434:	e12fff1e 	bx	lr

0000b438 <_ZN16Cyg_OutputStream9get_errorEv>:
    b438:	e3a00026 	mov	r0, #38	; 0x26
    b43c:	e12fff1e 	bx	lr

0000b440 <_ZN16Cyg_OutputStreamD0Ev>:
    b440:	e59f3014 	ldr	r3, [pc, #20]	; b45c <_ZN16Cyg_OutputStreamD0Ev+0x1c>
    b444:	e92d4010 	push	{r4, lr}
    b448:	e5803000 	str	r3, [r0]
    b44c:	e1a04000 	mov	r4, r0
    b450:	eb0004b1 	bl	c71c <_ZdlPv>
    b454:	e1a00004 	mov	r0, r4
    b458:	e8bd8010 	pop	{r4, pc}
    b45c:	0000f768 	.word	0x0000f768

0000b460 <_ZN15Cyg_StdioStream9get_errorEv>:
    b460:	e92d4030 	push	{r4, r5, lr}
    b464:	e2804030 	add	r4, r0, #48	; 0x30
    b468:	e24dd004 	sub	sp, sp, #4	; 0x4
    b46c:	e1a05000 	mov	r5, r0
    b470:	e1a00004 	mov	r0, r4
    b474:	ebffeeb7 	bl	6f58 <_ZN9Cyg_Mutex4lockEv>
    b478:	e3500000 	cmp	r0, #0	; 0x0
    b47c:	03a04009 	moveq	r4, #9	; 0x9
    b480:	11a00004 	movne	r0, r4
    b484:	15954004 	ldrne	r4, [r5, #4]
    b488:	1bffefaa 	blne	7338 <_ZN9Cyg_Mutex6unlockEv>
    b48c:	e1a00004 	mov	r0, r4
    b490:	e28dd004 	add	sp, sp, #4	; 0x4
    b494:	e8bd8030 	pop	{r4, r5, pc}

0000b498 <_ZN15Cyg_StdioStream21flush_output_unlockedEv>:
    b498:	e92d4030 	push	{r4, r5, lr}
    b49c:	e5d03028 	ldrb	r3, [r0, #40]
    b4a0:	e1b023a3 	lsrs	r2, r3, #7
    b4a4:	e24dd00c 	sub	sp, sp, #12	; 0xc
    b4a8:	e1a04000 	mov	r4, r0
    b4ac:	1a000013 	bne	b500 <_ZN15Cyg_StdioStream21flush_output_unlockedEv+0x68>
    b4b0:	e3130004 	tst	r3, #4	; 0x4
    b4b4:	03a05016 	moveq	r5, #22	; 0x16
    b4b8:	0a00000d 	beq	b4f4 <_ZN15Cyg_StdioStream21flush_output_unlockedEv+0x5c>
    b4bc:	e590301c 	ldr	r3, [r0, #28]
    b4c0:	e5901020 	ldr	r1, [r0, #32]
    b4c4:	e1530001 	cmp	r3, r1
    b4c8:	0a00000c 	beq	b500 <_ZN15Cyg_StdioStream21flush_output_unlockedEv+0x68>
    b4cc:	e0613003 	rsb	r3, r1, r3
    b4d0:	e28d2008 	add	r2, sp, #8	; 0x8
    b4d4:	e5223004 	str	r3, [r2, #-4]!
    b4d8:	e5900008 	ldr	r0, [r0, #8]
    b4dc:	ebffd9e9 	bl	1c88 <cyg_io_write>
    b4e0:	e2505000 	subs	r5, r0, #0	; 0x0
    b4e4:	0a000007 	beq	b508 <_ZN15Cyg_StdioStream21flush_output_unlockedEv+0x70>
    b4e8:	e5943014 	ldr	r3, [r4, #20]
    b4ec:	e584301c 	str	r3, [r4, #28]
    b4f0:	e5843020 	str	r3, [r4, #32]
    b4f4:	e1a00005 	mov	r0, r5
    b4f8:	e28dd00c 	add	sp, sp, #12	; 0xc
    b4fc:	e8bd8030 	pop	{r4, r5, pc}
    b500:	e3a05000 	mov	r5, #0	; 0x0
    b504:	eafffffa 	b	b4f4 <_ZN15Cyg_StdioStream21flush_output_unlockedEv+0x5c>
    b508:	e3a01c01 	mov	r1, #256	; 0x100
    b50c:	e2811002 	add	r1, r1, #2	; 0x2
    b510:	e5940008 	ldr	r0, [r4, #8]
    b514:	e1a02005 	mov	r2, r5
    b518:	e1a03005 	mov	r3, r5
    b51c:	ebffda27 	bl	1dc0 <cyg_io_get_config>
    b520:	eafffff0 	b	b4e8 <_ZN15Cyg_StdioStream21flush_output_unlockedEv+0x50>

0000b524 <_ZN15Cyg_StdioStreamD0Ev>:
    b524:	e92d4030 	push	{r4, r5, lr}
    b528:	e5903008 	ldr	r3, [r0, #8]
    b52c:	e59f2090 	ldr	r2, [pc, #144]	; b5c4 <_ZN15Cyg_StdioStreamD0Ev+0xa0>
    b530:	e3530000 	cmp	r3, #0	; 0x0
    b534:	e24dd004 	sub	sp, sp, #4	; 0x4
    b538:	e1a04000 	mov	r4, r0
    b53c:	e5802000 	str	r2, [r0]
    b540:	02805030 	addeq	r5, r0, #48	; 0x30
    b544:	0a00000d 	beq	b580 <_ZN15Cyg_StdioStreamD0Ev+0x5c>
    b548:	e2805030 	add	r5, r0, #48	; 0x30
    b54c:	e1a00005 	mov	r0, r5
    b550:	ebffee80 	bl	6f58 <_ZN9Cyg_Mutex4lockEv>
    b554:	e3500000 	cmp	r0, #0	; 0x0
    b558:	0a000008 	beq	b580 <_ZN15Cyg_StdioStreamD0Ev+0x5c>
    b55c:	e5943008 	ldr	r3, [r4, #8]
    b560:	e3530000 	cmp	r3, #0	; 0x0
    b564:	0a000003 	beq	b578 <_ZN15Cyg_StdioStreamD0Ev+0x54>
    b568:	e1a00004 	mov	r0, r4
    b56c:	ebffffc9 	bl	b498 <_ZN15Cyg_StdioStream21flush_output_unlockedEv>
    b570:	e3a03000 	mov	r3, #0	; 0x0
    b574:	e5843008 	str	r3, [r4, #8]
    b578:	e1a00005 	mov	r0, r5
    b57c:	ebffef6d 	bl	7338 <_ZN9Cyg_Mutex6unlockEv>
    b580:	e1a00005 	mov	r0, r5
    b584:	ebffee33 	bl	6e58 <_ZN9Cyg_MutexD1Ev>
    b588:	e5940014 	ldr	r0, [r4, #20]
    b58c:	e3500000 	cmp	r0, #0	; 0x0
    b590:	0a000002 	beq	b5a0 <_ZN15Cyg_StdioStreamD0Ev+0x7c>
    b594:	e5943010 	ldr	r3, [r4, #16]
    b598:	e3530000 	cmp	r3, #0	; 0x0
    b59c:	1a000006 	bne	b5bc <_ZN15Cyg_StdioStreamD0Ev+0x98>
    b5a0:	e59f3020 	ldr	r3, [pc, #32]	; b5c8 <_ZN15Cyg_StdioStreamD0Ev+0xa4>
    b5a4:	e1a00004 	mov	r0, r4
    b5a8:	e5843000 	str	r3, [r4]
    b5ac:	eb00045a 	bl	c71c <_ZdlPv>
    b5b0:	e1a00004 	mov	r0, r4
    b5b4:	e28dd004 	add	sp, sp, #4	; 0x4
    b5b8:	e8bd8030 	pop	{r4, r5, pc}
    b5bc:	eb000458 	bl	c724 <free>
    b5c0:	eafffff6 	b	b5a0 <_ZN15Cyg_StdioStreamD0Ev+0x7c>
    b5c4:	0000f750 	.word	0x0000f750
    b5c8:	0000f768 	.word	0x0000f768

0000b5cc <_ZN15Cyg_StdioStream5writeEPKhjPj>:
    b5cc:	e92d47f0 	push	{r4, r5, r6, r7, r8, r9, sl, lr}
    b5d0:	e1a08003 	mov	r8, r3
    b5d4:	e2809030 	add	r9, r0, #48	; 0x30
    b5d8:	e3a03000 	mov	r3, #0	; 0x0
    b5dc:	e24dd008 	sub	sp, sp, #8	; 0x8
    b5e0:	e1a05000 	mov	r5, r0
    b5e4:	e5883000 	str	r3, [r8]
    b5e8:	e1a00009 	mov	r0, r9
    b5ec:	e1a06001 	mov	r6, r1
    b5f0:	e1a07002 	mov	r7, r2
    b5f4:	ebffee57 	bl	6f58 <_ZN9Cyg_Mutex4lockEv>
    b5f8:	e3500000 	cmp	r0, #0	; 0x0
    b5fc:	03a04009 	moveq	r4, #9	; 0x9
    b600:	0a000049 	beq	b72c <_ZN15Cyg_StdioStream5writeEPKhjPj+0x160>
    b604:	e5d52028 	ldrb	r2, [r5, #40]
    b608:	e3120004 	tst	r2, #4	; 0x4
    b60c:	0a000049 	beq	b738 <_ZN15Cyg_StdioStream5writeEPKhjPj+0x16c>
    b610:	e1b033a2 	lsrs	r3, r2, #7
    b614:	15953014 	ldrne	r3, [r5, #20]
    b618:	1585301c 	strne	r3, [r5, #28]
    b61c:	15853020 	strne	r3, [r5, #32]
    b620:	e3c23080 	bic	r3, r2, #128	; 0x80
    b624:	e5c53028 	strb	r3, [r5, #40]
    b628:	e5d52028 	ldrb	r2, [r5, #40]
    b62c:	e3120020 	tst	r2, #32	; 0x20
    b630:	0a000033 	beq	b704 <_ZN15Cyg_StdioStream5writeEPKhjPj+0x138>
    b634:	e3570000 	cmp	r7, #0	; 0x0
    b638:	1595001c 	ldrne	r0, [r5, #28]
    b63c:	13a0a000 	movne	sl, #0	; 0x0
    b640:	0a000052 	beq	b790 <_ZN15Cyg_StdioStream5writeEPKhjPj+0x1c4>
    b644:	e5953014 	ldr	r3, [r5, #20]
    b648:	e3530000 	cmp	r3, #0	; 0x0
    b64c:	15952018 	ldrne	r2, [r5, #24]
    b650:	03e02000 	mvneq	r2, #0	; 0x0
    b654:	e0832002 	add	r2, r3, r2
    b658:	e1500002 	cmp	r0, r2
    b65c:	11a0300a 	movne	r3, sl
    b660:	038a3001 	orreq	r3, sl, #1	; 0x1
    b664:	e3530000 	cmp	r3, #0	; 0x0
    b668:	e0602002 	rsb	r2, r0, r2
    b66c:	1a000035 	bne	b748 <_ZN15Cyg_StdioStream5writeEPKhjPj+0x17c>
    b670:	e5d53028 	ldrb	r3, [r5, #40]
    b674:	e1520007 	cmp	r2, r7
    b678:	31a04002 	movcc	r4, r2
    b67c:	21a04007 	movcs	r4, r7
    b680:	e3130040 	tst	r3, #64	; 0x40
    b684:	0a00000e 	beq	b6c4 <_ZN15Cyg_StdioStream5writeEPKhjPj+0xf8>
    b688:	e3540000 	cmp	r4, #0	; 0x0
    b68c:	0a00000c 	beq	b6c4 <_ZN15Cyg_StdioStream5writeEPKhjPj+0xf8>
    b690:	e5d63000 	ldrb	r3, [r6]
    b694:	e353000a 	cmp	r3, #10	; 0xa
    b698:	13a02000 	movne	r2, #0	; 0x0
    b69c:	1a000003 	bne	b6b0 <_ZN15Cyg_StdioStream5writeEPKhjPj+0xe4>
    b6a0:	ea000040 	b	b7a8 <_ZN15Cyg_StdioStream5writeEPKhjPj+0x1dc>
    b6a4:	e7d63002 	ldrb	r3, [r6, r2]
    b6a8:	e353000a 	cmp	r3, #10	; 0xa
    b6ac:	0a000032 	beq	b77c <_ZN15Cyg_StdioStream5writeEPKhjPj+0x1b0>
    b6b0:	e2822001 	add	r2, r2, #1	; 0x1
    b6b4:	e1520004 	cmp	r2, r4
    b6b8:	3afffff9 	bcc	b6a4 <_ZN15Cyg_StdioStream5writeEPKhjPj+0xd8>
    b6bc:	e1540002 	cmp	r4, r2
    b6c0:	1a00002d 	bne	b77c <_ZN15Cyg_StdioStream5writeEPKhjPj+0x1b0>
    b6c4:	e1a01006 	mov	r1, r6
    b6c8:	e1a02004 	mov	r2, r4
    b6cc:	eb0003cc 	bl	c604 <_memcpy>
    b6d0:	e5983000 	ldr	r3, [r8]
    b6d4:	e0833004 	add	r3, r3, r4
    b6d8:	e5883000 	str	r3, [r8]
    b6dc:	e595001c 	ldr	r0, [r5, #28]
    b6e0:	e595302c 	ldr	r3, [r5, #44]
    b6e4:	e0800004 	add	r0, r0, r4
    b6e8:	e0833004 	add	r3, r3, r4
    b6ec:	e0577004 	subs	r7, r7, r4
    b6f0:	e585302c 	str	r3, [r5, #44]
    b6f4:	e585001c 	str	r0, [r5, #28]
    b6f8:	0a000022 	beq	b788 <_ZN15Cyg_StdioStream5writeEPKhjPj+0x1bc>
    b6fc:	e0866004 	add	r6, r6, r4
    b700:	eaffffcf 	b	b644 <_ZN15Cyg_StdioStream5writeEPKhjPj+0x78>
    b704:	e28d2008 	add	r2, sp, #8	; 0x8
    b708:	e5227004 	str	r7, [r2, #-4]!
    b70c:	e5950008 	ldr	r0, [r5, #8]
    b710:	e1a01006 	mov	r1, r6
    b714:	ebffd95b 	bl	1c88 <cyg_io_write>
    b718:	e59d3004 	ldr	r3, [sp, #4]
    b71c:	e5883000 	str	r3, [r8]
    b720:	e1a04000 	mov	r4, r0
    b724:	e1a00009 	mov	r0, r9
    b728:	ebffef02 	bl	7338 <_ZN9Cyg_Mutex6unlockEv>
    b72c:	e1a00004 	mov	r0, r4
    b730:	e28dd008 	add	sp, sp, #8	; 0x8
    b734:	e8bd87f0 	pop	{r4, r5, r6, r7, r8, r9, sl, pc}
    b738:	e1a00009 	mov	r0, r9
    b73c:	ebffeefd 	bl	7338 <_ZN9Cyg_Mutex6unlockEv>
    b740:	e3a04016 	mov	r4, #22	; 0x16
    b744:	eafffff8 	b	b72c <_ZN15Cyg_StdioStream5writeEPKhjPj+0x160>
    b748:	e1a00005 	mov	r0, r5
    b74c:	ebffff51 	bl	b498 <_ZN15Cyg_StdioStream21flush_output_unlockedEv>
    b750:	e5953014 	ldr	r3, [r5, #20]
    b754:	e3530000 	cmp	r3, #0	; 0x0
    b758:	03e02000 	mvneq	r2, #0	; 0x0
    b75c:	15952018 	ldrne	r2, [r5, #24]
    b760:	e3500000 	cmp	r0, #0	; 0x0
    b764:	e1a04000 	mov	r4, r0
    b768:	e595001c 	ldr	r0, [r5, #28]
    b76c:	1affffec 	bne	b724 <_ZN15Cyg_StdioStream5writeEPKhjPj+0x158>
    b770:	e0833002 	add	r3, r3, r2
    b774:	e0602003 	rsb	r2, r0, r3
    b778:	eaffffbc 	b	b670 <_ZN15Cyg_StdioStream5writeEPKhjPj+0xa4>
    b77c:	e2824001 	add	r4, r2, #1	; 0x1
    b780:	e3a0a001 	mov	sl, #1	; 0x1
    b784:	eaffffce 	b	b6c4 <_ZN15Cyg_StdioStream5writeEPKhjPj+0xf8>
    b788:	e35a0000 	cmp	sl, #0	; 0x0
    b78c:	1a000001 	bne	b798 <_ZN15Cyg_StdioStream5writeEPKhjPj+0x1cc>
    b790:	e3a04000 	mov	r4, #0	; 0x0
    b794:	eaffffe2 	b	b724 <_ZN15Cyg_StdioStream5writeEPKhjPj+0x158>
    b798:	e1a00005 	mov	r0, r5
    b79c:	ebffff3d 	bl	b498 <_ZN15Cyg_StdioStream21flush_output_unlockedEv>
    b7a0:	e1a04000 	mov	r4, r0
    b7a4:	eaffffde 	b	b724 <_ZN15Cyg_StdioStream5writeEPKhjPj+0x158>
    b7a8:	e3a04001 	mov	r4, #1	; 0x1
    b7ac:	e3a0a001 	mov	sl, #1	; 0x1
    b7b0:	eaffffc3 	b	b6c4 <_ZN15Cyg_StdioStream5writeEPKhjPj+0xf8>

0000b7b4 <_ZN15Cyg_StdioStream9peek_byteEPh>:
    b7b4:	e92d40f0 	push	{r4, r5, r6, r7, lr}
    b7b8:	e2806030 	add	r6, r0, #48	; 0x30
    b7bc:	e24dd004 	sub	sp, sp, #4	; 0x4
    b7c0:	e1a05000 	mov	r5, r0
    b7c4:	e1a00006 	mov	r0, r6
    b7c8:	e1a07001 	mov	r7, r1
    b7cc:	ebffede1 	bl	6f58 <_ZN9Cyg_Mutex4lockEv>
    b7d0:	e3500000 	cmp	r0, #0	; 0x0
    b7d4:	03a04009 	moveq	r4, #9	; 0x9
    b7d8:	0a000016 	beq	b838 <_ZN15Cyg_StdioStream9peek_byteEPh+0x84>
    b7dc:	e5d53028 	ldrb	r3, [r5, #40]
    b7e0:	e3130002 	tst	r3, #2	; 0x2
    b7e4:	0a000016 	beq	b844 <_ZN15Cyg_StdioStream9peek_byteEPh+0x90>
    b7e8:	e3130020 	tst	r3, #32	; 0x20
    b7ec:	1a000018 	bne	b854 <_ZN15Cyg_StdioStream9peek_byteEPh+0xa0>
    b7f0:	e3833080 	orr	r3, r3, #128	; 0x80
    b7f4:	e5c53028 	strb	r3, [r5, #40]
    b7f8:	e5d52028 	ldrb	r2, [r5, #40]
    b7fc:	e1a03222 	lsr	r3, r2, #4
    b800:	e2131001 	ands	r1, r3, #1	; 0x1
    b804:	1a000020 	bne	b88c <_ZN15Cyg_StdioStream9peek_byteEPh+0xd8>
    b808:	e1a032a2 	lsr	r3, r2, #5
    b80c:	e2130001 	ands	r0, r3, #1	; 0x1
    b810:	0a000015 	beq	b86c <_ZN15Cyg_StdioStream9peek_byteEPh+0xb8>
    b814:	e595301c 	ldr	r3, [r5, #28]
    b818:	e5950020 	ldr	r0, [r5, #32]
    b81c:	e1500003 	cmp	r0, r3
    b820:	0a000017 	beq	b884 <_ZN15Cyg_StdioStream9peek_byteEPh+0xd0>
    b824:	e5d03000 	ldrb	r3, [r0]
    b828:	e5c73000 	strb	r3, [r7]
    b82c:	e1a04001 	mov	r4, r1
    b830:	e1a00006 	mov	r0, r6
    b834:	ebffeebf 	bl	7338 <_ZN9Cyg_Mutex6unlockEv>
    b838:	e1a00004 	mov	r0, r4
    b83c:	e28dd004 	add	sp, sp, #4	; 0x4
    b840:	e8bd80f0 	pop	{r4, r5, r6, r7, pc}
    b844:	e1a00006 	mov	r0, r6
    b848:	ebffeeba 	bl	7338 <_ZN9Cyg_Mutex6unlockEv>
    b84c:	e3a04016 	mov	r4, #22	; 0x16
    b850:	eafffff8 	b	b838 <_ZN15Cyg_StdioStream9peek_byteEPh+0x84>
    b854:	e1a00005 	mov	r0, r5
    b858:	ebffff0e 	bl	b498 <_ZN15Cyg_StdioStream21flush_output_unlockedEv>
    b85c:	e2504000 	subs	r4, r0, #0	; 0x0
    b860:	1afffff4 	bne	b838 <_ZN15Cyg_StdioStream9peek_byteEPh+0x84>
    b864:	e5d53028 	ldrb	r3, [r5, #40]
    b868:	eaffffe0 	b	b7f0 <_ZN15Cyg_StdioStream9peek_byteEPh+0x3c>
    b86c:	e5d53029 	ldrb	r3, [r5, #41]
    b870:	e3130001 	tst	r3, #1	; 0x1
    b874:	15d53024 	ldrbne	r3, [r5, #36]
    b878:	11a04000 	movne	r4, r0
    b87c:	15c73000 	strbne	r3, [r7]
    b880:	1affffea 	bne	b830 <_ZN15Cyg_StdioStream9peek_byteEPh+0x7c>
    b884:	e3a0400b 	mov	r4, #11	; 0xb
    b888:	eaffffe8 	b	b830 <_ZN15Cyg_StdioStream9peek_byteEPh+0x7c>
    b88c:	e5d5300c 	ldrb	r3, [r5, #12]
    b890:	e1a00006 	mov	r0, r6
    b894:	e5c73000 	strb	r3, [r7]
    b898:	ebffeea6 	bl	7338 <_ZN9Cyg_Mutex6unlockEv>
    b89c:	e3a04000 	mov	r4, #0	; 0x0
    b8a0:	eaffffe4 	b	b838 <_ZN15Cyg_StdioStream9peek_byteEPh+0x84>

0000b8a4 <_ZN15Cyg_StdioStream9read_byteEPh>:
    b8a4:	e92d40f0 	push	{r4, r5, r6, r7, lr}
    b8a8:	e2807030 	add	r7, r0, #48	; 0x30
    b8ac:	e24dd004 	sub	sp, sp, #4	; 0x4
    b8b0:	e1a05000 	mov	r5, r0
    b8b4:	e1a00007 	mov	r0, r7
    b8b8:	e1a06001 	mov	r6, r1
    b8bc:	ebffeda5 	bl	6f58 <_ZN9Cyg_Mutex4lockEv>
    b8c0:	e3500000 	cmp	r0, #0	; 0x0
    b8c4:	03a04009 	moveq	r4, #9	; 0x9
    b8c8:	0a00002d 	beq	b984 <_ZN15Cyg_StdioStream9read_byteEPh+0xe0>
    b8cc:	e5d52028 	ldrb	r2, [r5, #40]
    b8d0:	e3120002 	tst	r2, #2	; 0x2
    b8d4:	0a00002d 	beq	b990 <_ZN15Cyg_StdioStream9read_byteEPh+0xec>
    b8d8:	e3120010 	tst	r2, #16	; 0x10
    b8dc:	1a00002f 	bne	b9a0 <_ZN15Cyg_StdioStream9read_byteEPh+0xfc>
    b8e0:	e1a032a2 	lsr	r3, r2, #5
    b8e4:	e2130001 	ands	r0, r3, #1	; 0x1
    b8e8:	0a000017 	beq	b94c <_ZN15Cyg_StdioStream9read_byteEPh+0xa8>
    b8ec:	e1b023a2 	lsrs	r2, r2, #7
    b8f0:	0a000038 	beq	b9d8 <_ZN15Cyg_StdioStream9read_byteEPh+0x134>
    b8f4:	e5952020 	ldr	r2, [r5, #32]
    b8f8:	e595301c 	ldr	r3, [r5, #28]
    b8fc:	e1520003 	cmp	r2, r3
    b900:	0a000032 	beq	b9d0 <_ZN15Cyg_StdioStream9read_byteEPh+0x12c>
    b904:	e5d23000 	ldrb	r3, [r2]
    b908:	e5c63000 	strb	r3, [r6]
    b90c:	e5951014 	ldr	r1, [r5, #20]
    b910:	e3510000 	cmp	r1, #0	; 0x0
    b914:	e5953020 	ldr	r3, [r5, #32]
    b918:	15952018 	ldrne	r2, [r5, #24]
    b91c:	03e02000 	mvneq	r2, #0	; 0x0
    b920:	e2833001 	add	r3, r3, #1	; 0x1
    b924:	e0812002 	add	r2, r1, r2
    b928:	e1530002 	cmp	r3, r2
    b92c:	e5853020 	str	r3, [r5, #32]
    b930:	e595302c 	ldr	r3, [r5, #44]
    b934:	e2833001 	add	r3, r3, #1	; 0x1
    b938:	05851020 	streq	r1, [r5, #32]
    b93c:	0585101c 	streq	r1, [r5, #28]
    b940:	e585302c 	str	r3, [r5, #44]
    b944:	e3a04000 	mov	r4, #0	; 0x0
    b948:	ea00000b 	b	b97c <_ZN15Cyg_StdioStream9read_byteEPh+0xd8>
    b94c:	e5d53029 	ldrb	r3, [r5, #41]
    b950:	e3130001 	tst	r3, #1	; 0x1
    b954:	0a00001d 	beq	b9d0 <_ZN15Cyg_StdioStream9read_byteEPh+0x12c>
    b958:	e5d53024 	ldrb	r3, [r5, #36]
    b95c:	e5c63000 	strb	r3, [r6]
    b960:	e5d52029 	ldrb	r2, [r5, #41]
    b964:	e595302c 	ldr	r3, [r5, #44]
    b968:	e3c22001 	bic	r2, r2, #1	; 0x1
    b96c:	e2833001 	add	r3, r3, #1	; 0x1
    b970:	e585302c 	str	r3, [r5, #44]
    b974:	e5c52029 	strb	r2, [r5, #41]
    b978:	e1a04000 	mov	r4, r0
    b97c:	e1a00007 	mov	r0, r7
    b980:	ebffee6c 	bl	7338 <_ZN9Cyg_Mutex6unlockEv>
    b984:	e1a00004 	mov	r0, r4
    b988:	e28dd004 	add	sp, sp, #4	; 0x4
    b98c:	e8bd80f0 	pop	{r4, r5, r6, r7, pc}
    b990:	e1a00007 	mov	r0, r7
    b994:	ebffee67 	bl	7338 <_ZN9Cyg_Mutex6unlockEv>
    b998:	e3a04016 	mov	r4, #22	; 0x16
    b99c:	eafffff8 	b	b984 <_ZN15Cyg_StdioStream9read_byteEPh+0xe0>
    b9a0:	e5d5300c 	ldrb	r3, [r5, #12]
    b9a4:	e5c63000 	strb	r3, [r6]
    b9a8:	e5d52028 	ldrb	r2, [r5, #40]
    b9ac:	e595302c 	ldr	r3, [r5, #44]
    b9b0:	e3c22010 	bic	r2, r2, #16	; 0x10
    b9b4:	e2833001 	add	r3, r3, #1	; 0x1
    b9b8:	e585302c 	str	r3, [r5, #44]
    b9bc:	e5c52028 	strb	r2, [r5, #40]
    b9c0:	e1a00007 	mov	r0, r7
    b9c4:	ebffee5b 	bl	7338 <_ZN9Cyg_Mutex6unlockEv>
    b9c8:	e3a04000 	mov	r4, #0	; 0x0
    b9cc:	eaffffec 	b	b984 <_ZN15Cyg_StdioStream9read_byteEPh+0xe0>
    b9d0:	e3a0400b 	mov	r4, #11	; 0xb
    b9d4:	eaffffe8 	b	b97c <_ZN15Cyg_StdioStream9read_byteEPh+0xd8>
    b9d8:	e1a00005 	mov	r0, r5
    b9dc:	ebfffead 	bl	b498 <_ZN15Cyg_StdioStream21flush_output_unlockedEv>
    b9e0:	e2504000 	subs	r4, r0, #0	; 0x0
    b9e4:	1affffe4 	bne	b97c <_ZN15Cyg_StdioStream9read_byteEPh+0xd8>
    b9e8:	eaffffc1 	b	b8f4 <_ZN15Cyg_StdioStream9read_byteEPh+0x50>

0000b9ec <_ZN15Cyg_StdioStream4readEPhjPj>:
    b9ec:	e92d45f0 	push	{r4, r5, r6, r7, r8, sl, lr}
    b9f0:	e1a06003 	mov	r6, r3
    b9f4:	e2808030 	add	r8, r0, #48	; 0x30
    b9f8:	e3a03000 	mov	r3, #0	; 0x0
    b9fc:	e24dd00c 	sub	sp, sp, #12	; 0xc
    ba00:	e1a05000 	mov	r5, r0
    ba04:	e5863000 	str	r3, [r6]
    ba08:	e1a00008 	mov	r0, r8
    ba0c:	e1a0a001 	mov	sl, r1
    ba10:	e1a07002 	mov	r7, r2
    ba14:	ebffed4f 	bl	6f58 <_ZN9Cyg_Mutex4lockEv>
    ba18:	e3500000 	cmp	r0, #0	; 0x0
    ba1c:	03a04009 	moveq	r4, #9	; 0x9
    ba20:	0a00002d 	beq	badc <_ZN15Cyg_StdioStream4readEPhjPj+0xf0>
    ba24:	e5d52028 	ldrb	r2, [r5, #40]
    ba28:	e3120002 	tst	r2, #2	; 0x2
    ba2c:	0a00002d 	beq	bae8 <_ZN15Cyg_StdioStream4readEPhjPj+0xfc>
    ba30:	e2573000 	subs	r3, r7, #0	; 0x0
    ba34:	13a03001 	movne	r3, #1	; 0x1
    ba38:	e0133222 	ands	r3, r3, r2, lsr #4
    ba3c:	0a000009 	beq	ba68 <_ZN15Cyg_StdioStream4readEPhjPj+0x7c>
    ba40:	e5d5300c 	ldrb	r3, [r5, #12]
    ba44:	e4ca3001 	strb	r3, [sl], #1
    ba48:	e5962000 	ldr	r2, [r6]
    ba4c:	e2822001 	add	r2, r2, #1	; 0x1
    ba50:	e5862000 	str	r2, [r6]
    ba54:	e5d53028 	ldrb	r3, [r5, #40]
    ba58:	e3c33010 	bic	r3, r3, #16	; 0x10
    ba5c:	e5c53028 	strb	r3, [r5, #40]
    ba60:	e5d52028 	ldrb	r2, [r5, #40]
    ba64:	e2477001 	sub	r7, r7, #1	; 0x1
    ba68:	e3120020 	tst	r2, #32	; 0x20
    ba6c:	1a000021 	bne	baf8 <_ZN15Cyg_StdioStream4readEPhjPj+0x10c>
    ba70:	e5d53029 	ldrb	r3, [r5, #41]
    ba74:	e3570000 	cmp	r7, #0	; 0x0
    ba78:	03a03000 	moveq	r3, #0	; 0x0
    ba7c:	12033001 	andne	r3, r3, #1	; 0x1
    ba80:	e3530000 	cmp	r3, #0	; 0x0
    ba84:	05961000 	ldreq	r1, [r6]
    ba88:	01a02001 	moveq	r2, r1
    ba8c:	0a000037 	beq	bb70 <_ZN15Cyg_StdioStream4readEPhjPj+0x184>
    ba90:	e5d53024 	ldrb	r3, [r5, #36]
    ba94:	e3a02001 	mov	r2, #1	; 0x1
    ba98:	e5ca3000 	strb	r3, [sl]
    ba9c:	e5862000 	str	r2, [r6]
    baa0:	e5d53029 	ldrb	r3, [r5, #41]
    baa4:	e3c33001 	bic	r3, r3, #1	; 0x1
    baa8:	e5c53029 	strb	r3, [r5, #41]
    baac:	e5961000 	ldr	r1, [r6]
    bab0:	e1a02001 	mov	r2, r1
    bab4:	e5d53028 	ldrb	r3, [r5, #40]
    bab8:	e3130020 	tst	r3, #32	; 0x20
    babc:	11a02001 	movne	r2, r1
    bac0:	13a04000 	movne	r4, #0	; 0x0
    bac4:	0a000029 	beq	bb70 <_ZN15Cyg_StdioStream4readEPhjPj+0x184>
    bac8:	e595302c 	ldr	r3, [r5, #44]
    bacc:	e0833002 	add	r3, r3, r2
    bad0:	e585302c 	str	r3, [r5, #44]
    bad4:	e1a00008 	mov	r0, r8
    bad8:	ebffee16 	bl	7338 <_ZN9Cyg_Mutex6unlockEv>
    badc:	e1a00004 	mov	r0, r4
    bae0:	e28dd00c 	add	sp, sp, #12	; 0xc
    bae4:	e8bd85f0 	pop	{r4, r5, r6, r7, r8, sl, pc}
    bae8:	e1a00008 	mov	r0, r8
    baec:	ebffee11 	bl	7338 <_ZN9Cyg_Mutex6unlockEv>
    baf0:	e3a04016 	mov	r4, #22	; 0x16
    baf4:	eafffff8 	b	badc <_ZN15Cyg_StdioStream4readEPhjPj+0xf0>
    baf8:	e1b023a2 	lsrs	r2, r2, #7
    bafc:	0a00002a 	beq	bbac <_ZN15Cyg_StdioStream4readEPhjPj+0x1c0>
    bb00:	e285201c 	add	r2, r5, #28	; 0x1c
    bb04:	e892000c 	ldm	r2, {r2, r3}
    bb08:	e0423003 	sub	r3, r2, r3
    bb0c:	e1570003 	cmp	r7, r3
    bb10:	31a04007 	movcc	r4, r7
    bb14:	21a04003 	movcs	r4, r3
    bb18:	e3540000 	cmp	r4, #0	; 0x0
    bb1c:	e5951020 	ldr	r1, [r5, #32]
    bb20:	0affffe1 	beq	baac <_ZN15Cyg_StdioStream4readEPhjPj+0xc0>
    bb24:	e1a02004 	mov	r2, r4
    bb28:	e1a0000a 	mov	r0, sl
    bb2c:	eb0002b4 	bl	c604 <_memcpy>
    bb30:	e5951014 	ldr	r1, [r5, #20]
    bb34:	e3510000 	cmp	r1, #0	; 0x0
    bb38:	15952018 	ldrne	r2, [r5, #24]
    bb3c:	e5953020 	ldr	r3, [r5, #32]
    bb40:	03e02000 	mvneq	r2, #0	; 0x0
    bb44:	e0812002 	add	r2, r1, r2
    bb48:	e0833004 	add	r3, r3, r4
    bb4c:	e1530002 	cmp	r3, r2
    bb50:	e5853020 	str	r3, [r5, #32]
    bb54:	0585101c 	streq	r1, [r5, #28]
    bb58:	05851020 	streq	r1, [r5, #32]
    bb5c:	e5961000 	ldr	r1, [r6]
    bb60:	e0842001 	add	r2, r4, r1
    bb64:	e5862000 	str	r2, [r6]
    bb68:	e1a01002 	mov	r1, r2
    bb6c:	eaffffd0 	b	bab4 <_ZN15Cyg_StdioStream4readEPhjPj+0xc8>
    bb70:	e1570002 	cmp	r7, r2
    bb74:	93a04000 	movls	r4, #0	; 0x0
    bb78:	9affffd2 	bls	bac8 <_ZN15Cyg_StdioStream4readEPhjPj+0xdc>
    bb7c:	e0623007 	rsb	r3, r2, r7
    bb80:	e28d2008 	add	r2, sp, #8	; 0x8
    bb84:	e5223004 	str	r3, [r2, #-4]!
    bb88:	e08a1001 	add	r1, sl, r1
    bb8c:	e5950008 	ldr	r0, [r5, #8]
    bb90:	ebffd84e 	bl	1cd0 <cyg_io_read>
    bb94:	e5962000 	ldr	r2, [r6]
    bb98:	e59d3004 	ldr	r3, [sp, #4]
    bb9c:	e0822003 	add	r2, r2, r3
    bba0:	e1a04000 	mov	r4, r0
    bba4:	e5862000 	str	r2, [r6]
    bba8:	eaffffc6 	b	bac8 <_ZN15Cyg_StdioStream4readEPhjPj+0xdc>
    bbac:	e1a00005 	mov	r0, r5
    bbb0:	ebfffe38 	bl	b498 <_ZN15Cyg_StdioStream21flush_output_unlockedEv>
    bbb4:	e2504000 	subs	r4, r0, #0	; 0x0
    bbb8:	0affffd0 	beq	bb00 <_ZN15Cyg_StdioStream4readEPhjPj+0x114>
    bbbc:	eaffffc4 	b	bad4 <_ZN15Cyg_StdioStream4readEPhjPj+0xe8>

0000bbc0 <_ZN15Cyg_StdioStream18refill_read_bufferEv>:
    bbc0:	e92d4070 	push	{r4, r5, r6, lr}
    bbc4:	e2806030 	add	r6, r0, #48	; 0x30
    bbc8:	e24dd008 	sub	sp, sp, #8	; 0x8
    bbcc:	e1a04000 	mov	r4, r0
    bbd0:	e1a00006 	mov	r0, r6
    bbd4:	ebffecdf 	bl	6f58 <_ZN9Cyg_Mutex4lockEv>
    bbd8:	e3500000 	cmp	r0, #0	; 0x0
    bbdc:	03a05009 	moveq	r5, #9	; 0x9
    bbe0:	0a000023 	beq	bc74 <_ZN15Cyg_StdioStream18refill_read_bufferEv+0xb4>
    bbe4:	e5d43028 	ldrb	r3, [r4, #40]
    bbe8:	e3130002 	tst	r3, #2	; 0x2
    bbec:	0a000023 	beq	bc80 <_ZN15Cyg_StdioStream18refill_read_bufferEv+0xc0>
    bbf0:	e1a032a3 	lsr	r3, r3, #5
    bbf4:	e2135001 	ands	r5, r3, #1	; 0x1
    bbf8:	1a000024 	bne	bc90 <_ZN15Cyg_StdioStream18refill_read_bufferEv+0xd0>
    bbfc:	e5d43029 	ldrb	r3, [r4, #41]
    bc00:	e3130001 	tst	r3, #1	; 0x1
    bc04:	03a03001 	moveq	r3, #1	; 0x1
    bc08:	058d3004 	streq	r3, [sp, #4]
    bc0c:	02841024 	addeq	r1, r4, #36	; 0x24
    bc10:	1a000025 	bne	bcac <_ZN15Cyg_StdioStream18refill_read_bufferEv+0xec>
    bc14:	e5940008 	ldr	r0, [r4, #8]
    bc18:	e28d2004 	add	r2, sp, #4	; 0x4
    bc1c:	ebffd82b 	bl	1cd0 <cyg_io_read>
    bc20:	e5d43028 	ldrb	r3, [r4, #40]
    bc24:	e3130020 	tst	r3, #32	; 0x20
    bc28:	e1a05000 	mov	r5, r0
    bc2c:	0a000021 	beq	bcb8 <_ZN15Cyg_StdioStream18refill_read_bufferEv+0xf8>
    bc30:	e594301c 	ldr	r3, [r4, #28]
    bc34:	e59d2004 	ldr	r2, [sp, #4]
    bc38:	e0833002 	add	r3, r3, r2
    bc3c:	e584301c 	str	r3, [r4, #28]
    bc40:	e1a00006 	mov	r0, r6
    bc44:	ebffedbb 	bl	7338 <_ZN9Cyg_Mutex6unlockEv>
    bc48:	e3550000 	cmp	r5, #0	; 0x0
    bc4c:	1a000008 	bne	bc74 <_ZN15Cyg_StdioStream18refill_read_bufferEv+0xb4>
    bc50:	e59d3004 	ldr	r3, [sp, #4]
    bc54:	e3530000 	cmp	r3, #0	; 0x0
    bc58:	05d43028 	ldrbeq	r3, [r4, #40]
    bc5c:	15d43028 	ldrbne	r3, [r4, #40]
    bc60:	03833001 	orreq	r3, r3, #1	; 0x1
    bc64:	13c33001 	bicne	r3, r3, #1	; 0x1
    bc68:	05c43028 	strbeq	r3, [r4, #40]
    bc6c:	15c43028 	strbne	r3, [r4, #40]
    bc70:	0285500b 	addeq	r5, r5, #11	; 0xb
    bc74:	e1a00005 	mov	r0, r5
    bc78:	e28dd008 	add	sp, sp, #8	; 0x8
    bc7c:	e8bd8070 	pop	{r4, r5, r6, pc}
    bc80:	e1a00006 	mov	r0, r6
    bc84:	ebffedab 	bl	7338 <_ZN9Cyg_Mutex6unlockEv>
    bc88:	e3a05016 	mov	r5, #22	; 0x16
    bc8c:	eafffff8 	b	bc74 <_ZN15Cyg_StdioStream18refill_read_bufferEv+0xb4>
    bc90:	e1a00004 	mov	r0, r4
    bc94:	ebfffdff 	bl	b498 <_ZN15Cyg_StdioStream21flush_output_unlockedEv>
    bc98:	e5d43028 	ldrb	r3, [r4, #40]
    bc9c:	e2505000 	subs	r5, r0, #0	; 0x0
    bca0:	e3833080 	orr	r3, r3, #128	; 0x80
    bca4:	e5c43028 	strb	r3, [r4, #40]
    bca8:	0a000009 	beq	bcd4 <_ZN15Cyg_StdioStream18refill_read_bufferEv+0x114>
    bcac:	e1a00006 	mov	r0, r6
    bcb0:	ebffeda0 	bl	7338 <_ZN9Cyg_Mutex6unlockEv>
    bcb4:	eaffffee 	b	bc74 <_ZN15Cyg_StdioStream18refill_read_bufferEv+0xb4>
    bcb8:	e5d43029 	ldrb	r3, [r4, #41]
    bcbc:	e59d2004 	ldr	r2, [sp, #4]
    bcc0:	e3c33001 	bic	r3, r3, #1	; 0x1
    bcc4:	e3520000 	cmp	r2, #0	; 0x0
    bcc8:	13833001 	orrne	r3, r3, #1	; 0x1
    bccc:	e5c43029 	strb	r3, [r4, #41]
    bcd0:	eaffffda 	b	bc40 <_ZN15Cyg_StdioStream18refill_read_bufferEv+0x80>
    bcd4:	e1a00004 	mov	r0, r4
    bcd8:	eb0003c4 	bl	cbf0 <cyg_libc_stdio_flush_all_but>
    bcdc:	e2505000 	subs	r5, r0, #0	; 0x0
    bce0:	1afffff1 	bne	bcac <_ZN15Cyg_StdioStream18refill_read_bufferEv+0xec>
    bce4:	e5942014 	ldr	r2, [r4, #20]
    bce8:	e3520000 	cmp	r2, #0	; 0x0
    bcec:	15943018 	ldrne	r3, [r4, #24]
    bcf0:	03e03000 	mvneq	r3, #0	; 0x0
    bcf4:	e594101c 	ldr	r1, [r4, #28]
    bcf8:	e0823003 	add	r3, r2, r3
    bcfc:	e0613003 	rsb	r3, r1, r3
    bd00:	e3530000 	cmp	r3, #0	; 0x0
    bd04:	e58d3004 	str	r3, [sp, #4]
    bd08:	1affffc1 	bne	bc14 <_ZN15Cyg_StdioStream18refill_read_bufferEv+0x54>
    bd0c:	eaffffe6 	b	bcac <_ZN15Cyg_StdioStream18refill_read_bufferEv+0xec>

0000bd10 <_ZN15Cyg_StdioStream10initializeEPvNS_8OpenModeEiiijPh>:
    bd10:	e52d4004 	push	{r4}		; (str r4, [sp, #-4]!)
    bd14:	e5801008 	str	r1, [r0, #8]
    bd18:	e3a01000 	mov	r1, #0	; 0x0
    bd1c:	e5801028 	str	r1, [r0, #40]
    bd20:	e1a0c003 	mov	ip, r3
    bd24:	e59d1008 	ldr	r1, [sp, #8]
    bd28:	e3520003 	cmp	r2, #3	; 0x3
    bd2c:	979ff102 	ldrls	pc, [pc, r2, lsl #2]
    bd30:	ea000024 	b	bdc8 <_ZN15Cyg_StdioStream10initializeEPvNS_8OpenModeEiiijPh+0xb8>
    bd34:	0000bdec 	.word	0x0000bdec
    bd38:	0000bdd8 	.word	0x0000bdd8
    bd3c:	0000bd44 	.word	0x0000bd44
    bd40:	0000bd44 	.word	0x0000bd44
    bd44:	e5d03028 	ldrb	r3, [r0, #40]
    bd48:	e3833002 	orr	r3, r3, #2	; 0x2
    bd4c:	e5c03028 	strb	r3, [r0, #40]
    bd50:	e5d02028 	ldrb	r2, [r0, #40]
    bd54:	e3822004 	orr	r2, r2, #4	; 0x4
    bd58:	e5c02028 	strb	r2, [r0, #40]
    bd5c:	e5d03028 	ldrb	r3, [r0, #40]
    bd60:	e3c33080 	bic	r3, r3, #128	; 0x80
    bd64:	e5c03028 	strb	r3, [r0, #40]
    bd68:	e5d03028 	ldrb	r3, [r0, #40]
    bd6c:	e3130002 	tst	r3, #2	; 0x2
    bd70:	1a000023 	bne	be04 <_ZN15Cyg_StdioStream10initializeEPvNS_8OpenModeEiiijPh+0xf4>
    bd74:	e59d4004 	ldr	r4, [sp, #4]
    bd78:	e3540000 	cmp	r4, #0	; 0x0
    bd7c:	13a02008 	movne	r2, #8	; 0x8
    bd80:	03a02000 	moveq	r2, #0	; 0x0
    bd84:	e3c33008 	bic	r3, r3, #8	; 0x8
    bd88:	e1823003 	orr	r3, r2, r3
    bd8c:	e5c03028 	strb	r3, [r0, #40]
    bd90:	e5d03028 	ldrb	r3, [r0, #40]
    bd94:	e3c33001 	bic	r3, r3, #1	; 0x1
    bd98:	e35c0000 	cmp	ip, #0	; 0x0
    bd9c:	13833001 	orrne	r3, r3, #1	; 0x1
    bda0:	e3a02000 	mov	r2, #0	; 0x0
    bda4:	e3710004 	cmn	r1, #4	; 0x4
    bda8:	e5c03028 	strb	r3, [r0, #40]
    bdac:	e580202c 	str	r2, [r0, #44]
    bdb0:	e5802004 	str	r2, [r0, #4]
    bdb4:	0a00002f 	beq	be78 <_ZN15Cyg_StdioStream10initializeEPvNS_8OpenModeEiiijPh+0x168>
    bdb8:	e3710002 	cmn	r1, #2	; 0x2
    bdbc:	0a00001b 	beq	be30 <_ZN15Cyg_StdioStream10initializeEPvNS_8OpenModeEiiijPh+0x120>
    bdc0:	e3710008 	cmn	r1, #8	; 0x8
    bdc4:	0a000012 	beq	be14 <_ZN15Cyg_StdioStream10initializeEPvNS_8OpenModeEiiijPh+0x104>
    bdc8:	e3a03016 	mov	r3, #22	; 0x16
    bdcc:	e5803004 	str	r3, [r0, #4]
    bdd0:	e8bd0010 	pop	{r4}
    bdd4:	e12fff1e 	bx	lr
    bdd8:	e5d03028 	ldrb	r3, [r0, #40]
    bddc:	e3833004 	orr	r3, r3, #4	; 0x4
    bde0:	e5c03028 	strb	r3, [r0, #40]
    bde4:	e5d03028 	ldrb	r3, [r0, #40]
    bde8:	eaffffdc 	b	bd60 <_ZN15Cyg_StdioStream10initializeEPvNS_8OpenModeEiiijPh+0x50>
    bdec:	e5d03028 	ldrb	r3, [r0, #40]
    bdf0:	e3833002 	orr	r3, r3, #2	; 0x2
    bdf4:	e5c03028 	strb	r3, [r0, #40]
    bdf8:	e5d03028 	ldrb	r3, [r0, #40]
    bdfc:	e3130004 	tst	r3, #4	; 0x4
    be00:	1affffd6 	bne	bd60 <_ZN15Cyg_StdioStream10initializeEPvNS_8OpenModeEiiijPh+0x50>
    be04:	e3833080 	orr	r3, r3, #128	; 0x80
    be08:	e5c03028 	strb	r3, [r0, #40]
    be0c:	e5d03028 	ldrb	r3, [r0, #40]
    be10:	eaffffd7 	b	bd74 <_ZN15Cyg_StdioStream10initializeEPvNS_8OpenModeEiiijPh+0x64>
    be14:	e5d03028 	ldrb	r3, [r0, #40]
    be18:	e3c33040 	bic	r3, r3, #64	; 0x40
    be1c:	e5c03028 	strb	r3, [r0, #40]
    be20:	e5d02028 	ldrb	r2, [r0, #40]
    be24:	e3c22020 	bic	r2, r2, #32	; 0x20
    be28:	e5c02028 	strb	r2, [r0, #40]
    be2c:	eaffffe7 	b	bdd0 <_ZN15Cyg_StdioStream10initializeEPvNS_8OpenModeEiiijPh+0xc0>
    be30:	e5d03028 	ldrb	r3, [r0, #40]
    be34:	e3833020 	orr	r3, r3, #32	; 0x20
    be38:	e5c03028 	strb	r3, [r0, #40]
    be3c:	e5d02028 	ldrb	r2, [r0, #40]
    be40:	e3c22040 	bic	r2, r2, #64	; 0x40
    be44:	e5c02028 	strb	r2, [r0, #40]
    be48:	e5d03028 	ldrb	r3, [r0, #40]
    be4c:	e3130020 	tst	r3, #32	; 0x20
    be50:	0affffde 	beq	bdd0 <_ZN15Cyg_StdioStream10initializeEPvNS_8OpenModeEiiijPh+0xc0>
    be54:	e5903014 	ldr	r3, [r0, #20]
    be58:	e3530000 	cmp	r3, #0	; 0x0
    be5c:	0a000002 	beq	be6c <_ZN15Cyg_StdioStream10initializeEPvNS_8OpenModeEiiijPh+0x15c>
    be60:	e5903018 	ldr	r3, [r0, #24]
    be64:	e3730001 	cmn	r3, #1	; 0x1
    be68:	1affffd8 	bne	bdd0 <_ZN15Cyg_StdioStream10initializeEPvNS_8OpenModeEiiijPh+0xc0>
    be6c:	e3a0300c 	mov	r3, #12	; 0xc
    be70:	e5803004 	str	r3, [r0, #4]
    be74:	eaffffd5 	b	bdd0 <_ZN15Cyg_StdioStream10initializeEPvNS_8OpenModeEiiijPh+0xc0>
    be78:	e5d03028 	ldrb	r3, [r0, #40]
    be7c:	e3833020 	orr	r3, r3, #32	; 0x20
    be80:	e5c03028 	strb	r3, [r0, #40]
    be84:	e5d02028 	ldrb	r2, [r0, #40]
    be88:	e3822040 	orr	r2, r2, #64	; 0x40
    be8c:	e5c02028 	strb	r2, [r0, #40]
    be90:	eaffffec 	b	be48 <_ZN15Cyg_StdioStream10initializeEPvNS_8OpenModeEiiijPh+0x138>

0000be94 <_ZN15Cyg_StdioStreamC1ENS_8OpenModeEjPh>:
    be94:	e92d41f0 	push	{r4, r5, r6, r7, r8, lr}
    be98:	e1a05003 	mov	r5, r3
    be9c:	e59f30a4 	ldr	r3, [pc, #164]	; bf48 <HAL_BREAKINST_THUMB+0x8a>
    bea0:	e3a04000 	mov	r4, #0	; 0x0
    bea4:	e24dd010 	sub	sp, sp, #16	; 0x10
    bea8:	e1a06000 	mov	r6, r0
    beac:	e5803000 	str	r3, [r0]
    beb0:	e1a08002 	mov	r8, r2
    beb4:	e1a07001 	mov	r7, r1
    beb8:	e5804010 	str	r4, [r0, #16]
    bebc:	e1a01002 	mov	r1, r2
    bec0:	e5804014 	str	r4, [r0, #20]
    bec4:	e1a02005 	mov	r2, r5
    bec8:	e5804018 	str	r4, [r0, #24]
    becc:	e580401c 	str	r4, [r0, #28]
    bed0:	e5804020 	str	r4, [r0, #32]
    bed4:	e2800010 	add	r0, r0, #16	; 0x10
    bed8:	eb0000b7 	bl	c1bc <_ZN21Cyg_StdioStreamBuffer10set_bufferEjPh>
    bedc:	e2860030 	add	r0, r6, #48	; 0x30
    bee0:	ebffebb5 	bl	6dbc <_ZN9Cyg_MutexC1Ev>
    bee4:	e1a03004 	mov	r3, r4
    bee8:	e3e0c001 	mvn	ip, #1	; 0x1
    beec:	e1a01004 	mov	r1, r4
    bef0:	e1a00006 	mov	r0, r6
    bef4:	e1a02007 	mov	r2, r7
    bef8:	e58dc004 	str	ip, [sp, #4]
    befc:	e58d500c 	str	r5, [sp, #12]
    bf00:	e58d4000 	str	r4, [sp]
    bf04:	e58d8008 	str	r8, [sp, #8]
    bf08:	ebffff80 	bl	bd10 <_ZN15Cyg_StdioStream10initializeEPvNS_8OpenModeEiiijPh>
    bf0c:	e5963004 	ldr	r3, [r6, #4]
    bf10:	e1530004 	cmp	r3, r4
    bf14:	1a000004 	bne	bf2c <HAL_BREAKINST_THUMB+0x6e>
    bf18:	e1570004 	cmp	r7, r4
    bf1c:	0596301c 	ldreq	r3, [r6, #28]
    bf20:	00833008 	addeq	r3, r3, r8
    bf24:	0586301c 	streq	r3, [r6, #28]
    bf28:	1a000002 	bne	bf38 <HAL_BREAKINST_THUMB+0x7a>
    bf2c:	e1a00006 	mov	r0, r6
    bf30:	e28dd010 	add	sp, sp, #16	; 0x10
    bf34:	e8bd81f0 	pop	{r4, r5, r6, r7, r8, pc}
    bf38:	e3570001 	cmp	r7, #1	; 0x1
    bf3c:	13a03016 	movne	r3, #22	; 0x16
    bf40:	15863004 	strne	r3, [r6, #4]
    bf44:	eafffff8 	b	bf2c <HAL_BREAKINST_THUMB+0x6e>
    bf48:	0000f750 	.word	0x0000f750

0000bf4c <_ZN15Cyg_StdioStreamC2ENS_8OpenModeEjPh>:
    bf4c:	e92d41f0 	push	{r4, r5, r6, r7, r8, lr}
    bf50:	e1a05003 	mov	r5, r3
    bf54:	e59f30a4 	ldr	r3, [pc, #164]	; c000 <_ZN15Cyg_StdioStreamC2ENS_8OpenModeEjPh+0xb4>
    bf58:	e3a04000 	mov	r4, #0	; 0x0
    bf5c:	e24dd010 	sub	sp, sp, #16	; 0x10
    bf60:	e1a06000 	mov	r6, r0
    bf64:	e5803000 	str	r3, [r0]
    bf68:	e1a08002 	mov	r8, r2
    bf6c:	e1a07001 	mov	r7, r1
    bf70:	e5804010 	str	r4, [r0, #16]
    bf74:	e1a01002 	mov	r1, r2
    bf78:	e5804014 	str	r4, [r0, #20]
    bf7c:	e1a02005 	mov	r2, r5
    bf80:	e5804018 	str	r4, [r0, #24]
    bf84:	e580401c 	str	r4, [r0, #28]
    bf88:	e5804020 	str	r4, [r0, #32]
    bf8c:	e2800010 	add	r0, r0, #16	; 0x10
    bf90:	eb000089 	bl	c1bc <_ZN21Cyg_StdioStreamBuffer10set_bufferEjPh>
    bf94:	e2860030 	add	r0, r6, #48	; 0x30
    bf98:	ebffeb87 	bl	6dbc <_ZN9Cyg_MutexC1Ev>
    bf9c:	e1a03004 	mov	r3, r4
    bfa0:	e3e0c001 	mvn	ip, #1	; 0x1
    bfa4:	e1a01004 	mov	r1, r4
    bfa8:	e1a00006 	mov	r0, r6
    bfac:	e1a02007 	mov	r2, r7
    bfb0:	e58dc004 	str	ip, [sp, #4]
    bfb4:	e58d500c 	str	r5, [sp, #12]
    bfb8:	e58d4000 	str	r4, [sp]
    bfbc:	e58d8008 	str	r8, [sp, #8]
    bfc0:	ebffff52 	bl	bd10 <_ZN15Cyg_StdioStream10initializeEPvNS_8OpenModeEiiijPh>
    bfc4:	e5963004 	ldr	r3, [r6, #4]
    bfc8:	e1530004 	cmp	r3, r4
    bfcc:	1a000004 	bne	bfe4 <_ZN15Cyg_StdioStreamC2ENS_8OpenModeEjPh+0x98>
    bfd0:	e1570004 	cmp	r7, r4
    bfd4:	0596301c 	ldreq	r3, [r6, #28]
    bfd8:	00833008 	addeq	r3, r3, r8
    bfdc:	0586301c 	streq	r3, [r6, #28]
    bfe0:	1a000002 	bne	bff0 <_ZN15Cyg_StdioStreamC2ENS_8OpenModeEjPh+0xa4>
    bfe4:	e1a00006 	mov	r0, r6
    bfe8:	e28dd010 	add	sp, sp, #16	; 0x10
    bfec:	e8bd81f0 	pop	{r4, r5, r6, r7, r8, pc}
    bff0:	e3570001 	cmp	r7, #1	; 0x1
    bff4:	13a03016 	movne	r3, #22	; 0x16
    bff8:	15863004 	strne	r3, [r6, #4]
    bffc:	eafffff8 	b	bfe4 <_ZN15Cyg_StdioStreamC2ENS_8OpenModeEjPh+0x98>
    c000:	0000f750 	.word	0x0000f750

0000c004 <_ZN15Cyg_StdioStreamC1EPvNS_8OpenModeEiiijPh>:
    c004:	e92d45f0 	push	{r4, r5, r6, r7, r8, sl, lr}
    c008:	e24dd014 	sub	sp, sp, #20	; 0x14
    c00c:	e1a05000 	mov	r5, r0
    c010:	e28d8038 	add	r8, sp, #56	; 0x38
    c014:	e8980500 	ldm	r8, {r8, sl}
    c018:	e59f006c 	ldr	r0, [pc, #108]	; c08c <_ZN15Cyg_StdioStreamC1EPvNS_8OpenModeEiiijPh+0x88>
    c01c:	e3a0c000 	mov	ip, #0	; 0x0
    c020:	e585c020 	str	ip, [r5, #32]
    c024:	e585c010 	str	ip, [r5, #16]
    c028:	e585c014 	str	ip, [r5, #20]
    c02c:	e585c018 	str	ip, [r5, #24]
    c030:	e585c01c 	str	ip, [r5, #28]
    c034:	e5850000 	str	r0, [r5]
    c038:	e1a06001 	mov	r6, r1
    c03c:	e1a07002 	mov	r7, r2
    c040:	e1a01008 	mov	r1, r8
    c044:	e1a0200a 	mov	r2, sl
    c048:	e2850010 	add	r0, r5, #16	; 0x10
    c04c:	e1a04003 	mov	r4, r3
    c050:	eb000059 	bl	c1bc <_ZN21Cyg_StdioStreamBuffer10set_bufferEjPh>
    c054:	e2850030 	add	r0, r5, #48	; 0x30
    c058:	ebffeb57 	bl	6dbc <_ZN9Cyg_MutexC1Ev>
    c05c:	e1a03004 	mov	r3, r4
    c060:	e59dc030 	ldr	ip, [sp, #48]
    c064:	e59d4034 	ldr	r4, [sp, #52]
    c068:	e1a00005 	mov	r0, r5
    c06c:	e1a01006 	mov	r1, r6
    c070:	e1a02007 	mov	r2, r7
    c074:	e58dc000 	str	ip, [sp]
    c078:	e98d0510 	stmib	sp, {r4, r8, sl}
    c07c:	ebffff23 	bl	bd10 <_ZN15Cyg_StdioStream10initializeEPvNS_8OpenModeEiiijPh>
    c080:	e1a00005 	mov	r0, r5
    c084:	e28dd014 	add	sp, sp, #20	; 0x14
    c088:	e8bd85f0 	pop	{r4, r5, r6, r7, r8, sl, pc}
    c08c:	0000f750 	.word	0x0000f750

0000c090 <_ZN15Cyg_StdioStreamC2EPvNS_8OpenModeEiiijPh>:
    c090:	e92d45f0 	push	{r4, r5, r6, r7, r8, sl, lr}
    c094:	e24dd014 	sub	sp, sp, #20	; 0x14
    c098:	e1a05000 	mov	r5, r0
    c09c:	e28d8038 	add	r8, sp, #56	; 0x38
    c0a0:	e8980500 	ldm	r8, {r8, sl}
    c0a4:	e59f006c 	ldr	r0, [pc, #108]	; c118 <_ZN15Cyg_StdioStreamC2EPvNS_8OpenModeEiiijPh+0x88>
    c0a8:	e3a0c000 	mov	ip, #0	; 0x0
    c0ac:	e585c020 	str	ip, [r5, #32]
    c0b0:	e585c010 	str	ip, [r5, #16]
    c0b4:	e585c014 	str	ip, [r5, #20]
    c0b8:	e585c018 	str	ip, [r5, #24]
    c0bc:	e585c01c 	str	ip, [r5, #28]
    c0c0:	e5850000 	str	r0, [r5]
    c0c4:	e1a06001 	mov	r6, r1
    c0c8:	e1a07002 	mov	r7, r2
    c0cc:	e1a01008 	mov	r1, r8
    c0d0:	e1a0200a 	mov	r2, sl
    c0d4:	e2850010 	add	r0, r5, #16	; 0x10
    c0d8:	e1a04003 	mov	r4, r3
    c0dc:	eb000036 	bl	c1bc <_ZN21Cyg_StdioStreamBuffer10set_bufferEjPh>
    c0e0:	e2850030 	add	r0, r5, #48	; 0x30
    c0e4:	ebffeb34 	bl	6dbc <_ZN9Cyg_MutexC1Ev>
    c0e8:	e1a03004 	mov	r3, r4
    c0ec:	e59dc030 	ldr	ip, [sp, #48]
    c0f0:	e59d4034 	ldr	r4, [sp, #52]
    c0f4:	e1a00005 	mov	r0, r5
    c0f8:	e1a01006 	mov	r1, r6
    c0fc:	e1a02007 	mov	r2, r7
    c100:	e58dc000 	str	ip, [sp]
    c104:	e98d0510 	stmib	sp, {r4, r8, sl}
    c108:	ebffff00 	bl	bd10 <_ZN15Cyg_StdioStream10initializeEPvNS_8OpenModeEiiijPh>
    c10c:	e1a00005 	mov	r0, r5
    c110:	e28dd014 	add	sp, sp, #20	; 0x14
    c114:	e8bd85f0 	pop	{r4, r5, r6, r7, r8, sl, pc}
    c118:	0000f750 	.word	0x0000f750

0000c11c <_ZN15Cyg_StdioStreamD1Ev>:
    c11c:	e92d4030 	push	{r4, r5, lr}
    c120:	e5903008 	ldr	r3, [r0, #8]
    c124:	e59f2088 	ldr	r2, [pc, #136]	; c1b4 <_ZN15Cyg_StdioStreamD1Ev+0x98>
    c128:	e3530000 	cmp	r3, #0	; 0x0
    c12c:	e24dd004 	sub	sp, sp, #4	; 0x4
    c130:	e1a04000 	mov	r4, r0
    c134:	e5802000 	str	r2, [r0]
    c138:	02805030 	addeq	r5, r0, #48	; 0x30
    c13c:	0a00000d 	beq	c178 <_ZN15Cyg_StdioStreamD1Ev+0x5c>
    c140:	e2805030 	add	r5, r0, #48	; 0x30
    c144:	e1a00005 	mov	r0, r5
    c148:	ebffeb82 	bl	6f58 <_ZN9Cyg_Mutex4lockEv>
    c14c:	e3500000 	cmp	r0, #0	; 0x0
    c150:	0a000008 	beq	c178 <_ZN15Cyg_StdioStreamD1Ev+0x5c>
    c154:	e5943008 	ldr	r3, [r4, #8]
    c158:	e3530000 	cmp	r3, #0	; 0x0
    c15c:	0a000003 	beq	c170 <_ZN15Cyg_StdioStreamD1Ev+0x54>
    c160:	e1a00004 	mov	r0, r4
    c164:	ebfffccb 	bl	b498 <_ZN15Cyg_StdioStream21flush_output_unlockedEv>
    c168:	e3a03000 	mov	r3, #0	; 0x0
    c16c:	e5843008 	str	r3, [r4, #8]
    c170:	e1a00005 	mov	r0, r5
    c174:	ebffec6f 	bl	7338 <_ZN9Cyg_Mutex6unlockEv>
    c178:	e1a00005 	mov	r0, r5
    c17c:	ebffeb35 	bl	6e58 <_ZN9Cyg_MutexD1Ev>
    c180:	e5940014 	ldr	r0, [r4, #20]
    c184:	e3500000 	cmp	r0, #0	; 0x0
    c188:	0a000002 	beq	c198 <_ZN15Cyg_StdioStreamD1Ev+0x7c>
    c18c:	e5943010 	ldr	r3, [r4, #16]
    c190:	e3530000 	cmp	r3, #0	; 0x0
    c194:	1a000004 	bne	c1ac <_ZN15Cyg_StdioStreamD1Ev+0x90>
    c198:	e59f3018 	ldr	r3, [pc, #24]	; c1b8 <_ZN15Cyg_StdioStreamD1Ev+0x9c>
    c19c:	e1a00004 	mov	r0, r4
    c1a0:	e5843000 	str	r3, [r4]
    c1a4:	e28dd004 	add	sp, sp, #4	; 0x4
    c1a8:	e8bd8030 	pop	{r4, r5, pc}
    c1ac:	eb00015c 	bl	c724 <free>
    c1b0:	eafffff8 	b	c198 <_ZN15Cyg_StdioStreamD1Ev+0x7c>
    c1b4:	0000f750 	.word	0x0000f750
    c1b8:	0000f768 	.word	0x0000f768

0000c1bc <_ZN21Cyg_StdioStreamBuffer10set_bufferEjPh>:
    c1bc:	e92d4070 	push	{r4, r5, r6, lr}
    c1c0:	e2526000 	subs	r6, r2, #0	; 0x0
    c1c4:	e1a04000 	mov	r4, r0
    c1c8:	e1a05001 	mov	r5, r1
    c1cc:	0a00000e 	beq	c20c <_ZN21Cyg_StdioStreamBuffer10set_bufferEjPh+0x50>
    c1d0:	e5903000 	ldr	r3, [r0]
    c1d4:	e3530000 	cmp	r3, #0	; 0x0
    c1d8:	1a000006 	bne	c1f8 <_ZN21Cyg_StdioStreamBuffer10set_bufferEjPh+0x3c>
    c1dc:	e5846004 	str	r6, [r4, #4]
    c1e0:	e5943004 	ldr	r3, [r4, #4]
    c1e4:	e5845008 	str	r5, [r4, #8]
    c1e8:	e584300c 	str	r3, [r4, #12]
    c1ec:	e5843010 	str	r3, [r4, #16]
    c1f0:	e3a00000 	mov	r0, #0	; 0x0
    c1f4:	e8bd8070 	pop	{r4, r5, r6, pc}
    c1f8:	e5900004 	ldr	r0, [r0, #4]
    c1fc:	eb000148 	bl	c724 <free>
    c200:	e3a03000 	mov	r3, #0	; 0x0
    c204:	e5843000 	str	r3, [r4]
    c208:	eafffff3 	b	c1dc <_ZN21Cyg_StdioStreamBuffer10set_bufferEjPh+0x20>
    c20c:	e5903008 	ldr	r3, [r0, #8]
    c210:	e1530001 	cmp	r3, r1
    c214:	0afffff1 	beq	c1e0 <_ZN21Cyg_StdioStreamBuffer10set_bufferEjPh+0x24>
    c218:	e1a00001 	mov	r0, r1
    c21c:	eb000187 	bl	c840 <malloc>
    c220:	e2506000 	subs	r6, r0, #0	; 0x0
    c224:	0280000c 	addeq	r0, r0, #12	; 0xc
    c228:	08bd8070 	popeq	{r4, r5, r6, pc}
    c22c:	e5943000 	ldr	r3, [r4]
    c230:	e3530000 	cmp	r3, #0	; 0x0
    c234:	1a000002 	bne	c244 <_ZN21Cyg_StdioStreamBuffer10set_bufferEjPh+0x88>
    c238:	e3a03001 	mov	r3, #1	; 0x1
    c23c:	e8840048 	stm	r4, {r3, r6}
    c240:	eaffffe6 	b	c1e0 <_ZN21Cyg_StdioStreamBuffer10set_bufferEjPh+0x24>
    c244:	e5940004 	ldr	r0, [r4, #4]
    c248:	eb000135 	bl	c724 <free>
    c24c:	eafffff9 	b	c238 <_ZN21Cyg_StdioStreamBuffer10set_bufferEjPh+0x7c>

0000c250 <cyg_hal_plf_serial_putc>:
    c250:	e5900000 	ldr	r0, [r0]
    c254:	e2802014 	add	r2, r0, #20	; 0x14
    c258:	e5923000 	ldr	r3, [r2]
    c25c:	e3130020 	tst	r3, #32	; 0x20
    c260:	0afffffc 	beq	c258 <cyg_hal_plf_serial_putc+0x8>
    c264:	e5801000 	str	r1, [r0]
    c268:	e12fff1e 	bx	lr

0000c26c <cyg_hal_plf_serial_getc>:
    c26c:	e5900000 	ldr	r0, [r0]
    c270:	e2802014 	add	r2, r0, #20	; 0x14
    c274:	e5923000 	ldr	r3, [r2]
    c278:	e3130001 	tst	r3, #1	; 0x1
    c27c:	0afffffc 	beq	c274 <cyg_hal_plf_serial_getc+0x8>
    c280:	e5900000 	ldr	r0, [r0]
    c284:	e20000ff 	and	r0, r0, #255	; 0xff
    c288:	e12fff1e 	bx	lr

0000c28c <cyg_hal_plf_serial_write>:
    c28c:	e92d0030 	push	{r4, r5}
    c290:	e2525000 	subs	r5, r2, #0	; 0x0
    c294:	e1a04001 	mov	r4, r1
    c298:	0a00000a 	beq	c2c8 <cyg_hal_plf_serial_write+0x3c>
    c29c:	e5900000 	ldr	r0, [r0]
    c2a0:	e3a02000 	mov	r2, #0	; 0x0
    c2a4:	e280c014 	add	ip, r0, #20	; 0x14
    c2a8:	e7d41002 	ldrb	r1, [r4, r2]
    c2ac:	e59c3000 	ldr	r3, [ip]
    c2b0:	e3130020 	tst	r3, #32	; 0x20
    c2b4:	0afffffc 	beq	c2ac <cyg_hal_plf_serial_write+0x20>
    c2b8:	e2822001 	add	r2, r2, #1	; 0x1
    c2bc:	e1550002 	cmp	r5, r2
    c2c0:	e5801000 	str	r1, [r0]
    c2c4:	1afffff7 	bne	c2a8 <cyg_hal_plf_serial_write+0x1c>
    c2c8:	e8bd0030 	pop	{r4, r5}
    c2cc:	e12fff1e 	bx	lr

0000c2d0 <cyg_hal_plf_serial_read>:
    c2d0:	e92d0030 	push	{r4, r5}
    c2d4:	e2525000 	subs	r5, r2, #0	; 0x0
    c2d8:	e1a04000 	mov	r4, r0
    c2dc:	e1a00001 	mov	r0, r1
    c2e0:	0a00000a 	beq	c310 <cyg_hal_plf_serial_read+0x40>
    c2e4:	e3a02000 	mov	r2, #0	; 0x0
    c2e8:	e5941000 	ldr	r1, [r4]
    c2ec:	e281c014 	add	ip, r1, #20	; 0x14
    c2f0:	e59c3000 	ldr	r3, [ip]
    c2f4:	e3130001 	tst	r3, #1	; 0x1
    c2f8:	0afffffc 	beq	c2f0 <cyg_hal_plf_serial_read+0x20>
    c2fc:	e5913000 	ldr	r3, [r1]
    c300:	e7c03002 	strb	r3, [r0, r2]
    c304:	e2822001 	add	r2, r2, #1	; 0x1
    c308:	e1550002 	cmp	r5, r2
    c30c:	1afffff5 	bne	c2e8 <cyg_hal_plf_serial_read+0x18>
    c310:	e8bd0030 	pop	{r4, r5}
    c314:	e12fff1e 	bx	lr

0000c318 <cyg_hal_plf_serial_getc_timeout>:
    c318:	e92d40f0 	push	{r4, r5, r6, r7, lr}
    c31c:	e5902000 	ldr	r2, [r0]
    c320:	e5923014 	ldr	r3, [r2, #20]
    c324:	e3130001 	tst	r3, #1	; 0x1
    c328:	e24dd004 	sub	sp, sp, #4	; 0x4
    c32c:	e1a05000 	mov	r5, r0
    c330:	e1a07001 	mov	r7, r1
    c334:	e5903004 	ldr	r3, [r0, #4]
    c338:	1a000011 	bne	c384 <cyg_hal_plf_serial_getc_timeout+0x6c>
    c33c:	e1a02183 	lsl	r2, r3, #3
    c340:	e1a03083 	lsl	r3, r3, #1
    c344:	e0933002 	adds	r3, r3, r2
    c348:	11a04003 	movne	r4, r3
    c34c:	159f6044 	ldrne	r6, [pc, #68]	; c398 <cyg_hal_plf_serial_getc_timeout+0x80>
    c350:	0a000009 	beq	c37c <cyg_hal_plf_serial_getc_timeout+0x64>
    c354:	e5963048 	ldr	r3, [r6, #72]
    c358:	e3a00064 	mov	r0, #100	; 0x64
    c35c:	e1a0e00f 	mov	lr, pc
    c360:	e12fff13 	bx	r3
    c364:	e5952000 	ldr	r2, [r5]
    c368:	e5923014 	ldr	r3, [r2, #20]
    c36c:	e3130001 	tst	r3, #1	; 0x1
    c370:	1a000003 	bne	c384 <cyg_hal_plf_serial_getc_timeout+0x6c>
    c374:	e2544001 	subs	r4, r4, #1	; 0x1
    c378:	1afffff5 	bne	c354 <cyg_hal_plf_serial_getc_timeout+0x3c>
    c37c:	e3a00000 	mov	r0, #0	; 0x0
    c380:	ea000002 	b	c390 <cyg_hal_plf_serial_getc_timeout+0x78>
    c384:	e5923000 	ldr	r3, [r2]
    c388:	e5c73000 	strb	r3, [r7]
    c38c:	e3a00001 	mov	r0, #1	; 0x1
    c390:	e28dd004 	add	sp, sp, #4	; 0x4
    c394:	e8bd80f0 	pop	{r4, r5, r6, r7, pc}
    c398:	40000430 	.word	0x40000430

0000c39c <cyg_hal_plf_serial_init>:
    c39c:	e92d4070 	push	{r4, r5, r6, lr}
    c3a0:	e59f50bc 	ldr	r5, [pc, #188]	; c464 <cyg_hal_plf_serial_init+0xc8>
    c3a4:	e3e00000 	mvn	r0, #0	; 0x0
    c3a8:	e5953034 	ldr	r3, [r5, #52]
    c3ac:	e1a0e00f 	mov	lr, pc
    c3b0:	e12fff13 	bx	r3
    c3b4:	e59f40ac 	ldr	r4, [pc, #172]	; c468 <cyg_hal_plf_serial_init+0xcc>
    c3b8:	e594100c 	ldr	r1, [r4, #12]
    c3bc:	e1a06000 	mov	r6, r0
    c3c0:	e1a01201 	lsl	r1, r1, #4
    c3c4:	e3a008e1 	mov	r0, #14745600	; 0xe10000
    c3c8:	eb00066b 	bl	dd7c <__aeabi_idiv>
    c3cc:	e1a00800 	lsl	r0, r0, #16
    c3d0:	e5941000 	ldr	r1, [r4]
    c3d4:	e1a02820 	lsr	r2, r0, #16
    c3d8:	e20220ff 	and	r2, r2, #255	; 0xff
    c3dc:	e1a00c20 	lsr	r0, r0, #24
    c3e0:	e3a03080 	mov	r3, #128	; 0x80
    c3e4:	e581300c 	str	r3, [r1, #12]
    c3e8:	e5810004 	str	r0, [r1, #4]
    c3ec:	e243307d 	sub	r3, r3, #125	; 0x7d
    c3f0:	e5812000 	str	r2, [r1]
    c3f4:	e3a02007 	mov	r2, #7	; 0x7
    c3f8:	e581300c 	str	r3, [r1, #12]
    c3fc:	e5812008 	str	r2, [r1, #8]
    c400:	e3a00000 	mov	r0, #0	; 0x0
    c404:	e5953034 	ldr	r3, [r5, #52]
    c408:	e1a0e00f 	mov	lr, pc
    c40c:	e12fff13 	bx	r3
    c410:	e5951014 	ldr	r1, [r5, #20]
    c414:	e59f3050 	ldr	r3, [pc, #80]	; c46c <cyg_hal_plf_serial_init+0xd0>
    c418:	e5814000 	str	r4, [r1]
    c41c:	e59f204c 	ldr	r2, [pc, #76]	; c470 <cyg_hal_plf_serial_init+0xd4>
    c420:	e5813004 	str	r3, [r1, #4]
    c424:	e59f3048 	ldr	r3, [pc, #72]	; c474 <cyg_hal_plf_serial_init+0xd8>
    c428:	e5812008 	str	r2, [r1, #8]
    c42c:	e581300c 	str	r3, [r1, #12]
    c430:	e59f2040 	ldr	r2, [pc, #64]	; c478 <cyg_hal_plf_serial_init+0xdc>
    c434:	e59f3040 	ldr	r3, [pc, #64]	; c47c <cyg_hal_plf_serial_init+0xe0>
    c438:	e5812010 	str	r2, [r1, #16]
    c43c:	e5813014 	str	r3, [r1, #20]
    c440:	e59f2038 	ldr	r2, [pc, #56]	; c480 <cyg_hal_plf_serial_init+0xe4>
    c444:	e59f3038 	ldr	r3, [pc, #56]	; c484 <cyg_hal_plf_serial_init+0xe8>
    c448:	e5812018 	str	r2, [r1, #24]
    c44c:	e581301c 	str	r3, [r1, #28]
    c450:	e1a00006 	mov	r0, r6
    c454:	e5953034 	ldr	r3, [r5, #52]
    c458:	e1a0e00f 	mov	lr, pc
    c45c:	e12fff13 	bx	r3
    c460:	e8bd8070 	pop	{r4, r5, r6, pc}
    c464:	40000430 	.word	0x40000430
    c468:	400007f4 	.word	0x400007f4
    c46c:	0000c28c 	.word	0x0000c28c
    c470:	0000c2d0 	.word	0x0000c2d0
    c474:	0000c250 	.word	0x0000c250
    c478:	0000c26c 	.word	0x0000c26c
    c47c:	0000c4fc 	.word	0x0000c4fc
    c480:	0000c48c 	.word	0x0000c48c
    c484:	0000c318 	.word	0x0000c318

0000c488 <hal_diag_led>:
    c488:	eafff67e 	b	9e88 <hal_lpc2xxx_set_leds>

0000c48c <cyg_hal_plf_serial_isr>:
    c48c:	e92d4030 	push	{r4, r5, lr}
    c490:	e1a05000 	mov	r5, r0
    c494:	e3a00000 	mov	r0, #0	; 0x0
    c498:	e5810000 	str	r0, [r1]
    c49c:	e5952000 	ldr	r2, [r5]
    c4a0:	e5923008 	ldr	r3, [r2, #8]
    c4a4:	e2033007 	and	r3, r3, #7	; 0x7
    c4a8:	e3530004 	cmp	r3, #4	; 0x4
    c4ac:	e1a04001 	mov	r4, r1
    c4b0:	e24dd00c 	sub	sp, sp, #12	; 0xc
    c4b4:	11a04000 	movne	r4, r0
    c4b8:	0a000004 	beq	c4d0 <cyg_hal_plf_serial_isr+0x44>
    c4bc:	e5950008 	ldr	r0, [r5, #8]
    c4c0:	ebfff62a 	bl	9d70 <hal_interrupt_acknowledge>
    c4c4:	e1a00004 	mov	r0, r4
    c4c8:	e28dd00c 	add	sp, sp, #12	; 0xc
    c4cc:	e8bd8030 	pop	{r4, r5, pc}
    c4d0:	e5923000 	ldr	r3, [r2]
    c4d4:	e28d0008 	add	r0, sp, #8	; 0x8
    c4d8:	e5603001 	strb	r3, [r0, #-1]!
    c4dc:	e3a01001 	mov	r1, #1	; 0x1
    c4e0:	ebffd575 	bl	1abc <cyg_hal_is_break>
    c4e4:	e3500000 	cmp	r0, #0	; 0x0
    c4e8:	13a03001 	movne	r3, #1	; 0x1
    c4ec:	15843000 	strne	r3, [r4]
    c4f0:	03a04001 	moveq	r4, #1	; 0x1
    c4f4:	11a04003 	movne	r4, r3
    c4f8:	eaffffef 	b	c4bc <cyg_hal_plf_serial_isr+0x30>

0000c4fc <cyg_hal_plf_serial_control>:
    c4fc:	e92d000e 	push	{r1, r2, r3}
    c500:	e92d40f0 	push	{r4, r5, r6, r7, lr}
    c504:	e5dd3014 	ldrb	r3, [sp, #20]
    c508:	e1a05000 	mov	r5, r0
    c50c:	e5907000 	ldr	r7, [r0]
    c510:	e3530007 	cmp	r3, #7	; 0x7
    c514:	979ff103 	ldrls	pc, [pc, r3, lsl #2]
    c518:	ea000019 	b	c584 <cyg_hal_plf_serial_control+0x88>
    c51c:	0000c53c 	.word	0x0000c53c
    c520:	0000c5a8 	.word	0x0000c5a8
    c524:	0000c584 	.word	0x0000c584
    c528:	0000c584 	.word	0x0000c584
    c52c:	0000c5b0 	.word	0x0000c5b0
    c530:	0000c5d0 	.word	0x0000c5d0
    c534:	0000c5f8 	.word	0x0000c5f8
    c538:	0000c598 	.word	0x0000c598
    c53c:	e59d1018 	ldr	r1, [sp, #24]
    c540:	e580100c 	str	r1, [r0, #12]
    c544:	e1a01201 	lsl	r1, r1, #4
    c548:	e3a008e1 	mov	r0, #14745600	; 0xe10000
    c54c:	eb00060a 	bl	dd7c <__aeabi_idiv>
    c550:	e1a00800 	lsl	r0, r0, #16
    c554:	e5951000 	ldr	r1, [r5]
    c558:	e1a02820 	lsr	r2, r0, #16
    c55c:	e20220ff 	and	r2, r2, #255	; 0xff
    c560:	e3a03080 	mov	r3, #128	; 0x80
    c564:	e1a00c20 	lsr	r0, r0, #24
    c568:	e581300c 	str	r3, [r1, #12]
    c56c:	e5810004 	str	r0, [r1, #4]
    c570:	e243307d 	sub	r3, r3, #125	; 0x7d
    c574:	e5812000 	str	r2, [r1]
    c578:	e3a02007 	mov	r2, #7	; 0x7
    c57c:	e581300c 	str	r3, [r1, #12]
    c580:	e5812008 	str	r2, [r1, #8]
    c584:	e3a06000 	mov	r6, #0	; 0x0
    c588:	e1a00006 	mov	r0, r6
    c58c:	e8bd40f0 	pop	{r4, r5, r6, r7, lr}
    c590:	e28dd00c 	add	sp, sp, #12	; 0xc
    c594:	e12fff1e 	bx	lr
    c598:	e59d3018 	ldr	r3, [sp, #24]
    c59c:	e5906004 	ldr	r6, [r0, #4]
    c5a0:	e5803004 	str	r3, [r0, #4]
    c5a4:	eafffff7 	b	c588 <cyg_hal_plf_serial_control+0x8c>
    c5a8:	e590600c 	ldr	r6, [r0, #12]
    c5ac:	eafffff5 	b	c588 <cyg_hal_plf_serial_control+0x8c>
    c5b0:	e59f3048 	ldr	r3, [pc, #72]	; c600 <cyg_hal_plf_serial_control+0x104>
    c5b4:	e3a04000 	mov	r4, #0	; 0x0
    c5b8:	e5900008 	ldr	r0, [r0, #8]
    c5bc:	e5936000 	ldr	r6, [r3]
    c5c0:	e5834000 	str	r4, [r3]
    c5c4:	ebfff5df 	bl	9d48 <hal_interrupt_mask>
    c5c8:	e5874004 	str	r4, [r7, #4]
    c5cc:	eaffffed 	b	c588 <cyg_hal_plf_serial_control+0x8c>
    c5d0:	e59f3028 	ldr	r3, [pc, #40]	; c600 <cyg_hal_plf_serial_control+0x104>
    c5d4:	e3a04001 	mov	r4, #1	; 0x1
    c5d8:	e5900008 	ldr	r0, [r0, #8]
    c5dc:	e5834000 	str	r4, [r3]
    c5e0:	ebfff5e2 	bl	9d70 <hal_interrupt_acknowledge>
    c5e4:	e5950008 	ldr	r0, [r5, #8]
    c5e8:	ebfff5db 	bl	9d5c <hal_interrupt_unmask>
    c5ec:	e3a06000 	mov	r6, #0	; 0x0
    c5f0:	e5874004 	str	r4, [r7, #4]
    c5f4:	eaffffe3 	b	c588 <cyg_hal_plf_serial_control+0x8c>
    c5f8:	e5906008 	ldr	r6, [r0, #8]
    c5fc:	eaffffe1 	b	c588 <cyg_hal_plf_serial_control+0x8c>
    c600:	400046fc 	.word	0x400046fc

0000c604 <_memcpy>:
    c604:	e3520003 	cmp	r2, #3	; 0x3
    c608:	e92d0070 	push	{r4, r5, r6}
    c60c:	e1a04002 	mov	r4, r2
    c610:	e1a06000 	mov	r6, r0
    c614:	e1a05001 	mov	r5, r1
    c618:	9a00000b 	bls	c64c <_memcpy+0x48>
    c61c:	e1813000 	orr	r3, r1, r0
    c620:	e3130003 	tst	r3, #3	; 0x3
    c624:	0a00000b 	beq	c658 <_memcpy+0x54>
    c628:	e3a02000 	mov	r2, #0	; 0x0
    c62c:	e7d53002 	ldrb	r3, [r5, r2]
    c630:	e7c63002 	strb	r3, [r6, r2]
    c634:	e2822001 	add	r2, r2, #1	; 0x1
    c638:	e1540002 	cmp	r4, r2
    c63c:	1afffffa 	bne	c62c <_memcpy+0x28>
    c640:	e1a00006 	mov	r0, r6
    c644:	e8bd0070 	pop	{r4, r5, r6}
    c648:	e12fff1e 	bx	lr
    c64c:	e3520000 	cmp	r2, #0	; 0x0
    c650:	1afffff4 	bne	c628 <_memcpy+0x24>
    c654:	eafffff9 	b	c640 <_memcpy+0x3c>
    c658:	e352000f 	cmp	r2, #15	; 0xf
    c65c:	e1a0c000 	mov	ip, r0
    c660:	81a01000 	movhi	r1, r0
    c664:	81a0c005 	movhi	ip, r5
    c668:	81a00002 	movhi	r0, r2
    c66c:	9a000014 	bls	c6c4 <_memcpy+0xc0>
    c670:	e59c3000 	ldr	r3, [ip]
    c674:	e5813000 	str	r3, [r1]
    c678:	e59c2004 	ldr	r2, [ip, #4]
    c67c:	e5812004 	str	r2, [r1, #4]
    c680:	e59c3008 	ldr	r3, [ip, #8]
    c684:	e5813008 	str	r3, [r1, #8]
    c688:	e2400010 	sub	r0, r0, #16	; 0x10
    c68c:	e59c300c 	ldr	r3, [ip, #12]
    c690:	e350000f 	cmp	r0, #15	; 0xf
    c694:	e581300c 	str	r3, [r1, #12]
    c698:	e28cc010 	add	ip, ip, #16	; 0x10
    c69c:	e2811010 	add	r1, r1, #16	; 0x10
    c6a0:	8afffff2 	bhi	c670 <_memcpy+0x6c>
    c6a4:	e2442010 	sub	r2, r4, #16	; 0x10
    c6a8:	e3c2300f 	bic	r3, r2, #15	; 0xf
    c6ac:	e202400f 	and	r4, r2, #15	; 0xf
    c6b0:	e2833010 	add	r3, r3, #16	; 0x10
    c6b4:	e3540003 	cmp	r4, #3	; 0x3
    c6b8:	e0851003 	add	r1, r5, r3
    c6bc:	e086c003 	add	ip, r6, r3
    c6c0:	9a00000c 	bls	c6f8 <_memcpy+0xf4>
    c6c4:	e3a02000 	mov	r2, #0	; 0x0
    c6c8:	e7913002 	ldr	r3, [r1, r2]
    c6cc:	e78c3002 	str	r3, [ip, r2]
    c6d0:	e2822004 	add	r2, r2, #4	; 0x4
    c6d4:	e0623004 	rsb	r3, r2, r4
    c6d8:	e3530003 	cmp	r3, #3	; 0x3
    c6dc:	8afffff9 	bhi	c6c8 <_memcpy+0xc4>
    c6e0:	e2442004 	sub	r2, r4, #4	; 0x4
    c6e4:	e3c23003 	bic	r3, r2, #3	; 0x3
    c6e8:	e2833004 	add	r3, r3, #4	; 0x4
    c6ec:	e08cc003 	add	ip, ip, r3
    c6f0:	e0811003 	add	r1, r1, r3
    c6f4:	e2024003 	and	r4, r2, #3	; 0x3
    c6f8:	e3540000 	cmp	r4, #0	; 0x0
    c6fc:	0affffcf 	beq	c640 <_memcpy+0x3c>
    c700:	e3a02000 	mov	r2, #0	; 0x0
    c704:	e7d13002 	ldrb	r3, [r1, r2]
    c708:	e7cc3002 	strb	r3, [ip, r2]
    c70c:	e2822001 	add	r2, r2, #1	; 0x1
    c710:	e1520004 	cmp	r2, r4
    c714:	1afffffa 	bne	c704 <_memcpy+0x100>
    c718:	eaffffc8 	b	c640 <_memcpy+0x3c>

0000c71c <_ZdlPv>:
    c71c:	e12fff1e 	bx	lr

0000c720 <_ZdaPv>:
    c720:	e12fff1e 	bx	lr

0000c724 <free>:
    c724:	e92d4ff0 	push	{r4, r5, r6, r7, r8, r9, sl, fp, lr}
    c728:	e3500000 	cmp	r0, #0	; 0x0
    c72c:	e24dd00c 	sub	sp, sp, #12	; 0xc
    c730:	0a00003c 	beq	c828 <free+0x104>
    c734:	e59f30fc 	ldr	r3, [pc, #252]	; c838 <free+0x114>
    c738:	e5937000 	ldr	r7, [r3]
    c73c:	e59f20f8 	ldr	r2, [pc, #248]	; c83c <free+0x118>
    c740:	e5923000 	ldr	r3, [r2]
    c744:	e2833001 	add	r3, r3, #1	; 0x1
    c748:	e5823000 	str	r3, [r2]
    c74c:	e3a02000 	mov	r2, #0	; 0x0
    c750:	e1a01000 	mov	r1, r0
    c754:	e1a00007 	mov	r0, r7
    c758:	eb000395 	bl	d5b4 <_ZN35Cyg_Mempool_dlmalloc_Implementation4freeEPhi>
    c75c:	e5973410 	ldr	r3, [r7, #1040]
    c760:	e3530000 	cmp	r3, #0	; 0x0
    c764:	0a000029 	beq	c810 <free+0xec>
    c768:	e3a03000 	mov	r3, #0	; 0x0
    c76c:	e28da008 	add	sl, sp, #8	; 0x8
    c770:	e52a3004 	str	r3, [sl, #-4]!
    c774:	e1a0b003 	mov	fp, r3
    c778:	e2878e41 	add	r8, r7, #1040	; 0x410
    c77c:	e3a09007 	mov	r9, #7	; 0x7
    c780:	ea000006 	b	c7a0 <free+0x7c>
    c784:	e5c4b080 	strb	fp, [r4, #128]
    c788:	e5c49081 	strb	r9, [r4, #129]
    c78c:	ebffde9f 	bl	4210 <_ZN10Cyg_Thread4wakeEv>
    c790:	e5973410 	ldr	r3, [r7, #1040]
    c794:	e3530000 	cmp	r3, #0	; 0x0
    c798:	e5865004 	str	r5, [r6, #4]
    c79c:	0a00000f 	beq	c7e0 <free+0xbc>
    c7a0:	e1a00008 	mov	r0, r8
    c7a4:	ebffe344 	bl	54bc <_ZN30Cyg_ThreadQueue_Implementation7dequeueEv>
    c7a8:	e5906048 	ldr	r6, [r0, #72]
    c7ac:	e1a04000 	mov	r4, r0
    c7b0:	e5961000 	ldr	r1, [r6]
    c7b4:	e1a00007 	mov	r0, r7
    c7b8:	eb00022f 	bl	d07c <_ZN35Cyg_Mempool_dlmalloc_Implementation9try_allocEi>
    c7bc:	e2505000 	subs	r5, r0, #0	; 0x0
    c7c0:	e1a00004 	mov	r0, r4
    c7c4:	1affffee 	bne	c784 <free+0x60>
    c7c8:	e1a01004 	mov	r1, r4
    c7cc:	e1a0000a 	mov	r0, sl
    c7d0:	ebffe329 	bl	547c <_ZN30Cyg_ThreadQueue_Implementation7enqueueEP10Cyg_Thread>
    c7d4:	e5973410 	ldr	r3, [r7, #1040]
    c7d8:	e3530000 	cmp	r3, #0	; 0x0
    c7dc:	1affffef 	bne	c7a0 <free+0x7c>
    c7e0:	e59d3004 	ldr	r3, [sp, #4]
    c7e4:	e3530000 	cmp	r3, #0	; 0x0
    c7e8:	0a000008 	beq	c810 <free+0xec>
    c7ec:	e28d4004 	add	r4, sp, #4	; 0x4
    c7f0:	e1a00004 	mov	r0, r4
    c7f4:	ebffe330 	bl	54bc <_ZN30Cyg_ThreadQueue_Implementation7dequeueEv>
    c7f8:	e1a01000 	mov	r1, r0
    c7fc:	e1a00008 	mov	r0, r8
    c800:	ebffe31d 	bl	547c <_ZN30Cyg_ThreadQueue_Implementation7enqueueEP10Cyg_Thread>
    c804:	e59d3004 	ldr	r3, [sp, #4]
    c808:	e3530000 	cmp	r3, #0	; 0x0
    c80c:	1afffff7 	bne	c7f0 <free+0xcc>
    c810:	e59f2024 	ldr	r2, [pc, #36]	; c83c <free+0x118>
    c814:	e5923000 	ldr	r3, [r2]
    c818:	e2530001 	subs	r0, r3, #1	; 0x1
    c81c:	159f3018 	ldrne	r3, [pc, #24]	; c83c <free+0x118>
    c820:	15830000 	strne	r0, [r3]
    c824:	0a000001 	beq	c830 <free+0x10c>
    c828:	e28dd00c 	add	sp, sp, #12	; 0xc
    c82c:	e8bd8ff0 	pop	{r4, r5, r6, r7, r8, r9, sl, fp, pc}
    c830:	ebffe47a 	bl	5a20 <_ZN13Cyg_Scheduler12unlock_innerEj>
    c834:	eafffffb 	b	c828 <free+0x104>
    c838:	40000814 	.word	0x40000814
    c83c:	400007c8 	.word	0x400007c8

0000c840 <malloc>:
    c840:	e92d4030 	push	{r4, r5, lr}
    c844:	e59f3044 	ldr	r3, [pc, #68]	; c890 <malloc+0x50>
    c848:	e1a01000 	mov	r1, r0
    c84c:	e24dd004 	sub	sp, sp, #4	; 0x4
    c850:	e5930000 	ldr	r0, [r3]
    c854:	e59f4038 	ldr	r4, [pc, #56]	; c894 <malloc+0x54>
    c858:	e5943000 	ldr	r3, [r4]
    c85c:	e2833001 	add	r3, r3, #1	; 0x1
    c860:	e5843000 	str	r3, [r4]
    c864:	eb000204 	bl	d07c <_ZN35Cyg_Mempool_dlmalloc_Implementation9try_allocEi>
    c868:	e1a05000 	mov	r5, r0
    c86c:	e5943000 	ldr	r3, [r4]
    c870:	e2530001 	subs	r0, r3, #1	; 0x1
    c874:	15840000 	strne	r0, [r4]
    c878:	0a000002 	beq	c888 <malloc+0x48>
    c87c:	e1a00005 	mov	r0, r5
    c880:	e28dd004 	add	sp, sp, #4	; 0x4
    c884:	e8bd8030 	pop	{r4, r5, pc}
    c888:	ebffe464 	bl	5a20 <_ZN13Cyg_Scheduler12unlock_innerEj>
    c88c:	eafffffa 	b	c87c <malloc+0x3c>
    c890:	40000814 	.word	0x40000814
    c894:	400007c8 	.word	0x400007c8

0000c898 <calloc>:
    c898:	e92d4030 	push	{r4, r5, lr}
    c89c:	e0040190 	mul	r4, r0, r1
    c8a0:	e24dd004 	sub	sp, sp, #4	; 0x4
    c8a4:	e1a00004 	mov	r0, r4
    c8a8:	ebffffe4 	bl	c840 <malloc>
    c8ac:	e2505000 	subs	r5, r0, #0	; 0x0
    c8b0:	11a02004 	movne	r2, r4
    c8b4:	13a01000 	movne	r1, #0	; 0x0
    c8b8:	1b00016f 	blne	ce7c <_memset>
    c8bc:	e1a00005 	mov	r0, r5
    c8c0:	e28dd004 	add	sp, sp, #4	; 0x4
    c8c4:	e8bd8030 	pop	{r4, r5, pc}

0000c8c8 <mallinfo>:
    c8c8:	e3a01000 	mov	r1, #0	; 0x0
    c8cc:	e1a03000 	mov	r3, r0
    c8d0:	e4831004 	str	r1, [r3], #4
    c8d4:	e2833004 	add	r3, r3, #4	; 0x4
    c8d8:	e4831004 	str	r1, [r3], #4
    c8dc:	e4831004 	str	r1, [r3], #4
    c8e0:	e4831004 	str	r1, [r3], #4
    c8e4:	e4831004 	str	r1, [r3], #4
    c8e8:	e4831004 	str	r1, [r3], #4
    c8ec:	e4831004 	str	r1, [r3], #4
    c8f0:	e92d4030 	push	{r4, r5, lr}
    c8f4:	e4831004 	str	r1, [r3], #4
    c8f8:	e4831004 	str	r1, [r3], #4
    c8fc:	e24dd034 	sub	sp, sp, #52	; 0x34
    c900:	e5831000 	str	r1, [r3]
    c904:	e59f30b4 	ldr	r3, [pc, #180]	; c9c0 <mallinfo+0xf8>
    c908:	e3e0c000 	mvn	ip, #0	; 0x0
    c90c:	e28d2030 	add	r2, sp, #48	; 0x30
    c910:	e1a05000 	mov	r5, r0
    c914:	e5cd1020 	strb	r1, [sp, #32]
    c918:	e522c02c 	str	ip, [r2, #-44]!
    c91c:	e5801004 	str	r1, [r0, #4]
    c920:	e58dc024 	str	ip, [sp, #36]
    c924:	e5930000 	ldr	r0, [r3]
    c928:	e5cdc02c 	strb	ip, [sp, #44]
    c92c:	e58dc028 	str	ip, [sp, #40]
    c930:	e58dc01c 	str	ip, [sp, #28]
    c934:	e58dc018 	str	ip, [sp, #24]
    c938:	e58dc014 	str	ip, [sp, #20]
    c93c:	e58dc010 	str	ip, [sp, #16]
    c940:	e58dc00c 	str	ip, [sp, #12]
    c944:	e58dc008 	str	ip, [sp, #8]
    c948:	e59f4074 	ldr	r4, [pc, #116]	; c9c4 <mallinfo+0xfc>
    c94c:	e5943000 	ldr	r3, [r4]
    c950:	e2833001 	add	r3, r3, #1	; 0x1
    c954:	e5843000 	str	r3, [r4]
    c958:	e281105e 	add	r1, r1, #94	; 0x5e
    c95c:	eb0003ac 	bl	d814 <_ZN35Cyg_Mempool_dlmalloc_Implementation10get_statusEtR18Cyg_Mempool_Status>
    c960:	e5943000 	ldr	r3, [r4]
    c964:	e2530001 	subs	r0, r3, #1	; 0x1
    c968:	15840000 	strne	r0, [r4]
    c96c:	0a000011 	beq	c9b8 <mallinfo+0xf0>
    c970:	e59d3008 	ldr	r3, [sp, #8]
    c974:	e3530000 	cmp	r3, #0	; 0x0
    c978:	c5853000 	strgt	r3, [r5]
    c97c:	e59d300c 	ldr	r3, [sp, #12]
    c980:	e3530000 	cmp	r3, #0	; 0x0
    c984:	c5853004 	strgt	r3, [r5, #4]
    c988:	e59d3010 	ldr	r3, [sp, #16]
    c98c:	e3530000 	cmp	r3, #0	; 0x0
    c990:	c585301c 	strgt	r3, [r5, #28]
    c994:	e59d3014 	ldr	r3, [sp, #20]
    c998:	e3530000 	cmp	r3, #0	; 0x0
    c99c:	c5853020 	strgt	r3, [r5, #32]
    c9a0:	e59d301c 	ldr	r3, [sp, #28]
    c9a4:	e3530000 	cmp	r3, #0	; 0x0
    c9a8:	c5853028 	strgt	r3, [r5, #40]
    c9ac:	e1a00005 	mov	r0, r5
    c9b0:	e28dd034 	add	sp, sp, #52	; 0x34
    c9b4:	e8bd8030 	pop	{r4, r5, pc}
    c9b8:	ebffe418 	bl	5a20 <_ZN13Cyg_Scheduler12unlock_innerEj>
    c9bc:	eaffffeb 	b	c970 <mallinfo+0xa8>
    c9c0:	40000814 	.word	0x40000814
    c9c4:	400007c8 	.word	0x400007c8

0000c9c8 <realloc>:
    c9c8:	e92d40f0 	push	{r4, r5, r6, r7, lr}
    c9cc:	e2507000 	subs	r7, r0, #0	; 0x0
    c9d0:	e24dd00c 	sub	sp, sp, #12	; 0xc
    c9d4:	e1a06001 	mov	r6, r1
    c9d8:	0a000024 	beq	ca70 <realloc+0xa8>
    c9dc:	e3510000 	cmp	r1, #0	; 0x0
    c9e0:	0a000025 	beq	ca7c <realloc+0xb4>
    c9e4:	e59f309c 	ldr	r3, [pc, #156]	; ca88 <realloc+0xc0>
    c9e8:	e5930000 	ldr	r0, [r3]
    c9ec:	e59f5098 	ldr	r5, [pc, #152]	; ca8c <realloc+0xc4>
    c9f0:	e5953000 	ldr	r3, [r5]
    c9f4:	e2833001 	add	r3, r3, #1	; 0x1
    c9f8:	e5853000 	str	r3, [r5]
    c9fc:	e1a01007 	mov	r1, r7
    ca00:	e1a02006 	mov	r2, r6
    ca04:	e28d3004 	add	r3, sp, #4	; 0x4
    ca08:	eb0003b6 	bl	d8e8 <_ZN35Cyg_Mempool_dlmalloc_Implementation12resize_allocEPhiPi>
    ca0c:	e1a04000 	mov	r4, r0
    ca10:	e5953000 	ldr	r3, [r5]
    ca14:	e2530001 	subs	r0, r3, #1	; 0x1
    ca18:	15850000 	strne	r0, [r5]
    ca1c:	0a000004 	beq	ca34 <realloc+0x6c>
    ca20:	e3540000 	cmp	r4, #0	; 0x0
    ca24:	0a000004 	beq	ca3c <realloc+0x74>
    ca28:	e1a00004 	mov	r0, r4
    ca2c:	e28dd00c 	add	sp, sp, #12	; 0xc
    ca30:	e8bd80f0 	pop	{r4, r5, r6, r7, pc}
    ca34:	ebffe3f9 	bl	5a20 <_ZN13Cyg_Scheduler12unlock_innerEj>
    ca38:	eafffff8 	b	ca20 <realloc+0x58>
    ca3c:	e1a00006 	mov	r0, r6
    ca40:	ebffff7e 	bl	c840 <malloc>
    ca44:	e2505000 	subs	r5, r0, #0	; 0x0
    ca48:	0afffff6 	beq	ca28 <realloc+0x60>
    ca4c:	e59d2004 	ldr	r2, [sp, #4]
    ca50:	e1a01007 	mov	r1, r7
    ca54:	e1560002 	cmp	r6, r2
    ca58:	31a02006 	movcc	r2, r6
    ca5c:	ebfffee8 	bl	c604 <_memcpy>
    ca60:	e1a00007 	mov	r0, r7
    ca64:	ebffff2e 	bl	c724 <free>
    ca68:	e1a00005 	mov	r0, r5
    ca6c:	eaffffee 	b	ca2c <realloc+0x64>
    ca70:	e1a00001 	mov	r0, r1
    ca74:	ebffff71 	bl	c840 <malloc>
    ca78:	eaffffeb 	b	ca2c <realloc+0x64>
    ca7c:	ebffff28 	bl	c724 <free>
    ca80:	e1a00006 	mov	r0, r6
    ca84:	eaffffe8 	b	ca2c <realloc+0x64>
    ca88:	40000814 	.word	0x40000814
    ca8c:	400007c8 	.word	0x400007c8

0000ca90 <_Z41__static_initialization_and_destruction_0ii>:
    ca90:	e92d40f0 	push	{r4, r5, r6, r7, lr}
    ca94:	e3500001 	cmp	r0, #1	; 0x1
    ca98:	e24dd004 	sub	sp, sp, #4	; 0x4
    ca9c:	0a000007 	beq	cac0 <_Z41__static_initialization_and_destruction_0ii+0x30>
    caa0:	e3500000 	cmp	r0, #0	; 0x0
    caa4:	1a000003 	bne	cab8 <_Z41__static_initialization_and_destruction_0ii+0x28>
    caa8:	e3a03c4d 	mov	r3, #19712	; 0x4d00
    caac:	e28330bc 	add	r3, r3, #188	; 0xbc
    cab0:	e1510003 	cmp	r1, r3
    cab4:	0a00000f 	beq	caf8 <_Z41__static_initialization_and_destruction_0ii+0x68>
    cab8:	e28dd004 	add	sp, sp, #4	; 0x4
    cabc:	e8bd80f0 	pop	{r4, r5, r6, r7, pc}
    cac0:	e3a03c4d 	mov	r3, #19712	; 0x4d00
    cac4:	e28330bc 	add	r3, r3, #188	; 0xbc
    cac8:	e1510003 	cmp	r1, r3
    cacc:	1afffff9 	bne	cab8 <_Z41__static_initialization_and_destruction_0ii+0x28>
    cad0:	e59f10d0 	ldr	r1, [pc, #208]	; cba8 <_Z41__static_initialization_and_destruction_0ii+0x118>
    cad4:	e59f40d0 	ldr	r4, [pc, #208]	; cbac <_Z41__static_initialization_and_destruction_0ii+0x11c>
    cad8:	e2612101 	rsb	r2, r1, #1073741824	; 0x40000000
    cadc:	e3a03000 	mov	r3, #0	; 0x0
    cae0:	e2822801 	add	r2, r2, #65536	; 0x10000
    cae4:	e1a00004 	mov	r0, r4
    cae8:	eb000141 	bl	cff4 <_ZN35Cyg_Mempool_dlmalloc_ImplementationC1EPhij>
    caec:	e3a03000 	mov	r3, #0	; 0x0
    caf0:	e5843410 	str	r3, [r4, #1040]
    caf4:	eaffffef 	b	cab8 <_Z41__static_initialization_and_destruction_0ii+0x28>
    caf8:	e59f70b0 	ldr	r7, [pc, #176]	; cbb0 <_Z41__static_initialization_and_destruction_0ii+0x120>
    cafc:	e5973000 	ldr	r3, [r7]
    cb00:	e2833001 	add	r3, r3, #1	; 0x1
    cb04:	e5873000 	str	r3, [r7]
    cb08:	e59f609c 	ldr	r6, [pc, #156]	; cbac <_Z41__static_initialization_and_destruction_0ii+0x11c>
    cb0c:	e5963410 	ldr	r3, [r6, #1040]
    cb10:	e3530000 	cmp	r3, #0	; 0x0
    cb14:	0a000009 	beq	cb40 <_Z41__static_initialization_and_destruction_0ii+0xb0>
    cb18:	e1a05000 	mov	r5, r0
    cb1c:	e3a04005 	mov	r4, #5	; 0x5
    cb20:	e59f008c 	ldr	r0, [pc, #140]	; cbb4 <_Z41__static_initialization_and_destruction_0ii+0x124>
    cb24:	ebffe264 	bl	54bc <_ZN30Cyg_ThreadQueue_Implementation7dequeueEv>
    cb28:	e5c04081 	strb	r4, [r0, #129]
    cb2c:	e5c05080 	strb	r5, [r0, #128]
    cb30:	ebffddb6 	bl	4210 <_ZN10Cyg_Thread4wakeEv>
    cb34:	e5963410 	ldr	r3, [r6, #1040]
    cb38:	e3530000 	cmp	r3, #0	; 0x0
    cb3c:	1afffff7 	bne	cb20 <_Z41__static_initialization_and_destruction_0ii+0x90>
    cb40:	e5973000 	ldr	r3, [r7]
    cb44:	e2530001 	subs	r0, r3, #1	; 0x1
    cb48:	159f3060 	ldrne	r3, [pc, #96]	; cbb0 <_Z41__static_initialization_and_destruction_0ii+0x120>
    cb4c:	15830000 	strne	r0, [r3]
    cb50:	0a000012 	beq	cba0 <_Z41__static_initialization_and_destruction_0ii+0x110>
    cb54:	e5961410 	ldr	r1, [r6, #1040]
    cb58:	e3510000 	cmp	r1, #0	; 0x0
    cb5c:	e59fc048 	ldr	ip, [pc, #72]	; cbac <_Z41__static_initialization_and_destruction_0ii+0x11c>
    cb60:	e3a04000 	mov	r4, #0	; 0x0
    cb64:	0affffd3 	beq	cab8 <_Z41__static_initialization_and_destruction_0ii+0x28>
    cb68:	e5910000 	ldr	r0, [r1]
    cb6c:	e1500001 	cmp	r0, r1
    cb70:	15913004 	ldrne	r3, [r1, #4]
    cb74:	15803004 	strne	r3, [r0, #4]
    cb78:	15912004 	ldrne	r2, [r1, #4]
    cb7c:	058c4410 	streq	r4, [ip, #1040]
    cb80:	15820000 	strne	r0, [r2]
    cb84:	15811004 	strne	r1, [r1, #4]
    cb88:	15811000 	strne	r1, [r1]
    cb8c:	158c0410 	strne	r0, [ip, #1040]
    cb90:	e5961410 	ldr	r1, [r6, #1040]
    cb94:	e3510000 	cmp	r1, #0	; 0x0
    cb98:	1afffff2 	bne	cb68 <_Z41__static_initialization_and_destruction_0ii+0xd8>
    cb9c:	eaffffc5 	b	cab8 <_Z41__static_initialization_and_destruction_0ii+0x28>
    cba0:	ebffe39e 	bl	5a20 <_ZN13Cyg_Scheduler12unlock_innerEj>
    cba4:	eaffffea 	b	cb54 <_Z41__static_initialization_and_destruction_0ii+0xc4>
    cba8:	40004bd0 	.word	0x40004bd0
    cbac:	40004700 	.word	0x40004700
    cbb0:	400007c8 	.word	0x400007c8
    cbb4:	40004b10 	.word	0x40004b10

0000cbb8 <_GLOBAL__D.19900_cygmem_pool_heap1>:
    cbb8:	e3a01c4d 	mov	r1, #19712	; 0x4d00
    cbbc:	e28110bc 	add	r1, r1, #188	; 0xbc
    cbc0:	e3a00000 	mov	r0, #0	; 0x0
    cbc4:	eaffffb1 	b	ca90 <_Z41__static_initialization_and_destruction_0ii>

0000cbc8 <_GLOBAL__I.19900_cygmem_pool_heap1>:
    cbc8:	e3a01c4d 	mov	r1, #19712	; 0x4d00
    cbcc:	e28110bc 	add	r1, r1, #188	; 0xbc
    cbd0:	e3a00001 	mov	r0, #1	; 0x1
    cbd4:	eaffffad 	b	ca90 <_Z41__static_initialization_and_destruction_0ii>

0000cbd8 <exit>:
    cbd8:	e1a04000 	mov	r4, r0
    cbdc:	eb00042a 	bl	dc8c <cyg_libc_invoke_atexit_handlers>
    cbe0:	e3a00000 	mov	r0, #0	; 0x0
    cbe4:	eb000061 	bl	cd70 <fflush>
    cbe8:	e1a00004 	mov	r0, r4
    cbec:	eb000424 	bl	dc84 <_exit>

0000cbf0 <cyg_libc_stdio_flush_all_but>:
    cbf0:	e92d4ff0 	push	{r4, r5, r6, r7, r8, r9, sl, fp, lr}
    cbf4:	e3a03000 	mov	r3, #0	; 0x0
    cbf8:	e24dd02c 	sub	sp, sp, #44	; 0x2c
    cbfc:	e58d3008 	str	r3, [sp, #8]
    cc00:	e58d300c 	str	r3, [sp, #12]
    cc04:	e58d3010 	str	r3, [sp, #16]
    cc08:	e58d3014 	str	r3, [sp, #20]
    cc0c:	e58d3018 	str	r3, [sp, #24]
    cc10:	e58d301c 	str	r3, [sp, #28]
    cc14:	e58d3020 	str	r3, [sp, #32]
    cc18:	e58d3024 	str	r3, [sp, #36]
    cc1c:	e58d3004 	str	r3, [sp, #4]
    cc20:	e59fb140 	ldr	fp, [pc, #320]	; cd68 <cyg_libc_stdio_flush_all_but+0x178>
    cc24:	e1a0a003 	mov	sl, r3
    cc28:	e1a09000 	mov	r9, r0
    cc2c:	e1a07003 	mov	r7, r3
    cc30:	e1a04003 	mov	r4, r3
    cc34:	e2743001 	rsbs	r3, r4, #1	; 0x1
    cc38:	33a03000 	movcc	r3, #0	; 0x0
    cc3c:	e3570007 	cmp	r7, #7	; 0x7
    cc40:	83a02000 	movhi	r2, #0	; 0x0
    cc44:	92032001 	andls	r2, r3, #1	; 0x1
    cc48:	e3520000 	cmp	r2, #0	; 0x0
    cc4c:	0a000033 	beq	cd20 <cyg_libc_stdio_flush_all_but+0x130>
    cc50:	e1a08107 	lsl	r8, r7, #2
    cc54:	e28d2028 	add	r2, sp, #40	; 0x28
    cc58:	e0825008 	add	r5, r2, r8
    cc5c:	e5156020 	ldr	r6, [r5, #-32]
    cc60:	e3560000 	cmp	r6, #0	; 0x0
    cc64:	13a04000 	movne	r4, #0	; 0x0
    cc68:	1a000024 	bne	cd00 <cyg_libc_stdio_flush_all_but+0x110>
    cc6c:	e59f00f8 	ldr	r0, [pc, #248]	; cd6c <cyg_libc_stdio_flush_all_but+0x17c>
    cc70:	ebffe8b8 	bl	6f58 <_ZN9Cyg_Mutex4lockEv>
    cc74:	e3500000 	cmp	r0, #0	; 0x0
    cc78:	0a000036 	beq	cd58 <cyg_libc_stdio_flush_all_but+0x168>
    cc7c:	e79b4107 	ldr	r4, [fp, r7, lsl #2]
    cc80:	e1590004 	cmp	r9, r4
    cc84:	13540000 	cmpne	r4, #0	; 0x0
    cc88:	03a03001 	moveq	r3, #1	; 0x1
    cc8c:	13a00000 	movne	r0, #0	; 0x0
    cc90:	03a00001 	moveq	r0, #1	; 0x1
    cc94:	05053020 	streq	r3, [r5, #-32]
    cc98:	01a04006 	moveq	r4, r6
    cc9c:	0a000015 	beq	ccf8 <cyg_libc_stdio_flush_all_but+0x108>
    cca0:	e5d43028 	ldrb	r3, [r4, #40]
    cca4:	e1b033a3 	lsrs	r3, r3, #7
    cca8:	11a04000 	movne	r4, r0
    ccac:	1a000011 	bne	ccf8 <cyg_libc_stdio_flush_all_but+0x108>
    ccb0:	e59d2004 	ldr	r2, [sp, #4]
    ccb4:	e3520000 	cmp	r2, #0	; 0x0
    ccb8:	02845030 	addeq	r5, r4, #48	; 0x30
    ccbc:	0a00001d 	beq	cd38 <cyg_libc_stdio_flush_all_but+0x148>
    ccc0:	e2845030 	add	r5, r4, #48	; 0x30
    ccc4:	e1a00005 	mov	r0, r5
    ccc8:	ebffe8a2 	bl	6f58 <_ZN9Cyg_Mutex4lockEv>
    cccc:	e3500000 	cmp	r0, #0	; 0x0
    ccd0:	0a000018 	beq	cd38 <cyg_libc_stdio_flush_all_but+0x148>
    ccd4:	e1a00004 	mov	r0, r4
    ccd8:	ebfff9ee 	bl	b498 <_ZN15Cyg_StdioStream21flush_output_unlockedEv>
    ccdc:	e1a04000 	mov	r4, r0
    cce0:	e1a00005 	mov	r0, r5
    cce4:	ebffe993 	bl	7338 <_ZN9Cyg_Mutex6unlockEv>
    cce8:	e28d2028 	add	r2, sp, #40	; 0x28
    ccec:	e0823008 	add	r3, r2, r8
    ccf0:	e3a02001 	mov	r2, #1	; 0x1
    ccf4:	e5032020 	str	r2, [r3, #-32]
    ccf8:	e59f006c 	ldr	r0, [pc, #108]	; cd6c <cyg_libc_stdio_flush_all_but+0x17c>
    ccfc:	ebffe98d 	bl	7338 <_ZN9Cyg_Mutex6unlockEv>
    cd00:	e2743001 	rsbs	r3, r4, #1	; 0x1
    cd04:	33a03000 	movcc	r3, #0	; 0x0
    cd08:	e2877001 	add	r7, r7, #1	; 0x1
    cd0c:	e3570007 	cmp	r7, #7	; 0x7
    cd10:	83a02000 	movhi	r2, #0	; 0x0
    cd14:	92032001 	andls	r2, r3, #1	; 0x1
    cd18:	e3520000 	cmp	r2, #0	; 0x0
    cd1c:	1affffcb 	bne	cc50 <cyg_libc_stdio_flush_all_but+0x60>
    cd20:	e113000a 	tst	r3, sl
    cd24:	0a00000c 	beq	cd5c <cyg_libc_stdio_flush_all_but+0x16c>
    cd28:	e1a0a002 	mov	sl, r2
    cd2c:	e1a07002 	mov	r7, r2
    cd30:	e1a04002 	mov	r4, r2
    cd34:	eaffffbe 	b	cc34 <cyg_libc_stdio_flush_all_but+0x44>
    cd38:	e1a00005 	mov	r0, r5
    cd3c:	ebffe8e6 	bl	70dc <_ZN9Cyg_Mutex7trylockEv>
    cd40:	e3500000 	cmp	r0, #0	; 0x0
    cd44:	03a0a001 	moveq	sl, #1	; 0x1
    cd48:	01a04000 	moveq	r4, r0
    cd4c:	058da004 	streq	sl, [sp, #4]
    cd50:	0affffe8 	beq	ccf8 <cyg_libc_stdio_flush_all_but+0x108>
    cd54:	eaffffde 	b	ccd4 <cyg_libc_stdio_flush_all_but+0xe4>
    cd58:	e3a04004 	mov	r4, #4	; 0x4
    cd5c:	e1a00004 	mov	r0, r4
    cd60:	e28dd02c 	add	sp, sp, #44	; 0x2c
    cd64:	e8bd8ff0 	pop	{r4, r5, r6, r7, r8, r9, sl, fp, pc}
    cd68:	40004b14 	.word	0x40004b14
    cd6c:	40004b34 	.word	0x40004b34

0000cd70 <fflush>:
    cd70:	e92d4030 	push	{r4, r5, lr}
    cd74:	e2504000 	subs	r4, r0, #0	; 0x0
    cd78:	e24dd004 	sub	sp, sp, #4	; 0x4
    cd7c:	0a000013 	beq	cdd0 <fflush+0x60>
    cd80:	e2845030 	add	r5, r4, #48	; 0x30
    cd84:	e1a00005 	mov	r0, r5
    cd88:	ebffe872 	bl	6f58 <_ZN9Cyg_Mutex4lockEv>
    cd8c:	e3500000 	cmp	r0, #0	; 0x0
    cd90:	03a04009 	moveq	r4, #9	; 0x9
    cd94:	1a000004 	bne	cdac <fflush+0x3c>
    cd98:	eb000031 	bl	ce64 <cyg_error_get_errno_p>
    cd9c:	e5804000 	str	r4, [r0]
    cda0:	e3e00000 	mvn	r0, #0	; 0x0
    cda4:	e28dd004 	add	sp, sp, #4	; 0x4
    cda8:	e8bd8030 	pop	{r4, r5, pc}
    cdac:	e1a00004 	mov	r0, r4
    cdb0:	ebfff9b8 	bl	b498 <_ZN15Cyg_StdioStream21flush_output_unlockedEv>
    cdb4:	e1a04000 	mov	r4, r0
    cdb8:	e1a00005 	mov	r0, r5
    cdbc:	ebffe95d 	bl	7338 <_ZN9Cyg_Mutex6unlockEv>
    cdc0:	e3540000 	cmp	r4, #0	; 0x0
    cdc4:	01a00004 	moveq	r0, r4
    cdc8:	0afffff5 	beq	cda4 <fflush+0x34>
    cdcc:	eafffff1 	b	cd98 <fflush+0x28>
    cdd0:	ebffff86 	bl	cbf0 <cyg_libc_stdio_flush_all_but>
    cdd4:	e1a04000 	mov	r4, r0
    cdd8:	eafffff8 	b	cdc0 <fflush+0x50>

0000cddc <_Z41__static_initialization_and_destruction_0ii>:
    cddc:	e3500001 	cmp	r0, #1	; 0x1
    cde0:	0a000007 	beq	ce04 <_Z41__static_initialization_and_destruction_0ii+0x28>
    cde4:	e3500000 	cmp	r0, #0	; 0x0
    cde8:	112fff1e 	bxne	lr
    cdec:	e3a03cda 	mov	r3, #55808	; 0xda00
    cdf0:	e28330c0 	add	r3, r3, #192	; 0xc0
    cdf4:	e1510003 	cmp	r1, r3
    cdf8:	112fff1e 	bxne	lr
    cdfc:	e59f0018 	ldr	r0, [pc, #24]	; ce1c <_Z41__static_initialization_and_destruction_0ii+0x40>
    ce00:	eaffe814 	b	6e58 <_ZN9Cyg_MutexD1Ev>
    ce04:	e3a03cda 	mov	r3, #55808	; 0xda00
    ce08:	e28330c0 	add	r3, r3, #192	; 0xc0
    ce0c:	e1510003 	cmp	r1, r3
    ce10:	112fff1e 	bxne	lr
    ce14:	e59f0000 	ldr	r0, [pc, #0]	; ce1c <_Z41__static_initialization_and_destruction_0ii+0x40>
    ce18:	eaffe7e7 	b	6dbc <_ZN9Cyg_MutexC1Ev>
    ce1c:	40004b34 	.word	0x40004b34

0000ce20 <_GLOBAL__D.56000__ZN20Cyg_libc_stdio_files5filesE>:
    ce20:	e3a01cda 	mov	r1, #55808	; 0xda00
    ce24:	e28110c0 	add	r1, r1, #192	; 0xc0
    ce28:	e3a00000 	mov	r0, #0	; 0x0
    ce2c:	eaffffea 	b	cddc <_Z41__static_initialization_and_destruction_0ii>

0000ce30 <_GLOBAL__I.56000__ZN20Cyg_libc_stdio_files5filesE>:
    ce30:	e3a01cda 	mov	r1, #55808	; 0xda00
    ce34:	e28110c0 	add	r1, r1, #192	; 0xc0
    ce38:	e3a00001 	mov	r0, #1	; 0x1
    ce3c:	eaffffe6 	b	cddc <_Z41__static_initialization_and_destruction_0ii>

0000ce40 <Cyg_libc_stdio_find_filename>:
    ce40:	e52de004 	push	{lr}		; (str lr, [sp, #-4]!)
    ce44:	e24dd00c 	sub	sp, sp, #12	; 0xc
    ce48:	e28d1008 	add	r1, sp, #8	; 0x8
    ce4c:	e3a03000 	mov	r3, #0	; 0x0
    ce50:	e5213004 	str	r3, [r1, #-4]!
    ce54:	ebffd34a 	bl	1b84 <cyg_io_lookup>
    ce58:	e59d0004 	ldr	r0, [sp, #4]
    ce5c:	e28dd00c 	add	sp, sp, #12	; 0xc
    ce60:	e8bd8000 	pop	{pc}

0000ce64 <cyg_error_get_errno_p>:
    ce64:	e59f300c 	ldr	r3, [pc, #12]	; ce78 <cyg_error_get_errno_p+0x14>
    ce68:	e5932000 	ldr	r2, [r3]
    ce6c:	e5930000 	ldr	r0, [r3]
    ce70:	e280008c 	add	r0, r0, #140	; 0x8c
    ce74:	e12fff1e 	bx	lr
    ce78:	40002538 	.word	0x40002538

0000ce7c <_memset>:
    ce7c:	e3520003 	cmp	r2, #3	; 0x3
    ce80:	e92d0030 	push	{r4, r5}
    ce84:	e1a04000 	mov	r4, r0
    ce88:	9a00000a 	bls	ceb8 <_memset+0x3c>
    ce8c:	e3100003 	tst	r0, #3	; 0x3
    ce90:	0a00000b 	beq	cec4 <_memset+0x48>
    ce94:	e20110ff 	and	r1, r1, #255	; 0xff
    ce98:	e3a03000 	mov	r3, #0	; 0x0
    ce9c:	e7c41003 	strb	r1, [r4, r3]
    cea0:	e2833001 	add	r3, r3, #1	; 0x1
    cea4:	e1530002 	cmp	r3, r2
    cea8:	1afffffb 	bne	ce9c <_memset+0x20>
    ceac:	e1a00004 	mov	r0, r4
    ceb0:	e8bd0030 	pop	{r4, r5}
    ceb4:	e12fff1e 	bx	lr
    ceb8:	e3520000 	cmp	r2, #0	; 0x0
    cebc:	1afffff4 	bne	ce94 <_memset+0x18>
    cec0:	eafffff9 	b	ceac <_memset+0x30>
    cec4:	e20150ff 	and	r5, r1, #255	; 0xff
    cec8:	e352000f 	cmp	r2, #15	; 0xf
    cecc:	e1853405 	orr	r3, r5, r5, lsl #8
    ced0:	e1831803 	orr	r1, r3, r3, lsl #16
    ced4:	81a0c002 	movhi	ip, r2
    ced8:	81a03004 	movhi	r3, r4
    cedc:	9a00000e 	bls	cf1c <_memset+0xa0>
    cee0:	e24cc010 	sub	ip, ip, #16	; 0x10
    cee4:	e35c000f 	cmp	ip, #15	; 0xf
    cee8:	e5831000 	str	r1, [r3]
    ceec:	e5831004 	str	r1, [r3, #4]
    cef0:	e5831008 	str	r1, [r3, #8]
    cef4:	e583100c 	str	r1, [r3, #12]
    cef8:	e2833010 	add	r3, r3, #16	; 0x10
    cefc:	8afffff7 	bhi	cee0 <_memset+0x64>
    cf00:	e2422010 	sub	r2, r2, #16	; 0x10
    cf04:	e3c2300f 	bic	r3, r2, #15	; 0xf
    cf08:	e202200f 	and	r2, r2, #15	; 0xf
    cf0c:	e2833010 	add	r3, r3, #16	; 0x10
    cf10:	e3520003 	cmp	r2, #3	; 0x3
    cf14:	e0840003 	add	r0, r4, r3
    cf18:	9a00000a 	bls	cf48 <_memset+0xcc>
    cf1c:	e3a0c000 	mov	ip, #0	; 0x0
    cf20:	e780100c 	str	r1, [r0, ip]
    cf24:	e28cc004 	add	ip, ip, #4	; 0x4
    cf28:	e06c3002 	rsb	r3, ip, r2
    cf2c:	e3530003 	cmp	r3, #3	; 0x3
    cf30:	8afffffa 	bhi	cf20 <_memset+0xa4>
    cf34:	e2422004 	sub	r2, r2, #4	; 0x4
    cf38:	e3c23003 	bic	r3, r2, #3	; 0x3
    cf3c:	e2833004 	add	r3, r3, #4	; 0x4
    cf40:	e0800003 	add	r0, r0, r3
    cf44:	e2022003 	and	r2, r2, #3	; 0x3
    cf48:	e3520000 	cmp	r2, #0	; 0x0
    cf4c:	0affffd6 	beq	ceac <_memset+0x30>
    cf50:	e20510ff 	and	r1, r5, #255	; 0xff
    cf54:	e3a03000 	mov	r3, #0	; 0x0
    cf58:	e7c01003 	strb	r1, [r0, r3]
    cf5c:	e2833001 	add	r3, r3, #1	; 0x1
    cf60:	e1530002 	cmp	r3, r2
    cf64:	1afffffb 	bne	cf58 <_memset+0xdc>
    cf68:	eaffffcf 	b	ceac <_memset+0x30>

0000cf6c <_ZN35Cyg_Mempool_dlmalloc_ImplementationC2EPhij>:
    cf6c:	e3a03000 	mov	r3, #0	; 0x0
    cf70:	e5801000 	str	r1, [r0]
    cf74:	e580300c 	str	r3, [r0, #12]
    cf78:	e5803008 	str	r3, [r0, #8]
    cf7c:	e92d0030 	push	{r4, r5}
    cf80:	e5802004 	str	r2, [r0, #4]
    cf84:	e1a05002 	mov	r5, r2
    cf88:	e1a04001 	mov	r4, r1
    cf8c:	e1a02003 	mov	r2, r3
    cf90:	e1a0c000 	mov	ip, r0
    cf94:	e2823001 	add	r3, r2, #1	; 0x1
    cf98:	e1a02003 	mov	r2, r3
    cf9c:	e1a03183 	lsl	r3, r3, #3
    cfa0:	e0803003 	add	r3, r0, r3
    cfa4:	e3520080 	cmp	r2, #128	; 0x80
    cfa8:	e58c3010 	str	r3, [ip, #16]
    cfac:	e58c3014 	str	r3, [ip, #20]
    cfb0:	e28cc008 	add	ip, ip, #8	; 0x8
    cfb4:	1afffff6 	bne	cf94 <_ZN35Cyg_Mempool_dlmalloc_ImplementationC2EPhij+0x28>
    cfb8:	e2143007 	ands	r3, r4, #7	; 0x7
    cfbc:	12631008 	rsbne	r1, r3, #8	; 0x8
    cfc0:	01a01003 	moveq	r1, r3
    cfc4:	12813010 	addne	r3, r1, #16	; 0x10
    cfc8:	03a03010 	moveq	r3, #16	; 0x10
    cfcc:	e1550003 	cmp	r5, r3
    cfd0:	25903004 	ldrcs	r3, [r0, #4]
    cfd4:	20842001 	addcs	r2, r4, r1
    cfd8:	33a03000 	movcc	r3, #0	; 0x0
    cfdc:	23833001 	orrcs	r3, r3, #1	; 0x1
    cfe0:	35803000 	strcc	r3, [r0]
    cfe4:	25823004 	strcs	r3, [r2, #4]
    cfe8:	25802010 	strcs	r2, [r0, #16]
    cfec:	e8bd0030 	pop	{r4, r5}
    cff0:	e12fff1e 	bx	lr

0000cff4 <_ZN35Cyg_Mempool_dlmalloc_ImplementationC1EPhij>:
    cff4:	e3a03000 	mov	r3, #0	; 0x0
    cff8:	e5801000 	str	r1, [r0]
    cffc:	e580300c 	str	r3, [r0, #12]
    d000:	e5803008 	str	r3, [r0, #8]
    d004:	e92d0030 	push	{r4, r5}
    d008:	e5802004 	str	r2, [r0, #4]
    d00c:	e1a05002 	mov	r5, r2
    d010:	e1a04001 	mov	r4, r1
    d014:	e1a02003 	mov	r2, r3
    d018:	e1a0c000 	mov	ip, r0
    d01c:	e2823001 	add	r3, r2, #1	; 0x1
    d020:	e1a02003 	mov	r2, r3
    d024:	e1a03183 	lsl	r3, r3, #3
    d028:	e0803003 	add	r3, r0, r3
    d02c:	e3520080 	cmp	r2, #128	; 0x80
    d030:	e58c3010 	str	r3, [ip, #16]
    d034:	e58c3014 	str	r3, [ip, #20]
    d038:	e28cc008 	add	ip, ip, #8	; 0x8
    d03c:	1afffff6 	bne	d01c <_ZN35Cyg_Mempool_dlmalloc_ImplementationC1EPhij+0x28>
    d040:	e2143007 	ands	r3, r4, #7	; 0x7
    d044:	12631008 	rsbne	r1, r3, #8	; 0x8
    d048:	01a01003 	moveq	r1, r3
    d04c:	12813010 	addne	r3, r1, #16	; 0x10
    d050:	03a03010 	moveq	r3, #16	; 0x10
    d054:	e1550003 	cmp	r5, r3
    d058:	25903004 	ldrcs	r3, [r0, #4]
    d05c:	20842001 	addcs	r2, r4, r1
    d060:	33a03000 	movcc	r3, #0	; 0x0
    d064:	23833001 	orrcs	r3, r3, #1	; 0x1
    d068:	35803000 	strcc	r3, [r0]
    d06c:	25823004 	strcs	r3, [r2, #4]
    d070:	25802010 	strcs	r2, [r0, #16]
    d074:	e8bd0030 	pop	{r4, r5}
    d078:	e12fff1e 	bx	lr

0000d07c <_ZN35Cyg_Mempool_dlmalloc_Implementation9try_allocEi>:
    d07c:	e92d0ff0 	push	{r4, r5, r6, r7, r8, r9, sl, fp}
    d080:	e5903000 	ldr	r3, [r0]
    d084:	e3530000 	cmp	r3, #0	; 0x0
    d088:	e24dd008 	sub	sp, sp, #8	; 0x8
    d08c:	e1a05000 	mov	r5, r0
    d090:	1a000004 	bne	d0a8 <_ZN35Cyg_Mempool_dlmalloc_Implementation9try_allocEi+0x2c>
    d094:	e3a05000 	mov	r5, #0	; 0x0
    d098:	e1a00005 	mov	r0, r5
    d09c:	e28dd008 	add	sp, sp, #8	; 0x8
    d0a0:	e8bd0ff0 	pop	{r4, r5, r6, r7, r8, r9, sl, fp}
    d0a4:	e12fff1e 	bx	lr
    d0a8:	e3510000 	cmp	r1, #0	; 0x0
    d0ac:	bafffff8 	blt	d094 <_ZN35Cyg_Mempool_dlmalloc_Implementation9try_allocEi+0x18>
    d0b0:	e281100b 	add	r1, r1, #11	; 0xb
    d0b4:	e3510016 	cmp	r1, #22	; 0x16
    d0b8:	d3a07010 	movle	r7, #16	; 0x10
    d0bc:	d3a02002 	movle	r2, #2	; 0x2
    d0c0:	d3a03004 	movle	r3, #4	; 0x4
    d0c4:	da00004b 	ble	d1f8 <_ZN35Cyg_Mempool_dlmalloc_Implementation9try_allocEi+0x17c>
    d0c8:	e3c17007 	bic	r7, r1, #7	; 0x7
    d0cc:	e3570f7e 	cmp	r7, #504	; 0x1f8
    d0d0:	3a000046 	bcc	d1f0 <_ZN35Cyg_Mempool_dlmalloc_Implementation9try_allocEi+0x174>
    d0d4:	e1b024a7 	lsrs	r2, r7, #9
    d0d8:	01a021a7 	lsreq	r2, r7, #3
    d0dc:	01a03082 	lsleq	r3, r2, #1
    d0e0:	0a00001a 	beq	d150 <_ZN35Cyg_Mempool_dlmalloc_Implementation9try_allocEi+0xd4>
    d0e4:	e3520004 	cmp	r2, #4	; 0x4
    d0e8:	91a03327 	lsrls	r3, r7, #6
    d0ec:	92832038 	addls	r2, r3, #56	; 0x38
    d0f0:	91a03082 	lslls	r3, r2, #1
    d0f4:	9a000015 	bls	d150 <_ZN35Cyg_Mempool_dlmalloc_Implementation9try_allocEi+0xd4>
    d0f8:	e3520014 	cmp	r2, #20	; 0x14
    d0fc:	9282205b 	addls	r2, r2, #91	; 0x5b
    d100:	91a03082 	lslls	r3, r2, #1
    d104:	9a000011 	bls	d150 <_ZN35Cyg_Mempool_dlmalloc_Implementation9try_allocEi+0xd4>
    d108:	e3520054 	cmp	r2, #84	; 0x54
    d10c:	91a03627 	lsrls	r3, r7, #12
    d110:	9283206e 	addls	r2, r3, #110	; 0x6e
    d114:	91a03082 	lslls	r3, r2, #1
    d118:	9a00000c 	bls	d150 <_ZN35Cyg_Mempool_dlmalloc_Implementation9try_allocEi+0xd4>
    d11c:	e3520f55 	cmp	r2, #340	; 0x154
    d120:	91a037a7 	lsrls	r3, r7, #15
    d124:	92832077 	addls	r2, r3, #119	; 0x77
    d128:	91a03082 	lslls	r3, r2, #1
    d12c:	9a000007 	bls	d150 <_ZN35Cyg_Mempool_dlmalloc_Implementation9try_allocEi+0xd4>
    d130:	e3a03e55 	mov	r3, #1360	; 0x550
    d134:	e2833004 	add	r3, r3, #4	; 0x4
    d138:	e1520003 	cmp	r2, r3
    d13c:	91a03927 	lsrls	r3, r7, #18
    d140:	9283207c 	addls	r2, r3, #124	; 0x7c
    d144:	83a0207e 	movhi	r2, #126	; 0x7e
    d148:	83a030fc 	movhi	r3, #252	; 0xfc
    d14c:	91a03082 	lslls	r3, r2, #1
    d150:	e2833002 	add	r3, r3, #2	; 0x2
    d154:	e1a03103 	lsl	r3, r3, #2
    d158:	e0850003 	add	r0, r5, r3
    d15c:	e590c00c 	ldr	ip, [r0, #12]
    d160:	e150000c 	cmp	r0, ip
    d164:	1a000005 	bne	d180 <_ZN35Cyg_Mempool_dlmalloc_Implementation9try_allocEi+0x104>
    d168:	ea00000a 	b	d198 <_ZN35Cyg_Mempool_dlmalloc_Implementation9try_allocEi+0x11c>
    d16c:	e3510000 	cmp	r1, #0	; 0x0
    d170:	aa00003d 	bge	d26c <_ZN35Cyg_Mempool_dlmalloc_Implementation9try_allocEi+0x1f0>
    d174:	e59cc00c 	ldr	ip, [ip, #12]
    d178:	e150000c 	cmp	r0, ip
    d17c:	0a000005 	beq	d198 <_ZN35Cyg_Mempool_dlmalloc_Implementation9try_allocEi+0x11c>
    d180:	e59c3004 	ldr	r3, [ip, #4]
    d184:	e3c33001 	bic	r3, r3, #1	; 0x1
    d188:	e0671003 	rsb	r1, r7, r3
    d18c:	e351000f 	cmp	r1, #15	; 0xf
    d190:	dafffff5 	ble	d16c <_ZN35Cyg_Mempool_dlmalloc_Implementation9try_allocEi+0xf0>
    d194:	e2422001 	sub	r2, r2, #1	; 0x1
    d198:	e2829001 	add	r9, r2, #1	; 0x1
    d19c:	e285a010 	add	sl, r5, #16	; 0x10
    d1a0:	e59ac008 	ldr	ip, [sl, #8]
    d1a4:	e15a000c 	cmp	sl, ip
    d1a8:	02850008 	addeq	r0, r5, #8	; 0x8
    d1ac:	058d0004 	streq	r0, [sp, #4]
    d1b0:	0a000067 	beq	d354 <_ZN35Cyg_Mempool_dlmalloc_Implementation9try_allocEi+0x2d8>
    d1b4:	e59c3004 	ldr	r3, [ip, #4]
    d1b8:	e3c34001 	bic	r4, r3, #1	; 0x1
    d1bc:	e0670004 	rsb	r0, r7, r4
    d1c0:	e350000f 	cmp	r0, #15	; 0xf
    d1c4:	ca00001d 	bgt	d240 <_ZN35Cyg_Mempool_dlmalloc_Implementation9try_allocEi+0x1c4>
    d1c8:	e3500000 	cmp	r0, #0	; 0x0
    d1cc:	e58aa00c 	str	sl, [sl, #12]
    d1d0:	e58aa008 	str	sl, [sl, #8]
    d1d4:	ba000098 	blt	d43c <_ZN35Cyg_Mempool_dlmalloc_Implementation9try_allocEi+0x3c0>
    d1d8:	e08c2004 	add	r2, ip, r4
    d1dc:	e5923004 	ldr	r3, [r2, #4]
    d1e0:	e3833001 	orr	r3, r3, #1	; 0x1
    d1e4:	e5823004 	str	r3, [r2, #4]
    d1e8:	e28c5008 	add	r5, ip, #8	; 0x8
    d1ec:	eaffffa9 	b	d098 <_ZN35Cyg_Mempool_dlmalloc_Implementation9try_allocEi+0x1c>
    d1f0:	e1a021a7 	lsr	r2, r7, #3
    d1f4:	e1a03082 	lsl	r3, r2, #1
    d1f8:	e2833002 	add	r3, r3, #2	; 0x2
    d1fc:	e1a03103 	lsl	r3, r3, #2
    d200:	e0853003 	add	r3, r5, r3
    d204:	e593c00c 	ldr	ip, [r3, #12]
    d208:	e15c0003 	cmp	ip, r3
    d20c:	0a000084 	beq	d424 <_ZN35Cyg_Mempool_dlmalloc_Implementation9try_allocEi+0x3a8>
    d210:	e59c3004 	ldr	r3, [ip, #4]
    d214:	e3c33001 	bic	r3, r3, #1	; 0x1
    d218:	e08c3003 	add	r3, ip, r3
    d21c:	e5932004 	ldr	r2, [r3, #4]
    d220:	e59c000c 	ldr	r0, [ip, #12]
    d224:	e59c1008 	ldr	r1, [ip, #8]
    d228:	e3822001 	orr	r2, r2, #1	; 0x1
    d22c:	e5801008 	str	r1, [r0, #8]
    d230:	e5832004 	str	r2, [r3, #4]
    d234:	e581000c 	str	r0, [r1, #12]
    d238:	e28c5008 	add	r5, ip, #8	; 0x8
    d23c:	eaffff95 	b	d098 <_ZN35Cyg_Mempool_dlmalloc_Implementation9try_allocEi+0x1c>
    d240:	e08c2007 	add	r2, ip, r7
    d244:	e3873001 	orr	r3, r7, #1	; 0x1
    d248:	e3801001 	orr	r1, r0, #1	; 0x1
    d24c:	e58c3004 	str	r3, [ip, #4]
    d250:	e58a200c 	str	r2, [sl, #12]
    d254:	e58a2008 	str	r2, [sl, #8]
    d258:	e7820000 	str	r0, [r2, r0]
    d25c:	e9820402 	stmib	r2, {r1, sl}
    d260:	e582a00c 	str	sl, [r2, #12]
    d264:	e28c5008 	add	r5, ip, #8	; 0x8
    d268:	eaffff8a 	b	d098 <_ZN35Cyg_Mempool_dlmalloc_Implementation9try_allocEi+0x1c>
    d26c:	e08c0003 	add	r0, ip, r3
    d270:	e5903004 	ldr	r3, [r0, #4]
    d274:	e59c100c 	ldr	r1, [ip, #12]
    d278:	e59c2008 	ldr	r2, [ip, #8]
    d27c:	e3833001 	orr	r3, r3, #1	; 0x1
    d280:	e5812008 	str	r2, [r1, #8]
    d284:	e5803004 	str	r3, [r0, #4]
    d288:	e582100c 	str	r1, [r2, #12]
    d28c:	e28c5008 	add	r5, ip, #8	; 0x8
    d290:	eaffff80 	b	d098 <_ZN35Cyg_Mempool_dlmalloc_Implementation9try_allocEi+0x1c>
    d294:	e1a014a4 	lsr	r1, r4, #9
    d298:	e3510004 	cmp	r1, #4	; 0x4
    d29c:	91a03324 	lsrls	r3, r4, #6
    d2a0:	92831038 	addls	r1, r3, #56	; 0x38
    d2a4:	91a03081 	lslls	r3, r1, #1
    d2a8:	9a000015 	bls	d304 <_ZN35Cyg_Mempool_dlmalloc_Implementation9try_allocEi+0x288>
    d2ac:	e3510014 	cmp	r1, #20	; 0x14
    d2b0:	9281105b 	addls	r1, r1, #91	; 0x5b
    d2b4:	91a03081 	lslls	r3, r1, #1
    d2b8:	9a000011 	bls	d304 <_ZN35Cyg_Mempool_dlmalloc_Implementation9try_allocEi+0x288>
    d2bc:	e3510054 	cmp	r1, #84	; 0x54
    d2c0:	91a03624 	lsrls	r3, r4, #12
    d2c4:	9283106e 	addls	r1, r3, #110	; 0x6e
    d2c8:	91a03081 	lslls	r3, r1, #1
    d2cc:	9a00000c 	bls	d304 <_ZN35Cyg_Mempool_dlmalloc_Implementation9try_allocEi+0x288>
    d2d0:	e3510f55 	cmp	r1, #340	; 0x154
    d2d4:	91a037a4 	lsrls	r3, r4, #15
    d2d8:	92831077 	addls	r1, r3, #119	; 0x77
    d2dc:	91a03081 	lslls	r3, r1, #1
    d2e0:	9a000007 	bls	d304 <_ZN35Cyg_Mempool_dlmalloc_Implementation9try_allocEi+0x288>
    d2e4:	e3a03e55 	mov	r3, #1360	; 0x550
    d2e8:	e2833004 	add	r3, r3, #4	; 0x4
    d2ec:	e1510003 	cmp	r1, r3
    d2f0:	91a03924 	lsrls	r3, r4, #18
    d2f4:	9283107c 	addls	r1, r3, #124	; 0x7c
    d2f8:	83a0107e 	movhi	r1, #126	; 0x7e
    d2fc:	83a030fc 	movhi	r3, #252	; 0xfc
    d300:	91a03081 	lslls	r3, r1, #1
    d304:	e2833002 	add	r3, r3, #2	; 0x2
    d308:	e1a03103 	lsl	r3, r3, #2
    d30c:	e0852003 	add	r2, r5, r3
    d310:	e5920008 	ldr	r0, [r2, #8]
    d314:	e1500002 	cmp	r0, r2
    d318:	0a000096 	beq	d578 <_ZN35Cyg_Mempool_dlmalloc_Implementation9try_allocEi+0x4fc>
    d31c:	e5903004 	ldr	r3, [r0, #4]
    d320:	e3c33001 	bic	r3, r3, #1	; 0x1
    d324:	e1540003 	cmp	r4, r3
    d328:	2a000002 	bcs	d338 <_ZN35Cyg_Mempool_dlmalloc_Implementation9try_allocEi+0x2bc>
    d32c:	e5900008 	ldr	r0, [r0, #8]
    d330:	e1520000 	cmp	r2, r0
    d334:	1afffff8 	bne	d31c <_ZN35Cyg_Mempool_dlmalloc_Implementation9try_allocEi+0x2a0>
    d338:	e2852008 	add	r2, r5, #8	; 0x8
    d33c:	e590300c 	ldr	r3, [r0, #12]
    d340:	e58d2004 	str	r2, [sp, #4]
    d344:	e58c300c 	str	r3, [ip, #12]
    d348:	e58c0008 	str	r0, [ip, #8]
    d34c:	e580c00c 	str	ip, [r0, #12]
    d350:	e583c008 	str	ip, [r3, #8]
    d354:	e3a03001 	mov	r3, #1	; 0x1
    d358:	e1a02149 	asr	r2, r9, #2
    d35c:	e1a01213 	lsl	r1, r3, r2
    d360:	e59d3004 	ldr	r3, [sp, #4]
    d364:	e5938004 	ldr	r8, [r3, #4]
    d368:	e1510008 	cmp	r1, r8
    d36c:	8a000063 	bhi	d500 <_ZN35Cyg_Mempool_dlmalloc_Implementation9try_allocEi+0x484>
    d370:	e1110008 	tst	r1, r8
    d374:	1a000008 	bne	d39c <_ZN35Cyg_Mempool_dlmalloc_Implementation9try_allocEi+0x320>
    d378:	e1a01081 	lsl	r1, r1, #1
    d37c:	e3c93003 	bic	r3, r9, #3	; 0x3
    d380:	e1110008 	tst	r1, r8
    d384:	e2839004 	add	r9, r3, #4	; 0x4
    d388:	1a000003 	bne	d39c <_ZN35Cyg_Mempool_dlmalloc_Implementation9try_allocEi+0x320>
    d38c:	e1a01081 	lsl	r1, r1, #1
    d390:	e1110008 	tst	r1, r8
    d394:	e2899004 	add	r9, r9, #4	; 0x4
    d398:	0afffffb 	beq	d38c <_ZN35Cyg_Mempool_dlmalloc_Implementation9try_allocEi+0x310>
    d39c:	e2893001 	add	r3, r9, #1	; 0x1
    d3a0:	e1a03183 	lsl	r3, r3, #3
    d3a4:	e0850003 	add	r0, r5, r3
    d3a8:	e1a0b009 	mov	fp, r9
    d3ac:	e1a02000 	mov	r2, r0
    d3b0:	e592600c 	ldr	r6, [r2, #12]
    d3b4:	e1520006 	cmp	r2, r6
    d3b8:	1a000005 	bne	d3d4 <_ZN35Cyg_Mempool_dlmalloc_Implementation9try_allocEi+0x358>
    d3bc:	ea000032 	b	d48c <_ZN35Cyg_Mempool_dlmalloc_Implementation9try_allocEi+0x410>
    d3c0:	e3540000 	cmp	r4, #0	; 0x0
    d3c4:	aa000035 	bge	d4a0 <_ZN35Cyg_Mempool_dlmalloc_Implementation9try_allocEi+0x424>
    d3c8:	e596600c 	ldr	r6, [r6, #12]
    d3cc:	e1520006 	cmp	r2, r6
    d3d0:	0a00002d 	beq	d48c <_ZN35Cyg_Mempool_dlmalloc_Implementation9try_allocEi+0x410>
    d3d4:	e5963004 	ldr	r3, [r6, #4]
    d3d8:	e3c33001 	bic	r3, r3, #1	; 0x1
    d3dc:	e0674003 	rsb	r4, r7, r3
    d3e0:	e354000f 	cmp	r4, #15	; 0xf
    d3e4:	dafffff5 	ble	d3c0 <_ZN35Cyg_Mempool_dlmalloc_Implementation9try_allocEi+0x344>
    d3e8:	e1a05006 	mov	r5, r6
    d3ec:	e596c00c 	ldr	ip, [r6, #12]
    d3f0:	e5b50008 	ldr	r0, [r5, #8]!
    d3f4:	e0863007 	add	r3, r6, r7
    d3f8:	e3871001 	orr	r1, r7, #1	; 0x1
    d3fc:	e3842001 	orr	r2, r4, #1	; 0x1
    d400:	e58c0008 	str	r0, [ip, #8]
    d404:	e580c00c 	str	ip, [r0, #12]
    d408:	e5861004 	str	r1, [r6, #4]
    d40c:	e58a3008 	str	r3, [sl, #8]
    d410:	e58a300c 	str	r3, [sl, #12]
    d414:	e7834004 	str	r4, [r3, r4]
    d418:	e9830404 	stmib	r3, {r2, sl}
    d41c:	e583a00c 	str	sl, [r3, #12]
    d420:	eaffff1c 	b	d098 <_ZN35Cyg_Mempool_dlmalloc_Implementation9try_allocEi+0x1c>
    d424:	e28c3008 	add	r3, ip, #8	; 0x8
    d428:	e593c00c 	ldr	ip, [r3, #12]
    d42c:	e153000c 	cmp	r3, ip
    d430:	02829002 	addeq	r9, r2, #2	; 0x2
    d434:	0affff58 	beq	d19c <_ZN35Cyg_Mempool_dlmalloc_Implementation9try_allocEi+0x120>
    d438:	eaffff74 	b	d210 <_ZN35Cyg_Mempool_dlmalloc_Implementation9try_allocEi+0x194>
    d43c:	e3540c02 	cmp	r4, #512	; 0x200
    d440:	2affff93 	bcs	d294 <_ZN35Cyg_Mempool_dlmalloc_Implementation9try_allocEi+0x218>
    d444:	e2852008 	add	r2, r5, #8	; 0x8
    d448:	e5921004 	ldr	r1, [r2, #4]
    d44c:	e1a031a4 	lsr	r3, r4, #3
    d450:	e1a00143 	asr	r0, r3, #2
    d454:	e58d2004 	str	r2, [sp, #4]
    d458:	e3a02001 	mov	r2, #1	; 0x1
    d45c:	e1811012 	orr	r1, r1, r2, lsl r0
    d460:	e0833002 	add	r3, r3, r2
    d464:	e1a03183 	lsl	r3, r3, #3
    d468:	e0853003 	add	r3, r5, r3
    d46c:	e5932008 	ldr	r2, [r3, #8]
    d470:	e59d0004 	ldr	r0, [sp, #4]
    d474:	e58c300c 	str	r3, [ip, #12]
    d478:	e58c2008 	str	r2, [ip, #8]
    d47c:	e5801004 	str	r1, [r0, #4]
    d480:	e582c00c 	str	ip, [r2, #12]
    d484:	e583c008 	str	ip, [r3, #8]
    d488:	eaffffb1 	b	d354 <_ZN35Cyg_Mempool_dlmalloc_Implementation9try_allocEi+0x2d8>
    d48c:	e28bb001 	add	fp, fp, #1	; 0x1
    d490:	e31b0003 	tst	fp, #3	; 0x3
    d494:	0a00000b 	beq	d4c8 <_ZN35Cyg_Mempool_dlmalloc_Implementation9try_allocEi+0x44c>
    d498:	e2822008 	add	r2, r2, #8	; 0x8
    d49c:	eaffffc3 	b	d3b0 <_ZN35Cyg_Mempool_dlmalloc_Implementation9try_allocEi+0x334>
    d4a0:	e0860003 	add	r0, r6, r3
    d4a4:	e5903004 	ldr	r3, [r0, #4]
    d4a8:	e1a05006 	mov	r5, r6
    d4ac:	e596100c 	ldr	r1, [r6, #12]
    d4b0:	e5b52008 	ldr	r2, [r5, #8]!
    d4b4:	e3833001 	orr	r3, r3, #1	; 0x1
    d4b8:	e5803004 	str	r3, [r0, #4]
    d4bc:	e5812008 	str	r2, [r1, #8]
    d4c0:	e582100c 	str	r1, [r2, #12]
    d4c4:	eafffef3 	b	d098 <_ZN35Cyg_Mempool_dlmalloc_Implementation9try_allocEi+0x1c>
    d4c8:	e1a02009 	mov	r2, r9
    d4cc:	e1a0c000 	mov	ip, r0
    d4d0:	e3120003 	tst	r2, #3	; 0x3
    d4d4:	e1a0000c 	mov	r0, ip
    d4d8:	e2422001 	sub	r2, r2, #1	; 0x1
    d4dc:	0a00002f 	beq	d5a0 <_ZN35Cyg_Mempool_dlmalloc_Implementation9try_allocEi+0x524>
    d4e0:	e410c008 	ldr	ip, [r0], #-8
    d4e4:	e15c0000 	cmp	ip, r0
    d4e8:	0afffff8 	beq	d4d0 <_ZN35Cyg_Mempool_dlmalloc_Implementation9try_allocEi+0x454>
    d4ec:	e1a01081 	lsl	r1, r1, #1
    d4f0:	e1510008 	cmp	r1, r8
    d4f4:	8a000001 	bhi	d500 <_ZN35Cyg_Mempool_dlmalloc_Implementation9try_allocEi+0x484>
    d4f8:	e3510000 	cmp	r1, #0	; 0x0
    d4fc:	1a000014 	bne	d554 <_ZN35Cyg_Mempool_dlmalloc_Implementation9try_allocEi+0x4d8>
    d500:	e59d2004 	ldr	r2, [sp, #4]
    d504:	e5920008 	ldr	r0, [r2, #8]
    d508:	e5902004 	ldr	r2, [r0, #4]
    d50c:	e3c22001 	bic	r2, r2, #1	; 0x1
    d510:	e0671002 	rsb	r1, r7, r2
    d514:	e351000f 	cmp	r1, #15	; 0xf
    d518:	c3a03000 	movgt	r3, #0	; 0x0
    d51c:	d3a03001 	movle	r3, #1	; 0x1
    d520:	e1570002 	cmp	r7, r2
    d524:	83833001 	orrhi	r3, r3, #1	; 0x1
    d528:	e3530000 	cmp	r3, #0	; 0x0
    d52c:	1afffed8 	bne	d094 <_ZN35Cyg_Mempool_dlmalloc_Implementation9try_allocEi+0x18>
    d530:	e3872001 	orr	r2, r7, #1	; 0x1
    d534:	e5802004 	str	r2, [r0, #4]
    d538:	e59d2004 	ldr	r2, [sp, #4]
    d53c:	e0803007 	add	r3, r0, r7
    d540:	e3811001 	orr	r1, r1, #1	; 0x1
    d544:	e5831004 	str	r1, [r3, #4]
    d548:	e5823008 	str	r3, [r2, #8]
    d54c:	e2805008 	add	r5, r0, #8	; 0x8
    d550:	eafffed0 	b	d098 <_ZN35Cyg_Mempool_dlmalloc_Implementation9try_allocEi+0x1c>
    d554:	e1110008 	tst	r1, r8
    d558:	11a0900b 	movne	r9, fp
    d55c:	1affff8e 	bne	d39c <_ZN35Cyg_Mempool_dlmalloc_Implementation9try_allocEi+0x320>
    d560:	e1a01081 	lsl	r1, r1, #1
    d564:	e1110008 	tst	r1, r8
    d568:	e28bb004 	add	fp, fp, #4	; 0x4
    d56c:	0afffffb 	beq	d560 <_ZN35Cyg_Mempool_dlmalloc_Implementation9try_allocEi+0x4e4>
    d570:	e1a0900b 	mov	r9, fp
    d574:	eaffff88 	b	d39c <_ZN35Cyg_Mempool_dlmalloc_Implementation9try_allocEi+0x320>
    d578:	e2852008 	add	r2, r5, #8	; 0x8
    d57c:	e5923004 	ldr	r3, [r2, #4]
    d580:	e58d2004 	str	r2, [sp, #4]
    d584:	e1a01141 	asr	r1, r1, #2
    d588:	e3a02001 	mov	r2, #1	; 0x1
    d58c:	e1833112 	orr	r3, r3, r2, lsl r1
    d590:	e59d2004 	ldr	r2, [sp, #4]
    d594:	e5823004 	str	r3, [r2, #4]
    d598:	e1a03000 	mov	r3, r0
    d59c:	eaffff68 	b	d344 <_ZN35Cyg_Mempool_dlmalloc_Implementation9try_allocEi+0x2c8>
    d5a0:	e1e03001 	mvn	r3, r1
    d5a4:	e59d0004 	ldr	r0, [sp, #4]
    d5a8:	e0088003 	and	r8, r8, r3
    d5ac:	e5808004 	str	r8, [r0, #4]
    d5b0:	eaffffcd 	b	d4ec <_ZN35Cyg_Mempool_dlmalloc_Implementation9try_allocEi+0x470>

0000d5b4 <_ZN35Cyg_Mempool_dlmalloc_Implementation4freeEPhi>:
    d5b4:	e3510000 	cmp	r1, #0	; 0x0
    d5b8:	e92d01f0 	push	{r4, r5, r6, r7, r8}
    d5bc:	e1a07000 	mov	r7, r0
    d5c0:	01a00001 	moveq	r0, r1
    d5c4:	0a00004e 	beq	d704 <_ZN35Cyg_Mempool_dlmalloc_Implementation4freeEPhi+0x150>
    d5c8:	e2415008 	sub	r5, r1, #8	; 0x8
    d5cc:	e5950004 	ldr	r0, [r5, #4]
    d5d0:	e2878008 	add	r8, r7, #8	; 0x8
    d5d4:	e3c04001 	bic	r4, r0, #1	; 0x1
    d5d8:	e085c004 	add	ip, r5, r4
    d5dc:	e5983008 	ldr	r3, [r8, #8]
    d5e0:	e59c2004 	ldr	r2, [ip, #4]
    d5e4:	e153000c 	cmp	r3, ip
    d5e8:	e3c26001 	bic	r6, r2, #1	; 0x1
    d5ec:	0a000072 	beq	d7bc <_ZN35Cyg_Mempool_dlmalloc_Implementation4freeEPhi+0x208>
    d5f0:	e2100001 	ands	r0, r0, #1	; 0x1
    d5f4:	e58c6004 	str	r6, [ip, #4]
    d5f8:	13a01000 	movne	r1, #0	; 0x0
    d5fc:	0a000042 	beq	d70c <_ZN35Cyg_Mempool_dlmalloc_Implementation4freeEPhi+0x158>
    d600:	e08c3006 	add	r3, ip, r6
    d604:	e5932004 	ldr	r2, [r3, #4]
    d608:	e3120001 	tst	r2, #1	; 0x1
    d60c:	1a000006 	bne	d62c <_ZN35Cyg_Mempool_dlmalloc_Implementation4freeEPhi+0x78>
    d610:	e3510000 	cmp	r1, #0	; 0x0
    d614:	e0844006 	add	r4, r4, r6
    d618:	159c2008 	ldrne	r2, [ip, #8]
    d61c:	0a00004a 	beq	d74c <_ZN35Cyg_Mempool_dlmalloc_Implementation4freeEPhi+0x198>
    d620:	e59c300c 	ldr	r3, [ip, #12]
    d624:	e5832008 	str	r2, [r3, #8]
    d628:	e582300c 	str	r3, [r2, #12]
    d62c:	e3843001 	orr	r3, r4, #1	; 0x1
    d630:	e3510000 	cmp	r1, #0	; 0x0
    d634:	e5853004 	str	r3, [r5, #4]
    d638:	e7854004 	str	r4, [r5, r4]
    d63c:	1a00002f 	bne	d700 <_ZN35Cyg_Mempool_dlmalloc_Implementation4freeEPhi+0x14c>
    d640:	e3540c02 	cmp	r4, #512	; 0x200
    d644:	3a00004d 	bcc	d780 <_ZN35Cyg_Mempool_dlmalloc_Implementation4freeEPhi+0x1cc>
    d648:	e1a014a4 	lsr	r1, r4, #9
    d64c:	e3510004 	cmp	r1, #4	; 0x4
    d650:	91a03324 	lsrls	r3, r4, #6
    d654:	92831038 	addls	r1, r3, #56	; 0x38
    d658:	91a03081 	lslls	r3, r1, #1
    d65c:	9a000015 	bls	d6b8 <_ZN35Cyg_Mempool_dlmalloc_Implementation4freeEPhi+0x104>
    d660:	e3510014 	cmp	r1, #20	; 0x14
    d664:	9281105b 	addls	r1, r1, #91	; 0x5b
    d668:	91a03081 	lslls	r3, r1, #1
    d66c:	9a000011 	bls	d6b8 <_ZN35Cyg_Mempool_dlmalloc_Implementation4freeEPhi+0x104>
    d670:	e3510054 	cmp	r1, #84	; 0x54
    d674:	91a03624 	lsrls	r3, r4, #12
    d678:	9283106e 	addls	r1, r3, #110	; 0x6e
    d67c:	91a03081 	lslls	r3, r1, #1
    d680:	9a00000c 	bls	d6b8 <_ZN35Cyg_Mempool_dlmalloc_Implementation4freeEPhi+0x104>
    d684:	e3510f55 	cmp	r1, #340	; 0x154
    d688:	91a037a4 	lsrls	r3, r4, #15
    d68c:	92831077 	addls	r1, r3, #119	; 0x77
    d690:	91a03081 	lslls	r3, r1, #1
    d694:	9a000007 	bls	d6b8 <_ZN35Cyg_Mempool_dlmalloc_Implementation4freeEPhi+0x104>
    d698:	e3a03e55 	mov	r3, #1360	; 0x550
    d69c:	e2833004 	add	r3, r3, #4	; 0x4
    d6a0:	e1510003 	cmp	r1, r3
    d6a4:	91a03924 	lsrls	r3, r4, #18
    d6a8:	9283107c 	addls	r1, r3, #124	; 0x7c
    d6ac:	83a0107e 	movhi	r1, #126	; 0x7e
    d6b0:	83a030fc 	movhi	r3, #252	; 0xfc
    d6b4:	91a03081 	lslls	r3, r1, #1
    d6b8:	e2833002 	add	r3, r3, #2	; 0x2
    d6bc:	e1a03103 	lsl	r3, r3, #2
    d6c0:	e0870003 	add	r0, r7, r3
    d6c4:	e590c008 	ldr	ip, [r0, #8]
    d6c8:	e15c0000 	cmp	ip, r0
    d6cc:	0a000049 	beq	d7f8 <_ZN35Cyg_Mempool_dlmalloc_Implementation4freeEPhi+0x244>
    d6d0:	e59c3004 	ldr	r3, [ip, #4]
    d6d4:	e3c33001 	bic	r3, r3, #1	; 0x1
    d6d8:	e1540003 	cmp	r4, r3
    d6dc:	2a000002 	bcs	d6ec <_ZN35Cyg_Mempool_dlmalloc_Implementation4freeEPhi+0x138>
    d6e0:	e59cc008 	ldr	ip, [ip, #8]
    d6e4:	e150000c 	cmp	r0, ip
    d6e8:	1afffff8 	bne	d6d0 <_ZN35Cyg_Mempool_dlmalloc_Implementation4freeEPhi+0x11c>
    d6ec:	e59c300c 	ldr	r3, [ip, #12]
    d6f0:	e585300c 	str	r3, [r5, #12]
    d6f4:	e585c008 	str	ip, [r5, #8]
    d6f8:	e58c500c 	str	r5, [ip, #12]
    d6fc:	e5835008 	str	r5, [r3, #8]
    d700:	e3a00001 	mov	r0, #1	; 0x1
    d704:	e8bd01f0 	pop	{r4, r5, r6, r7, r8}
    d708:	e12fff1e 	bx	lr
    d70c:	e5112008 	ldr	r2, [r1, #-8]
    d710:	e0625005 	rsb	r5, r2, r5
    d714:	e5951008 	ldr	r1, [r5, #8]
    d718:	e2873010 	add	r3, r7, #16	; 0x10
    d71c:	e1510003 	cmp	r1, r3
    d720:	1595300c 	ldrne	r3, [r5, #12]
    d724:	15831008 	strne	r1, [r3, #8]
    d728:	1581300c 	strne	r3, [r1, #12]
    d72c:	e08c3006 	add	r3, ip, r6
    d730:	e0844002 	add	r4, r4, r2
    d734:	e5932004 	ldr	r2, [r3, #4]
    d738:	03a01001 	moveq	r1, #1	; 0x1
    d73c:	11a01000 	movne	r1, r0
    d740:	e3120001 	tst	r2, #1	; 0x1
    d744:	1affffb8 	bne	d62c <_ZN35Cyg_Mempool_dlmalloc_Implementation4freeEPhi+0x78>
    d748:	eaffffb0 	b	d610 <_ZN35Cyg_Mempool_dlmalloc_Implementation4freeEPhi+0x5c>
    d74c:	e59c2008 	ldr	r2, [ip, #8]
    d750:	e2873010 	add	r3, r7, #16	; 0x10
    d754:	e1520003 	cmp	r2, r3
    d758:	1affffb0 	bne	d620 <_ZN35Cyg_Mempool_dlmalloc_Implementation4freeEPhi+0x6c>
    d75c:	e3843001 	orr	r3, r4, #1	; 0x1
    d760:	e582500c 	str	r5, [r2, #12]
    d764:	e5825008 	str	r5, [r2, #8]
    d768:	e7854004 	str	r4, [r5, r4]
    d76c:	e5853004 	str	r3, [r5, #4]
    d770:	e5852008 	str	r2, [r5, #8]
    d774:	e585200c 	str	r2, [r5, #12]
    d778:	e3a00001 	mov	r0, #1	; 0x1
    d77c:	eaffffe0 	b	d704 <_ZN35Cyg_Mempool_dlmalloc_Implementation4freeEPhi+0x150>
    d780:	e1a031a4 	lsr	r3, r4, #3
    d784:	e5981004 	ldr	r1, [r8, #4]
    d788:	e1a02143 	asr	r2, r3, #2
    d78c:	e3a00001 	mov	r0, #1	; 0x1
    d790:	e1811210 	orr	r1, r1, r0, lsl r2
    d794:	e0833000 	add	r3, r3, r0
    d798:	e1a03183 	lsl	r3, r3, #3
    d79c:	e0873003 	add	r3, r7, r3
    d7a0:	e5932008 	ldr	r2, [r3, #8]
    d7a4:	e585300c 	str	r3, [r5, #12]
    d7a8:	e5852008 	str	r2, [r5, #8]
    d7ac:	e5881004 	str	r1, [r8, #4]
    d7b0:	e582500c 	str	r5, [r2, #12]
    d7b4:	e5835008 	str	r5, [r3, #8]
    d7b8:	eaffffd1 	b	d704 <_ZN35Cyg_Mempool_dlmalloc_Implementation4freeEPhi+0x150>
    d7bc:	e3100001 	tst	r0, #1	; 0x1
    d7c0:	e086c004 	add	ip, r6, r4
    d7c4:	1a000006 	bne	d7e4 <_ZN35Cyg_Mempool_dlmalloc_Implementation4freeEPhi+0x230>
    d7c8:	e5111008 	ldr	r1, [r1, #-8]
    d7cc:	e0615005 	rsb	r5, r1, r5
    d7d0:	e595200c 	ldr	r2, [r5, #12]
    d7d4:	e5953008 	ldr	r3, [r5, #8]
    d7d8:	e5823008 	str	r3, [r2, #8]
    d7dc:	e583200c 	str	r2, [r3, #12]
    d7e0:	e08cc001 	add	ip, ip, r1
    d7e4:	e38c3001 	orr	r3, ip, #1	; 0x1
    d7e8:	e5885008 	str	r5, [r8, #8]
    d7ec:	e5853004 	str	r3, [r5, #4]
    d7f0:	e3a00001 	mov	r0, #1	; 0x1
    d7f4:	eaffffc2 	b	d704 <_ZN35Cyg_Mempool_dlmalloc_Implementation4freeEPhi+0x150>
    d7f8:	e5983004 	ldr	r3, [r8, #4]
    d7fc:	e1a01141 	asr	r1, r1, #2
    d800:	e3a02001 	mov	r2, #1	; 0x1
    d804:	e1833112 	orr	r3, r3, r2, lsl r1
    d808:	e5883004 	str	r3, [r8, #4]
    d80c:	e1a0300c 	mov	r3, ip
    d810:	eaffffb6 	b	d6f0 <_ZN35Cyg_Mempool_dlmalloc_Implementation4freeEPhi+0x13c>

0000d814 <_ZN35Cyg_Mempool_dlmalloc_Implementation10get_statusEtR18Cyg_Mempool_Status>:
    d814:	e311005c 	tst	r1, #92	; 0x5c
    d818:	e92d01f0 	push	{r4, r5, r6, r7, r8}
    d81c:	e1a08001 	mov	r8, r1
    d820:	e1a06000 	mov	r6, r0
    d824:	e1a07002 	mov	r7, r2
    d828:	0a000024 	beq	d8c0 <_ZN35Cyg_Mempool_dlmalloc_Implementation10get_statusEtR18Cyg_Mempool_Status+0xac>
    d82c:	e5903010 	ldr	r3, [r0, #16]
    d830:	e5932004 	ldr	r2, [r3, #4]
    d834:	e3c20001 	bic	r0, r2, #1	; 0x1
    d838:	e350000f 	cmp	r0, #15	; 0xf
    d83c:	d3a04000 	movle	r4, #0	; 0x0
    d840:	c3a04001 	movgt	r4, #1	; 0x1
    d844:	e1a01000 	mov	r1, r0
    d848:	e3a03001 	mov	r3, #1	; 0x1
    d84c:	e2835001 	add	r5, r3, #1	; 0x1
    d850:	e1a03185 	lsl	r3, r5, #3
    d854:	e0862003 	add	r2, r6, r3
    d858:	e592c00c 	ldr	ip, [r2, #12]
    d85c:	e152000c 	cmp	r2, ip
    d860:	0a000008 	beq	d888 <_ZN35Cyg_Mempool_dlmalloc_Implementation10get_statusEtR18Cyg_Mempool_Status+0x74>
    d864:	e59c3004 	ldr	r3, [ip, #4]
    d868:	e59cc00c 	ldr	ip, [ip, #12]
    d86c:	e3c33001 	bic	r3, r3, #1	; 0x1
    d870:	e1510003 	cmp	r1, r3
    d874:	b1a01003 	movlt	r1, r3
    d878:	e152000c 	cmp	r2, ip
    d87c:	e0800003 	add	r0, r0, r3
    d880:	e2844001 	add	r4, r4, #1	; 0x1
    d884:	1afffff6 	bne	d864 <_ZN35Cyg_Mempool_dlmalloc_Implementation10get_statusEtR18Cyg_Mempool_Status+0x50>
    d888:	e3550080 	cmp	r5, #128	; 0x80
    d88c:	e1a03005 	mov	r3, r5
    d890:	1affffed 	bne	d84c <_ZN35Cyg_Mempool_dlmalloc_Implementation10get_statusEtR18Cyg_Mempool_Status+0x38>
    d894:	e3180008 	tst	r8, #8	; 0x8
    d898:	15963004 	ldrne	r3, [r6, #4]
    d89c:	10603003 	rsbne	r3, r0, r3
    d8a0:	1587300c 	strne	r3, [r7, #12]
    d8a4:	e3c12007 	bic	r2, r1, #7	; 0x7
    d8a8:	e3c03007 	bic	r3, r0, #7	; 0x7
    d8ac:	e2433014 	sub	r3, r3, #20	; 0x14
    d8b0:	e2422014 	sub	r2, r2, #20	; 0x14
    d8b4:	e5873010 	str	r3, [r7, #16]
    d8b8:	e5874008 	str	r4, [r7, #8]
    d8bc:	e5872018 	str	r2, [r7, #24]
    d8c0:	e5961004 	ldr	r1, [r6, #4]
    d8c4:	e5962000 	ldr	r2, [r6]
    d8c8:	e3a03018 	mov	r3, #24	; 0x18
    d8cc:	e5c73028 	strb	r3, [r7, #40]
    d8d0:	e5872000 	str	r2, [r7]
    d8d4:	e5871004 	str	r1, [r7, #4]
    d8d8:	e5872020 	str	r2, [r7, #32]
    d8dc:	e5871024 	str	r1, [r7, #36]
    d8e0:	e8bd01f0 	pop	{r4, r5, r6, r7, r8}
    d8e4:	e12fff1e 	bx	lr

0000d8e8 <_ZN35Cyg_Mempool_dlmalloc_Implementation12resize_allocEPhiPi>:
    d8e8:	e92d4ff0 	push	{r4, r5, r6, r7, r8, r9, sl, fp, lr}
    d8ec:	e2414008 	sub	r4, r1, #8	; 0x8
    d8f0:	e1a08001 	mov	r8, r1
    d8f4:	e5941004 	ldr	r1, [r4, #4]
    d8f8:	e253c000 	subs	ip, r3, #0	; 0x0
    d8fc:	e3c11001 	bic	r1, r1, #1	; 0x1
    d900:	12413004 	subne	r3, r1, #4	; 0x4
    d904:	e282200b 	add	r2, r2, #11	; 0xb
    d908:	158c3000 	strne	r3, [ip]
    d90c:	e3520016 	cmp	r2, #22	; 0x16
    d910:	d3a0a010 	movle	sl, #16	; 0x10
    d914:	c3c2a007 	bicgt	sl, r2, #7	; 0x7
    d918:	d1a0500a 	movle	r5, sl
    d91c:	c1a0500a 	movgt	r5, sl
    d920:	e24dd00c 	sub	sp, sp, #12	; 0xc
    d924:	e1510005 	cmp	r1, r5
    d928:	e58d0004 	str	r0, [sp, #4]
    d92c:	a1a07001 	movge	r7, r1
    d930:	aa000012 	bge	d980 <_ZN35Cyg_Mempool_dlmalloc_Implementation12resize_allocEPhiPi+0x98>
    d934:	e59d3004 	ldr	r3, [sp, #4]
    d938:	e283b008 	add	fp, r3, #8	; 0x8
    d93c:	e59b6008 	ldr	r6, [fp, #8]
    d940:	e0840001 	add	r0, r4, r1
    d944:	e1560000 	cmp	r6, r0
    d948:	0a00006f 	beq	db0c <_ZN35Cyg_Mempool_dlmalloc_Implementation12resize_allocEPhiPi+0x224>
    d94c:	e5903004 	ldr	r3, [r0, #4]
    d950:	e3c3c001 	bic	ip, r3, #1	; 0x1
    d954:	e080200c 	add	r2, r0, ip
    d958:	e5923004 	ldr	r3, [r2, #4]
    d95c:	e3130001 	tst	r3, #1	; 0x1
    d960:	1a000025 	bne	d9fc <_ZN35Cyg_Mempool_dlmalloc_Implementation12resize_allocEPhiPi+0x114>
    d964:	e08c7001 	add	r7, ip, r1
    d968:	e1570005 	cmp	r7, r5
    d96c:	ba000024 	blt	da04 <_ZN35Cyg_Mempool_dlmalloc_Implementation12resize_allocEPhiPi+0x11c>
    d970:	e2802008 	add	r2, r0, #8	; 0x8
    d974:	e892000c 	ldm	r2, {r2, r3}
    d978:	e5832008 	str	r2, [r3, #8]
    d97c:	e582300c 	str	r3, [r2, #12]
    d980:	e06a0007 	rsb	r0, sl, r7
    d984:	e350000f 	cmp	r0, #15	; 0xf
    d988:	8a00000b 	bhi	d9bc <_ZN35Cyg_Mempool_dlmalloc_Implementation12resize_allocEPhiPi+0xd4>
    d98c:	e5943004 	ldr	r3, [r4, #4]
    d990:	e2033001 	and	r3, r3, #1	; 0x1
    d994:	e1873003 	orr	r3, r7, r3
    d998:	e5843004 	str	r3, [r4, #4]
    d99c:	e0842007 	add	r2, r4, r7
    d9a0:	e5923004 	ldr	r3, [r2, #4]
    d9a4:	e3833001 	orr	r3, r3, #1	; 0x1
    d9a8:	e5823004 	str	r3, [r2, #4]
    d9ac:	e2844008 	add	r4, r4, #8	; 0x8
    d9b0:	e1a00004 	mov	r0, r4
    d9b4:	e28dd00c 	add	sp, sp, #12	; 0xc
    d9b8:	e8bd8ff0 	pop	{r4, r5, r6, r7, r8, r9, sl, fp, pc}
    d9bc:	e5943004 	ldr	r3, [r4, #4]
    d9c0:	e2033001 	and	r3, r3, #1	; 0x1
    d9c4:	e084100a 	add	r1, r4, sl
    d9c8:	e18a3003 	orr	r3, sl, r3
    d9cc:	e3802001 	orr	r2, r0, #1	; 0x1
    d9d0:	e5843004 	str	r3, [r4, #4]
    d9d4:	e5812004 	str	r2, [r1, #4]
    d9d8:	e0810000 	add	r0, r1, r0
    d9dc:	e5903004 	ldr	r3, [r0, #4]
    d9e0:	e3833001 	orr	r3, r3, #1	; 0x1
    d9e4:	e5803004 	str	r3, [r0, #4]
    d9e8:	e2811008 	add	r1, r1, #8	; 0x8
    d9ec:	e59d0004 	ldr	r0, [sp, #4]
    d9f0:	e3a02000 	mov	r2, #0	; 0x0
    d9f4:	ebfffeee 	bl	d5b4 <_ZN35Cyg_Mempool_dlmalloc_Implementation4freeEPhi>
    d9f8:	eaffffeb 	b	d9ac <_ZN35Cyg_Mempool_dlmalloc_Implementation12resize_allocEPhiPi+0xc4>
    d9fc:	e3a00000 	mov	r0, #0	; 0x0
    da00:	e1a0c000 	mov	ip, r0
    da04:	e5943004 	ldr	r3, [r4, #4]
    da08:	e3130001 	tst	r3, #1	; 0x1
    da0c:	1a00003c 	bne	db04 <_ZN35Cyg_Mempool_dlmalloc_Implementation12resize_allocEPhiPi+0x21c>
    da10:	e5183008 	ldr	r3, [r8, #-8]
    da14:	e0639004 	rsb	r9, r3, r4
    da18:	e5992004 	ldr	r2, [r9, #4]
    da1c:	e3500000 	cmp	r0, #0	; 0x0
    da20:	e3c22001 	bic	r2, r2, #1	; 0x1
    da24:	0a000094 	beq	dc7c <_ZN35Cyg_Mempool_dlmalloc_Implementation12resize_allocEPhiPi+0x394>
    da28:	e1500006 	cmp	r0, r6
    da2c:	0a00004d 	beq	db68 <_ZN35Cyg_Mempool_dlmalloc_Implementation12resize_allocEPhiPi+0x280>
    da30:	e0822001 	add	r2, r2, r1
    da34:	e08c7002 	add	r7, ip, r2
    da38:	e1570005 	cmp	r7, r5
    da3c:	b1a07002 	movlt	r7, r2
    da40:	aa000043 	bge	db54 <_ZN35Cyg_Mempool_dlmalloc_Implementation12resize_allocEPhiPi+0x26c>
    da44:	e1570005 	cmp	r7, r5
    da48:	ba00002d 	blt	db04 <_ZN35Cyg_Mempool_dlmalloc_Implementation12resize_allocEPhiPi+0x21c>
    da4c:	e1a00009 	mov	r0, r9
    da50:	e599200c 	ldr	r2, [r9, #12]
    da54:	e5b03008 	ldr	r3, [r0, #8]!
    da58:	e2415004 	sub	r5, r1, #4	; 0x4
    da5c:	e3550024 	cmp	r5, #36	; 0x24
    da60:	e5823008 	str	r3, [r2, #8]
    da64:	e583200c 	str	r2, [r3, #12]
    da68:	8a000079 	bhi	dc54 <_ZN35Cyg_Mempool_dlmalloc_Implementation12resize_allocEPhiPi+0x36c>
    da6c:	e3550013 	cmp	r5, #19	; 0x13
    da70:	e1a04000 	mov	r4, r0
    da74:	e1a0c008 	mov	ip, r8
    da78:	9a000017 	bls	dadc <_ZN35Cyg_Mempool_dlmalloc_Implementation12resize_allocEPhiPi+0x1f4>
    da7c:	e5983000 	ldr	r3, [r8]
    da80:	e5893008 	str	r3, [r9, #8]
    da84:	e5982004 	ldr	r2, [r8, #4]
    da88:	e2883004 	add	r3, r8, #4	; 0x4
    da8c:	e355001b 	cmp	r5, #27	; 0x1b
    da90:	e589200c 	str	r2, [r9, #12]
    da94:	e2894010 	add	r4, r9, #16	; 0x10
    da98:	e283c004 	add	ip, r3, #4	; 0x4
    da9c:	9a00000e 	bls	dadc <_ZN35Cyg_Mempool_dlmalloc_Implementation12resize_allocEPhiPi+0x1f4>
    daa0:	e5933004 	ldr	r3, [r3, #4]
    daa4:	e5893010 	str	r3, [r9, #16]
    daa8:	e59c2004 	ldr	r2, [ip, #4]
    daac:	e28c3004 	add	r3, ip, #4	; 0x4
    dab0:	e3550024 	cmp	r5, #36	; 0x24
    dab4:	e5892014 	str	r2, [r9, #20]
    dab8:	e2894018 	add	r4, r9, #24	; 0x18
    dabc:	e283c004 	add	ip, r3, #4	; 0x4
    dac0:	1a000005 	bne	dadc <_ZN35Cyg_Mempool_dlmalloc_Implementation12resize_allocEPhiPi+0x1f4>
    dac4:	e5933004 	ldr	r3, [r3, #4]
    dac8:	e5893018 	str	r3, [r9, #24]
    dacc:	e59c2004 	ldr	r2, [ip, #4]
    dad0:	e589201c 	str	r2, [r9, #28]
    dad4:	e28cc008 	add	ip, ip, #8	; 0x8
    dad8:	e2894020 	add	r4, r9, #32	; 0x20
    dadc:	e1a0000c 	mov	r0, ip
    dae0:	e4902004 	ldr	r2, [r0], #4
    dae4:	e1a01004 	mov	r1, r4
    dae8:	e4812004 	str	r2, [r1], #4
    daec:	e59c3004 	ldr	r3, [ip, #4]
    daf0:	e5843004 	str	r3, [r4, #4]
    daf4:	e5902004 	ldr	r2, [r0, #4]
    daf8:	e1a04009 	mov	r4, r9
    dafc:	e5812004 	str	r2, [r1, #4]
    db00:	eaffff9e 	b	d980 <_ZN35Cyg_Mempool_dlmalloc_Implementation12resize_allocEPhiPi+0x98>
    db04:	e3a04000 	mov	r4, #0	; 0x0
    db08:	eaffffa8 	b	d9b0 <_ZN35Cyg_Mempool_dlmalloc_Implementation12resize_allocEPhiPi+0xc8>
    db0c:	e5963004 	ldr	r3, [r6, #4]
    db10:	e3c3c001 	bic	ip, r3, #1	; 0x1
    db14:	e08c2001 	add	r2, ip, r1
    db18:	e28a3010 	add	r3, sl, #16	; 0x10
    db1c:	e1520003 	cmp	r2, r3
    db20:	b1a00006 	movlt	r0, r6
    db24:	baffffb6 	blt	da04 <_ZN35Cyg_Mempool_dlmalloc_Implementation12resize_allocEPhiPi+0x11c>
    db28:	e06a3002 	rsb	r3, sl, r2
    db2c:	e084100a 	add	r1, r4, sl
    db30:	e3833001 	orr	r3, r3, #1	; 0x1
    db34:	e5813004 	str	r3, [r1, #4]
    db38:	e5942004 	ldr	r2, [r4, #4]
    db3c:	e2022001 	and	r2, r2, #1	; 0x1
    db40:	e18a2002 	orr	r2, sl, r2
    db44:	e5842004 	str	r2, [r4, #4]
    db48:	e58b1008 	str	r1, [fp, #8]
    db4c:	e2844008 	add	r4, r4, #8	; 0x8
    db50:	eaffff96 	b	d9b0 <_ZN35Cyg_Mempool_dlmalloc_Implementation12resize_allocEPhiPi+0xc8>
    db54:	e2802008 	add	r2, r0, #8	; 0x8
    db58:	e892000c 	ldm	r2, {r2, r3}
    db5c:	e5832008 	str	r2, [r3, #8]
    db60:	e582300c 	str	r3, [r2, #12]
    db64:	eaffffb8 	b	da4c <_ZN35Cyg_Mempool_dlmalloc_Implementation12resize_allocEPhiPi+0x164>
    db68:	e0827001 	add	r7, r2, r1
    db6c:	e08c6007 	add	r6, ip, r7
    db70:	e28a3010 	add	r3, sl, #16	; 0x10
    db74:	e1560003 	cmp	r6, r3
    db78:	baffffb1 	blt	da44 <_ZN35Cyg_Mempool_dlmalloc_Implementation12resize_allocEPhiPi+0x15c>
    db7c:	e1a04009 	mov	r4, r9
    db80:	e599200c 	ldr	r2, [r9, #12]
    db84:	e5b43008 	ldr	r3, [r4, #8]!
    db88:	e2410004 	sub	r0, r1, #4	; 0x4
    db8c:	e3500024 	cmp	r0, #36	; 0x24
    db90:	e5823008 	str	r3, [r2, #8]
    db94:	e583200c 	str	r2, [r3, #12]
    db98:	8a000032 	bhi	dc68 <_ZN35Cyg_Mempool_dlmalloc_Implementation12resize_allocEPhiPi+0x380>
    db9c:	e3500013 	cmp	r0, #19	; 0x13
    dba0:	e1a0c008 	mov	ip, r8
    dba4:	e1a05004 	mov	r5, r4
    dba8:	9a000017 	bls	dc0c <_ZN35Cyg_Mempool_dlmalloc_Implementation12resize_allocEPhiPi+0x324>
    dbac:	e5983000 	ldr	r3, [r8]
    dbb0:	e5893008 	str	r3, [r9, #8]
    dbb4:	e5982004 	ldr	r2, [r8, #4]
    dbb8:	e2883004 	add	r3, r8, #4	; 0x4
    dbbc:	e350001b 	cmp	r0, #27	; 0x1b
    dbc0:	e589200c 	str	r2, [r9, #12]
    dbc4:	e2895010 	add	r5, r9, #16	; 0x10
    dbc8:	e283c004 	add	ip, r3, #4	; 0x4
    dbcc:	9a00000e 	bls	dc0c <_ZN35Cyg_Mempool_dlmalloc_Implementation12resize_allocEPhiPi+0x324>
    dbd0:	e5933004 	ldr	r3, [r3, #4]
    dbd4:	e5893010 	str	r3, [r9, #16]
    dbd8:	e59c2004 	ldr	r2, [ip, #4]
    dbdc:	e28c3004 	add	r3, ip, #4	; 0x4
    dbe0:	e3500024 	cmp	r0, #36	; 0x24
    dbe4:	e5892014 	str	r2, [r9, #20]
    dbe8:	e2895018 	add	r5, r9, #24	; 0x18
    dbec:	e283c004 	add	ip, r3, #4	; 0x4
    dbf0:	1a000005 	bne	dc0c <_ZN35Cyg_Mempool_dlmalloc_Implementation12resize_allocEPhiPi+0x324>
    dbf4:	e5933004 	ldr	r3, [r3, #4]
    dbf8:	e5893018 	str	r3, [r9, #24]
    dbfc:	e59c2004 	ldr	r2, [ip, #4]
    dc00:	e589201c 	str	r2, [r9, #28]
    dc04:	e28cc008 	add	ip, ip, #8	; 0x8
    dc08:	e2895020 	add	r5, r9, #32	; 0x20
    dc0c:	e1a0000c 	mov	r0, ip
    dc10:	e4902004 	ldr	r2, [r0], #4
    dc14:	e1a01005 	mov	r1, r5
    dc18:	e4812004 	str	r2, [r1], #4
    dc1c:	e59c3004 	ldr	r3, [ip, #4]
    dc20:	e5853004 	str	r3, [r5, #4]
    dc24:	e5902004 	ldr	r2, [r0, #4]
    dc28:	e5812004 	str	r2, [r1, #4]
    dc2c:	e06a3006 	rsb	r3, sl, r6
    dc30:	e089100a 	add	r1, r9, sl
    dc34:	e3833001 	orr	r3, r3, #1	; 0x1
    dc38:	e5813004 	str	r3, [r1, #4]
    dc3c:	e5992004 	ldr	r2, [r9, #4]
    dc40:	e2022001 	and	r2, r2, #1	; 0x1
    dc44:	e18a2002 	orr	r2, sl, r2
    dc48:	e5892004 	str	r2, [r9, #4]
    dc4c:	e58b1008 	str	r1, [fp, #8]
    dc50:	eaffff56 	b	d9b0 <_ZN35Cyg_Mempool_dlmalloc_Implementation12resize_allocEPhiPi+0xc8>
    dc54:	e1a01008 	mov	r1, r8
    dc58:	e1a02005 	mov	r2, r5
    dc5c:	eb000029 	bl	dd08 <__memmove>
    dc60:	e1a04009 	mov	r4, r9
    dc64:	eaffff45 	b	d980 <_ZN35Cyg_Mempool_dlmalloc_Implementation12resize_allocEPhiPi+0x98>
    dc68:	e1a02000 	mov	r2, r0
    dc6c:	e1a01008 	mov	r1, r8
    dc70:	e1a00004 	mov	r0, r4
    dc74:	eb000023 	bl	dd08 <__memmove>
    dc78:	eaffffeb 	b	dc2c <_ZN35Cyg_Mempool_dlmalloc_Implementation12resize_allocEPhiPi+0x344>
    dc7c:	e0827001 	add	r7, r2, r1
    dc80:	eaffff6f 	b	da44 <_ZN35Cyg_Mempool_dlmalloc_Implementation12resize_allocEPhiPi+0x15c>

0000dc84 <_exit>:
    dc84:	ebffd779 	bl	3a70 <_ZN10Cyg_Thread4exitEv>
    dc88:	eafffffe 	b	dc88 <_exit+0x4>

0000dc8c <cyg_libc_invoke_atexit_handlers>:
    dc8c:	e92d4030 	push	{r4, r5, lr}
    dc90:	e59f3038 	ldr	r3, [pc, #56]	; dcd0 <cyg_libc_invoke_atexit_handlers+0x44>
    dc94:	e5934000 	ldr	r4, [r3]
    dc98:	e3540000 	cmp	r4, #0	; 0x0
    dc9c:	e24dd004 	sub	sp, sp, #4	; 0x4
    dca0:	0a000008 	beq	dcc8 <cyg_libc_invoke_atexit_handlers+0x3c>
    dca4:	e59f3028 	ldr	r3, [pc, #40]	; dcd4 <cyg_libc_invoke_atexit_handlers+0x48>
    dca8:	e1a02104 	lsl	r2, r4, #2
    dcac:	e0835002 	add	r5, r3, r2
    dcb0:	e2444001 	sub	r4, r4, #1	; 0x1
    dcb4:	e5353004 	ldr	r3, [r5, #-4]!
    dcb8:	e1a0e00f 	mov	lr, pc
    dcbc:	e12fff13 	bx	r3
    dcc0:	e3540000 	cmp	r4, #0	; 0x0
    dcc4:	1afffff9 	bne	dcb0 <cyg_libc_invoke_atexit_handlers+0x24>
    dcc8:	e28dd004 	add	sp, sp, #4	; 0x4
    dccc:	e8bd8030 	pop	{r4, r5, pc}
    dcd0:	40004b48 	.word	0x40004b48
    dcd4:	40004b4c 	.word	0x40004b4c

0000dcd8 <atexit>:
    dcd8:	e59fc020 	ldr	ip, [pc, #32]	; dd00 <atexit+0x28>
    dcdc:	e59c1000 	ldr	r1, [ip]
    dce0:	e351001f 	cmp	r1, #31	; 0x1f
    dce4:	959f3018 	ldrls	r3, [pc, #24]	; dd04 <atexit+0x2c>
    dce8:	92812001 	addls	r2, r1, #1	; 0x1
    dcec:	97830101 	strls	r0, [r3, r1, lsl #2]
    dcf0:	83a00001 	movhi	r0, #1	; 0x1
    dcf4:	958c2000 	strls	r2, [ip]
    dcf8:	93a00000 	movls	r0, #0	; 0x0
    dcfc:	e12fff1e 	bx	lr
    dd00:	40004b48 	.word	0x40004b48
    dd04:	40004b4c 	.word	0x40004b4c

0000dd08 <__memmove>:
    dd08:	e1500001 	cmp	r0, r1
    dd0c:	e52d4004 	push	{r4}		; (str r4, [sp, #-4]!)
    dd10:	e1a0c002 	mov	ip, r2
    dd14:	9a00000f 	bls	dd58 <__memmove+0x50>
    dd18:	e0814002 	add	r4, r1, r2
    dd1c:	e1500004 	cmp	r0, r4
    dd20:	2a00000c 	bcs	dd58 <__memmove+0x50>
    dd24:	e3520000 	cmp	r2, #0	; 0x0
    dd28:	0a000008 	beq	dd50 <__memmove+0x48>
    dd2c:	e2623000 	rsb	r3, r2, #0	; 0x0
    dd30:	e0802002 	add	r2, r0, r2
    dd34:	e0821003 	add	r1, r2, r3
    dd38:	e0844003 	add	r4, r4, r3
    dd3c:	e24c2001 	sub	r2, ip, #1	; 0x1
    dd40:	e7d43002 	ldrb	r3, [r4, r2]
    dd44:	e7c13002 	strb	r3, [r1, r2]
    dd48:	e2522001 	subs	r2, r2, #1	; 0x1
    dd4c:	2afffffb 	bcs	dd40 <__memmove+0x38>
    dd50:	e8bd0010 	pop	{r4}
    dd54:	e12fff1e 	bx	lr
    dd58:	e35c0000 	cmp	ip, #0	; 0x0
    dd5c:	13a02000 	movne	r2, #0	; 0x0
    dd60:	0afffffa 	beq	dd50 <__memmove+0x48>
    dd64:	e7d13002 	ldrb	r3, [r1, r2]
    dd68:	e7c03002 	strb	r3, [r0, r2]
    dd6c:	e2822001 	add	r2, r2, #1	; 0x1
    dd70:	e15c0002 	cmp	ip, r2
    dd74:	1afffffa 	bne	dd64 <__memmove+0x5c>
    dd78:	eafffff4 	b	dd50 <__memmove+0x48>

0000dd7c <__aeabi_idiv>:
    dd7c:	e3510000 	cmp	r1, #0	; 0x0
    dd80:	e020c001 	eor	ip, r0, r1
    dd84:	0a000042 	beq	de94 <__aeabi_idiv+0x118>
    dd88:	42611000 	rsbmi	r1, r1, #0	; 0x0
    dd8c:	e2512001 	subs	r2, r1, #1	; 0x1
    dd90:	0a000027 	beq	de34 <__aeabi_idiv+0xb8>
    dd94:	e1b03000 	movs	r3, r0
    dd98:	42603000 	rsbmi	r3, r0, #0	; 0x0
    dd9c:	e1530001 	cmp	r3, r1
    dda0:	9a000026 	bls	de40 <__aeabi_idiv+0xc4>
    dda4:	e1110002 	tst	r1, r2
    dda8:	0a000028 	beq	de50 <__aeabi_idiv+0xd4>
    ddac:	e311020e 	tst	r1, #-536870912	; 0xe0000000
    ddb0:	01a01181 	lsleq	r1, r1, #3
    ddb4:	03a02008 	moveq	r2, #8	; 0x8
    ddb8:	13a02001 	movne	r2, #1	; 0x1
    ddbc:	e3510201 	cmp	r1, #268435456	; 0x10000000
    ddc0:	31510003 	cmpcc	r1, r3
    ddc4:	31a01201 	lslcc	r1, r1, #4
    ddc8:	31a02202 	lslcc	r2, r2, #4
    ddcc:	3afffffa 	bcc	ddbc <__aeabi_idiv+0x40>
    ddd0:	e3510102 	cmp	r1, #-2147483648	; 0x80000000
    ddd4:	31510003 	cmpcc	r1, r3
    ddd8:	31a01081 	lslcc	r1, r1, #1
    dddc:	31a02082 	lslcc	r2, r2, #1
    dde0:	3afffffa 	bcc	ddd0 <__aeabi_idiv+0x54>
    dde4:	e3a00000 	mov	r0, #0	; 0x0
    dde8:	e1530001 	cmp	r3, r1
    ddec:	20433001 	subcs	r3, r3, r1
    ddf0:	21800002 	orrcs	r0, r0, r2
    ddf4:	e15300a1 	cmp	r3, r1, lsr #1
    ddf8:	204330a1 	subcs	r3, r3, r1, lsr #1
    ddfc:	218000a2 	orrcs	r0, r0, r2, lsr #1
    de00:	e1530121 	cmp	r3, r1, lsr #2
    de04:	20433121 	subcs	r3, r3, r1, lsr #2
    de08:	21800122 	orrcs	r0, r0, r2, lsr #2
    de0c:	e15301a1 	cmp	r3, r1, lsr #3
    de10:	204331a1 	subcs	r3, r3, r1, lsr #3
    de14:	218001a2 	orrcs	r0, r0, r2, lsr #3
    de18:	e3530000 	cmp	r3, #0	; 0x0
    de1c:	11b02222 	lsrsne	r2, r2, #4
    de20:	11a01221 	lsrne	r1, r1, #4
    de24:	1affffef 	bne	dde8 <__aeabi_idiv+0x6c>
    de28:	e35c0000 	cmp	ip, #0	; 0x0
    de2c:	42600000 	rsbmi	r0, r0, #0	; 0x0
    de30:	e12fff1e 	bx	lr
    de34:	e13c0000 	teq	ip, r0
    de38:	42600000 	rsbmi	r0, r0, #0	; 0x0
    de3c:	e12fff1e 	bx	lr
    de40:	33a00000 	movcc	r0, #0	; 0x0
    de44:	01a00fcc 	asreq	r0, ip, #31
    de48:	03800001 	orreq	r0, r0, #1	; 0x1
    de4c:	e12fff1e 	bx	lr
    de50:	e3510801 	cmp	r1, #65536	; 0x10000
    de54:	21a01821 	lsrcs	r1, r1, #16
    de58:	23a02010 	movcs	r2, #16	; 0x10
    de5c:	33a02000 	movcc	r2, #0	; 0x0
    de60:	e3510c01 	cmp	r1, #256	; 0x100
    de64:	21a01421 	lsrcs	r1, r1, #8
    de68:	22822008 	addcs	r2, r2, #8	; 0x8
    de6c:	e3510010 	cmp	r1, #16	; 0x10
    de70:	21a01221 	lsrcs	r1, r1, #4
    de74:	22822004 	addcs	r2, r2, #4	; 0x4
    de78:	e3510004 	cmp	r1, #4	; 0x4
    de7c:	82822003 	addhi	r2, r2, #3	; 0x3
    de80:	908220a1 	addls	r2, r2, r1, lsr #1
    de84:	e35c0000 	cmp	ip, #0	; 0x0
    de88:	e1a00233 	lsr	r0, r3, r2
    de8c:	42600000 	rsbmi	r0, r0, #0	; 0x0
    de90:	e12fff1e 	bx	lr
    de94:	e52de008 	str	lr, [sp, #-8]!
    de98:	eb000008 	bl	dec0 <__aeabi_idiv0>
    de9c:	e3a00000 	mov	r0, #0	; 0x0
    dea0:	e49de008 	ldr	lr, [sp], #8
    dea4:	e12fff1e 	bx	lr

0000dea8 <__aeabi_idivmod>:
    dea8:	e92d4003 	push	{r0, r1, lr}
    deac:	ebffffb2 	bl	dd7c <__aeabi_idiv>
    deb0:	e8bd4006 	pop	{r1, r2, lr}
    deb4:	e0030092 	mul	r3, r2, r0
    deb8:	e0411003 	sub	r1, r1, r3
    debc:	e12fff1e 	bx	lr

0000dec0 <__aeabi_idiv0>:
    dec0:	e12fff1e 	bx	lr

0000dec4 <__aeabi_drsub>:
    dec4:	e2211102 	eor	r1, r1, #-2147483648	; 0x80000000
    dec8:	ea000000 	b	ded0 <__adddf3>

0000decc <__aeabi_dsub>:
    decc:	e2233102 	eor	r3, r3, #-2147483648	; 0x80000000

0000ded0 <__adddf3>:
    ded0:	e92d4030 	push	{r4, r5, lr}
    ded4:	e1a04081 	lsl	r4, r1, #1
    ded8:	e1a05083 	lsl	r5, r3, #1
    dedc:	e1340005 	teq	r4, r5
    dee0:	01300002 	teqeq	r0, r2
    dee4:	1194c000 	orrsne	ip, r4, r0
    dee8:	1195c002 	orrsne	ip, r5, r2
    deec:	11f0cac4 	mvnsne	ip, r4, asr #21
    def0:	11f0cac5 	mvnsne	ip, r5, asr #21
    def4:	0a00008c 	beq	e12c <__adddf3+0x25c>
    def8:	e1a04aa4 	lsr	r4, r4, #21
    defc:	e0745aa5 	rsbs	r5, r4, r5, lsr #21
    df00:	b2655000 	rsblt	r5, r5, #0	; 0x0
    df04:	da000006 	ble	df24 <__adddf3+0x54>
    df08:	e0844005 	add	r4, r4, r5
    df0c:	e0202002 	eor	r2, r0, r2
    df10:	e0213003 	eor	r3, r1, r3
    df14:	e0220000 	eor	r0, r2, r0
    df18:	e0231001 	eor	r1, r3, r1
    df1c:	e0202002 	eor	r2, r0, r2
    df20:	e0213003 	eor	r3, r1, r3
    df24:	e3550036 	cmp	r5, #54	; 0x36
    df28:	88bd4030 	pophi	{r4, r5, lr}
    df2c:	812fff1e 	bxhi	lr
    df30:	e3110102 	tst	r1, #-2147483648	; 0x80000000
    df34:	e1a01601 	lsl	r1, r1, #12
    df38:	e3a0c601 	mov	ip, #1048576	; 0x100000
    df3c:	e18c1621 	orr	r1, ip, r1, lsr #12
    df40:	0a000001 	beq	df4c <__adddf3+0x7c>
    df44:	e2700000 	rsbs	r0, r0, #0	; 0x0
    df48:	e2e11000 	rsc	r1, r1, #0	; 0x0
    df4c:	e3130102 	tst	r3, #-2147483648	; 0x80000000
    df50:	e1a03603 	lsl	r3, r3, #12
    df54:	e18c3623 	orr	r3, ip, r3, lsr #12
    df58:	0a000001 	beq	df64 <__adddf3+0x94>
    df5c:	e2722000 	rsbs	r2, r2, #0	; 0x0
    df60:	e2e33000 	rsc	r3, r3, #0	; 0x0
    df64:	e1340005 	teq	r4, r5
    df68:	0a000069 	beq	e114 <__adddf3+0x244>
    df6c:	e2444001 	sub	r4, r4, #1	; 0x1
    df70:	e275e020 	rsbs	lr, r5, #32	; 0x20
    df74:	ba000005 	blt	df90 <__adddf3+0xc0>
    df78:	e1a0ce12 	lsl	ip, r2, lr
    df7c:	e0900532 	adds	r0, r0, r2, lsr r5
    df80:	e2a11000 	adc	r1, r1, #0	; 0x0
    df84:	e0900e13 	adds	r0, r0, r3, lsl lr
    df88:	e0b11553 	adcs	r1, r1, r3, asr r5
    df8c:	ea000006 	b	dfac <__adddf3+0xdc>
    df90:	e2455020 	sub	r5, r5, #32	; 0x20
    df94:	e28ee020 	add	lr, lr, #32	; 0x20
    df98:	e3520001 	cmp	r2, #1	; 0x1
    df9c:	e1a0ce13 	lsl	ip, r3, lr
    dfa0:	238cc002 	orrcs	ip, ip, #2	; 0x2
    dfa4:	e0900553 	adds	r0, r0, r3, asr r5
    dfa8:	e0b11fc3 	adcs	r1, r1, r3, asr #31
    dfac:	e2015102 	and	r5, r1, #-2147483648	; 0x80000000
    dfb0:	5a000002 	bpl	dfc0 <__adddf3+0xf0>
    dfb4:	e27cc000 	rsbs	ip, ip, #0	; 0x0
    dfb8:	e2f00000 	rscs	r0, r0, #0	; 0x0
    dfbc:	e2e11000 	rsc	r1, r1, #0	; 0x0
    dfc0:	e3510601 	cmp	r1, #1048576	; 0x100000
    dfc4:	3a00000f 	bcc	e008 <__adddf3+0x138>
    dfc8:	e3510602 	cmp	r1, #2097152	; 0x200000
    dfcc:	3a000006 	bcc	dfec <__adddf3+0x11c>
    dfd0:	e1b010a1 	lsrs	r1, r1, #1
    dfd4:	e1b00060 	rrxs	r0, r0
    dfd8:	e1a0c06c 	rrx	ip, ip
    dfdc:	e2844001 	add	r4, r4, #1	; 0x1
    dfe0:	e1a02a84 	lsl	r2, r4, #21
    dfe4:	e3720501 	cmn	r2, #4194304	; 0x400000
    dfe8:	2a00006b 	bcs	e19c <__adddf3+0x2cc>
    dfec:	e35c0102 	cmp	ip, #-2147483648	; 0x80000000
    dff0:	01b0c0a0 	lsrseq	ip, r0, #1
    dff4:	e2b00000 	adcs	r0, r0, #0	; 0x0
    dff8:	e0a11a04 	adc	r1, r1, r4, lsl #20
    dffc:	e1811005 	orr	r1, r1, r5
    e000:	e8bd4030 	pop	{r4, r5, lr}
    e004:	e12fff1e 	bx	lr
    e008:	e1b0c08c 	lsls	ip, ip, #1
    e00c:	e0b00000 	adcs	r0, r0, r0
    e010:	e0a11001 	adc	r1, r1, r1
    e014:	e3110601 	tst	r1, #1048576	; 0x100000
    e018:	e2444001 	sub	r4, r4, #1	; 0x1
    e01c:	1afffff2 	bne	dfec <__adddf3+0x11c>
    e020:	e3310000 	teq	r1, #0	; 0x0
    e024:	13a03014 	movne	r3, #20	; 0x14
    e028:	03a03034 	moveq	r3, #52	; 0x34
    e02c:	01a01000 	moveq	r1, r0
    e030:	03a00000 	moveq	r0, #0	; 0x0
    e034:	e1a02001 	mov	r2, r1
    e038:	e3520801 	cmp	r2, #65536	; 0x10000
    e03c:	21a02822 	lsrcs	r2, r2, #16
    e040:	22433010 	subcs	r3, r3, #16	; 0x10
    e044:	e3520c01 	cmp	r2, #256	; 0x100
    e048:	21a02422 	lsrcs	r2, r2, #8
    e04c:	22433008 	subcs	r3, r3, #8	; 0x8
    e050:	e3520010 	cmp	r2, #16	; 0x10
    e054:	21a02222 	lsrcs	r2, r2, #4
    e058:	22433004 	subcs	r3, r3, #4	; 0x4
    e05c:	e3520004 	cmp	r2, #4	; 0x4
    e060:	22433002 	subcs	r3, r3, #2	; 0x2
    e064:	304330a2 	subcc	r3, r3, r2, lsr #1
    e068:	e04331a2 	sub	r3, r3, r2, lsr #3
    e06c:	e2532020 	subs	r2, r3, #32	; 0x20
    e070:	aa000007 	bge	e094 <__adddf3+0x1c4>
    e074:	e292200c 	adds	r2, r2, #12	; 0xc
    e078:	da000004 	ble	e090 <__adddf3+0x1c0>
    e07c:	e282c014 	add	ip, r2, #20	; 0x14
    e080:	e262200c 	rsb	r2, r2, #12	; 0xc
    e084:	e1a00c11 	lsl	r0, r1, ip
    e088:	e1a01231 	lsr	r1, r1, r2
    e08c:	ea000004 	b	e0a4 <__adddf3+0x1d4>
    e090:	e2822014 	add	r2, r2, #20	; 0x14
    e094:	d262c020 	rsble	ip, r2, #32	; 0x20
    e098:	e1a01211 	lsl	r1, r1, r2
    e09c:	d1811c30 	orrle	r1, r1, r0, lsr ip
    e0a0:	d1a00210 	lslle	r0, r0, r2
    e0a4:	e0544003 	subs	r4, r4, r3
    e0a8:	a0811a04 	addge	r1, r1, r4, lsl #20
    e0ac:	a1811005 	orrge	r1, r1, r5
    e0b0:	a8bd4030 	popge	{r4, r5, lr}
    e0b4:	a12fff1e 	bxge	lr
    e0b8:	e1e04004 	mvn	r4, r4
    e0bc:	e254401f 	subs	r4, r4, #31	; 0x1f
    e0c0:	aa00000f 	bge	e104 <__adddf3+0x234>
    e0c4:	e294400c 	adds	r4, r4, #12	; 0xc
    e0c8:	ca000006 	bgt	e0e8 <__adddf3+0x218>
    e0cc:	e2844014 	add	r4, r4, #20	; 0x14
    e0d0:	e2642020 	rsb	r2, r4, #32	; 0x20
    e0d4:	e1a00430 	lsr	r0, r0, r4
    e0d8:	e1800211 	orr	r0, r0, r1, lsl r2
    e0dc:	e1851431 	orr	r1, r5, r1, lsr r4
    e0e0:	e8bd4030 	pop	{r4, r5, lr}
    e0e4:	e12fff1e 	bx	lr
    e0e8:	e264400c 	rsb	r4, r4, #12	; 0xc
    e0ec:	e2642020 	rsb	r2, r4, #32	; 0x20
    e0f0:	e1a00230 	lsr	r0, r0, r2
    e0f4:	e1800411 	orr	r0, r0, r1, lsl r4
    e0f8:	e1a01005 	mov	r1, r5
    e0fc:	e8bd4030 	pop	{r4, r5, lr}
    e100:	e12fff1e 	bx	lr
    e104:	e1a00431 	lsr	r0, r1, r4
    e108:	e1a01005 	mov	r1, r5
    e10c:	e8bd4030 	pop	{r4, r5, lr}
    e110:	e12fff1e 	bx	lr
    e114:	e3340000 	teq	r4, #0	; 0x0
    e118:	e2233601 	eor	r3, r3, #1048576	; 0x100000
    e11c:	02211601 	eoreq	r1, r1, #1048576	; 0x100000
    e120:	02844001 	addeq	r4, r4, #1	; 0x1
    e124:	12455001 	subne	r5, r5, #1	; 0x1
    e128:	eaffff8f 	b	df6c <__adddf3+0x9c>
    e12c:	e1f0cac4 	mvns	ip, r4, asr #21
    e130:	11f0cac5 	mvnsne	ip, r5, asr #21
    e134:	0a00001d 	beq	e1b0 <__adddf3+0x2e0>
    e138:	e1340005 	teq	r4, r5
    e13c:	01300002 	teqeq	r0, r2
    e140:	0a000004 	beq	e158 <__adddf3+0x288>
    e144:	e194c000 	orrs	ip, r4, r0
    e148:	01a01003 	moveq	r1, r3
    e14c:	01a00002 	moveq	r0, r2
    e150:	e8bd4030 	pop	{r4, r5, lr}
    e154:	e12fff1e 	bx	lr
    e158:	e1310003 	teq	r1, r3
    e15c:	13a01000 	movne	r1, #0	; 0x0
    e160:	13a00000 	movne	r0, #0	; 0x0
    e164:	18bd4030 	popne	{r4, r5, lr}
    e168:	112fff1e 	bxne	lr
    e16c:	e1b0caa4 	lsrs	ip, r4, #21
    e170:	1a000004 	bne	e188 <__adddf3+0x2b8>
    e174:	e1b00080 	lsls	r0, r0, #1
    e178:	e0b11001 	adcs	r1, r1, r1
    e17c:	23811102 	orrcs	r1, r1, #-2147483648	; 0x80000000
    e180:	e8bd4030 	pop	{r4, r5, lr}
    e184:	e12fff1e 	bx	lr
    e188:	e2944501 	adds	r4, r4, #4194304	; 0x400000
    e18c:	32811601 	addcc	r1, r1, #1048576	; 0x100000
    e190:	38bd4030 	popcc	{r4, r5, lr}
    e194:	312fff1e 	bxcc	lr
    e198:	e2015102 	and	r5, r1, #-2147483648	; 0x80000000
    e19c:	e385147f 	orr	r1, r5, #2130706432	; 0x7f000000
    e1a0:	e381160f 	orr	r1, r1, #15728640	; 0xf00000
    e1a4:	e3a00000 	mov	r0, #0	; 0x0
    e1a8:	e8bd4030 	pop	{r4, r5, lr}
    e1ac:	e12fff1e 	bx	lr
    e1b0:	e1f0cac4 	mvns	ip, r4, asr #21
    e1b4:	11a01003 	movne	r1, r3
    e1b8:	11a00002 	movne	r0, r2
    e1bc:	01f0cac5 	mvnseq	ip, r5, asr #21
    e1c0:	11a03001 	movne	r3, r1
    e1c4:	11a02000 	movne	r2, r0
    e1c8:	e1904601 	orrs	r4, r0, r1, lsl #12
    e1cc:	01925603 	orrseq	r5, r2, r3, lsl #12
    e1d0:	01310003 	teqeq	r1, r3
    e1d4:	13811702 	orrne	r1, r1, #524288	; 0x80000
    e1d8:	e8bd4030 	pop	{r4, r5, lr}
    e1dc:	e12fff1e 	bx	lr

0000e1e0 <__aeabi_ui2d>:
    e1e0:	e3300000 	teq	r0, #0	; 0x0
    e1e4:	03a01000 	moveq	r1, #0	; 0x0
    e1e8:	012fff1e 	bxeq	lr
    e1ec:	e92d4030 	push	{r4, r5, lr}
    e1f0:	e3a04b01 	mov	r4, #1024	; 0x400
    e1f4:	e2844032 	add	r4, r4, #50	; 0x32
    e1f8:	e3a05000 	mov	r5, #0	; 0x0
    e1fc:	e3a01000 	mov	r1, #0	; 0x0
    e200:	eaffff86 	b	e020 <__adddf3+0x150>

0000e204 <__aeabi_i2d>:
    e204:	e3300000 	teq	r0, #0	; 0x0
    e208:	03a01000 	moveq	r1, #0	; 0x0
    e20c:	012fff1e 	bxeq	lr
    e210:	e92d4030 	push	{r4, r5, lr}
    e214:	e3a04b01 	mov	r4, #1024	; 0x400
    e218:	e2844032 	add	r4, r4, #50	; 0x32
    e21c:	e2105102 	ands	r5, r0, #-2147483648	; 0x80000000
    e220:	42600000 	rsbmi	r0, r0, #0	; 0x0
    e224:	e3a01000 	mov	r1, #0	; 0x0
    e228:	eaffff7c 	b	e020 <__adddf3+0x150>

0000e22c <__aeabi_f2d>:
    e22c:	e1b02080 	lsls	r2, r0, #1
    e230:	e1a011c2 	asr	r1, r2, #3
    e234:	e1a01061 	rrx	r1, r1
    e238:	e1a00e02 	lsl	r0, r2, #28
    e23c:	121234ff 	andsne	r3, r2, #-16777216	; 0xff000000
    e240:	133304ff 	teqne	r3, #-16777216	; 0xff000000
    e244:	1221130e 	eorne	r1, r1, #939524096	; 0x38000000
    e248:	112fff1e 	bxne	lr
    e24c:	e3320000 	teq	r2, #0	; 0x0
    e250:	133304ff 	teqne	r3, #-16777216	; 0xff000000
    e254:	012fff1e 	bxeq	lr
    e258:	e92d4030 	push	{r4, r5, lr}
    e25c:	e3a04d0e 	mov	r4, #896	; 0x380
    e260:	e2015102 	and	r5, r1, #-2147483648	; 0x80000000
    e264:	e3c11102 	bic	r1, r1, #-2147483648	; 0x80000000
    e268:	eaffff6c 	b	e020 <__adddf3+0x150>

0000e26c <__aeabi_ul2d>:
    e26c:	e1902001 	orrs	r2, r0, r1
    e270:	012fff1e 	bxeq	lr
    e274:	e92d4030 	push	{r4, r5, lr}
    e278:	e3a05000 	mov	r5, #0	; 0x0
    e27c:	ea000006 	b	e29c <__aeabi_l2d+0x1c>

0000e280 <__aeabi_l2d>:
    e280:	e1902001 	orrs	r2, r0, r1
    e284:	012fff1e 	bxeq	lr
    e288:	e92d4030 	push	{r4, r5, lr}
    e28c:	e2115102 	ands	r5, r1, #-2147483648	; 0x80000000
    e290:	5a000001 	bpl	e29c <__aeabi_l2d+0x1c>
    e294:	e2700000 	rsbs	r0, r0, #0	; 0x0
    e298:	e2e11000 	rsc	r1, r1, #0	; 0x0
    e29c:	e3a04b01 	mov	r4, #1024	; 0x400
    e2a0:	e2844032 	add	r4, r4, #50	; 0x32
    e2a4:	e1b0cb21 	lsrs	ip, r1, #22
    e2a8:	0affff44 	beq	dfc0 <__adddf3+0xf0>
    e2ac:	e3a02003 	mov	r2, #3	; 0x3
    e2b0:	e1b0c1ac 	lsrs	ip, ip, #3
    e2b4:	12822003 	addne	r2, r2, #3	; 0x3
    e2b8:	e1b0c1ac 	lsrs	ip, ip, #3
    e2bc:	12822003 	addne	r2, r2, #3	; 0x3
    e2c0:	e08221ac 	add	r2, r2, ip, lsr #3
    e2c4:	e2623020 	rsb	r3, r2, #32	; 0x20
    e2c8:	e1a0c310 	lsl	ip, r0, r3
    e2cc:	e1a00230 	lsr	r0, r0, r2
    e2d0:	e1800311 	orr	r0, r0, r1, lsl r3
    e2d4:	e1a01231 	lsr	r1, r1, r2
    e2d8:	e0844002 	add	r4, r4, r2
    e2dc:	eaffff37 	b	dfc0 <__adddf3+0xf0>

0000e2e0 <__aeabi_dmul>:
    e2e0:	e92d4070 	push	{r4, r5, r6, lr}
    e2e4:	e3a0c0ff 	mov	ip, #255	; 0xff
    e2e8:	e38ccc07 	orr	ip, ip, #1792	; 0x700
    e2ec:	e01c4a21 	ands	r4, ip, r1, lsr #20
    e2f0:	101c5a23 	andsne	r5, ip, r3, lsr #20
    e2f4:	1134000c 	teqne	r4, ip
    e2f8:	1135000c 	teqne	r5, ip
    e2fc:	0b000075 	bleq	e4d8 <__aeabi_dmul+0x1f8>
    e300:	e0844005 	add	r4, r4, r5
    e304:	e0216003 	eor	r6, r1, r3
    e308:	e1c11a8c 	bic	r1, r1, ip, lsl #21
    e30c:	e1c33a8c 	bic	r3, r3, ip, lsl #21
    e310:	e1905601 	orrs	r5, r0, r1, lsl #12
    e314:	11925603 	orrsne	r5, r2, r3, lsl #12
    e318:	e3811601 	orr	r1, r1, #1048576	; 0x100000
    e31c:	e3833601 	orr	r3, r3, #1048576	; 0x100000
    e320:	0a00001d 	beq	e39c <__aeabi_dmul+0xbc>
    e324:	e08ec290 	umull	ip, lr, r0, r2
    e328:	e3a05000 	mov	r5, #0	; 0x0
    e32c:	e0a5e291 	umlal	lr, r5, r1, r2
    e330:	e2062102 	and	r2, r6, #-2147483648	; 0x80000000
    e334:	e0a5e390 	umlal	lr, r5, r0, r3
    e338:	e3a06000 	mov	r6, #0	; 0x0
    e33c:	e0a65391 	umlal	r5, r6, r1, r3
    e340:	e33c0000 	teq	ip, #0	; 0x0
    e344:	138ee001 	orrne	lr, lr, #1	; 0x1
    e348:	e24440ff 	sub	r4, r4, #255	; 0xff
    e34c:	e3560c02 	cmp	r6, #512	; 0x200
    e350:	e2c44c03 	sbc	r4, r4, #768	; 0x300
    e354:	2a000002 	bcs	e364 <__aeabi_dmul+0x84>
    e358:	e1b0e08e 	lsls	lr, lr, #1
    e35c:	e0b55005 	adcs	r5, r5, r5
    e360:	e0a66006 	adc	r6, r6, r6
    e364:	e1821586 	orr	r1, r2, r6, lsl #11
    e368:	e1811aa5 	orr	r1, r1, r5, lsr #21
    e36c:	e1a00585 	lsl	r0, r5, #11
    e370:	e1800aae 	orr	r0, r0, lr, lsr #21
    e374:	e1a0e58e 	lsl	lr, lr, #11
    e378:	e254c0fd 	subs	ip, r4, #253	; 0xfd
    e37c:	835c0c07 	cmphi	ip, #1792	; 0x700
    e380:	8a000011 	bhi	e3cc <__aeabi_dmul+0xec>
    e384:	e35e0102 	cmp	lr, #-2147483648	; 0x80000000
    e388:	01b0e0a0 	lsrseq	lr, r0, #1
    e38c:	e2b00000 	adcs	r0, r0, #0	; 0x0
    e390:	e0a11a04 	adc	r1, r1, r4, lsl #20
    e394:	e8bd4070 	pop	{r4, r5, r6, lr}
    e398:	e12fff1e 	bx	lr
    e39c:	e2066102 	and	r6, r6, #-2147483648	; 0x80000000
    e3a0:	e1861001 	orr	r1, r6, r1
    e3a4:	e1800002 	orr	r0, r0, r2
    e3a8:	e0211003 	eor	r1, r1, r3
    e3ac:	e05440ac 	subs	r4, r4, ip, lsr #1
    e3b0:	c074500c 	rsbsgt	r5, r4, ip
    e3b4:	c1811a04 	orrgt	r1, r1, r4, lsl #20
    e3b8:	c8bd4070 	popgt	{r4, r5, r6, lr}
    e3bc:	c12fff1e 	bxgt	lr
    e3c0:	e3811601 	orr	r1, r1, #1048576	; 0x100000
    e3c4:	e3a0e000 	mov	lr, #0	; 0x0
    e3c8:	e2544001 	subs	r4, r4, #1	; 0x1
    e3cc:	ca00005d 	bgt	e548 <__aeabi_dmul+0x268>
    e3d0:	e3740036 	cmn	r4, #54	; 0x36
    e3d4:	d3a00000 	movle	r0, #0	; 0x0
    e3d8:	d2011102 	andle	r1, r1, #-2147483648	; 0x80000000
    e3dc:	d8bd4070 	pople	{r4, r5, r6, lr}
    e3e0:	d12fff1e 	bxle	lr
    e3e4:	e2644000 	rsb	r4, r4, #0	; 0x0
    e3e8:	e2544020 	subs	r4, r4, #32	; 0x20
    e3ec:	aa00001a 	bge	e45c <__aeabi_dmul+0x17c>
    e3f0:	e294400c 	adds	r4, r4, #12	; 0xc
    e3f4:	ca00000c 	bgt	e42c <__aeabi_dmul+0x14c>
    e3f8:	e2844014 	add	r4, r4, #20	; 0x14
    e3fc:	e2645020 	rsb	r5, r4, #32	; 0x20
    e400:	e1a03510 	lsl	r3, r0, r5
    e404:	e1a00430 	lsr	r0, r0, r4
    e408:	e1800511 	orr	r0, r0, r1, lsl r5
    e40c:	e2012102 	and	r2, r1, #-2147483648	; 0x80000000
    e410:	e3c11102 	bic	r1, r1, #-2147483648	; 0x80000000
    e414:	e0900fa3 	adds	r0, r0, r3, lsr #31
    e418:	e0a21431 	adc	r1, r2, r1, lsr r4
    e41c:	e19ee083 	orrs	lr, lr, r3, lsl #1
    e420:	01c00fa3 	biceq	r0, r0, r3, lsr #31
    e424:	e8bd4070 	pop	{r4, r5, r6, lr}
    e428:	e12fff1e 	bx	lr
    e42c:	e264400c 	rsb	r4, r4, #12	; 0xc
    e430:	e2645020 	rsb	r5, r4, #32	; 0x20
    e434:	e1a03410 	lsl	r3, r0, r4
    e438:	e1a00530 	lsr	r0, r0, r5
    e43c:	e1800411 	orr	r0, r0, r1, lsl r4
    e440:	e2011102 	and	r1, r1, #-2147483648	; 0x80000000
    e444:	e0900fa3 	adds	r0, r0, r3, lsr #31
    e448:	e2a11000 	adc	r1, r1, #0	; 0x0
    e44c:	e19ee083 	orrs	lr, lr, r3, lsl #1
    e450:	01c00fa3 	biceq	r0, r0, r3, lsr #31
    e454:	e8bd4070 	pop	{r4, r5, r6, lr}
    e458:	e12fff1e 	bx	lr
    e45c:	e2645020 	rsb	r5, r4, #32	; 0x20
    e460:	e18ee510 	orr	lr, lr, r0, lsl r5
    e464:	e1a03430 	lsr	r3, r0, r4
    e468:	e1833511 	orr	r3, r3, r1, lsl r5
    e46c:	e1a00431 	lsr	r0, r1, r4
    e470:	e2011102 	and	r1, r1, #-2147483648	; 0x80000000
    e474:	e1c00431 	bic	r0, r0, r1, lsr r4
    e478:	e0800fa3 	add	r0, r0, r3, lsr #31
    e47c:	e19ee083 	orrs	lr, lr, r3, lsl #1
    e480:	01c00fa3 	biceq	r0, r0, r3, lsr #31
    e484:	e8bd4070 	pop	{r4, r5, r6, lr}
    e488:	e12fff1e 	bx	lr
    e48c:	e3340000 	teq	r4, #0	; 0x0
    e490:	1a000008 	bne	e4b8 <__aeabi_dmul+0x1d8>
    e494:	e2016102 	and	r6, r1, #-2147483648	; 0x80000000
    e498:	e1b00080 	lsls	r0, r0, #1
    e49c:	e0a11001 	adc	r1, r1, r1
    e4a0:	e3110601 	tst	r1, #1048576	; 0x100000
    e4a4:	02444001 	subeq	r4, r4, #1	; 0x1
    e4a8:	0afffffa 	beq	e498 <__aeabi_dmul+0x1b8>
    e4ac:	e1811006 	orr	r1, r1, r6
    e4b0:	e3350000 	teq	r5, #0	; 0x0
    e4b4:	11a0f00e 	movne	pc, lr
    e4b8:	e2036102 	and	r6, r3, #-2147483648	; 0x80000000
    e4bc:	e1b02082 	lsls	r2, r2, #1
    e4c0:	e0a33003 	adc	r3, r3, r3
    e4c4:	e3130601 	tst	r3, #1048576	; 0x100000
    e4c8:	02455001 	subeq	r5, r5, #1	; 0x1
    e4cc:	0afffffa 	beq	e4bc <__aeabi_dmul+0x1dc>
    e4d0:	e1833006 	orr	r3, r3, r6
    e4d4:	e1a0f00e 	mov	pc, lr
    e4d8:	e134000c 	teq	r4, ip
    e4dc:	e00c5a23 	and	r5, ip, r3, lsr #20
    e4e0:	1135000c 	teqne	r5, ip
    e4e4:	0a000007 	beq	e508 <__aeabi_dmul+0x228>
    e4e8:	e1906081 	orrs	r6, r0, r1, lsl #1
    e4ec:	11926083 	orrsne	r6, r2, r3, lsl #1
    e4f0:	1affffe5 	bne	e48c <__aeabi_dmul+0x1ac>
    e4f4:	e0211003 	eor	r1, r1, r3
    e4f8:	e2011102 	and	r1, r1, #-2147483648	; 0x80000000
    e4fc:	e3a00000 	mov	r0, #0	; 0x0
    e500:	e8bd4070 	pop	{r4, r5, r6, lr}
    e504:	e12fff1e 	bx	lr
    e508:	e1906081 	orrs	r6, r0, r1, lsl #1
    e50c:	01a00002 	moveq	r0, r2
    e510:	01a01003 	moveq	r1, r3
    e514:	11926083 	orrsne	r6, r2, r3, lsl #1
    e518:	0a000010 	beq	e560 <__aeabi_dmul+0x280>
    e51c:	e134000c 	teq	r4, ip
    e520:	1a000001 	bne	e52c <__aeabi_dmul+0x24c>
    e524:	e1906601 	orrs	r6, r0, r1, lsl #12
    e528:	1a00000c 	bne	e560 <__aeabi_dmul+0x280>
    e52c:	e135000c 	teq	r5, ip
    e530:	1a000003 	bne	e544 <__aeabi_dmul+0x264>
    e534:	e1926603 	orrs	r6, r2, r3, lsl #12
    e538:	11a00002 	movne	r0, r2
    e53c:	11a01003 	movne	r1, r3
    e540:	1a000006 	bne	e560 <__aeabi_dmul+0x280>
    e544:	e0211003 	eor	r1, r1, r3
    e548:	e2011102 	and	r1, r1, #-2147483648	; 0x80000000
    e54c:	e381147f 	orr	r1, r1, #2130706432	; 0x7f000000
    e550:	e381160f 	orr	r1, r1, #15728640	; 0xf00000
    e554:	e3a00000 	mov	r0, #0	; 0x0
    e558:	e8bd4070 	pop	{r4, r5, r6, lr}
    e55c:	e12fff1e 	bx	lr
    e560:	e381147f 	orr	r1, r1, #2130706432	; 0x7f000000
    e564:	e381173e 	orr	r1, r1, #16252928	; 0xf80000
    e568:	e8bd4070 	pop	{r4, r5, r6, lr}
    e56c:	e12fff1e 	bx	lr

0000e570 <__aeabi_ddiv>:
    e570:	e92d4070 	push	{r4, r5, r6, lr}
    e574:	e3a0c0ff 	mov	ip, #255	; 0xff
    e578:	e38ccc07 	orr	ip, ip, #1792	; 0x700
    e57c:	e01c4a21 	ands	r4, ip, r1, lsr #20
    e580:	101c5a23 	andsne	r5, ip, r3, lsr #20
    e584:	1134000c 	teqne	r4, ip
    e588:	1135000c 	teqne	r5, ip
    e58c:	0b00005e 	bleq	e70c <__aeabi_ddiv+0x19c>
    e590:	e0444005 	sub	r4, r4, r5
    e594:	e021e003 	eor	lr, r1, r3
    e598:	e1925603 	orrs	r5, r2, r3, lsl #12
    e59c:	e1a01601 	lsl	r1, r1, #12
    e5a0:	0a00004c 	beq	e6d8 <__aeabi_ddiv+0x168>
    e5a4:	e1a03603 	lsl	r3, r3, #12
    e5a8:	e3a05201 	mov	r5, #268435456	; 0x10000000
    e5ac:	e1853223 	orr	r3, r5, r3, lsr #4
    e5b0:	e1833c22 	orr	r3, r3, r2, lsr #24
    e5b4:	e1a02402 	lsl	r2, r2, #8
    e5b8:	e1855221 	orr	r5, r5, r1, lsr #4
    e5bc:	e1855c20 	orr	r5, r5, r0, lsr #24
    e5c0:	e1a06400 	lsl	r6, r0, #8
    e5c4:	e20e1102 	and	r1, lr, #-2147483648	; 0x80000000
    e5c8:	e1550003 	cmp	r5, r3
    e5cc:	01560002 	cmpeq	r6, r2
    e5d0:	e2a440fd 	adc	r4, r4, #253	; 0xfd
    e5d4:	e2844c03 	add	r4, r4, #768	; 0x300
    e5d8:	2a000001 	bcs	e5e4 <__aeabi_ddiv+0x74>
    e5dc:	e1b030a3 	lsrs	r3, r3, #1
    e5e0:	e1a02062 	rrx	r2, r2
    e5e4:	e0566002 	subs	r6, r6, r2
    e5e8:	e0c55003 	sbc	r5, r5, r3
    e5ec:	e1b030a3 	lsrs	r3, r3, #1
    e5f0:	e1a02062 	rrx	r2, r2
    e5f4:	e3a00601 	mov	r0, #1048576	; 0x100000
    e5f8:	e3a0c702 	mov	ip, #524288	; 0x80000
    e5fc:	e056e002 	subs	lr, r6, r2
    e600:	e0d5e003 	sbcs	lr, r5, r3
    e604:	20466002 	subcs	r6, r6, r2
    e608:	21a0500e 	movcs	r5, lr
    e60c:	2180000c 	orrcs	r0, r0, ip
    e610:	e1b030a3 	lsrs	r3, r3, #1
    e614:	e1a02062 	rrx	r2, r2
    e618:	e056e002 	subs	lr, r6, r2
    e61c:	e0d5e003 	sbcs	lr, r5, r3
    e620:	20466002 	subcs	r6, r6, r2
    e624:	21a0500e 	movcs	r5, lr
    e628:	218000ac 	orrcs	r0, r0, ip, lsr #1
    e62c:	e1b030a3 	lsrs	r3, r3, #1
    e630:	e1a02062 	rrx	r2, r2
    e634:	e056e002 	subs	lr, r6, r2
    e638:	e0d5e003 	sbcs	lr, r5, r3
    e63c:	20466002 	subcs	r6, r6, r2
    e640:	21a0500e 	movcs	r5, lr
    e644:	2180012c 	orrcs	r0, r0, ip, lsr #2
    e648:	e1b030a3 	lsrs	r3, r3, #1
    e64c:	e1a02062 	rrx	r2, r2
    e650:	e056e002 	subs	lr, r6, r2
    e654:	e0d5e003 	sbcs	lr, r5, r3
    e658:	20466002 	subcs	r6, r6, r2
    e65c:	21a0500e 	movcs	r5, lr
    e660:	218001ac 	orrcs	r0, r0, ip, lsr #3
    e664:	e195e006 	orrs	lr, r5, r6
    e668:	0a00000d 	beq	e6a4 <__aeabi_ddiv+0x134>
    e66c:	e1a05205 	lsl	r5, r5, #4
    e670:	e1855e26 	orr	r5, r5, r6, lsr #28
    e674:	e1a06206 	lsl	r6, r6, #4
    e678:	e1a03183 	lsl	r3, r3, #3
    e67c:	e1833ea2 	orr	r3, r3, r2, lsr #29
    e680:	e1a02182 	lsl	r2, r2, #3
    e684:	e1b0c22c 	lsrs	ip, ip, #4
    e688:	1affffdb 	bne	e5fc <__aeabi_ddiv+0x8c>
    e68c:	e3110601 	tst	r1, #1048576	; 0x100000
    e690:	1a000006 	bne	e6b0 <__aeabi_ddiv+0x140>
    e694:	e1811000 	orr	r1, r1, r0
    e698:	e3a00000 	mov	r0, #0	; 0x0
    e69c:	e3a0c102 	mov	ip, #-2147483648	; 0x80000000
    e6a0:	eaffffd5 	b	e5fc <__aeabi_ddiv+0x8c>
    e6a4:	e3110601 	tst	r1, #1048576	; 0x100000
    e6a8:	01811000 	orreq	r1, r1, r0
    e6ac:	03a00000 	moveq	r0, #0	; 0x0
    e6b0:	e254c0fd 	subs	ip, r4, #253	; 0xfd
    e6b4:	835c0c07 	cmphi	ip, #1792	; 0x700
    e6b8:	8affff43 	bhi	e3cc <__aeabi_dmul+0xec>
    e6bc:	e055c003 	subs	ip, r5, r3
    e6c0:	0056c002 	subseq	ip, r6, r2
    e6c4:	01b0c0a0 	lsrseq	ip, r0, #1
    e6c8:	e2b00000 	adcs	r0, r0, #0	; 0x0
    e6cc:	e0a11a04 	adc	r1, r1, r4, lsl #20
    e6d0:	e8bd4070 	pop	{r4, r5, r6, lr}
    e6d4:	e12fff1e 	bx	lr
    e6d8:	e20ee102 	and	lr, lr, #-2147483648	; 0x80000000
    e6dc:	e18e1621 	orr	r1, lr, r1, lsr #12
    e6e0:	e09440ac 	adds	r4, r4, ip, lsr #1
    e6e4:	c074500c 	rsbsgt	r5, r4, ip
    e6e8:	c1811a04 	orrgt	r1, r1, r4, lsl #20
    e6ec:	c8bd4070 	popgt	{r4, r5, r6, lr}
    e6f0:	c12fff1e 	bxgt	lr
    e6f4:	e3811601 	orr	r1, r1, #1048576	; 0x100000
    e6f8:	e3a0e000 	mov	lr, #0	; 0x0
    e6fc:	e2544001 	subs	r4, r4, #1	; 0x1
    e700:	eaffff31 	b	e3cc <__aeabi_dmul+0xec>
    e704:	e185e006 	orr	lr, r5, r6
    e708:	eaffff2f 	b	e3cc <__aeabi_dmul+0xec>
    e70c:	e00c5a23 	and	r5, ip, r3, lsr #20
    e710:	e134000c 	teq	r4, ip
    e714:	0135000c 	teqeq	r5, ip
    e718:	0affff90 	beq	e560 <__aeabi_dmul+0x280>
    e71c:	e134000c 	teq	r4, ip
    e720:	1a000006 	bne	e740 <__aeabi_ddiv+0x1d0>
    e724:	e1904601 	orrs	r4, r0, r1, lsl #12
    e728:	1affff8c 	bne	e560 <__aeabi_dmul+0x280>
    e72c:	e135000c 	teq	r5, ip
    e730:	1affff83 	bne	e544 <__aeabi_dmul+0x264>
    e734:	e1a00002 	mov	r0, r2
    e738:	e1a01003 	mov	r1, r3
    e73c:	eaffff87 	b	e560 <__aeabi_dmul+0x280>
    e740:	e135000c 	teq	r5, ip
    e744:	1a000004 	bne	e75c <__aeabi_ddiv+0x1ec>
    e748:	e1925603 	orrs	r5, r2, r3, lsl #12
    e74c:	0affff68 	beq	e4f4 <__aeabi_dmul+0x214>
    e750:	e1a00002 	mov	r0, r2
    e754:	e1a01003 	mov	r1, r3
    e758:	eaffff80 	b	e560 <__aeabi_dmul+0x280>
    e75c:	e1906081 	orrs	r6, r0, r1, lsl #1
    e760:	11926083 	orrsne	r6, r2, r3, lsl #1
    e764:	1affff48 	bne	e48c <__aeabi_dmul+0x1ac>
    e768:	e1904081 	orrs	r4, r0, r1, lsl #1
    e76c:	1affff74 	bne	e544 <__aeabi_dmul+0x264>
    e770:	e1925083 	orrs	r5, r2, r3, lsl #1
    e774:	1affff5e 	bne	e4f4 <__aeabi_dmul+0x214>
    e778:	eaffff78 	b	e560 <__aeabi_dmul+0x280>

0000e77c <__gedf2>:
    e77c:	e3e0c000 	mvn	ip, #0	; 0x0
    e780:	ea000002 	b	e790 <__cmpdf2+0x4>

0000e784 <__ledf2>:
    e784:	e3a0c001 	mov	ip, #1	; 0x1
    e788:	ea000000 	b	e790 <__cmpdf2+0x4>

0000e78c <__cmpdf2>:
    e78c:	e3a0c001 	mov	ip, #1	; 0x1
    e790:	e50dc004 	str	ip, [sp, #-4]
    e794:	e1a0c081 	lsl	ip, r1, #1
    e798:	e1f0cacc 	mvns	ip, ip, asr #21
    e79c:	e1a0c083 	lsl	ip, r3, #1
    e7a0:	11f0cacc 	mvnsne	ip, ip, asr #21
    e7a4:	0a00000d 	beq	e7e0 <__cmpdf2+0x54>
    e7a8:	e190c081 	orrs	ip, r0, r1, lsl #1
    e7ac:	0192c083 	orrseq	ip, r2, r3, lsl #1
    e7b0:	11310003 	teqne	r1, r3
    e7b4:	01300002 	teqeq	r0, r2
    e7b8:	03a00000 	moveq	r0, #0	; 0x0
    e7bc:	012fff1e 	bxeq	lr
    e7c0:	e3700000 	cmn	r0, #0	; 0x0
    e7c4:	e1310003 	teq	r1, r3
    e7c8:	51510003 	cmppl	r1, r3
    e7cc:	01500002 	cmpeq	r0, r2
    e7d0:	21a00fc3 	asrcs	r0, r3, #31
    e7d4:	31e00fc3 	mvncc	r0, r3, asr #31
    e7d8:	e3800001 	orr	r0, r0, #1	; 0x1
    e7dc:	e12fff1e 	bx	lr
    e7e0:	e1a0c081 	lsl	ip, r1, #1
    e7e4:	e1f0cacc 	mvns	ip, ip, asr #21
    e7e8:	1a000001 	bne	e7f4 <__cmpdf2+0x68>
    e7ec:	e190c601 	orrs	ip, r0, r1, lsl #12
    e7f0:	1a000004 	bne	e808 <__cmpdf2+0x7c>
    e7f4:	e1a0c083 	lsl	ip, r3, #1
    e7f8:	e1f0cacc 	mvns	ip, ip, asr #21
    e7fc:	1affffe9 	bne	e7a8 <__cmpdf2+0x1c>
    e800:	e192c603 	orrs	ip, r2, r3, lsl #12
    e804:	0affffe7 	beq	e7a8 <__cmpdf2+0x1c>
    e808:	e51d0004 	ldr	r0, [sp, #-4]
    e80c:	e12fff1e 	bx	lr

0000e810 <__aeabi_cdrcmple>:
    e810:	e1a0c000 	mov	ip, r0
    e814:	e1a00002 	mov	r0, r2
    e818:	e1a0200c 	mov	r2, ip
    e81c:	e1a0c001 	mov	ip, r1
    e820:	e1a01003 	mov	r1, r3
    e824:	e1a0300c 	mov	r3, ip
    e828:	eaffffff 	b	e82c <__aeabi_cdcmpeq>

0000e82c <__aeabi_cdcmpeq>:
    e82c:	e92d4001 	push	{r0, lr}
    e830:	ebffffd5 	bl	e78c <__cmpdf2>
    e834:	e3500000 	cmp	r0, #0	; 0x0
    e838:	43700000 	cmnmi	r0, #0	; 0x0
    e83c:	e8bd4001 	pop	{r0, lr}
    e840:	e12fff1e 	bx	lr

0000e844 <__aeabi_dcmpeq>:
    e844:	e52de008 	str	lr, [sp, #-8]!
    e848:	ebfffff7 	bl	e82c <__aeabi_cdcmpeq>
    e84c:	03a00001 	moveq	r0, #1	; 0x1
    e850:	13a00000 	movne	r0, #0	; 0x0
    e854:	e49de008 	ldr	lr, [sp], #8
    e858:	e12fff1e 	bx	lr

0000e85c <__aeabi_dcmplt>:
    e85c:	e52de008 	str	lr, [sp, #-8]!
    e860:	ebfffff1 	bl	e82c <__aeabi_cdcmpeq>
    e864:	33a00001 	movcc	r0, #1	; 0x1
    e868:	23a00000 	movcs	r0, #0	; 0x0
    e86c:	e49de008 	ldr	lr, [sp], #8
    e870:	e12fff1e 	bx	lr

0000e874 <__aeabi_dcmple>:
    e874:	e52de008 	str	lr, [sp, #-8]!
    e878:	ebffffeb 	bl	e82c <__aeabi_cdcmpeq>
    e87c:	93a00001 	movls	r0, #1	; 0x1
    e880:	83a00000 	movhi	r0, #0	; 0x0
    e884:	e49de008 	ldr	lr, [sp], #8
    e888:	e12fff1e 	bx	lr

0000e88c <__aeabi_dcmpge>:
    e88c:	e52de008 	str	lr, [sp, #-8]!
    e890:	ebffffde 	bl	e810 <__aeabi_cdrcmple>
    e894:	93a00001 	movls	r0, #1	; 0x1
    e898:	83a00000 	movhi	r0, #0	; 0x0
    e89c:	e49de008 	ldr	lr, [sp], #8
    e8a0:	e12fff1e 	bx	lr

0000e8a4 <__aeabi_dcmpgt>:
    e8a4:	e52de008 	str	lr, [sp, #-8]!
    e8a8:	ebffffd8 	bl	e810 <__aeabi_cdrcmple>
    e8ac:	33a00001 	movcc	r0, #1	; 0x1
    e8b0:	23a00000 	movcs	r0, #0	; 0x0
    e8b4:	e49de008 	ldr	lr, [sp], #8
    e8b8:	e12fff1e 	bx	lr

0000e8bc <__aeabi_dcmpun>:
    e8bc:	e1a0c081 	lsl	ip, r1, #1
    e8c0:	e1f0cacc 	mvns	ip, ip, asr #21
    e8c4:	1a000001 	bne	e8d0 <__aeabi_dcmpun+0x14>
    e8c8:	e190c601 	orrs	ip, r0, r1, lsl #12
    e8cc:	1a000006 	bne	e8ec <__aeabi_dcmpun+0x30>
    e8d0:	e1a0c083 	lsl	ip, r3, #1
    e8d4:	e1f0cacc 	mvns	ip, ip, asr #21
    e8d8:	1a000001 	bne	e8e4 <__aeabi_dcmpun+0x28>
    e8dc:	e192c603 	orrs	ip, r2, r3, lsl #12
    e8e0:	1a000001 	bne	e8ec <__aeabi_dcmpun+0x30>
    e8e4:	e3a00000 	mov	r0, #0	; 0x0
    e8e8:	e12fff1e 	bx	lr
    e8ec:	e3a00001 	mov	r0, #1	; 0x1
    e8f0:	e12fff1e 	bx	lr

0000e8f4 <__aeabi_d2iz>:
    e8f4:	e1a02081 	lsl	r2, r1, #1
    e8f8:	e2922602 	adds	r2, r2, #2097152	; 0x200000
    e8fc:	2a00000c 	bcs	e934 <__aeabi_d2iz+0x40>
    e900:	5a000009 	bpl	e92c <__aeabi_d2iz+0x38>
    e904:	e3e03e3e 	mvn	r3, #992	; 0x3e0
    e908:	e0532ac2 	subs	r2, r3, r2, asr #21
    e90c:	9a00000a 	bls	e93c <__aeabi_d2iz+0x48>
    e910:	e1a03581 	lsl	r3, r1, #11
    e914:	e3833102 	orr	r3, r3, #-2147483648	; 0x80000000
    e918:	e1833aa0 	orr	r3, r3, r0, lsr #21
    e91c:	e3110102 	tst	r1, #-2147483648	; 0x80000000
    e920:	e1a00233 	lsr	r0, r3, r2
    e924:	12600000 	rsbne	r0, r0, #0	; 0x0
    e928:	e12fff1e 	bx	lr
    e92c:	e3a00000 	mov	r0, #0	; 0x0
    e930:	e12fff1e 	bx	lr
    e934:	e1900601 	orrs	r0, r0, r1, lsl #12
    e938:	1a000002 	bne	e948 <__aeabi_d2iz+0x54>
    e93c:	e2110102 	ands	r0, r1, #-2147483648	; 0x80000000
    e940:	03e00102 	mvneq	r0, #-2147483648	; 0x80000000
    e944:	e12fff1e 	bx	lr
    e948:	e3a00000 	mov	r0, #0	; 0x0
    e94c:	e12fff1e 	bx	lr

0000e950 <__aeabi_uldivmod>:
    e950:	e24dd008 	sub	sp, sp, #8	; 0x8
    e954:	e92d6000 	push	{sp, lr}
    e958:	eb000003 	bl	e96c <__gnu_uldivmod_helper>
    e95c:	e59de004 	ldr	lr, [sp, #4]
    e960:	e28dd008 	add	sp, sp, #8	; 0x8
    e964:	e8bd000c 	pop	{r2, r3}
    e968:	e12fff1e 	bx	lr

0000e96c <__gnu_uldivmod_helper>:
    e96c:	e92d45f0 	push	{r4, r5, r6, r7, r8, sl, lr}
    e970:	e24dd004 	sub	sp, sp, #4	; 0x4
    e974:	e1a0a002 	mov	sl, r2
    e978:	e1a08003 	mov	r8, r3
    e97c:	e1a05000 	mov	r5, r0
    e980:	e1a06001 	mov	r6, r1
    e984:	eb000177 	bl	ef68 <__udivdi3>
    e988:	e0070890 	mul	r7, r0, r8
    e98c:	e0843a90 	umull	r3, r4, r0, sl
    e990:	e022719a 	mla	r2, sl, r1, r7
    e994:	e0824004 	add	r4, r2, r4
    e998:	e59d2020 	ldr	r2, [sp, #32]
    e99c:	e0555003 	subs	r5, r5, r3
    e9a0:	e0c66004 	sbc	r6, r6, r4
    e9a4:	e8820060 	stm	r2, {r5, r6}
    e9a8:	e28dd004 	add	sp, sp, #4	; 0x4
    e9ac:	e8bd45f0 	pop	{r4, r5, r6, r7, r8, sl, lr}
    e9b0:	e12fff1e 	bx	lr

0000e9b4 <__gnu_ldivmod_helper>:
    e9b4:	e92d45f0 	push	{r4, r5, r6, r7, r8, sl, lr}
    e9b8:	e24dd004 	sub	sp, sp, #4	; 0x4
    e9bc:	e1a0a002 	mov	sl, r2
    e9c0:	e1a08003 	mov	r8, r3
    e9c4:	e1a05000 	mov	r5, r0
    e9c8:	e1a06001 	mov	r6, r1
    e9cc:	eb00000a 	bl	e9fc <__divdi3>
    e9d0:	e0070890 	mul	r7, r0, r8
    e9d4:	e0843a90 	umull	r3, r4, r0, sl
    e9d8:	e022719a 	mla	r2, sl, r1, r7
    e9dc:	e0824004 	add	r4, r2, r4
    e9e0:	e59d2020 	ldr	r2, [sp, #32]
    e9e4:	e0555003 	subs	r5, r5, r3
    e9e8:	e0c66004 	sbc	r6, r6, r4
    e9ec:	e8820060 	stm	r2, {r5, r6}
    e9f0:	e28dd004 	add	sp, sp, #4	; 0x4
    e9f4:	e8bd45f0 	pop	{r4, r5, r6, r7, r8, sl, lr}
    e9f8:	e12fff1e 	bx	lr

0000e9fc <__divdi3>:
    e9fc:	e92d4ff0 	push	{r4, r5, r6, r7, r8, r9, sl, fp, lr}
    ea00:	e3510000 	cmp	r1, #0	; 0x0
    ea04:	e1a04003 	mov	r4, r3
    ea08:	e24dd014 	sub	sp, sp, #20	; 0x14
    ea0c:	e1a05000 	mov	r5, r0
    ea10:	a3a00000 	movge	r0, #0	; 0x0
    ea14:	e1a06001 	mov	r6, r1
    ea18:	e1a03002 	mov	r3, r2
    ea1c:	e1a01002 	mov	r1, r2
    ea20:	a58d0000 	strge	r0, [sp]
    ea24:	e1a02004 	mov	r2, r4
    ea28:	ba0000d1 	blt	ed74 <__divdi3+0x378>
    ea2c:	e3540000 	cmp	r4, #0	; 0x0
    ea30:	ba0000d5 	blt	ed8c <__divdi3+0x390>
    ea34:	e2520000 	subs	r0, r2, #0	; 0x0
    ea38:	e1a03005 	mov	r3, r5
    ea3c:	e1a09005 	mov	r9, r5
    ea40:	e1a05001 	mov	r5, r1
    ea44:	1a00003c 	bne	eb3c <__divdi3+0x140>
    ea48:	e1510006 	cmp	r1, r6
    ea4c:	9a00004a 	bls	eb7c <__divdi3+0x180>
    ea50:	e3510801 	cmp	r1, #65536	; 0x10000
    ea54:	2a00012c 	bcs	ef0c <__divdi3+0x510>
    ea58:	e3510c01 	cmp	r1, #256	; 0x100
    ea5c:	33a00020 	movcc	r0, #32	; 0x20
    ea60:	23a00018 	movcs	r0, #24	; 0x18
    ea64:	33a03000 	movcc	r3, #0	; 0x0
    ea68:	23a03008 	movcs	r3, #8	; 0x8
    ea6c:	e1a01335 	lsr	r1, r5, r3
    ea70:	e59f24ec 	ldr	r2, [pc, #1260]	; ef64 <__divdi3+0x568>
    ea74:	e7d23001 	ldrb	r3, [r2, r1]
    ea78:	e0502003 	subs	r2, r0, r3
    ea7c:	12623020 	rsbne	r3, r2, #32	; 0x20
    ea80:	11a03339 	lsrne	r3, r9, r3
    ea84:	11a05215 	lslne	r5, r5, r2
    ea88:	11836216 	orrne	r6, r3, r6, lsl r2
    ea8c:	e1a08825 	lsr	r8, r5, #16
    ea90:	e1a01008 	mov	r1, r8
    ea94:	e1a00006 	mov	r0, r6
    ea98:	11a09219 	lslne	r9, r9, r2
    ea9c:	eb000270 	bl	f464 <__aeabi_uidiv>
    eaa0:	e1a01008 	mov	r1, r8
    eaa4:	e1a0a000 	mov	sl, r0
    eaa8:	e1a00006 	mov	r0, r6
    eaac:	eb0002ab 	bl	f560 <__aeabi_uidivmod>
    eab0:	e1a07805 	lsl	r7, r5, #16
    eab4:	e1a07827 	lsr	r7, r7, #16
    eab8:	e0020a97 	mul	r2, r7, sl
    eabc:	e1a03829 	lsr	r3, r9, #16
    eac0:	e1834801 	orr	r4, r3, r1, lsl #16
    eac4:	e1520004 	cmp	r2, r4
    eac8:	9a000005 	bls	eae4 <__divdi3+0xe8>
    eacc:	e0944005 	adds	r4, r4, r5
    ead0:	e24aa001 	sub	sl, sl, #1	; 0x1
    ead4:	2a000002 	bcs	eae4 <__divdi3+0xe8>
    ead8:	e1520004 	cmp	r2, r4
    eadc:	824aa001 	subhi	sl, sl, #1	; 0x1
    eae0:	80844005 	addhi	r4, r4, r5
    eae4:	e0624004 	rsb	r4, r2, r4
    eae8:	e1a01008 	mov	r1, r8
    eaec:	e1a00004 	mov	r0, r4
    eaf0:	eb00025b 	bl	f464 <__aeabi_uidiv>
    eaf4:	e1a01008 	mov	r1, r8
    eaf8:	e1a06000 	mov	r6, r0
    eafc:	e1a00004 	mov	r0, r4
    eb00:	eb000296 	bl	f560 <__aeabi_uidivmod>
    eb04:	e0000697 	mul	r0, r7, r6
    eb08:	e1a03809 	lsl	r3, r9, #16
    eb0c:	e1a03823 	lsr	r3, r3, #16
    eb10:	e1832801 	orr	r2, r3, r1, lsl #16
    eb14:	e1500002 	cmp	r0, r2
    eb18:	9a000004 	bls	eb30 <__divdi3+0x134>
    eb1c:	e0923005 	adds	r3, r2, r5
    eb20:	e2466001 	sub	r6, r6, #1	; 0x1
    eb24:	2a000001 	bcs	eb30 <__divdi3+0x134>
    eb28:	e1500003 	cmp	r0, r3
    eb2c:	82466001 	subhi	r6, r6, #1	; 0x1
    eb30:	e186080a 	orr	r0, r6, sl, lsl #16
    eb34:	e3a02000 	mov	r2, #0	; 0x0
    eb38:	ea000003 	b	eb4c <__divdi3+0x150>
    eb3c:	e1500006 	cmp	r0, r6
    eb40:	9a000079 	bls	ed2c <__divdi3+0x330>
    eb44:	e3a00000 	mov	r0, #0	; 0x0
    eb48:	e1a02000 	mov	r2, r0
    eb4c:	e1a03000 	mov	r3, r0
    eb50:	e59d0000 	ldr	r0, [sp]
    eb54:	e3500000 	cmp	r0, #0	; 0x0
    eb58:	e1a04002 	mov	r4, r2
    eb5c:	0a000001 	beq	eb68 <__divdi3+0x16c>
    eb60:	e2733000 	rsbs	r3, r3, #0	; 0x0
    eb64:	e2e44000 	rsc	r4, r4, #0	; 0x0
    eb68:	e1a01004 	mov	r1, r4
    eb6c:	e1a00003 	mov	r0, r3
    eb70:	e28dd014 	add	sp, sp, #20	; 0x14
    eb74:	e8bd4ff0 	pop	{r4, r5, r6, r7, r8, r9, sl, fp, lr}
    eb78:	e12fff1e 	bx	lr
    eb7c:	e3510000 	cmp	r1, #0	; 0x0
    eb80:	1a000002 	bne	eb90 <__divdi3+0x194>
    eb84:	e3a00001 	mov	r0, #1	; 0x1
    eb88:	eb000235 	bl	f464 <__aeabi_uidiv>
    eb8c:	e1a05000 	mov	r5, r0
    eb90:	e3550801 	cmp	r5, #65536	; 0x10000
    eb94:	3a000082 	bcc	eda4 <__divdi3+0x3a8>
    eb98:	e3550401 	cmp	r5, #16777216	; 0x1000000
    eb9c:	33a03010 	movcc	r3, #16	; 0x10
    eba0:	23a03018 	movcs	r3, #24	; 0x18
    eba4:	23a00008 	movcs	r0, #8	; 0x8
    eba8:	31a00003 	movcc	r0, r3
    ebac:	e1a01335 	lsr	r1, r5, r3
    ebb0:	e59f23ac 	ldr	r2, [pc, #940]	; ef64 <__divdi3+0x568>
    ebb4:	e7d23001 	ldrb	r3, [r2, r1]
    ebb8:	e050a003 	subs	sl, r0, r3
    ebbc:	01a08805 	lsleq	r8, r5, #16
    ebc0:	00654006 	rsbeq	r4, r5, r6
    ebc4:	01a08828 	lsreq	r8, r8, #16
    ebc8:	01a07825 	lsreq	r7, r5, #16
    ebcc:	03a0b001 	moveq	fp, #1	; 0x1
    ebd0:	0a00002d 	beq	ec8c <__divdi3+0x290>
    ebd4:	e26a3020 	rsb	r3, sl, #32	; 0x20
    ebd8:	e1a04336 	lsr	r4, r6, r3
    ebdc:	e1a03339 	lsr	r3, r9, r3
    ebe0:	e1a05a15 	lsl	r5, r5, sl
    ebe4:	e1833a16 	orr	r3, r3, r6, lsl sl
    ebe8:	e1a07825 	lsr	r7, r5, #16
    ebec:	e1a01007 	mov	r1, r7
    ebf0:	e1a00004 	mov	r0, r4
    ebf4:	e58d3004 	str	r3, [sp, #4]
    ebf8:	eb000219 	bl	f464 <__aeabi_uidiv>
    ebfc:	e1a01007 	mov	r1, r7
    ec00:	e1a0b000 	mov	fp, r0
    ec04:	e1a00004 	mov	r0, r4
    ec08:	eb000254 	bl	f560 <__aeabi_uidivmod>
    ec0c:	e1a08805 	lsl	r8, r5, #16
    ec10:	e1a08828 	lsr	r8, r8, #16
    ec14:	e0020b98 	mul	r2, r8, fp
    ec18:	e59d0004 	ldr	r0, [sp, #4]
    ec1c:	e1a03820 	lsr	r3, r0, #16
    ec20:	e1834801 	orr	r4, r3, r1, lsl #16
    ec24:	e1520004 	cmp	r2, r4
    ec28:	9a000002 	bls	ec38 <__divdi3+0x23c>
    ec2c:	e0944005 	adds	r4, r4, r5
    ec30:	e24bb001 	sub	fp, fp, #1	; 0x1
    ec34:	3a0000c6 	bcc	ef54 <__divdi3+0x558>
    ec38:	e0624004 	rsb	r4, r2, r4
    ec3c:	e1a01007 	mov	r1, r7
    ec40:	e1a00004 	mov	r0, r4
    ec44:	eb000206 	bl	f464 <__aeabi_uidiv>
    ec48:	e1a01007 	mov	r1, r7
    ec4c:	e1a06000 	mov	r6, r0
    ec50:	e1a00004 	mov	r0, r4
    ec54:	eb000241 	bl	f560 <__aeabi_uidivmod>
    ec58:	e0040698 	mul	r4, r8, r6
    ec5c:	e59d2004 	ldr	r2, [sp, #4]
    ec60:	e1a03802 	lsl	r3, r2, #16
    ec64:	e1a03823 	lsr	r3, r3, #16
    ec68:	e1830801 	orr	r0, r3, r1, lsl #16
    ec6c:	e1540000 	cmp	r4, r0
    ec70:	9a000002 	bls	ec80 <__divdi3+0x284>
    ec74:	e0900005 	adds	r0, r0, r5
    ec78:	e2466001 	sub	r6, r6, #1	; 0x1
    ec7c:	3a0000b0 	bcc	ef44 <__divdi3+0x548>
    ec80:	e1a09a19 	lsl	r9, r9, sl
    ec84:	e0644000 	rsb	r4, r4, r0
    ec88:	e186b80b 	orr	fp, r6, fp, lsl #16
    ec8c:	e1a01007 	mov	r1, r7
    ec90:	e1a00004 	mov	r0, r4
    ec94:	eb0001f2 	bl	f464 <__aeabi_uidiv>
    ec98:	e1a01007 	mov	r1, r7
    ec9c:	e1a0a000 	mov	sl, r0
    eca0:	e1a00004 	mov	r0, r4
    eca4:	eb00022d 	bl	f560 <__aeabi_uidivmod>
    eca8:	e0020a98 	mul	r2, r8, sl
    ecac:	e1a03829 	lsr	r3, r9, #16
    ecb0:	e1834801 	orr	r4, r3, r1, lsl #16
    ecb4:	e1520004 	cmp	r2, r4
    ecb8:	9a000005 	bls	ecd4 <__divdi3+0x2d8>
    ecbc:	e0944005 	adds	r4, r4, r5
    ecc0:	e24aa001 	sub	sl, sl, #1	; 0x1
    ecc4:	2a000002 	bcs	ecd4 <__divdi3+0x2d8>
    ecc8:	e1520004 	cmp	r2, r4
    eccc:	824aa001 	subhi	sl, sl, #1	; 0x1
    ecd0:	80844005 	addhi	r4, r4, r5
    ecd4:	e0624004 	rsb	r4, r2, r4
    ecd8:	e1a01007 	mov	r1, r7
    ecdc:	e1a00004 	mov	r0, r4
    ece0:	eb0001df 	bl	f464 <__aeabi_uidiv>
    ece4:	e1a01007 	mov	r1, r7
    ece8:	e1a06000 	mov	r6, r0
    ecec:	e1a00004 	mov	r0, r4
    ecf0:	eb00021a 	bl	f560 <__aeabi_uidivmod>
    ecf4:	e0000698 	mul	r0, r8, r6
    ecf8:	e1a03809 	lsl	r3, r9, #16
    ecfc:	e1a03823 	lsr	r3, r3, #16
    ed00:	e1832801 	orr	r2, r3, r1, lsl #16
    ed04:	e1500002 	cmp	r0, r2
    ed08:	9a000004 	bls	ed20 <__divdi3+0x324>
    ed0c:	e0923005 	adds	r3, r2, r5
    ed10:	e2466001 	sub	r6, r6, #1	; 0x1
    ed14:	2a000001 	bcs	ed20 <__divdi3+0x324>
    ed18:	e1500003 	cmp	r0, r3
    ed1c:	82466001 	subhi	r6, r6, #1	; 0x1
    ed20:	e186080a 	orr	r0, r6, sl, lsl #16
    ed24:	e1a0200b 	mov	r2, fp
    ed28:	eaffff87 	b	eb4c <__divdi3+0x150>
    ed2c:	e3500801 	cmp	r0, #65536	; 0x10000
    ed30:	3a000021 	bcc	edbc <__divdi3+0x3c0>
    ed34:	e3500401 	cmp	r0, #16777216	; 0x1000000
    ed38:	33a03010 	movcc	r3, #16	; 0x10
    ed3c:	23a03018 	movcs	r3, #24	; 0x18
    ed40:	e1a01330 	lsr	r1, r0, r3
    ed44:	e59f2218 	ldr	r2, [pc, #536]	; ef64 <__divdi3+0x568>
    ed48:	31a0c003 	movcc	ip, r3
    ed4c:	e7d23001 	ldrb	r3, [r2, r1]
    ed50:	23a0c008 	movcs	ip, #8	; 0x8
    ed54:	e05ca003 	subs	sl, ip, r3
    ed58:	1a000021 	bne	ede4 <__divdi3+0x3e8>
    ed5c:	e1500006 	cmp	r0, r6
    ed60:	21550009 	cmpcs	r5, r9
    ed64:	91a0200a 	movls	r2, sl
    ed68:	93a00001 	movls	r0, #1	; 0x1
    ed6c:	9affff76 	bls	eb4c <__divdi3+0x150>
    ed70:	eaffff73 	b	eb44 <__divdi3+0x148>
    ed74:	e2755000 	rsbs	r5, r5, #0	; 0x0
    ed78:	e2e66000 	rsc	r6, r6, #0	; 0x0
    ed7c:	e3e00000 	mvn	r0, #0	; 0x0
    ed80:	e3540000 	cmp	r4, #0	; 0x0
    ed84:	e58d0000 	str	r0, [sp]
    ed88:	aaffff29 	bge	ea34 <__divdi3+0x38>
    ed8c:	e2731000 	rsbs	r1, r3, #0	; 0x0
    ed90:	e2e42000 	rsc	r2, r4, #0	; 0x0
    ed94:	e59d3000 	ldr	r3, [sp]
    ed98:	e1e03003 	mvn	r3, r3
    ed9c:	e58d3000 	str	r3, [sp]
    eda0:	eaffff23 	b	ea34 <__divdi3+0x38>
    eda4:	e3550c01 	cmp	r5, #256	; 0x100
    eda8:	33a00020 	movcc	r0, #32	; 0x20
    edac:	23a00018 	movcs	r0, #24	; 0x18
    edb0:	33a03000 	movcc	r3, #0	; 0x0
    edb4:	23a03008 	movcs	r3, #8	; 0x8
    edb8:	eaffff7b 	b	ebac <__divdi3+0x1b0>
    edbc:	e3500c01 	cmp	r0, #256	; 0x100
    edc0:	33a03000 	movcc	r3, #0	; 0x0
    edc4:	23a03008 	movcs	r3, #8	; 0x8
    edc8:	e1a01330 	lsr	r1, r0, r3
    edcc:	e59f2190 	ldr	r2, [pc, #400]	; ef64 <__divdi3+0x568>
    edd0:	e7d23001 	ldrb	r3, [r2, r1]
    edd4:	33a0c020 	movcc	ip, #32	; 0x20
    edd8:	23a0c018 	movcs	ip, #24	; 0x18
    eddc:	e05ca003 	subs	sl, ip, r3
    ede0:	0affffdd 	beq	ed5c <__divdi3+0x360>
    ede4:	e26a2020 	rsb	r2, sl, #32	; 0x20
    ede8:	e1a03235 	lsr	r3, r5, r2
    edec:	e1a04236 	lsr	r4, r6, r2
    edf0:	e1a02239 	lsr	r2, r9, r2
    edf4:	e1837a10 	orr	r7, r3, r0, lsl sl
    edf8:	e1822a16 	orr	r2, r2, r6, lsl sl
    edfc:	e1a08827 	lsr	r8, r7, #16
    ee00:	e1a01008 	mov	r1, r8
    ee04:	e1a00004 	mov	r0, r4
    ee08:	e58d200c 	str	r2, [sp, #12]
    ee0c:	eb000194 	bl	f464 <__aeabi_uidiv>
    ee10:	e1a01008 	mov	r1, r8
    ee14:	e1a0b000 	mov	fp, r0
    ee18:	e1a00004 	mov	r0, r4
    ee1c:	eb0001cf 	bl	f560 <__aeabi_uidivmod>
    ee20:	e1a05a15 	lsl	r5, r5, sl
    ee24:	e1a06807 	lsl	r6, r7, #16
    ee28:	e1a06826 	lsr	r6, r6, #16
    ee2c:	e0020b96 	mul	r2, r6, fp
    ee30:	e59d000c 	ldr	r0, [sp, #12]
    ee34:	e1a03820 	lsr	r3, r0, #16
    ee38:	e1834801 	orr	r4, r3, r1, lsl #16
    ee3c:	e1520004 	cmp	r2, r4
    ee40:	e58d5008 	str	r5, [sp, #8]
    ee44:	9a000002 	bls	ee54 <__divdi3+0x458>
    ee48:	e0944007 	adds	r4, r4, r7
    ee4c:	e24bb001 	sub	fp, fp, #1	; 0x1
    ee50:	3a000037 	bcc	ef34 <__divdi3+0x538>
    ee54:	e0624004 	rsb	r4, r2, r4
    ee58:	e1a01008 	mov	r1, r8
    ee5c:	e1a00004 	mov	r0, r4
    ee60:	eb00017f 	bl	f464 <__aeabi_uidiv>
    ee64:	e1a01008 	mov	r1, r8
    ee68:	e1a05000 	mov	r5, r0
    ee6c:	e1a00004 	mov	r0, r4
    ee70:	eb0001ba 	bl	f560 <__aeabi_uidivmod>
    ee74:	e0020596 	mul	r2, r6, r5
    ee78:	e59d000c 	ldr	r0, [sp, #12]
    ee7c:	e1a03800 	lsl	r3, r0, #16
    ee80:	e1a03823 	lsr	r3, r3, #16
    ee84:	e1830801 	orr	r0, r3, r1, lsl #16
    ee88:	e1520000 	cmp	r2, r0
    ee8c:	9a000002 	bls	ee9c <__divdi3+0x4a0>
    ee90:	e0900007 	adds	r0, r0, r7
    ee94:	e2455001 	sub	r5, r5, #1	; 0x1
    ee98:	3a000021 	bcc	ef24 <__divdi3+0x528>
    ee9c:	e0622000 	rsb	r2, r2, r0
    eea0:	e185080b 	orr	r0, r5, fp, lsl #16
    eea4:	e59d5008 	ldr	r5, [sp, #8]
    eea8:	e1a0c820 	lsr	ip, r0, #16
    eeac:	e1a03825 	lsr	r3, r5, #16
    eeb0:	e1c0e80c 	bic	lr, r0, ip, lsl #16
    eeb4:	e1c54803 	bic	r4, r5, r3, lsl #16
    eeb8:	e001049e 	mul	r1, lr, r4
    eebc:	e004049c 	mul	r4, ip, r4
    eec0:	e00e0e93 	mul	lr, r3, lr
    eec4:	e003039c 	mul	r3, ip, r3
    eec8:	e094e00e 	adds	lr, r4, lr
    eecc:	22833801 	addcs	r3, r3, #65536	; 0x10000
    eed0:	e091180e 	adds	r1, r1, lr, lsl #16
    eed4:	e0a3382e 	adc	r3, r3, lr, lsr #16
    eed8:	e1520003 	cmp	r2, r3
    eedc:	3a000007 	bcc	ef00 <__divdi3+0x504>
    eee0:	13a03000 	movne	r3, #0	; 0x0
    eee4:	03a03001 	moveq	r3, #1	; 0x1
    eee8:	e1510a19 	cmp	r1, r9, lsl sl
    eeec:	93a03000 	movls	r3, #0	; 0x0
    eef0:	82033001 	andhi	r3, r3, #1	; 0x1
    eef4:	e3530000 	cmp	r3, #0	; 0x0
    eef8:	01a02003 	moveq	r2, r3
    eefc:	0affff12 	beq	eb4c <__divdi3+0x150>
    ef00:	e2400001 	sub	r0, r0, #1	; 0x1
    ef04:	e3a02000 	mov	r2, #0	; 0x0
    ef08:	eaffff0f 	b	eb4c <__divdi3+0x150>
    ef0c:	e3510401 	cmp	r1, #16777216	; 0x1000000
    ef10:	33a03010 	movcc	r3, #16	; 0x10
    ef14:	23a03018 	movcs	r3, #24	; 0x18
    ef18:	23a00008 	movcs	r0, #8	; 0x8
    ef1c:	31a00003 	movcc	r0, r3
    ef20:	eafffed1 	b	ea6c <__divdi3+0x70>
    ef24:	e1520000 	cmp	r2, r0
    ef28:	80800007 	addhi	r0, r0, r7
    ef2c:	82455001 	subhi	r5, r5, #1	; 0x1
    ef30:	eaffffd9 	b	ee9c <__divdi3+0x4a0>
    ef34:	e1520004 	cmp	r2, r4
    ef38:	824bb001 	subhi	fp, fp, #1	; 0x1
    ef3c:	80844007 	addhi	r4, r4, r7
    ef40:	eaffffc3 	b	ee54 <__divdi3+0x458>
    ef44:	e1540000 	cmp	r4, r0
    ef48:	82466001 	subhi	r6, r6, #1	; 0x1
    ef4c:	80800005 	addhi	r0, r0, r5
    ef50:	eaffff4a 	b	ec80 <__divdi3+0x284>
    ef54:	e1520004 	cmp	r2, r4
    ef58:	824bb001 	subhi	fp, fp, #1	; 0x1
    ef5c:	80844005 	addhi	r4, r4, r5
    ef60:	eaffff34 	b	ec38 <__divdi3+0x23c>
    ef64:	0000f778 	.word	0x0000f778

0000ef68 <__udivdi3>:
    ef68:	e92d4ff0 	push	{r4, r5, r6, r7, r8, r9, sl, fp, lr}
    ef6c:	e3530000 	cmp	r3, #0	; 0x0
    ef70:	e1a06001 	mov	r6, r1
    ef74:	e24dd014 	sub	sp, sp, #20	; 0x14
    ef78:	e1a0c003 	mov	ip, r3
    ef7c:	e1a01002 	mov	r1, r2
    ef80:	e1a09000 	mov	r9, r0
    ef84:	e1a05002 	mov	r5, r2
    ef88:	e1a04006 	mov	r4, r6
    ef8c:	1a00003c 	bne	f084 <__udivdi3+0x11c>
    ef90:	e1520006 	cmp	r2, r6
    ef94:	9a000054 	bls	f0ec <__udivdi3+0x184>
    ef98:	e3520801 	cmp	r2, #65536	; 0x10000
    ef9c:	3a000119 	bcc	f408 <__udivdi3+0x4a0>
    efa0:	e3520401 	cmp	r2, #16777216	; 0x1000000
    efa4:	33a03010 	movcc	r3, #16	; 0x10
    efa8:	23a03018 	movcs	r3, #24	; 0x18
    efac:	23a00008 	movcs	r0, #8	; 0x8
    efb0:	31a00003 	movcc	r0, r3
    efb4:	e1a01335 	lsr	r1, r5, r3
    efb8:	e59f24a0 	ldr	r2, [pc, #1184]	; f460 <__udivdi3+0x4f8>
    efbc:	e7d23001 	ldrb	r3, [r2, r1]
    efc0:	e0502003 	subs	r2, r0, r3
    efc4:	12623020 	rsbne	r3, r2, #32	; 0x20
    efc8:	11a03339 	lsrne	r3, r9, r3
    efcc:	11a05215 	lslne	r5, r5, r2
    efd0:	11834216 	orrne	r4, r3, r6, lsl r2
    efd4:	e1a08825 	lsr	r8, r5, #16
    efd8:	e1a01008 	mov	r1, r8
    efdc:	e1a00004 	mov	r0, r4
    efe0:	11a09219 	lslne	r9, r9, r2
    efe4:	eb00011e 	bl	f464 <__aeabi_uidiv>
    efe8:	e1a01008 	mov	r1, r8
    efec:	e1a0a000 	mov	sl, r0
    eff0:	e1a00004 	mov	r0, r4
    eff4:	eb000159 	bl	f560 <__aeabi_uidivmod>
    eff8:	e1a07805 	lsl	r7, r5, #16
    effc:	e1a07827 	lsr	r7, r7, #16
    f000:	e0020a97 	mul	r2, r7, sl
    f004:	e1a03829 	lsr	r3, r9, #16
    f008:	e1834801 	orr	r4, r3, r1, lsl #16
    f00c:	e1520004 	cmp	r2, r4
    f010:	9a000005 	bls	f02c <__udivdi3+0xc4>
    f014:	e0944005 	adds	r4, r4, r5
    f018:	e24aa001 	sub	sl, sl, #1	; 0x1
    f01c:	2a000002 	bcs	f02c <__udivdi3+0xc4>
    f020:	e1520004 	cmp	r2, r4
    f024:	824aa001 	subhi	sl, sl, #1	; 0x1
    f028:	80844005 	addhi	r4, r4, r5
    f02c:	e0624004 	rsb	r4, r2, r4
    f030:	e1a01008 	mov	r1, r8
    f034:	e1a00004 	mov	r0, r4
    f038:	eb000109 	bl	f464 <__aeabi_uidiv>
    f03c:	e1a01008 	mov	r1, r8
    f040:	e1a06000 	mov	r6, r0
    f044:	e1a00004 	mov	r0, r4
    f048:	eb000144 	bl	f560 <__aeabi_uidivmod>
    f04c:	e0020697 	mul	r2, r7, r6
    f050:	e1a03809 	lsl	r3, r9, #16
    f054:	e1a03823 	lsr	r3, r3, #16
    f058:	e1830801 	orr	r0, r3, r1, lsl #16
    f05c:	e1520000 	cmp	r2, r0
    f060:	9a000004 	bls	f078 <__udivdi3+0x110>
    f064:	e0903005 	adds	r3, r0, r5
    f068:	e2466001 	sub	r6, r6, #1	; 0x1
    f06c:	2a000001 	bcs	f078 <__udivdi3+0x110>
    f070:	e1520003 	cmp	r2, r3
    f074:	82466001 	subhi	r6, r6, #1	; 0x1
    f078:	e186280a 	orr	r2, r6, sl, lsl #16
    f07c:	e3a03000 	mov	r3, #0	; 0x0
    f080:	ea000014 	b	f0d8 <__udivdi3+0x170>
    f084:	e1530006 	cmp	r3, r6
    f088:	8a000010 	bhi	f0d0 <__udivdi3+0x168>
    f08c:	e3530801 	cmp	r3, #65536	; 0x10000
    f090:	3a000081 	bcc	f29c <__udivdi3+0x334>
    f094:	e3530401 	cmp	r3, #16777216	; 0x1000000
    f098:	33a03010 	movcc	r3, #16	; 0x10
    f09c:	23a03018 	movcs	r3, #24	; 0x18
    f0a0:	e1a0133c 	lsr	r1, ip, r3
    f0a4:	e59f23b4 	ldr	r2, [pc, #948]	; f460 <__udivdi3+0x4f8>
    f0a8:	31a00003 	movcc	r0, r3
    f0ac:	e7d23001 	ldrb	r3, [r2, r1]
    f0b0:	23a00008 	movcs	r0, #8	; 0x8
    f0b4:	e050a003 	subs	sl, r0, r3
    f0b8:	1a000081 	bne	f2c4 <__udivdi3+0x35c>
    f0bc:	e15c0006 	cmp	ip, r6
    f0c0:	21550009 	cmpcs	r5, r9
    f0c4:	91a0300a 	movls	r3, sl
    f0c8:	93a02001 	movls	r2, #1	; 0x1
    f0cc:	9a000001 	bls	f0d8 <__udivdi3+0x170>
    f0d0:	e3a02000 	mov	r2, #0	; 0x0
    f0d4:	e1a03002 	mov	r3, r2
    f0d8:	e1a00002 	mov	r0, r2
    f0dc:	e1a01003 	mov	r1, r3
    f0e0:	e28dd014 	add	sp, sp, #20	; 0x14
    f0e4:	e8bd4ff0 	pop	{r4, r5, r6, r7, r8, r9, sl, fp, lr}
    f0e8:	e12fff1e 	bx	lr
    f0ec:	e3520000 	cmp	r2, #0	; 0x0
    f0f0:	1a000002 	bne	f100 <__udivdi3+0x198>
    f0f4:	e3a00001 	mov	r0, #1	; 0x1
    f0f8:	eb0000d9 	bl	f464 <__aeabi_uidiv>
    f0fc:	e1a05000 	mov	r5, r0
    f100:	e3550801 	cmp	r5, #65536	; 0x10000
    f104:	3a0000b9 	bcc	f3f0 <__udivdi3+0x488>
    f108:	e3550401 	cmp	r5, #16777216	; 0x1000000
    f10c:	33a03010 	movcc	r3, #16	; 0x10
    f110:	23a03018 	movcs	r3, #24	; 0x18
    f114:	23a00008 	movcs	r0, #8	; 0x8
    f118:	31a00003 	movcc	r0, r3
    f11c:	e1a01335 	lsr	r1, r5, r3
    f120:	e59f2338 	ldr	r2, [pc, #824]	; f460 <__udivdi3+0x4f8>
    f124:	e7d23001 	ldrb	r3, [r2, r1]
    f128:	e050a003 	subs	sl, r0, r3
    f12c:	01a08805 	lsleq	r8, r5, #16
    f130:	00654006 	rsbeq	r4, r5, r6
    f134:	01a08828 	lsreq	r8, r8, #16
    f138:	01a07825 	lsreq	r7, r5, #16
    f13c:	03a0b001 	moveq	fp, #1	; 0x1
    f140:	0a00002d 	beq	f1fc <__udivdi3+0x294>
    f144:	e26a3020 	rsb	r3, sl, #32	; 0x20
    f148:	e1a04336 	lsr	r4, r6, r3
    f14c:	e1a03339 	lsr	r3, r9, r3
    f150:	e1a05a15 	lsl	r5, r5, sl
    f154:	e1836a16 	orr	r6, r3, r6, lsl sl
    f158:	e1a07825 	lsr	r7, r5, #16
    f15c:	e1a01007 	mov	r1, r7
    f160:	e1a00004 	mov	r0, r4
    f164:	e58d6004 	str	r6, [sp, #4]
    f168:	eb0000bd 	bl	f464 <__aeabi_uidiv>
    f16c:	e1a01007 	mov	r1, r7
    f170:	e1a0b000 	mov	fp, r0
    f174:	e1a00004 	mov	r0, r4
    f178:	eb0000f8 	bl	f560 <__aeabi_uidivmod>
    f17c:	e1a08805 	lsl	r8, r5, #16
    f180:	e1a08828 	lsr	r8, r8, #16
    f184:	e0020b98 	mul	r2, r8, fp
    f188:	e59d6004 	ldr	r6, [sp, #4]
    f18c:	e1a03826 	lsr	r3, r6, #16
    f190:	e1834801 	orr	r4, r3, r1, lsl #16
    f194:	e1520004 	cmp	r2, r4
    f198:	9a000002 	bls	f1a8 <__udivdi3+0x240>
    f19c:	e0944005 	adds	r4, r4, r5
    f1a0:	e24bb001 	sub	fp, fp, #1	; 0x1
    f1a4:	3a0000a9 	bcc	f450 <__udivdi3+0x4e8>
    f1a8:	e0624004 	rsb	r4, r2, r4
    f1ac:	e1a01007 	mov	r1, r7
    f1b0:	e1a00004 	mov	r0, r4
    f1b4:	eb0000aa 	bl	f464 <__aeabi_uidiv>
    f1b8:	e1a01007 	mov	r1, r7
    f1bc:	e1a06000 	mov	r6, r0
    f1c0:	e1a00004 	mov	r0, r4
    f1c4:	eb0000e5 	bl	f560 <__aeabi_uidivmod>
    f1c8:	e0040698 	mul	r4, r8, r6
    f1cc:	e59d0004 	ldr	r0, [sp, #4]
    f1d0:	e1a03800 	lsl	r3, r0, #16
    f1d4:	e1a03823 	lsr	r3, r3, #16
    f1d8:	e1830801 	orr	r0, r3, r1, lsl #16
    f1dc:	e1540000 	cmp	r4, r0
    f1e0:	9a000002 	bls	f1f0 <__udivdi3+0x288>
    f1e4:	e0900005 	adds	r0, r0, r5
    f1e8:	e2466001 	sub	r6, r6, #1	; 0x1
    f1ec:	3a000093 	bcc	f440 <__udivdi3+0x4d8>
    f1f0:	e1a09a19 	lsl	r9, r9, sl
    f1f4:	e0644000 	rsb	r4, r4, r0
    f1f8:	e186b80b 	orr	fp, r6, fp, lsl #16
    f1fc:	e1a01007 	mov	r1, r7
    f200:	e1a00004 	mov	r0, r4
    f204:	eb000096 	bl	f464 <__aeabi_uidiv>
    f208:	e1a01007 	mov	r1, r7
    f20c:	e1a0a000 	mov	sl, r0
    f210:	e1a00004 	mov	r0, r4
    f214:	eb0000d1 	bl	f560 <__aeabi_uidivmod>
    f218:	e0020a98 	mul	r2, r8, sl
    f21c:	e1a03829 	lsr	r3, r9, #16
    f220:	e1834801 	orr	r4, r3, r1, lsl #16
    f224:	e1520004 	cmp	r2, r4
    f228:	9a000005 	bls	f244 <__udivdi3+0x2dc>
    f22c:	e0944005 	adds	r4, r4, r5
    f230:	e24aa001 	sub	sl, sl, #1	; 0x1
    f234:	2a000002 	bcs	f244 <__udivdi3+0x2dc>
    f238:	e1520004 	cmp	r2, r4
    f23c:	824aa001 	subhi	sl, sl, #1	; 0x1
    f240:	80844005 	addhi	r4, r4, r5
    f244:	e0624004 	rsb	r4, r2, r4
    f248:	e1a01007 	mov	r1, r7
    f24c:	e1a00004 	mov	r0, r4
    f250:	eb000083 	bl	f464 <__aeabi_uidiv>
    f254:	e1a01007 	mov	r1, r7
    f258:	e1a06000 	mov	r6, r0
    f25c:	e1a00004 	mov	r0, r4
    f260:	eb0000be 	bl	f560 <__aeabi_uidivmod>
    f264:	e0020698 	mul	r2, r8, r6
    f268:	e1a03809 	lsl	r3, r9, #16
    f26c:	e1a03823 	lsr	r3, r3, #16
    f270:	e1830801 	orr	r0, r3, r1, lsl #16
    f274:	e1520000 	cmp	r2, r0
    f278:	9a000004 	bls	f290 <__udivdi3+0x328>
    f27c:	e0903005 	adds	r3, r0, r5
    f280:	e2466001 	sub	r6, r6, #1	; 0x1
    f284:	2a000001 	bcs	f290 <__udivdi3+0x328>
    f288:	e1520003 	cmp	r2, r3
    f28c:	82466001 	subhi	r6, r6, #1	; 0x1
    f290:	e186280a 	orr	r2, r6, sl, lsl #16
    f294:	e1a0300b 	mov	r3, fp
    f298:	eaffff8e 	b	f0d8 <__udivdi3+0x170>
    f29c:	e3530c01 	cmp	r3, #256	; 0x100
    f2a0:	33a03000 	movcc	r3, #0	; 0x0
    f2a4:	23a03008 	movcs	r3, #8	; 0x8
    f2a8:	e1a0133c 	lsr	r1, ip, r3
    f2ac:	e59f21ac 	ldr	r2, [pc, #428]	; f460 <__udivdi3+0x4f8>
    f2b0:	e7d23001 	ldrb	r3, [r2, r1]
    f2b4:	33a00020 	movcc	r0, #32	; 0x20
    f2b8:	23a00018 	movcs	r0, #24	; 0x18
    f2bc:	e050a003 	subs	sl, r0, r3
    f2c0:	0affff7d 	beq	f0bc <__udivdi3+0x154>
    f2c4:	e26a2020 	rsb	r2, sl, #32	; 0x20
    f2c8:	e1a03235 	lsr	r3, r5, r2
    f2cc:	e1a04236 	lsr	r4, r6, r2
    f2d0:	e1a02239 	lsr	r2, r9, r2
    f2d4:	e1837a1c 	orr	r7, r3, ip, lsl sl
    f2d8:	e1826a16 	orr	r6, r2, r6, lsl sl
    f2dc:	e1a08827 	lsr	r8, r7, #16
    f2e0:	e1a01008 	mov	r1, r8
    f2e4:	e1a00004 	mov	r0, r4
    f2e8:	e58d600c 	str	r6, [sp, #12]
    f2ec:	eb00005c 	bl	f464 <__aeabi_uidiv>
    f2f0:	e1a01008 	mov	r1, r8
    f2f4:	e1a0b000 	mov	fp, r0
    f2f8:	e1a00004 	mov	r0, r4
    f2fc:	eb000097 	bl	f560 <__aeabi_uidivmod>
    f300:	e1a05a15 	lsl	r5, r5, sl
    f304:	e1a06807 	lsl	r6, r7, #16
    f308:	e1a06826 	lsr	r6, r6, #16
    f30c:	e0020b96 	mul	r2, r6, fp
    f310:	e59d000c 	ldr	r0, [sp, #12]
    f314:	e1a03820 	lsr	r3, r0, #16
    f318:	e1834801 	orr	r4, r3, r1, lsl #16
    f31c:	e1520004 	cmp	r2, r4
    f320:	e58d5008 	str	r5, [sp, #8]
    f324:	9a000002 	bls	f334 <__udivdi3+0x3cc>
    f328:	e0944007 	adds	r4, r4, r7
    f32c:	e24bb001 	sub	fp, fp, #1	; 0x1
    f330:	3a00003e 	bcc	f430 <__udivdi3+0x4c8>
    f334:	e0624004 	rsb	r4, r2, r4
    f338:	e1a01008 	mov	r1, r8
    f33c:	e1a00004 	mov	r0, r4
    f340:	eb000047 	bl	f464 <__aeabi_uidiv>
    f344:	e1a01008 	mov	r1, r8
    f348:	e1a05000 	mov	r5, r0
    f34c:	e1a00004 	mov	r0, r4
    f350:	eb000082 	bl	f560 <__aeabi_uidivmod>
    f354:	e0020596 	mul	r2, r6, r5
    f358:	e59d000c 	ldr	r0, [sp, #12]
    f35c:	e1a03800 	lsl	r3, r0, #16
    f360:	e1a03823 	lsr	r3, r3, #16
    f364:	e1830801 	orr	r0, r3, r1, lsl #16
    f368:	e1520000 	cmp	r2, r0
    f36c:	9a000002 	bls	f37c <__udivdi3+0x414>
    f370:	e0900007 	adds	r0, r0, r7
    f374:	e2455001 	sub	r5, r5, #1	; 0x1
    f378:	3a000028 	bcc	f420 <__udivdi3+0x4b8>
    f37c:	e0622000 	rsb	r2, r2, r0
    f380:	e185080b 	orr	r0, r5, fp, lsl #16
    f384:	e59d5008 	ldr	r5, [sp, #8]
    f388:	e1a0c820 	lsr	ip, r0, #16
    f38c:	e1a03825 	lsr	r3, r5, #16
    f390:	e1c0e80c 	bic	lr, r0, ip, lsl #16
    f394:	e1c54803 	bic	r4, r5, r3, lsl #16
    f398:	e001049e 	mul	r1, lr, r4
    f39c:	e004049c 	mul	r4, ip, r4
    f3a0:	e00e0e93 	mul	lr, r3, lr
    f3a4:	e003039c 	mul	r3, ip, r3
    f3a8:	e094e00e 	adds	lr, r4, lr
    f3ac:	22833801 	addcs	r3, r3, #65536	; 0x10000
    f3b0:	e091180e 	adds	r1, r1, lr, lsl #16
    f3b4:	e0a3382e 	adc	r3, r3, lr, lsr #16
    f3b8:	e1520003 	cmp	r2, r3
    f3bc:	3a000008 	bcc	f3e4 <__udivdi3+0x47c>
    f3c0:	13a03000 	movne	r3, #0	; 0x0
    f3c4:	03a03001 	moveq	r3, #1	; 0x1
    f3c8:	e1510a19 	cmp	r1, r9, lsl sl
    f3cc:	93a01000 	movls	r1, #0	; 0x0
    f3d0:	82031001 	andhi	r1, r3, #1	; 0x1
    f3d4:	e3510000 	cmp	r1, #0	; 0x0
    f3d8:	01a02000 	moveq	r2, r0
    f3dc:	01a03001 	moveq	r3, r1
    f3e0:	0affff3c 	beq	f0d8 <__udivdi3+0x170>
    f3e4:	e2402001 	sub	r2, r0, #1	; 0x1
    f3e8:	e3a03000 	mov	r3, #0	; 0x0
    f3ec:	eaffff39 	b	f0d8 <__udivdi3+0x170>
    f3f0:	e3550c01 	cmp	r5, #256	; 0x100
    f3f4:	33a00020 	movcc	r0, #32	; 0x20
    f3f8:	23a00018 	movcs	r0, #24	; 0x18
    f3fc:	33a03000 	movcc	r3, #0	; 0x0
    f400:	23a03008 	movcs	r3, #8	; 0x8
    f404:	eaffff44 	b	f11c <__udivdi3+0x1b4>
    f408:	e3520c01 	cmp	r2, #256	; 0x100
    f40c:	33a00020 	movcc	r0, #32	; 0x20
    f410:	23a00018 	movcs	r0, #24	; 0x18
    f414:	33a03000 	movcc	r3, #0	; 0x0
    f418:	23a03008 	movcs	r3, #8	; 0x8
    f41c:	eafffee4 	b	efb4 <__udivdi3+0x4c>
    f420:	e1520000 	cmp	r2, r0
    f424:	80800007 	addhi	r0, r0, r7
    f428:	82455001 	subhi	r5, r5, #1	; 0x1
    f42c:	eaffffd2 	b	f37c <__udivdi3+0x414>
    f430:	e1520004 	cmp	r2, r4
    f434:	824bb001 	subhi	fp, fp, #1	; 0x1
    f438:	80844007 	addhi	r4, r4, r7
    f43c:	eaffffbc 	b	f334 <__udivdi3+0x3cc>
    f440:	e1540000 	cmp	r4, r0
    f444:	82466001 	subhi	r6, r6, #1	; 0x1
    f448:	80800005 	addhi	r0, r0, r5
    f44c:	eaffff67 	b	f1f0 <__udivdi3+0x288>
    f450:	e1520004 	cmp	r2, r4
    f454:	824bb001 	subhi	fp, fp, #1	; 0x1
    f458:	80844005 	addhi	r4, r4, r5
    f45c:	eaffff51 	b	f1a8 <__udivdi3+0x240>
    f460:	0000f778 	.word	0x0000f778

0000f464 <__aeabi_uidiv>:
    f464:	e2512001 	subs	r2, r1, #1	; 0x1
    f468:	012fff1e 	bxeq	lr
    f46c:	3a000036 	bcc	f54c <__aeabi_uidiv+0xe8>
    f470:	e1500001 	cmp	r0, r1
    f474:	9a000022 	bls	f504 <__aeabi_uidiv+0xa0>
    f478:	e1110002 	tst	r1, r2
    f47c:	0a000023 	beq	f510 <__aeabi_uidiv+0xac>
    f480:	e311020e 	tst	r1, #-536870912	; 0xe0000000
    f484:	01a01181 	lsleq	r1, r1, #3
    f488:	03a03008 	moveq	r3, #8	; 0x8
    f48c:	13a03001 	movne	r3, #1	; 0x1
    f490:	e3510201 	cmp	r1, #268435456	; 0x10000000
    f494:	31510000 	cmpcc	r1, r0
    f498:	31a01201 	lslcc	r1, r1, #4
    f49c:	31a03203 	lslcc	r3, r3, #4
    f4a0:	3afffffa 	bcc	f490 <__aeabi_uidiv+0x2c>
    f4a4:	e3510102 	cmp	r1, #-2147483648	; 0x80000000
    f4a8:	31510000 	cmpcc	r1, r0
    f4ac:	31a01081 	lslcc	r1, r1, #1
    f4b0:	31a03083 	lslcc	r3, r3, #1
    f4b4:	3afffffa 	bcc	f4a4 <__aeabi_uidiv+0x40>
    f4b8:	e3a02000 	mov	r2, #0	; 0x0
    f4bc:	e1500001 	cmp	r0, r1
    f4c0:	20400001 	subcs	r0, r0, r1
    f4c4:	21822003 	orrcs	r2, r2, r3
    f4c8:	e15000a1 	cmp	r0, r1, lsr #1
    f4cc:	204000a1 	subcs	r0, r0, r1, lsr #1
    f4d0:	218220a3 	orrcs	r2, r2, r3, lsr #1
    f4d4:	e1500121 	cmp	r0, r1, lsr #2
    f4d8:	20400121 	subcs	r0, r0, r1, lsr #2
    f4dc:	21822123 	orrcs	r2, r2, r3, lsr #2
    f4e0:	e15001a1 	cmp	r0, r1, lsr #3
    f4e4:	204001a1 	subcs	r0, r0, r1, lsr #3
    f4e8:	218221a3 	orrcs	r2, r2, r3, lsr #3
    f4ec:	e3500000 	cmp	r0, #0	; 0x0
    f4f0:	11b03223 	lsrsne	r3, r3, #4
    f4f4:	11a01221 	lsrne	r1, r1, #4
    f4f8:	1affffef 	bne	f4bc <__aeabi_uidiv+0x58>
    f4fc:	e1a00002 	mov	r0, r2
    f500:	e12fff1e 	bx	lr
    f504:	03a00001 	moveq	r0, #1	; 0x1
    f508:	13a00000 	movne	r0, #0	; 0x0
    f50c:	e12fff1e 	bx	lr
    f510:	e3510801 	cmp	r1, #65536	; 0x10000
    f514:	21a01821 	lsrcs	r1, r1, #16
    f518:	23a02010 	movcs	r2, #16	; 0x10
    f51c:	33a02000 	movcc	r2, #0	; 0x0
    f520:	e3510c01 	cmp	r1, #256	; 0x100
    f524:	21a01421 	lsrcs	r1, r1, #8
    f528:	22822008 	addcs	r2, r2, #8	; 0x8
    f52c:	e3510010 	cmp	r1, #16	; 0x10
    f530:	21a01221 	lsrcs	r1, r1, #4
    f534:	22822004 	addcs	r2, r2, #4	; 0x4
    f538:	e3510004 	cmp	r1, #4	; 0x4
    f53c:	82822003 	addhi	r2, r2, #3	; 0x3
    f540:	908220a1 	addls	r2, r2, r1, lsr #1
    f544:	e1a00230 	lsr	r0, r0, r2
    f548:	e12fff1e 	bx	lr
    f54c:	e52de008 	str	lr, [sp, #-8]!
    f550:	ebfffa5a 	bl	dec0 <__aeabi_idiv0>
    f554:	e3a00000 	mov	r0, #0	; 0x0
    f558:	e49de008 	ldr	lr, [sp], #8
    f55c:	e12fff1e 	bx	lr

0000f560 <__aeabi_uidivmod>:
    f560:	e92d4003 	push	{r0, r1, lr}
    f564:	ebffffbe 	bl	f464 <__aeabi_uidiv>
    f568:	e8bd4006 	pop	{r1, r2, lr}
    f56c:	e0030092 	mul	r3, r2, r0
    f570:	e0411003 	sub	r1, r1, r3
    f574:	e12fff1e 	bx	lr
