   1              		.cpu arm7tdmi-s
   2              		.fpu softvfp
   3              		.eabi_attribute 20, 1
   4              		.eabi_attribute 21, 1
   5              		.eabi_attribute 23, 3
   6              		.eabi_attribute 24, 1
   7              		.eabi_attribute 25, 1
   8              		.eabi_attribute 26, 1
   9              		.eabi_attribute 30, 6
  10              		.eabi_attribute 18, 4
  11              		.file	"automato.c"
  21              	.Ltext0:
  22              		.file 1 "/home/masterzdran/WorkingArea/Isel/semestre6/SE2/workplace/code/src/program/Automato/auto
 7257              		.align	2
 7259              	main_application_init:
 7260              	.LFB22:
   1:/home/masterzdran/WorkingArea/Isel/semestre6/SE2/workplace/code/src/program/Automato/automato.c **** #include <cyg/kernel/kapi.h>
   2:/home/masterzdran/WorkingArea/Isel/semestre6/SE2/workplace/code/src/program/Automato/automato.c **** #include <string.h>
   3:/home/masterzdran/WorkingArea/Isel/semestre6/SE2/workplace/code/src/program/Automato/automato.c **** #include "timer.h"
   4:/home/masterzdran/WorkingArea/Isel/semestre6/SE2/workplace/code/src/program/Automato/automato.c **** #include "uip-conf.h"
   5:/home/masterzdran/WorkingArea/Isel/semestre6/SE2/workplace/code/src/program/Automato/automato.c **** 
   6:/home/masterzdran/WorkingArea/Isel/semestre6/SE2/workplace/code/src/program/Automato/automato.c **** #include "uip_arp.h"
   7:/home/masterzdran/WorkingArea/Isel/semestre6/SE2/workplace/code/src/program/Automato/automato.c **** #include "uip.h"
   8:/home/masterzdran/WorkingArea/Isel/semestre6/SE2/workplace/code/src/program/Automato/automato.c **** #include "Ethernet.h"
   9:/home/masterzdran/WorkingArea/Isel/semestre6/SE2/workplace/code/src/program/Automato/automato.c **** #include <time.h>
  10:/home/masterzdran/WorkingArea/Isel/semestre6/SE2/workplace/code/src/program/Automato/automato.c **** #include <stdio.h>
  11:/home/masterzdran/WorkingArea/Isel/semestre6/SE2/workplace/code/src/program/Automato/automato.c **** #include <cyg/hal/hal_arch.h>	// For stack size
  12:/home/masterzdran/WorkingArea/Isel/semestre6/SE2/workplace/code/src/program/Automato/automato.c **** #include <cyg/infra/diag.h>		// For diagnostic printing.
  13:/home/masterzdran/WorkingArea/Isel/semestre6/SE2/workplace/code/src/program/Automato/automato.c **** #include "TYPES.h"
  14:/home/masterzdran/WorkingArea/Isel/semestre6/SE2/workplace/code/src/program/Automato/automato.c **** struct timer periodic_timer, arp_timer;
  15:/home/masterzdran/WorkingArea/Isel/semestre6/SE2/workplace/code/src/program/Automato/automato.c **** void uip_setup() ;
  16:/home/masterzdran/WorkingArea/Isel/semestre6/SE2/workplace/code/src/program/Automato/automato.c **** void uip_activity() ;
  17:/home/masterzdran/WorkingArea/Isel/semestre6/SE2/workplace/code/src/program/Automato/automato.c **** 
  18:/home/masterzdran/WorkingArea/Isel/semestre6/SE2/workplace/code/src/program/Automato/automato.c **** 
  19:/home/masterzdran/WorkingArea/Isel/semestre6/SE2/workplace/code/src/program/Automato/automato.c **** 
  20:/home/masterzdran/WorkingArea/Isel/semestre6/SE2/workplace/code/src/program/Automato/automato.c **** static void main_application_init() {
 7261              		.loc 1 20 0
 7262              		@ Function supports interworking.
 7263              		@ args = 0, pretend = 0, frame = 0
 7264              		@ frame_needed = 1, uses_anonymous_args = 0
 7265 0000 0DC0A0E1 		mov	ip, sp
 7266              	.LCFI0:
 7267 0004 00D82DE9 		stmfd	sp!, {fp, ip, lr, pc}
 7268              	.LCFI1:
 7269 0008 04B04CE2 		sub	fp, ip, #4
 7270              	.LCFI2:
  21:/home/masterzdran/WorkingArea/Isel/semestre6/SE2/workplace/code/src/program/Automato/automato.c **** uip_listen(HTONS(1234));
 7271              		.loc 1 21 0
 7272 000c D20CA0E3 		mov	r0, #53760
 7273 0010 040080E2 		add	r0, r0, #4
 7274 0014 FEFFFFEB 		bl	uip_listen
  22:/home/masterzdran/WorkingArea/Isel/semestre6/SE2/workplace/code/src/program/Automato/automato.c **** }
 7275              		.loc 1 22 0
 7276 0018 0CD04BE2 		sub	sp, fp, #12
 7277 001c 00689DE8 		ldmfd	sp, {fp, sp, lr}
 7278 0020 1EFF2FE1 		bx	lr
 7279              	.LFE22:
 7281              		.align	2
 7282              		.global	main_application
 7284              	main_application:
 7285              	.LFB23:
  23:/home/masterzdran/WorkingArea/Isel/semestre6/SE2/workplace/code/src/program/Automato/automato.c **** void main_application(void) {
 7286              		.loc 1 23 0
 7287              		@ Function supports interworking.
 7288              		@ args = 0, pretend = 0, frame = 0
 7289              		@ frame_needed = 1, uses_anonymous_args = 0
 7290 0024 0DC0A0E1 		mov	ip, sp
 7291              	.LCFI3:
 7292 0028 00D82DE9 		stmfd	sp!, {fp, ip, lr, pc}
 7293              	.LCFI4:
 7294 002c 04B04CE2 		sub	fp, ip, #4
 7295              	.LCFI5:
  24:/home/masterzdran/WorkingArea/Isel/semestre6/SE2/workplace/code/src/program/Automato/automato.c **** 	if (uip_newdata())
 7296              		.loc 1 24 0
 7297 0030 34309FE5 		ldr	r3, .L6
 7298 0034 0030D3E5 		ldrb	r3, [r3, #0]	@ zero_extendqisi2
 7299 0038 023003E2 		and	r3, r3, #2
 7300 003c 000053E3 		cmp	r3, #0
 7301 0040 0600000A 		beq	.L5
  25:/home/masterzdran/WorkingArea/Isel/semestre6/SE2/workplace/code/src/program/Automato/automato.c **** 		uip_send(uip_appdata, uip_datalen());
 7302              		.loc 1 25 0
 7303 0044 24309FE5 		ldr	r3, .L6+4
 7304 0048 002093E5 		ldr	r2, [r3, #0]
 7305 004c 20309FE5 		ldr	r3, .L6+8
 7306 0050 B030D3E1 		ldrh	r3, [r3, #0]
 7307 0054 0200A0E1 		mov	r0, r2
 7308 0058 0310A0E1 		mov	r1, r3
 7309 005c FEFFFFEB 		bl	uip_send
 7310              	.L5:
  26:/home/masterzdran/WorkingArea/Isel/semestre6/SE2/workplace/code/src/program/Automato/automato.c **** }
 7311              		.loc 1 26 0
 7312 0060 0CD04BE2 		sub	sp, fp, #12
 7313 0064 00689DE8 		ldmfd	sp, {fp, sp, lr}
 7314 0068 1EFF2FE1 		bx	lr
 7315              	.L7:
 7316              		.align	2
 7317              	.L6:
 7318 006c 00000000 		.word	uip_flags
 7319 0070 00000000 		.word	uip_appdata
 7320 0074 00000000 		.word	uip_len
 7321              	.LFE23:
 7323              		.data
 7326              	ether_addr:
 7327 0000 02       		.byte	2
 7328 0001 65       		.byte	101
 7329 0002 7A       		.byte	122
 7330 0003 65       		.byte	101
 7331 0004 71       		.byte	113
 7332 0005 00       		.byte	0
 7333              		.section	.rodata
 7334              		.align	2
 7335              	.LC0:
 7336 0000 54657374 		.ascii	"Test uip\012\015\000"
 7336      20756970 
 7336      0A0D00
 7337 000b 00       		.text
 7338              		.align	2
 7339              		.global	main
 7341              	main:
 7342              	.LFB24:
  27:/home/masterzdran/WorkingArea/Isel/semestre6/SE2/workplace/code/src/program/Automato/automato.c **** 
  28:/home/masterzdran/WorkingArea/Isel/semestre6/SE2/workplace/code/src/program/Automato/automato.c **** static struct uip_eth_addr ether_addr = { {0x02, 0x65, 0x7A, 0x65, 0x71, 00} };
  29:/home/masterzdran/WorkingArea/Isel/semestre6/SE2/workplace/code/src/program/Automato/automato.c **** 
  30:/home/masterzdran/WorkingArea/Isel/semestre6/SE2/workplace/code/src/program/Automato/automato.c **** int main(void) {
 7343              		.loc 1 30 0
 7344              		@ Function supports interworking.
 7345              		@ args = 0, pretend = 0, frame = 0
 7346              		@ frame_needed = 1, uses_anonymous_args = 0
 7347 0078 0DC0A0E1 		mov	ip, sp
 7348              	.LCFI6:
 7349 007c 00D82DE9 		stmfd	sp!, {fp, ip, lr, pc}
 7350              	.LCFI7:
 7351 0080 04B04CE2 		sub	fp, ip, #4
 7352              	.LCFI8:
  31:/home/masterzdran/WorkingArea/Isel/semestre6/SE2/workplace/code/src/program/Automato/automato.c **** diag_printf("Test uip\n\r");
 7353              		.loc 1 31 0
 7354 0084 10009FE5 		ldr	r0, .L11
 7355 0088 FEFFFFEB 		bl	diag_printf
  32:/home/masterzdran/WorkingArea/Isel/semestre6/SE2/workplace/code/src/program/Automato/automato.c **** uip_setup();
 7356              		.loc 1 32 0
 7357 008c FEFFFFEB 		bl	uip_setup
  33:/home/masterzdran/WorkingArea/Isel/semestre6/SE2/workplace/code/src/program/Automato/automato.c **** main_application_init();
 7358              		.loc 1 33 0
 7359 0090 DAFFFFEB 		bl	main_application_init
 7360              	.L9:
  34:/home/masterzdran/WorkingArea/Isel/semestre6/SE2/workplace/code/src/program/Automato/automato.c **** while (1)
  35:/home/masterzdran/WorkingArea/Isel/semestre6/SE2/workplace/code/src/program/Automato/automato.c **** uip_activity();
 7361              		.loc 1 35 0
 7362 0094 FEFFFFEB 		bl	uip_activity
 7363 0098 FDFFFFEA 		b	.L9
 7364              	.L12:
 7365              		.align	2
 7366              	.L11:
 7367 009c 00000000 		.word	.LC0
 7368              	.LFE24:
 7370              		.align	2
 7371              		.global	uip_setup
 7373              	uip_setup:
 7374              	.LFB25:
  36:/home/masterzdran/WorkingArea/Isel/semestre6/SE2/workplace/code/src/program/Automato/automato.c **** }
  37:/home/masterzdran/WorkingArea/Isel/semestre6/SE2/workplace/code/src/program/Automato/automato.c **** 
  38:/home/masterzdran/WorkingArea/Isel/semestre6/SE2/workplace/code/src/program/Automato/automato.c **** 
  39:/home/masterzdran/WorkingArea/Isel/semestre6/SE2/workplace/code/src/program/Automato/automato.c **** void uip_setup() {
 7375              		.loc 1 39 0
 7376              		@ Function supports interworking.
 7377              		@ args = 0, pretend = 0, frame = 8
 7378              		@ frame_needed = 1, uses_anonymous_args = 0
 7379 00a0 0DC0A0E1 		mov	ip, sp
 7380              	.LCFI9:
 7381 00a4 00D82DE9 		stmfd	sp!, {fp, ip, lr, pc}
 7382              	.LCFI10:
 7383 00a8 04B04CE2 		sub	fp, ip, #4
 7384              	.LCFI11:
 7385 00ac 08D04DE2 		sub	sp, sp, #8
 7386              	.LCFI12:
  40:/home/masterzdran/WorkingArea/Isel/semestre6/SE2/workplace/code/src/program/Automato/automato.c **** 	uip_ipaddr_t ipaddr;
  41:/home/masterzdran/WorkingArea/Isel/semestre6/SE2/workplace/code/src/program/Automato/automato.c **** 	timer_set(&periodic_timer, CLOCK_SECOND / 2);
 7387              		.loc 1 41 0
 7388 00b0 38019FE5 		ldr	r0, .L15
 7389 00b4 7D1FA0E3 		mov	r1, #500
 7390 00b8 FEFFFFEB 		bl	timer_set
  42:/home/masterzdran/WorkingArea/Isel/semestre6/SE2/workplace/code/src/program/Automato/automato.c **** 	timer_set(&arp_timer, CLOCK_SECOND * 10);
 7391              		.loc 1 42 0
 7392 00bc 30019FE5 		ldr	r0, .L15+4
 7393 00c0 271CA0E3 		mov	r1, #9984
 7394 00c4 101081E2 		add	r1, r1, #16
 7395 00c8 FEFFFFEB 		bl	timer_set
  43:/home/masterzdran/WorkingArea/Isel/semestre6/SE2/workplace/code/src/program/Automato/automato.c **** 	Ethernet_init(ether_addr.addr);
 7396              		.loc 1 43 0
 7397 00cc 24319FE5 		ldr	r3, .L15+8
 7398 00d0 0300A0E1 		mov	r0, r3
 7399 00d4 FEFFFFEB 		bl	Ethernet_init
  44:/home/masterzdran/WorkingArea/Isel/semestre6/SE2/workplace/code/src/program/Automato/automato.c **** 	uip_init();
 7400              		.loc 1 44 0
 7401 00d8 FEFFFFEB 		bl	uip_init
  45:/home/masterzdran/WorkingArea/Isel/semestre6/SE2/workplace/code/src/program/Automato/automato.c **** 	uip_setethaddr(ether_addr);
 7402              		.loc 1 45 0
 7403 00dc 14319FE5 		ldr	r3, .L15+8
 7404 00e0 0030D3E5 		ldrb	r3, [r3, #0]	@ zero_extendqisi2
 7405 00e4 10219FE5 		ldr	r2, .L15+12
 7406 00e8 0030C2E5 		strb	r3, [r2, #0]
 7407 00ec 04319FE5 		ldr	r3, .L15+8
 7408 00f0 0130D3E5 		ldrb	r3, [r3, #1]	@ zero_extendqisi2
 7409 00f4 00219FE5 		ldr	r2, .L15+12
 7410 00f8 0130C2E5 		strb	r3, [r2, #1]
 7411 00fc F4309FE5 		ldr	r3, .L15+8
 7412 0100 0230D3E5 		ldrb	r3, [r3, #2]	@ zero_extendqisi2
 7413 0104 F0209FE5 		ldr	r2, .L15+12
 7414 0108 0230C2E5 		strb	r3, [r2, #2]
 7415 010c E4309FE5 		ldr	r3, .L15+8
 7416 0110 0330D3E5 		ldrb	r3, [r3, #3]	@ zero_extendqisi2
 7417 0114 E0209FE5 		ldr	r2, .L15+12
 7418 0118 0330C2E5 		strb	r3, [r2, #3]
 7419 011c D4309FE5 		ldr	r3, .L15+8
 7420 0120 0430D3E5 		ldrb	r3, [r3, #4]	@ zero_extendqisi2
 7421 0124 D0209FE5 		ldr	r2, .L15+12
 7422 0128 0430C2E5 		strb	r3, [r2, #4]
 7423 012c C4309FE5 		ldr	r3, .L15+8
 7424 0130 0530D3E5 		ldrb	r3, [r3, #5]	@ zero_extendqisi2
 7425 0134 C0209FE5 		ldr	r2, .L15+12
 7426 0138 0530C2E5 		strb	r3, [r2, #5]
  46:/home/masterzdran/WorkingArea/Isel/semestre6/SE2/workplace/code/src/program/Automato/automato.c **** 	uip_ipaddr(ipaddr, 10,0,0,4);
 7427              		.loc 1 46 0
 7428 013c 0A30A0E3 		mov	r3, #10
 7429 0140 B0314BE1 		strh	r3, [fp, #-16]	@ movhi
 7430 0144 10304BE2 		sub	r3, fp, #16
 7431 0148 022083E2 		add	r2, r3, #2
 7432 014c 013BA0E3 		mov	r3, #1024
 7433 0150 B030C2E1 		strh	r3, [r2, #0]	@ movhi
  47:/home/masterzdran/WorkingArea/Isel/semestre6/SE2/workplace/code/src/program/Automato/automato.c **** 	uip_sethostaddr(ipaddr);
 7434              		.loc 1 47 0
 7435 0154 B0215BE1 		ldrh	r2, [fp, #-16]
 7436 0158 A0309FE5 		ldr	r3, .L15+16
 7437 015c B020C3E1 		strh	r2, [r3, #0]	@ movhi
 7438 0160 9C209FE5 		ldr	r2, .L15+20
 7439 0164 10304BE2 		sub	r3, fp, #16
 7440 0168 023083E2 		add	r3, r3, #2
 7441 016c B030D3E1 		ldrh	r3, [r3, #0]
 7442 0170 B030C2E1 		strh	r3, [r2, #0]	@ movhi
  48:/home/masterzdran/WorkingArea/Isel/semestre6/SE2/workplace/code/src/program/Automato/automato.c **** 	uip_ipaddr(ipaddr, 10,0,0,0);
 7443              		.loc 1 48 0
 7444 0174 0A30A0E3 		mov	r3, #10
 7445 0178 B0314BE1 		strh	r3, [fp, #-16]	@ movhi
 7446 017c 10304BE2 		sub	r3, fp, #16
 7447 0180 022083E2 		add	r2, r3, #2
 7448 0184 0030A0E3 		mov	r3, #0
 7449 0188 B030C2E1 		strh	r3, [r2, #0]	@ movhi
  49:/home/masterzdran/WorkingArea/Isel/semestre6/SE2/workplace/code/src/program/Automato/automato.c **** 	uip_setdraddr(ipaddr);
 7450              		.loc 1 49 0
 7451 018c B0215BE1 		ldrh	r2, [fp, #-16]
 7452 0190 70309FE5 		ldr	r3, .L15+24
 7453 0194 B020C3E1 		strh	r2, [r3, #0]	@ movhi
 7454 0198 6C209FE5 		ldr	r2, .L15+28
 7455 019c 10304BE2 		sub	r3, fp, #16
 7456 01a0 023083E2 		add	r3, r3, #2
 7457 01a4 B030D3E1 		ldrh	r3, [r3, #0]
 7458 01a8 B030C2E1 		strh	r3, [r2, #0]	@ movhi
  50:/home/masterzdran/WorkingArea/Isel/semestre6/SE2/workplace/code/src/program/Automato/automato.c **** 	uip_ipaddr(ipaddr, 255,255,255,0);
 7459              		.loc 1 50 0
 7460 01ac 0030E0E3 		mvn	r3, #0
 7461 01b0 B0314BE1 		strh	r3, [fp, #-16]	@ movhi
 7462 01b4 10304BE2 		sub	r3, fp, #16
 7463 01b8 022083E2 		add	r2, r3, #2
 7464 01bc FF30A0E3 		mov	r3, #255
 7465 01c0 B030C2E1 		strh	r3, [r2, #0]	@ movhi
  51:/home/masterzdran/WorkingArea/Isel/semestre6/SE2/workplace/code/src/program/Automato/automato.c **** 	uip_setnetmask(ipaddr);
 7466              		.loc 1 51 0
 7467 01c4 B0215BE1 		ldrh	r2, [fp, #-16]
 7468 01c8 40309FE5 		ldr	r3, .L15+32
 7469 01cc B020C3E1 		strh	r2, [r3, #0]	@ movhi
 7470 01d0 3C209FE5 		ldr	r2, .L15+36
 7471 01d4 10304BE2 		sub	r3, fp, #16
 7472 01d8 023083E2 		add	r3, r3, #2
 7473 01dc B030D3E1 		ldrh	r3, [r3, #0]
 7474 01e0 B030C2E1 		strh	r3, [r2, #0]	@ movhi
  52:/home/masterzdran/WorkingArea/Isel/semestre6/SE2/workplace/code/src/program/Automato/automato.c **** }
 7475              		.loc 1 52 0
 7476 01e4 0CD04BE2 		sub	sp, fp, #12
 7477 01e8 00689DE8 		ldmfd	sp, {fp, sp, lr}
 7478 01ec 1EFF2FE1 		bx	lr
 7479              	.L16:
 7480              		.align	2
 7481              	.L15:
 7482 01f0 00000000 		.word	periodic_timer
 7483 01f4 00000000 		.word	arp_timer
 7484 01f8 00000000 		.word	ether_addr
 7485 01fc 00000000 		.word	uip_ethaddr
 7486 0200 00000000 		.word	uip_hostaddr
 7487 0204 02000000 		.word	uip_hostaddr+2
 7488 0208 00000000 		.word	uip_draddr
 7489 020c 02000000 		.word	uip_draddr+2
 7490 0210 00000000 		.word	uip_netmask
 7491 0214 02000000 		.word	uip_netmask+2
 7492              	.LFE25:
 7499              		.align	2
 7500              		.global	uip_activity
 7502              	uip_activity:
 7503              	.LFB26:
  53:/home/masterzdran/WorkingArea/Isel/semestre6/SE2/workplace/code/src/program/Automato/automato.c **** 
  54:/home/masterzdran/WorkingArea/Isel/semestre6/SE2/workplace/code/src/program/Automato/automato.c **** #define BUF ((struct uip_eth_hdr *)uip_buf)
  55:/home/masterzdran/WorkingArea/Isel/semestre6/SE2/workplace/code/src/program/Automato/automato.c **** 
  56:/home/masterzdran/WorkingArea/Isel/semestre6/SE2/workplace/code/src/program/Automato/automato.c **** void uip_activity() {
 7504              		.loc 1 56 0
 7505              		@ Function supports interworking.
 7506              		@ args = 0, pretend = 0, frame = 8
 7507              		@ frame_needed = 1, uses_anonymous_args = 0
 7508 0218 0DC0A0E1 		mov	ip, sp
 7509              	.LCFI13:
 7510 021c 10D82DE9 		stmfd	sp!, {r4, fp, ip, lr, pc}
 7511              	.LCFI14:
 7512 0220 04B04CE2 		sub	fp, ip, #4
 7513              	.LCFI15:
 7514 0224 0CD04DE2 		sub	sp, sp, #12
 7515              	.LCFI16:
  57:/home/masterzdran/WorkingArea/Isel/semestre6/SE2/workplace/code/src/program/Automato/automato.c **** 	int i;
  58:/home/masterzdran/WorkingArea/Isel/semestre6/SE2/workplace/code/src/program/Automato/automato.c **** 	/* uip_len = Ethernet_receive(uip_buf, UIP_BUFSIZE, CLOCK_SECOND / 2); */
  59:/home/masterzdran/WorkingArea/Isel/semestre6/SE2/workplace/code/src/program/Automato/automato.c **** 	uip_len = Ethernet_receive(uip_buf, UIP_BUFSIZE);
 7516              		.loc 1 59 0
 7517 0228 DC019FE5 		ldr	r0, .L30
 7518 022c 691FA0E3 		mov	r1, #420
 7519 0230 FEFFFFEB 		bl	Ethernet_receive
 7520 0234 0030A0E1 		mov	r3, r0
 7521 0238 0338A0E1 		mov	r3, r3, asl #16
 7522 023c 2328A0E1 		mov	r2, r3, lsr #16
 7523 0240 C8319FE5 		ldr	r3, .L30+4
 7524 0244 B020C3E1 		strh	r2, [r3, #0]	@ movhi
  60:/home/masterzdran/WorkingArea/Isel/semestre6/SE2/workplace/code/src/program/Automato/automato.c **** 	if (uip_len > 0) {
 7525              		.loc 1 60 0
 7526 0248 C0319FE5 		ldr	r3, .L30+4
 7527 024c B030D3E1 		ldrh	r3, [r3, #0]
 7528 0250 000053E3 		cmp	r3, #0
 7529 0254 2600000A 		beq	.L18
  61:/home/masterzdran/WorkingArea/Isel/semestre6/SE2/workplace/code/src/program/Automato/automato.c **** 		if (BUF->type == htons(UIP_ETHTYPE_IP)) {
 7530              		.loc 1 61 0
 7531 0258 AC319FE5 		ldr	r3, .L30
 7532 025c BC40D3E1 		ldrh	r4, [r3, #12]
 7533 0260 020BA0E3 		mov	r0, #2048
 7534 0264 FEFFFFEB 		bl	htons
 7535 0268 0030A0E1 		mov	r3, r0
 7536 026c 030054E1 		cmp	r4, r3
 7537 0270 0C00001A 		bne	.L19
  62:/home/masterzdran/WorkingArea/Isel/semestre6/SE2/workplace/code/src/program/Automato/automato.c **** 			uip_arp_ipin();
  63:/home/masterzdran/WorkingArea/Isel/semestre6/SE2/workplace/code/src/program/Automato/automato.c **** 			uip_input();
 7538              		.loc 1 63 0
 7539 0274 0100A0E3 		mov	r0, #1
 7540 0278 FEFFFFEB 		bl	uip_process
  64:/home/masterzdran/WorkingArea/Isel/semestre6/SE2/workplace/code/src/program/Automato/automato.c **** 			if (uip_len > 0) {
 7541              		.loc 1 64 0
 7542 027c 8C319FE5 		ldr	r3, .L30+4
 7543 0280 B030D3E1 		ldrh	r3, [r3, #0]
 7544 0284 000053E3 		cmp	r3, #0
 7545 0288 5C00000A 		beq	.L29
  65:/home/masterzdran/WorkingArea/Isel/semestre6/SE2/workplace/code/src/program/Automato/automato.c **** 				uip_arp_out();
 7546              		.loc 1 65 0
 7547 028c FEFFFFEB 		bl	uip_arp_out
  66:/home/masterzdran/WorkingArea/Isel/semestre6/SE2/workplace/code/src/program/Automato/automato.c **** 				Ethernet_send(uip_buf, uip_len);
 7548              		.loc 1 66 0
 7549 0290 78319FE5 		ldr	r3, .L30+4
 7550 0294 B030D3E1 		ldrh	r3, [r3, #0]
 7551 0298 6C019FE5 		ldr	r0, .L30
 7552 029c 0310A0E1 		mov	r1, r3
 7553 02a0 FEFFFFEB 		bl	Ethernet_send
 7554 02a4 550000EA 		b	.L29
 7555              	.L19:
  67:/home/masterzdran/WorkingArea/Isel/semestre6/SE2/workplace/code/src/program/Automato/automato.c **** 			}
  68:/home/masterzdran/WorkingArea/Isel/semestre6/SE2/workplace/code/src/program/Automato/automato.c **** 		}
  69:/home/masterzdran/WorkingArea/Isel/semestre6/SE2/workplace/code/src/program/Automato/automato.c **** 		else if (BUF->type == htons(UIP_ETHTYPE_ARP)) {
 7556              		.loc 1 69 0
 7557 02a8 5C319FE5 		ldr	r3, .L30
 7558 02ac BC40D3E1 		ldrh	r4, [r3, #12]
 7559 02b0 020BA0E3 		mov	r0, #2048
 7560 02b4 060080E2 		add	r0, r0, #6
 7561 02b8 FEFFFFEB 		bl	htons
 7562 02bc 0030A0E1 		mov	r3, r0
 7563 02c0 030054E1 		cmp	r4, r3
 7564 02c4 4D00001A 		bne	.L29
  70:/home/masterzdran/WorkingArea/Isel/semestre6/SE2/workplace/code/src/program/Automato/automato.c **** 			uip_arp_arpin();
 7565              		.loc 1 70 0
 7566 02c8 FEFFFFEB 		bl	uip_arp_arpin
  71:/home/masterzdran/WorkingArea/Isel/semestre6/SE2/workplace/code/src/program/Automato/automato.c **** 			if (uip_len > 0) {
 7567              		.loc 1 71 0
 7568 02cc 3C319FE5 		ldr	r3, .L30+4
 7569 02d0 B030D3E1 		ldrh	r3, [r3, #0]
 7570 02d4 000053E3 		cmp	r3, #0
 7571 02d8 4800000A 		beq	.L29
  72:/home/masterzdran/WorkingArea/Isel/semestre6/SE2/workplace/code/src/program/Automato/automato.c **** 				Ethernet_send(uip_buf, uip_len);
 7572              		.loc 1 72 0
 7573 02dc 2C319FE5 		ldr	r3, .L30+4
 7574 02e0 B030D3E1 		ldrh	r3, [r3, #0]
 7575 02e4 20019FE5 		ldr	r0, .L30
 7576 02e8 0310A0E1 		mov	r1, r3
 7577 02ec FEFFFFEB 		bl	Ethernet_send
 7578 02f0 420000EA 		b	.L29
 7579              	.L18:
  73:/home/masterzdran/WorkingArea/Isel/semestre6/SE2/workplace/code/src/program/Automato/automato.c **** 			}
  74:/home/masterzdran/WorkingArea/Isel/semestre6/SE2/workplace/code/src/program/Automato/automato.c **** 		}
  75:/home/masterzdran/WorkingArea/Isel/semestre6/SE2/workplace/code/src/program/Automato/automato.c **** 	} else if (timer_expired(&periodic_timer)) {
 7580              		.loc 1 75 0
 7581 02f4 18019FE5 		ldr	r0, .L30+8
 7582 02f8 FEFFFFEB 		bl	timer_expired
 7583 02fc 0030A0E1 		mov	r3, r0
 7584 0300 000053E3 		cmp	r3, #0
 7585 0304 3D00000A 		beq	.L29
  76:/home/masterzdran/WorkingArea/Isel/semestre6/SE2/workplace/code/src/program/Automato/automato.c **** 		timer_reset(&periodic_timer);
 7586              		.loc 1 76 0
 7587 0308 04019FE5 		ldr	r0, .L30+8
 7588 030c FEFFFFEB 		bl	timer_reset
  77:/home/masterzdran/WorkingArea/Isel/semestre6/SE2/workplace/code/src/program/Automato/automato.c **** 		for (i = 0; i < UIP_CONNS; i++) {
 7589              		.loc 1 77 0
 7590 0310 0030A0E3 		mov	r3, #0
 7591 0314 18300BE5 		str	r3, [fp, #-24]
 7592 0318 180000EA 		b	.L23
 7593              	.L25:
  78:/home/masterzdran/WorkingArea/Isel/semestre6/SE2/workplace/code/src/program/Automato/automato.c **** 			uip_periodic(i);
 7594              		.loc 1 78 0
 7595 031c 18301BE5 		ldr	r3, [fp, #-24]
 7596 0320 0321A0E1 		mov	r2, r3, asl #2
 7597 0324 0231A0E1 		mov	r3, r2, asl #2
 7598 0328 033062E0 		rsb	r3, r2, r3
 7599 032c 0322A0E1 		mov	r2, r3, asl #4
 7600 0330 022083E0 		add	r2, r3, r2
 7601 0334 DC309FE5 		ldr	r3, .L30+12
 7602 0338 032082E0 		add	r2, r2, r3
 7603 033c D8309FE5 		ldr	r3, .L30+16
 7604 0340 002083E5 		str	r2, [r3, #0]
 7605 0344 0200A0E3 		mov	r0, #2
 7606 0348 FEFFFFEB 		bl	uip_process
  79:/home/masterzdran/WorkingArea/Isel/semestre6/SE2/workplace/code/src/program/Automato/automato.c **** 			if (uip_len > 0) {
 7607              		.loc 1 79 0
 7608 034c BC309FE5 		ldr	r3, .L30+4
 7609 0350 B030D3E1 		ldrh	r3, [r3, #0]
 7610 0354 000053E3 		cmp	r3, #0
 7611 0358 0500000A 		beq	.L24
  80:/home/masterzdran/WorkingArea/Isel/semestre6/SE2/workplace/code/src/program/Automato/automato.c **** 				uip_arp_out();
 7612              		.loc 1 80 0
 7613 035c FEFFFFEB 		bl	uip_arp_out
  81:/home/masterzdran/WorkingArea/Isel/semestre6/SE2/workplace/code/src/program/Automato/automato.c **** 				Ethernet_send(uip_buf, uip_len);
 7614              		.loc 1 81 0
 7615 0360 A8309FE5 		ldr	r3, .L30+4
 7616 0364 B030D3E1 		ldrh	r3, [r3, #0]
 7617 0368 9C009FE5 		ldr	r0, .L30
 7618 036c 0310A0E1 		mov	r1, r3
 7619 0370 FEFFFFEB 		bl	Ethernet_send
 7620              	.L24:
 7621              		.loc 1 77 0
 7622 0374 18301BE5 		ldr	r3, [fp, #-24]
 7623 0378 013083E2 		add	r3, r3, #1
 7624 037c 18300BE5 		str	r3, [fp, #-24]
 7625              	.L23:
 7626 0380 18301BE5 		ldr	r3, [fp, #-24]
 7627 0384 270053E3 		cmp	r3, #39
 7628 0388 E3FFFFDA 		ble	.L25
  82:/home/masterzdran/WorkingArea/Isel/semestre6/SE2/workplace/code/src/program/Automato/automato.c **** 			}
  83:/home/masterzdran/WorkingArea/Isel/semestre6/SE2/workplace/code/src/program/Automato/automato.c **** 		}
  84:/home/masterzdran/WorkingArea/Isel/semestre6/SE2/workplace/code/src/program/Automato/automato.c **** 		for (i = 0; i < UIP_UDP_CONNS; i++) {
 7629              		.loc 1 84 0
 7630 038c 0030A0E3 		mov	r3, #0
 7631 0390 18300BE5 		str	r3, [fp, #-24]
 7632 0394 0E0000EA 		b	.L26
 7633              	.L28:
  85:/home/masterzdran/WorkingArea/Isel/semestre6/SE2/workplace/code/src/program/Automato/automato.c **** 			uip_udp_periodic(i);
 7634              		.loc 1 85 0
 7635 0398 18001BE5 		ldr	r0, [fp, #-24]
 7636 039c FEFFFFEB 		bl	uip_udp_periodic
  86:/home/masterzdran/WorkingArea/Isel/semestre6/SE2/workplace/code/src/program/Automato/automato.c **** 			if (uip_len > 0) {
 7637              		.loc 1 86 0
 7638 03a0 68309FE5 		ldr	r3, .L30+4
 7639 03a4 B030D3E1 		ldrh	r3, [r3, #0]
 7640 03a8 000053E3 		cmp	r3, #0
 7641 03ac 0500000A 		beq	.L27
  87:/home/masterzdran/WorkingArea/Isel/semestre6/SE2/workplace/code/src/program/Automato/automato.c **** 				uip_arp_out();
 7642              		.loc 1 87 0
 7643 03b0 FEFFFFEB 		bl	uip_arp_out
  88:/home/masterzdran/WorkingArea/Isel/semestre6/SE2/workplace/code/src/program/Automato/automato.c **** 				Ethernet_send(uip_buf, uip_len);
 7644              		.loc 1 88 0
 7645 03b4 54309FE5 		ldr	r3, .L30+4
 7646 03b8 B030D3E1 		ldrh	r3, [r3, #0]
 7647 03bc 48009FE5 		ldr	r0, .L30
 7648 03c0 0310A0E1 		mov	r1, r3
 7649 03c4 FEFFFFEB 		bl	Ethernet_send
 7650              	.L27:
 7651              		.loc 1 84 0
 7652 03c8 18301BE5 		ldr	r3, [fp, #-24]
 7653 03cc 013083E2 		add	r3, r3, #1
 7654 03d0 18300BE5 		str	r3, [fp, #-24]
 7655              	.L26:
 7656 03d4 18301BE5 		ldr	r3, [fp, #-24]
 7657 03d8 090053E3 		cmp	r3, #9
 7658 03dc EDFFFFDA 		ble	.L28
  89:/home/masterzdran/WorkingArea/Isel/semestre6/SE2/workplace/code/src/program/Automato/automato.c **** 			}
  90:/home/masterzdran/WorkingArea/Isel/semestre6/SE2/workplace/code/src/program/Automato/automato.c **** 		}
  91:/home/masterzdran/WorkingArea/Isel/semestre6/SE2/workplace/code/src/program/Automato/automato.c **** 		if (timer_expired(&arp_timer)) {
 7659              		.loc 1 91 0
 7660 03e0 38009FE5 		ldr	r0, .L30+20
 7661 03e4 FEFFFFEB 		bl	timer_expired
 7662 03e8 0030A0E1 		mov	r3, r0
 7663 03ec 000053E3 		cmp	r3, #0
 7664 03f0 0200000A 		beq	.L29
  92:/home/masterzdran/WorkingArea/Isel/semestre6/SE2/workplace/code/src/program/Automato/automato.c **** 			timer_reset(&arp_timer);
 7665              		.loc 1 92 0
 7666 03f4 24009FE5 		ldr	r0, .L30+20
 7667 03f8 FEFFFFEB 		bl	timer_reset
  93:/home/masterzdran/WorkingArea/Isel/semestre6/SE2/workplace/code/src/program/Automato/automato.c **** 			uip_arp_timer();
 7668              		.loc 1 93 0
 7669 03fc FEFFFFEB 		bl	uip_arp_timer
 7670              	.L29:
  94:/home/masterzdran/WorkingArea/Isel/semestre6/SE2/workplace/code/src/program/Automato/automato.c **** 		}
  95:/home/masterzdran/WorkingArea/Isel/semestre6/SE2/workplace/code/src/program/Automato/automato.c **** 	}
  96:/home/masterzdran/WorkingArea/Isel/semestre6/SE2/workplace/code/src/program/Automato/automato.c **** }
 7671              		.loc 1 96 0
 7672 0400 10D04BE2 		sub	sp, fp, #16
 7673 0404 10689DE8 		ldmfd	sp, {r4, fp, sp, lr}
 7674 0408 1EFF2FE1 		bx	lr
 7675              	.L31:
 7676              		.align	2
 7677              	.L30:
 7678 040c 00000000 		.word	uip_buf
 7679 0410 00000000 		.word	uip_len
 7680 0414 00000000 		.word	periodic_timer
 7681 0418 00000000 		.word	uip_conns
 7682 041c 00000000 		.word	uip_conn
 7683 0420 00000000 		.word	arp_timer
 7684              	.LFE26:
 7691              		.align	2
 7692              		.global	uip_send
 7694              	uip_send:
 7695              	.LFB27:
  97:/home/masterzdran/WorkingArea/Isel/semestre6/SE2/workplace/code/src/program/Automato/automato.c **** 
  98:/home/masterzdran/WorkingArea/Isel/semestre6/SE2/workplace/code/src/program/Automato/automato.c **** 
  99:/home/masterzdran/WorkingArea/Isel/semestre6/SE2/workplace/code/src/program/Automato/automato.c **** 
 100:/home/masterzdran/WorkingArea/Isel/semestre6/SE2/workplace/code/src/program/Automato/automato.c **** 
 101:/home/masterzdran/WorkingArea/Isel/semestre6/SE2/workplace/code/src/program/Automato/automato.c **** 
 102:/home/masterzdran/WorkingArea/Isel/semestre6/SE2/workplace/code/src/program/Automato/automato.c **** #define uip_newdata() (uip_flags & UIP_NEWDATA)
 103:/home/masterzdran/WorkingArea/Isel/semestre6/SE2/workplace/code/src/program/Automato/automato.c **** 
 104:/home/masterzdran/WorkingArea/Isel/semestre6/SE2/workplace/code/src/program/Automato/automato.c **** void uip_send(const void * data, int size) {
 7696              		.loc 1 104 0
 7697              		@ Function supports interworking.
 7698              		@ args = 0, pretend = 0, frame = 8
 7699              		@ frame_needed = 1, uses_anonymous_args = 0
 7700 0424 0DC0A0E1 		mov	ip, sp
 7701              	.LCFI17:
 7702 0428 00D82DE9 		stmfd	sp!, {fp, ip, lr, pc}
 7703              	.LCFI18:
 7704 042c 04B04CE2 		sub	fp, ip, #4
 7705              	.LCFI19:
 7706 0430 08D04DE2 		sub	sp, sp, #8
 7707              	.LCFI20:
 7708 0434 10000BE5 		str	r0, [fp, #-16]
 7709 0438 14100BE5 		str	r1, [fp, #-20]
 105:/home/masterzdran/WorkingArea/Isel/semestre6/SE2/workplace/code/src/program/Automato/automato.c **** 
 106:/home/masterzdran/WorkingArea/Isel/semestre6/SE2/workplace/code/src/program/Automato/automato.c **** 
 107:/home/masterzdran/WorkingArea/Isel/semestre6/SE2/workplace/code/src/program/Automato/automato.c **** 
 108:/home/masterzdran/WorkingArea/Isel/semestre6/SE2/workplace/code/src/program/Automato/automato.c **** }
 7710              		.loc 1 108 0
 7711 043c 0CD04BE2 		sub	sp, fp, #12
 7712 0440 00689DE8 		ldmfd	sp, {fp, sp, lr}
 7713 0444 1EFF2FE1 		bx	lr
 7714              	.LFE27:
 7888              	.Letext0: