Archive member included because of file (symbol)

/home/masterzdran/WorkingArea/Isel/semestre6/SE2/workplace/code/src/eCos/lib/libtarget.a(hal_common_hal_if.o)
                              /home/masterzdran/WorkingArea/Isel/semestre6/SE2/workplace/code/src/eCos/lib/extras.o (hal_if_diag_read_char)
/home/masterzdran/WorkingArea/Isel/semestre6/SE2/workplace/code/src/eCos/lib/libtarget.a(hal_common_hal_misc.o)
                              /home/masterzdran/WorkingArea/Isel/semestre6/SE2/workplace/code/src/eCos/lib/libtarget.a(hal_common_hal_if.o) (cyg_hal_is_break)
/home/masterzdran/WorkingArea/Isel/semestre6/SE2/workplace/code/src/eCos/lib/libtarget.a(io_common_iosys.o)
                              /home/masterzdran/WorkingArea/Isel/semestre6/SE2/workplace/code/src/eCos/lib/extras.o (cyg_io_init)
/home/masterzdran/WorkingArea/Isel/semestre6/SE2/workplace/code/src/eCos/lib/libtarget.a(infra_startup.o)
                              /home/masterzdran/WorkingArea/Isel/semestre6/SE2/workplace/code/src/eCos/lib/vectors.o (cyg_start)
/home/masterzdran/WorkingArea/Isel/semestre6/SE2/workplace/code/src/eCos/lib/libtarget.a(infra_prestart.o)
                              /home/masterzdran/WorkingArea/Isel/semestre6/SE2/workplace/code/src/eCos/lib/libtarget.a(infra_startup.o) (cyg_prestart)
/home/masterzdran/WorkingArea/Isel/semestre6/SE2/workplace/code/src/eCos/lib/libtarget.a(infra_pkgstart.o)
                              /home/masterzdran/WorkingArea/Isel/semestre6/SE2/workplace/code/src/eCos/lib/libtarget.a(infra_startup.o) (cyg_package_start)
/home/masterzdran/WorkingArea/Isel/semestre6/SE2/workplace/code/src/eCos/lib/libtarget.a(infra_userstart.o)
                              /home/masterzdran/WorkingArea/Isel/semestre6/SE2/workplace/code/src/eCos/lib/libtarget.a(infra_startup.o) (cyg_user_start)
/home/masterzdran/WorkingArea/Isel/semestre6/SE2/workplace/code/src/eCos/lib/libtarget.a(infra_diag.o)
                              /home/masterzdran/WorkingArea/Isel/semestre6/SE2/workplace/code/src/eCos/lib/extras.o (diag_printf)
/home/masterzdran/WorkingArea/Isel/semestre6/SE2/workplace/code/src/eCos/lib/libtarget.a(kernel_kapi.o)
                              /home/masterzdran/WorkingArea/Isel/semestre6/SE2/workplace/code/src/eCos/lib/extras.o (cyg_scheduler_lock)
/home/masterzdran/WorkingArea/Isel/semestre6/SE2/workplace/code/src/eCos/lib/libtarget.a(kernel_thread.o)
                              /home/masterzdran/WorkingArea/Isel/semestre6/SE2/workplace/code/src/eCos/lib/libtarget.a(kernel_kapi.o) (_ZN10Cyg_Thread17deliver_exceptionEij)
/home/masterzdran/WorkingArea/Isel/semestre6/SE2/workplace/code/src/eCos/lib/libtarget.a(kernel_except.o)
                              /home/masterzdran/WorkingArea/Isel/semestre6/SE2/workplace/code/src/eCos/lib/libtarget.a(kernel_kapi.o) (_ZN21Cyg_Exception_Control18register_exceptionEiPFvjijEjPS1_Pj)
/home/masterzdran/WorkingArea/Isel/semestre6/SE2/workplace/code/src/eCos/lib/libtarget.a(kernel_intr.o)
                              /home/masterzdran/WorkingArea/Isel/semestre6/SE2/workplace/code/src/eCos/lib/libtarget.a(kernel_kapi.o) (_ZN13Cyg_InterruptC1EjijPFjjjEPFvjjjE)
/home/masterzdran/WorkingArea/Isel/semestre6/SE2/workplace/code/src/eCos/lib/libtarget.a(kernel_mlqueue.o)
                              /home/masterzdran/WorkingArea/Isel/semestre6/SE2/workplace/code/src/eCos/lib/libtarget.a(kernel_thread.o) (_ZN28Cyg_Scheduler_Implementation10rem_threadEP10Cyg_Thread)
/home/masterzdran/WorkingArea/Isel/semestre6/SE2/workplace/code/src/eCos/lib/libtarget.a(kernel_sched.o)
                              /home/masterzdran/WorkingArea/Isel/semestre6/SE2/workplace/code/src/eCos/lib/libtarget.a(kernel_thread.o) (_ZN13Cyg_Scheduler9schedulerE)
/home/masterzdran/WorkingArea/Isel/semestre6/SE2/workplace/code/src/eCos/lib/libtarget.a(kernel_cnt_sem.o)
                              /home/masterzdran/WorkingArea/Isel/semestre6/SE2/workplace/code/src/eCos/lib/libtarget.a(kernel_kapi.o) (_ZN22Cyg_Counting_SemaphoreC1Ei)
/home/masterzdran/WorkingArea/Isel/semestre6/SE2/workplace/code/src/eCos/lib/libtarget.a(kernel_flag.o)
                              /home/masterzdran/WorkingArea/Isel/semestre6/SE2/workplace/code/src/eCos/lib/libtarget.a(kernel_kapi.o) (_ZN8Cyg_FlagC1Ej)
/home/masterzdran/WorkingArea/Isel/semestre6/SE2/workplace/code/src/eCos/lib/libtarget.a(kernel_mbox.o)
                              /home/masterzdran/WorkingArea/Isel/semestre6/SE2/workplace/code/src/eCos/lib/libtarget.a(kernel_kapi.o) (_ZN8Cyg_MboxC1Ev)
/home/masterzdran/WorkingArea/Isel/semestre6/SE2/workplace/code/src/eCos/lib/libtarget.a(kernel_mutex.o)
                              /home/masterzdran/WorkingArea/Isel/semestre6/SE2/workplace/code/src/eCos/lib/libtarget.a(kernel_kapi.o) (_ZN9Cyg_MutexC1Ev)
/home/masterzdran/WorkingArea/Isel/semestre6/SE2/workplace/code/src/eCos/lib/libtarget.a(language_c_libc_startup_mainthread.o)
                              /home/masterzdran/WorkingArea/Isel/semestre6/SE2/workplace/code/src/eCos/lib/extras.o (cyg_libc_main_thread)
/home/masterzdran/WorkingArea/Isel/semestre6/SE2/workplace/code/src/eCos/lib/libtarget.a(language_c_libc_stdio_printf.o)
                              ./automato.o (printf)
/home/masterzdran/WorkingArea/Isel/semestre6/SE2/workplace/code/src/eCos/lib/libtarget.a(language_c_libc_stdio_vfnprintf.o)
                              /home/masterzdran/WorkingArea/Isel/semestre6/SE2/workplace/code/src/eCos/lib/libtarget.a(language_c_libc_stdio_printf.o) (vfnprintf)
/home/masterzdran/WorkingArea/Isel/semestre6/SE2/workplace/code/src/eCos/lib/libtarget.a(language_c_libc_string_memchr.o)
                              /home/masterzdran/WorkingArea/Isel/semestre6/SE2/workplace/code/src/eCos/lib/libtarget.a(language_c_libc_stdio_vfnprintf.o) (memchr)
/home/masterzdran/WorkingArea/Isel/semestre6/SE2/workplace/code/src/eCos/lib/libtarget.a(language_c_libc_string_strlen.o)
                              /home/masterzdran/WorkingArea/Isel/semestre6/SE2/workplace/code/src/eCos/lib/libtarget.a(language_c_libc_stdio_vfnprintf.o) (strlen)
/home/masterzdran/WorkingArea/Isel/semestre6/SE2/workplace/code/src/eCos/lib/libtarget.a(language_c_libc_string_strsuppt.o)
                              /home/masterzdran/WorkingArea/Isel/semestre6/SE2/workplace/code/src/eCos/lib/libtarget.a(language_c_libc_string_memchr.o) (Cyg_libc_str_null_mask_1)
/home/masterzdran/WorkingArea/Isel/semestre6/SE2/workplace/code/src/eCos/lib/libtarget.a(language_c_libm_s_modf.o)
                              /home/masterzdran/WorkingArea/Isel/semestre6/SE2/workplace/code/src/eCos/lib/libtarget.a(language_c_libc_stdio_vfnprintf.o) (modf)
/home/masterzdran/WorkingArea/Isel/semestre6/SE2/workplace/code/src/eCos/lib/libtarget.a(hal_arm_arch_hal_misc.o)
                              /home/masterzdran/WorkingArea/Isel/semestre6/SE2/workplace/code/src/eCos/lib/vectors.o (hal_spurious_IRQ)
/home/masterzdran/WorkingArea/Isel/semestre6/SE2/workplace/code/src/eCos/lib/libtarget.a(hal_arm_arch_context.o)
                              /home/masterzdran/WorkingArea/Isel/semestre6/SE2/workplace/code/src/eCos/lib/libtarget.a(kernel_sched.o) (hal_thread_switch_context)
/home/masterzdran/WorkingArea/Isel/semestre6/SE2/workplace/code/src/eCos/lib/libtarget.a(hal_arm_lpc2xxx_var_lpc2xxx_misc.o)
                              /home/masterzdran/WorkingArea/Isel/semestre6/SE2/workplace/code/src/eCos/lib/libtarget.a(hal_common_hal_if.o) (hal_clock_read)
/home/masterzdran/WorkingArea/Isel/semestre6/SE2/workplace/code/src/eCos/lib/libtarget.a(hal_arm_lpc2xxx_p2106_p2106_misc.o)
                              /home/masterzdran/WorkingArea/Isel/semestre6/SE2/workplace/code/src/eCos/lib/libtarget.a(hal_common_hal_if.o) (cyg_hal_plf_comms_init)
/home/masterzdran/WorkingArea/Isel/semestre6/SE2/workplace/code/src/eCos/lib/libtarget.a(kernel_clock.o)
                              /home/masterzdran/WorkingArea/Isel/semestre6/SE2/workplace/code/src/eCos/lib/libtarget.a(kernel_kapi.o) (_ZN11Cyg_CounterC1Ej)
/home/masterzdran/WorkingArea/Isel/semestre6/SE2/workplace/code/src/eCos/lib/libtarget.a(language_c_libc_startup_invokemain.o)
                              /home/masterzdran/WorkingArea/Isel/semestre6/SE2/workplace/code/src/eCos/lib/libtarget.a(language_c_libc_startup_mainthread.o) (cyg_libc_invoke_main)
/home/masterzdran/WorkingArea/Isel/semestre6/SE2/workplace/code/src/eCos/lib/libtarget.a(language_c_libc_stdio_stdout.o)
                              /home/masterzdran/WorkingArea/Isel/semestre6/SE2/workplace/code/src/eCos/lib/libtarget.a(language_c_libc_stdio_printf.o) (stdout)
/home/masterzdran/WorkingArea/Isel/semestre6/SE2/workplace/code/src/eCos/lib/libtarget.a(language_c_libc_stdio_stream.o)
                              /home/masterzdran/WorkingArea/Isel/semestre6/SE2/workplace/code/src/eCos/lib/libtarget.a(language_c_libc_stdio_stdout.o) (_ZTV16Cyg_OutputStream)
/home/masterzdran/WorkingArea/Isel/semestre6/SE2/workplace/code/src/eCos/lib/libtarget.a(language_c_libc_stdio_streambuf.o)
                              /home/masterzdran/WorkingArea/Isel/semestre6/SE2/workplace/code/src/eCos/lib/libtarget.a(language_c_libc_stdio_stream.o) (_ZN21Cyg_StdioStreamBuffer10set_bufferEjPh)
/home/masterzdran/WorkingArea/Isel/semestre6/SE2/workplace/code/src/eCos/lib/libtarget.a(hal_arm_lpc2xxx_var_hal_diag.o)
                              /home/masterzdran/WorkingArea/Isel/semestre6/SE2/workplace/code/src/eCos/lib/libtarget.a(hal_arm_lpc2xxx_p2106_p2106_misc.o) (cyg_hal_plf_serial_init)
/home/masterzdran/WorkingArea/Isel/semestre6/SE2/workplace/code/src/eCos/lib/libtarget.a(infra_memcpy.o)
                              /home/masterzdran/WorkingArea/Isel/semestre6/SE2/workplace/code/src/eCos/lib/libtarget.a(language_c_libc_stdio_stream.o) (memcpy)
/home/masterzdran/WorkingArea/Isel/semestre6/SE2/workplace/code/src/eCos/lib/libtarget.a(infra_delete.o)
                              /home/masterzdran/WorkingArea/Isel/semestre6/SE2/workplace/code/src/eCos/lib/libtarget.a(language_c_libc_stdio_stream.o) (_ZdlPv)
/home/masterzdran/WorkingArea/Isel/semestre6/SE2/workplace/code/src/eCos/lib/libtarget.a(services_memalloc_common_malloc.o)
                              /home/masterzdran/WorkingArea/Isel/semestre6/SE2/workplace/code/src/eCos/lib/libtarget.a(language_c_libc_stdio_stdout.o) (free)
/home/masterzdran/WorkingArea/Isel/semestre6/SE2/workplace/code/src/eCos/lib/libtarget.a(services_memalloc_common_heaps.o)
                              /home/masterzdran/WorkingArea/Isel/semestre6/SE2/workplace/code/src/eCos/lib/libtarget.a(services_memalloc_common_malloc.o) (cygmem_memalloc_heaps)
/home/masterzdran/WorkingArea/Isel/semestre6/SE2/workplace/code/src/eCos/lib/libtarget.a(language_c_libc_startup_exit.o)
                              /home/masterzdran/WorkingArea/Isel/semestre6/SE2/workplace/code/src/eCos/lib/libtarget.a(language_c_libc_startup_invokemain.o) (exit)
/home/masterzdran/WorkingArea/Isel/semestre6/SE2/workplace/code/src/eCos/lib/libtarget.a(language_c_libc_stdio_fflush.o)
                              /home/masterzdran/WorkingArea/Isel/semestre6/SE2/workplace/code/src/eCos/lib/libtarget.a(language_c_libc_stdio_stream.o) (cyg_libc_stdio_flush_all_but)
/home/masterzdran/WorkingArea/Isel/semestre6/SE2/workplace/code/src/eCos/lib/libtarget.a(language_c_libc_stdio_stdiofiles.o)
                              /home/masterzdran/WorkingArea/Isel/semestre6/SE2/workplace/code/src/eCos/lib/libtarget.a(language_c_libc_stdio_fflush.o) (_ZN20Cyg_libc_stdio_files10files_lockE)
/home/masterzdran/WorkingArea/Isel/semestre6/SE2/workplace/code/src/eCos/lib/libtarget.a(language_c_libc_stdio_stdiosupp.o)
                              /home/masterzdran/WorkingArea/Isel/semestre6/SE2/workplace/code/src/eCos/lib/libtarget.a(language_c_libc_stdio_stdout.o) (Cyg_libc_stdio_find_filename)
/home/masterzdran/WorkingArea/Isel/semestre6/SE2/workplace/code/src/eCos/lib/libtarget.a(error_errno.o)
                              /home/masterzdran/WorkingArea/Isel/semestre6/SE2/workplace/code/src/eCos/lib/libtarget.a(language_c_libc_stdio_fflush.o) (cyg_error_get_errno_p)
/home/masterzdran/WorkingArea/Isel/semestre6/SE2/workplace/code/src/eCos/lib/libtarget.a(infra_memset.o)
                              /home/masterzdran/WorkingArea/Isel/semestre6/SE2/workplace/code/src/eCos/lib/libtarget.a(services_memalloc_common_malloc.o) (memset)
/home/masterzdran/WorkingArea/Isel/semestre6/SE2/workplace/code/src/eCos/lib/libtarget.a(services_memalloc_common_dlmalloc.o)
                              /home/masterzdran/WorkingArea/Isel/semestre6/SE2/workplace/code/src/eCos/lib/libtarget.a(services_memalloc_common_heaps.o) (_ZN35Cyg_Mempool_dlmalloc_ImplementationC1EPhij)
/home/masterzdran/WorkingArea/Isel/semestre6/SE2/workplace/code/src/eCos/lib/libtarget.a(language_c_libc_startup__exit.o)
                              /home/masterzdran/WorkingArea/Isel/semestre6/SE2/workplace/code/src/eCos/lib/libtarget.a(language_c_libc_startup_exit.o) (_exit)
/home/masterzdran/WorkingArea/Isel/semestre6/SE2/workplace/code/src/eCos/lib/libtarget.a(language_c_libc_startup_atexit.o)
                              /home/masterzdran/WorkingArea/Isel/semestre6/SE2/workplace/code/src/eCos/lib/libtarget.a(language_c_libc_startup_exit.o) (cyg_libc_invoke_atexit_handlers)
/home/masterzdran/WorkingArea/Isel/semestre6/SE2/workplace/code/src/eCos/lib/libtarget.a(language_c_libc_string_memmove.o)
                              /home/masterzdran/WorkingArea/Isel/semestre6/SE2/workplace/code/src/eCos/lib/libtarget.a(services_memalloc_common_dlmalloc.o) (memmove)
/home/masterzdran/Applications/eCos/3.0/gnutools/arm-eabi/bin/../lib/gcc/arm-eabi/4.3.2/libgcc.a(_divsi3.o)
                              /home/masterzdran/WorkingArea/Isel/semestre6/SE2/workplace/code/src/eCos/lib/libtarget.a(hal_arm_lpc2xxx_var_hal_diag.o) (__aeabi_idiv)
/home/masterzdran/Applications/eCos/3.0/gnutools/arm-eabi/bin/../lib/gcc/arm-eabi/4.3.2/libgcc.a(_dvmd_tls.o)
                              /home/masterzdran/Applications/eCos/3.0/gnutools/arm-eabi/bin/../lib/gcc/arm-eabi/4.3.2/libgcc.a(_divsi3.o) (__div0)
/home/masterzdran/Applications/eCos/3.0/gnutools/arm-eabi/bin/../lib/gcc/arm-eabi/4.3.2/libgcc.a(_addsubdf3.o)
                              /home/masterzdran/WorkingArea/Isel/semestre6/SE2/workplace/code/src/eCos/lib/libtarget.a(language_c_libm_s_modf.o) (__aeabi_dsub)
/home/masterzdran/Applications/eCos/3.0/gnutools/arm-eabi/bin/../lib/gcc/arm-eabi/4.3.2/libgcc.a(_muldivdf3.o)
                              /home/masterzdran/WorkingArea/Isel/semestre6/SE2/workplace/code/src/eCos/lib/libtarget.a(language_c_libc_stdio_vfnprintf.o) (__aeabi_dmul)
/home/masterzdran/Applications/eCos/3.0/gnutools/arm-eabi/bin/../lib/gcc/arm-eabi/4.3.2/libgcc.a(_cmpdf2.o)
                              /home/masterzdran/WorkingArea/Isel/semestre6/SE2/workplace/code/src/eCos/lib/libtarget.a(language_c_libc_stdio_vfnprintf.o) (__aeabi_dcmpeq)
/home/masterzdran/Applications/eCos/3.0/gnutools/arm-eabi/bin/../lib/gcc/arm-eabi/4.3.2/libgcc.a(_unorddf2.o)
                              /home/masterzdran/WorkingArea/Isel/semestre6/SE2/workplace/code/src/eCos/lib/libtarget.a(language_c_libc_stdio_vfnprintf.o) (__aeabi_dcmpun)
/home/masterzdran/Applications/eCos/3.0/gnutools/arm-eabi/bin/../lib/gcc/arm-eabi/4.3.2/libgcc.a(_fixdfsi.o)
                              /home/masterzdran/WorkingArea/Isel/semestre6/SE2/workplace/code/src/eCos/lib/libtarget.a(language_c_libc_stdio_vfnprintf.o) (__aeabi_d2iz)
/home/masterzdran/Applications/eCos/3.0/gnutools/arm-eabi/bin/../lib/gcc/arm-eabi/4.3.2/libgcc.a(_aeabi_uldivmod.o)
                              /home/masterzdran/WorkingArea/Isel/semestre6/SE2/workplace/code/src/eCos/lib/libtarget.a(infra_diag.o) (__aeabi_uldivmod)
/home/masterzdran/Applications/eCos/3.0/gnutools/arm-eabi/bin/../lib/gcc/arm-eabi/4.3.2/libgcc.a(bpabi.o)
                              /home/masterzdran/Applications/eCos/3.0/gnutools/arm-eabi/bin/../lib/gcc/arm-eabi/4.3.2/libgcc.a(_aeabi_uldivmod.o) (__gnu_uldivmod_helper)
/home/masterzdran/Applications/eCos/3.0/gnutools/arm-eabi/bin/../lib/gcc/arm-eabi/4.3.2/libgcc.a(_divdi3.o)
                              /home/masterzdran/Applications/eCos/3.0/gnutools/arm-eabi/bin/../lib/gcc/arm-eabi/4.3.2/libgcc.a(bpabi.o) (__divdi3)
/home/masterzdran/Applications/eCos/3.0/gnutools/arm-eabi/bin/../lib/gcc/arm-eabi/4.3.2/libgcc.a(_udivdi3.o)
                              /home/masterzdran/Applications/eCos/3.0/gnutools/arm-eabi/bin/../lib/gcc/arm-eabi/4.3.2/libgcc.a(bpabi.o) (__udivdi3)
/home/masterzdran/Applications/eCos/3.0/gnutools/arm-eabi/bin/../lib/gcc/arm-eabi/4.3.2/libgcc.a(_udivsi3.o)
                              /home/masterzdran/Applications/eCos/3.0/gnutools/arm-eabi/bin/../lib/gcc/arm-eabi/4.3.2/libgcc.a(_divdi3.o) (__aeabi_uidiv)
/home/masterzdran/Applications/eCos/3.0/gnutools/arm-eabi/bin/../lib/gcc/arm-eabi/4.3.2/libgcc.a(_clz.o)
                              /home/masterzdran/Applications/eCos/3.0/gnutools/arm-eabi/bin/../lib/gcc/arm-eabi/4.3.2/libgcc.a(_divdi3.o) (__clz_tab)

Allocating common symbols
Common symbol       size              file

_cyg_hal_compiler_dummy
                    0x4               /home/masterzdran/WorkingArea/Isel/semestre6/SE2/workplace/code/src/eCos/lib/libtarget.a(hal_common_hal_misc.o)

Discarded input sections

 .fini_array.11100
                0x00000000        0x0 /home/masterzdran/WorkingArea/Isel/semestre6/SE2/workplace/code/src/eCos/lib/libtarget.a(kernel_thread.o)
 .fini_array.12000
                0x00000000        0x0 /home/masterzdran/WorkingArea/Isel/semestre6/SE2/workplace/code/src/eCos/lib/libtarget.a(kernel_intr.o)
 .fini_array.11000
                0x00000000        0x0 /home/masterzdran/WorkingArea/Isel/semestre6/SE2/workplace/code/src/eCos/lib/libtarget.a(kernel_sched.o)
 .fini_array.56000
                0x00000000        0x0 /home/masterzdran/WorkingArea/Isel/semestre6/SE2/workplace/code/src/eCos/lib/libtarget.a(language_c_libc_startup_mainthread.o)
 .fini_array.14000
                0x00000000        0x0 /home/masterzdran/WorkingArea/Isel/semestre6/SE2/workplace/code/src/eCos/lib/libtarget.a(kernel_clock.o)
 .fini_array.56001
                0x00000000        0x0 /home/masterzdran/WorkingArea/Isel/semestre6/SE2/workplace/code/src/eCos/lib/libtarget.a(language_c_libc_stdio_stdout.o)
 _ZN16Cyg_OutputStreamD1Ev
                0x00000000        0x0 /home/masterzdran/WorkingArea/Isel/semestre6/SE2/workplace/code/src/eCos/lib/libtarget.a(language_c_libc_stdio_stream.o)
 _ZN16Cyg_OutputStreamD0Ev
                0x00000000        0x0 /home/masterzdran/WorkingArea/Isel/semestre6/SE2/workplace/code/src/eCos/lib/libtarget.a(language_c_libc_stdio_stream.o)
 _ZN15Cyg_StdioStream9get_errorEv
                0x00000000        0x0 /home/masterzdran/WorkingArea/Isel/semestre6/SE2/workplace/code/src/eCos/lib/libtarget.a(language_c_libc_stdio_stream.o)
 _ZN15Cyg_StdioStreamD0Ev
                0x00000000        0x0 /home/masterzdran/WorkingArea/Isel/semestre6/SE2/workplace/code/src/eCos/lib/libtarget.a(language_c_libc_stdio_stream.o)
 _ZN15Cyg_StdioStreamD1Ev
                0x00000000        0x0 /home/masterzdran/WorkingArea/Isel/semestre6/SE2/workplace/code/src/eCos/lib/libtarget.a(language_c_libc_stdio_stream.o)
 .fini_array.19900
                0x00000000        0x0 /home/masterzdran/WorkingArea/Isel/semestre6/SE2/workplace/code/src/eCos/lib/libtarget.a(services_memalloc_common_heaps.o)
 .fini_array.56000
                0x00000000        0x0 /home/masterzdran/WorkingArea/Isel/semestre6/SE2/workplace/code/src/eCos/lib/libtarget.a(language_c_libc_stdio_stdiofiles.o)
 .ARM.extab     0x00000000        0x0 /home/masterzdran/Applications/eCos/3.0/gnutools/arm-eabi/bin/../lib/gcc/arm-eabi/4.3.2/libgcc.a(_divdi3.o)
 .ARM.exidx     0x00000000        0x0 /home/masterzdran/Applications/eCos/3.0/gnutools/arm-eabi/bin/../lib/gcc/arm-eabi/4.3.2/libgcc.a(_divdi3.o)
 .ARM.extab     0x00000000        0x0 /home/masterzdran/Applications/eCos/3.0/gnutools/arm-eabi/bin/../lib/gcc/arm-eabi/4.3.2/libgcc.a(_udivdi3.o)
 .ARM.exidx     0x00000000        0x0 /home/masterzdran/Applications/eCos/3.0/gnutools/arm-eabi/bin/../lib/gcc/arm-eabi/4.3.2/libgcc.a(_udivdi3.o)

Memory Configuration

Name             Origin             Length             Attributes
ram              0x40000000         0x00010000
rom              0x00000000         0x00020000
*default*        0x00000000         0xffffffff

Linker script and memory map

LOAD /home/masterzdran/WorkingArea/Isel/semestre6/SE2/workplace/code/src/eCos/lib/vectors.o
LOAD ./automato.o
LOAD /home/masterzdran/WorkingArea/Isel/semestre6/SE2/workplace/code/src/eCos/lib/extras.o
START GROUP
LOAD /home/masterzdran/WorkingArea/Isel/semestre6/SE2/workplace/code/src/eCos/lib/libtarget.a
LOAD /home/masterzdran/Applications/eCos/3.0/gnutools/arm-eabi/bin/../lib/gcc/arm-eabi/4.3.2/libgcc.a
LOAD /home/masterzdran/Applications/eCos/3.0/gnutools/arm-eabi/bin/../lib/gcc/arm-eabi/4.3.2/../../../../arm-eabi/lib/libsupc++.a
END GROUP

.debug_aranges  0x00000000     0x1488
 *(.debug_aranges)
 .debug_aranges
                0x00000000       0x28 /home/masterzdran/WorkingArea/Isel/semestre6/SE2/workplace/code/src/eCos/lib/vectors.o
 .debug_aranges
                0x00000028       0x20 ./automato.o
 .debug_aranges
                0x00000048      0x128 /home/masterzdran/WorkingArea/Isel/semestre6/SE2/workplace/code/src/eCos/lib/extras.o
 .debug_aranges
                0x00000170       0xc8 /home/masterzdran/WorkingArea/Isel/semestre6/SE2/workplace/code/src/eCos/lib/libtarget.a(hal_common_hal_if.o)
 .debug_aranges
                0x00000238       0x30 /home/masterzdran/WorkingArea/Isel/semestre6/SE2/workplace/code/src/eCos/lib/libtarget.a(hal_common_hal_misc.o)
 .debug_aranges
                0x00000268       0x98 /home/masterzdran/WorkingArea/Isel/semestre6/SE2/workplace/code/src/eCos/lib/libtarget.a(io_common_iosys.o)
 .debug_aranges
                0x00000300       0x20 /home/masterzdran/WorkingArea/Isel/semestre6/SE2/workplace/code/src/eCos/lib/libtarget.a(infra_startup.o)
 .debug_aranges
                0x00000320       0x20 /home/masterzdran/WorkingArea/Isel/semestre6/SE2/workplace/code/src/eCos/lib/libtarget.a(infra_prestart.o)
 .debug_aranges
                0x00000340       0x20 /home/masterzdran/WorkingArea/Isel/semestre6/SE2/workplace/code/src/eCos/lib/libtarget.a(infra_pkgstart.o)
 .debug_aranges
                0x00000360       0x20 /home/masterzdran/WorkingArea/Isel/semestre6/SE2/workplace/code/src/eCos/lib/libtarget.a(infra_userstart.o)
 .debug_aranges
                0x00000380       0xe0 /home/masterzdran/WorkingArea/Isel/semestre6/SE2/workplace/code/src/eCos/lib/libtarget.a(infra_diag.o)
 .debug_aranges
                0x00000460      0x3d0 /home/masterzdran/WorkingArea/Isel/semestre6/SE2/workplace/code/src/eCos/lib/libtarget.a(kernel_kapi.o)
 .debug_aranges
                0x00000830      0x108 /home/masterzdran/WorkingArea/Isel/semestre6/SE2/workplace/code/src/eCos/lib/libtarget.a(kernel_thread.o)
 .debug_aranges
                0x00000938       0x58 /home/masterzdran/WorkingArea/Isel/semestre6/SE2/workplace/code/src/eCos/lib/libtarget.a(kernel_except.o)
 .debug_aranges
                0x00000990       0xd8 /home/masterzdran/WorkingArea/Isel/semestre6/SE2/workplace/code/src/eCos/lib/libtarget.a(kernel_intr.o)
 .debug_aranges
                0x00000a68       0xc8 /home/masterzdran/WorkingArea/Isel/semestre6/SE2/workplace/code/src/eCos/lib/libtarget.a(kernel_mlqueue.o)
 .debug_aranges
                0x00000b30       0xa0 /home/masterzdran/WorkingArea/Isel/semestre6/SE2/workplace/code/src/eCos/lib/libtarget.a(kernel_sched.o)
 .debug_aranges
                0x00000bd0       0x60 /home/masterzdran/WorkingArea/Isel/semestre6/SE2/workplace/code/src/eCos/lib/libtarget.a(kernel_cnt_sem.o)
 .debug_aranges
                0x00000c30       0x60 /home/masterzdran/WorkingArea/Isel/semestre6/SE2/workplace/code/src/eCos/lib/libtarget.a(kernel_flag.o)
 .debug_aranges
                0x00000c90       0x70 /home/masterzdran/WorkingArea/Isel/semestre6/SE2/workplace/code/src/eCos/lib/libtarget.a(kernel_mbox.o)
 .debug_aranges
                0x00000d00       0xc8 /home/masterzdran/WorkingArea/Isel/semestre6/SE2/workplace/code/src/eCos/lib/libtarget.a(kernel_mutex.o)
 .debug_aranges
                0x00000dc8       0x30 /home/masterzdran/WorkingArea/Isel/semestre6/SE2/workplace/code/src/eCos/lib/libtarget.a(language_c_libc_startup_mainthread.o)
 .debug_aranges
                0x00000df8       0x20 /home/masterzdran/WorkingArea/Isel/semestre6/SE2/workplace/code/src/eCos/lib/libtarget.a(language_c_libc_stdio_printf.o)
 .debug_aranges
                0x00000e18       0x28 /home/masterzdran/WorkingArea/Isel/semestre6/SE2/workplace/code/src/eCos/lib/libtarget.a(language_c_libc_stdio_vfnprintf.o)
 .debug_aranges
                0x00000e40       0x20 /home/masterzdran/WorkingArea/Isel/semestre6/SE2/workplace/code/src/eCos/lib/libtarget.a(language_c_libc_string_memchr.o)
 .debug_aranges
                0x00000e60       0x20 /home/masterzdran/WorkingArea/Isel/semestre6/SE2/workplace/code/src/eCos/lib/libtarget.a(language_c_libc_string_strlen.o)
 .debug_aranges
                0x00000e80       0x20 /home/masterzdran/WorkingArea/Isel/semestre6/SE2/workplace/code/src/eCos/lib/libtarget.a(language_c_libm_s_modf.o)
 .debug_aranges
                0x00000ea0       0x48 /home/masterzdran/WorkingArea/Isel/semestre6/SE2/workplace/code/src/eCos/lib/libtarget.a(hal_arm_arch_hal_misc.o)
 .debug_aranges
                0x00000ee8       0x20 /home/masterzdran/WorkingArea/Isel/semestre6/SE2/workplace/code/src/eCos/lib/libtarget.a(hal_arm_arch_context.o)
 .debug_aranges
                0x00000f08       0x88 /home/masterzdran/WorkingArea/Isel/semestre6/SE2/workplace/code/src/eCos/lib/libtarget.a(hal_arm_lpc2xxx_var_lpc2xxx_misc.o)
 .debug_aranges
                0x00000f90       0x28 /home/masterzdran/WorkingArea/Isel/semestre6/SE2/workplace/code/src/eCos/lib/libtarget.a(hal_arm_lpc2xxx_p2106_p2106_misc.o)
 .debug_aranges
                0x00000fb8      0x118 /home/masterzdran/WorkingArea/Isel/semestre6/SE2/workplace/code/src/eCos/lib/libtarget.a(kernel_clock.o)
 .debug_aranges
                0x000010d0       0x20 /home/masterzdran/WorkingArea/Isel/semestre6/SE2/workplace/code/src/eCos/lib/libtarget.a(language_c_libc_startup_invokemain.o)
 .debug_aranges
                0x000010f0       0x30 /home/masterzdran/WorkingArea/Isel/semestre6/SE2/workplace/code/src/eCos/lib/libtarget.a(language_c_libc_stdio_stdout.o)
 .debug_aranges
                0x00001120       0xa8 /home/masterzdran/WorkingArea/Isel/semestre6/SE2/workplace/code/src/eCos/lib/libtarget.a(language_c_libc_stdio_stream.o)
 .debug_aranges
                0x000011c8       0x20 /home/masterzdran/WorkingArea/Isel/semestre6/SE2/workplace/code/src/eCos/lib/libtarget.a(language_c_libc_stdio_streambuf.o)
 .debug_aranges
                0x000011e8       0x60 /home/masterzdran/WorkingArea/Isel/semestre6/SE2/workplace/code/src/eCos/lib/libtarget.a(hal_arm_lpc2xxx_var_hal_diag.o)
 .debug_aranges
                0x00001248       0x20 /home/masterzdran/WorkingArea/Isel/semestre6/SE2/workplace/code/src/eCos/lib/libtarget.a(infra_memcpy.o)
 .debug_aranges
                0x00001268       0x28 /home/masterzdran/WorkingArea/Isel/semestre6/SE2/workplace/code/src/eCos/lib/libtarget.a(infra_delete.o)
 .debug_aranges
                0x00001290       0x40 /home/masterzdran/WorkingArea/Isel/semestre6/SE2/workplace/code/src/eCos/lib/libtarget.a(services_memalloc_common_malloc.o)
 .debug_aranges
                0x000012d0       0x30 /home/masterzdran/WorkingArea/Isel/semestre6/SE2/workplace/code/src/eCos/lib/libtarget.a(services_memalloc_common_heaps.o)
 .debug_aranges
                0x00001300       0x20 /home/masterzdran/WorkingArea/Isel/semestre6/SE2/workplace/code/src/eCos/lib/libtarget.a(language_c_libc_startup_exit.o)
 .debug_aranges
                0x00001320       0x28 /home/masterzdran/WorkingArea/Isel/semestre6/SE2/workplace/code/src/eCos/lib/libtarget.a(language_c_libc_stdio_fflush.o)
 .debug_aranges
                0x00001348       0x30 /home/masterzdran/WorkingArea/Isel/semestre6/SE2/workplace/code/src/eCos/lib/libtarget.a(language_c_libc_stdio_stdiofiles.o)
 .debug_aranges
                0x00001378       0x20 /home/masterzdran/WorkingArea/Isel/semestre6/SE2/workplace/code/src/eCos/lib/libtarget.a(language_c_libc_stdio_stdiosupp.o)
 .debug_aranges
                0x00001398       0x20 /home/masterzdran/WorkingArea/Isel/semestre6/SE2/workplace/code/src/eCos/lib/libtarget.a(error_errno.o)
 .debug_aranges
                0x000013b8       0x20 /home/masterzdran/WorkingArea/Isel/semestre6/SE2/workplace/code/src/eCos/lib/libtarget.a(infra_memset.o)
 .debug_aranges
                0x000013d8       0x48 /home/masterzdran/WorkingArea/Isel/semestre6/SE2/workplace/code/src/eCos/lib/libtarget.a(services_memalloc_common_dlmalloc.o)
 .debug_aranges
                0x00001420       0x20 /home/masterzdran/WorkingArea/Isel/semestre6/SE2/workplace/code/src/eCos/lib/libtarget.a(language_c_libc_startup__exit.o)
 .debug_aranges
                0x00001440       0x28 /home/masterzdran/WorkingArea/Isel/semestre6/SE2/workplace/code/src/eCos/lib/libtarget.a(language_c_libc_startup_atexit.o)
 .debug_aranges
                0x00001468       0x20 /home/masterzdran/WorkingArea/Isel/semestre6/SE2/workplace/code/src/eCos/lib/libtarget.a(language_c_libc_string_memmove.o)

.debug_pubnames
                0x00000000     0x3579
 *(.debug_pubnames)
 .debug_pubnames
                0x00000000       0x1b ./automato.o
 .debug_pubnames
                0x0000001b       0xb0 /home/masterzdran/WorkingArea/Isel/semestre6/SE2/workplace/code/src/eCos/lib/extras.o
 .debug_pubnames
                0x000000cb       0xb1 /home/masterzdran/WorkingArea/Isel/semestre6/SE2/workplace/code/src/eCos/lib/libtarget.a(hal_common_hal_if.o)
 .debug_pubnames
                0x0000017c       0x6e /home/masterzdran/WorkingArea/Isel/semestre6/SE2/workplace/code/src/eCos/lib/libtarget.a(hal_common_hal_misc.o)
 .debug_pubnames
                0x000001ea      0x14f /home/masterzdran/WorkingArea/Isel/semestre6/SE2/workplace/code/src/eCos/lib/libtarget.a(io_common_iosys.o)
 .debug_pubnames
                0x00000339       0x20 /home/masterzdran/WorkingArea/Isel/semestre6/SE2/workplace/code/src/eCos/lib/libtarget.a(infra_startup.o)
 .debug_pubnames
                0x00000359       0x23 /home/masterzdran/WorkingArea/Isel/semestre6/SE2/workplace/code/src/eCos/lib/libtarget.a(infra_prestart.o)
 .debug_pubnames
                0x0000037c       0x28 /home/masterzdran/WorkingArea/Isel/semestre6/SE2/workplace/code/src/eCos/lib/libtarget.a(infra_pkgstart.o)
 .debug_pubnames
                0x000003a4       0x25 /home/masterzdran/WorkingArea/Isel/semestre6/SE2/workplace/code/src/eCos/lib/libtarget.a(infra_userstart.o)
 .debug_pubnames
                0x000003c9      0x1cb /home/masterzdran/WorkingArea/Isel/semestre6/SE2/workplace/code/src/eCos/lib/libtarget.a(infra_diag.o)
 .debug_pubnames
                0x00000594      0xb40 /home/masterzdran/WorkingArea/Isel/semestre6/SE2/workplace/code/src/eCos/lib/libtarget.a(kernel_kapi.o)
 .debug_pubnames
                0x000010d4      0x364 /home/masterzdran/WorkingArea/Isel/semestre6/SE2/workplace/code/src/eCos/lib/libtarget.a(kernel_thread.o)
 .debug_pubnames
                0x00001438      0x15e /home/masterzdran/WorkingArea/Isel/semestre6/SE2/workplace/code/src/eCos/lib/libtarget.a(kernel_except.o)
 .debug_pubnames
                0x00001596      0x3b3 /home/masterzdran/WorkingArea/Isel/semestre6/SE2/workplace/code/src/eCos/lib/libtarget.a(kernel_intr.o)
 .debug_pubnames
                0x00001949      0x47c /home/masterzdran/WorkingArea/Isel/semestre6/SE2/workplace/code/src/eCos/lib/libtarget.a(kernel_mlqueue.o)
 .debug_pubnames
                0x00001dc5      0x2df /home/masterzdran/WorkingArea/Isel/semestre6/SE2/workplace/code/src/eCos/lib/libtarget.a(kernel_sched.o)
 .debug_pubnames
                0x000020a4      0x188 /home/masterzdran/WorkingArea/Isel/semestre6/SE2/workplace/code/src/eCos/lib/libtarget.a(kernel_cnt_sem.o)
 .debug_pubnames
                0x0000222c       0xd6 /home/masterzdran/WorkingArea/Isel/semestre6/SE2/workplace/code/src/eCos/lib/libtarget.a(kernel_flag.o)
 .debug_pubnames
                0x00002302       0xfa /home/masterzdran/WorkingArea/Isel/semestre6/SE2/workplace/code/src/eCos/lib/libtarget.a(kernel_mbox.o)
 .debug_pubnames
                0x000023fc      0x304 /home/masterzdran/WorkingArea/Isel/semestre6/SE2/workplace/code/src/eCos/lib/libtarget.a(kernel_mutex.o)
 .debug_pubnames
                0x00002700       0x2b /home/masterzdran/WorkingArea/Isel/semestre6/SE2/workplace/code/src/eCos/lib/libtarget.a(language_c_libc_startup_mainthread.o)
 .debug_pubnames
                0x0000272b       0x1d /home/masterzdran/WorkingArea/Isel/semestre6/SE2/workplace/code/src/eCos/lib/libtarget.a(language_c_libc_stdio_printf.o)
 .debug_pubnames
                0x00002748       0x20 /home/masterzdran/WorkingArea/Isel/semestre6/SE2/workplace/code/src/eCos/lib/libtarget.a(language_c_libc_stdio_vfnprintf.o)
 .debug_pubnames
                0x00002768       0x1f /home/masterzdran/WorkingArea/Isel/semestre6/SE2/workplace/code/src/eCos/lib/libtarget.a(language_c_libc_string_memchr.o)
 .debug_pubnames
                0x00002787       0x1f /home/masterzdran/WorkingArea/Isel/semestre6/SE2/workplace/code/src/eCos/lib/libtarget.a(language_c_libc_string_strlen.o)
 .debug_pubnames
                0x000027a6       0x4c /home/masterzdran/WorkingArea/Isel/semestre6/SE2/workplace/code/src/eCos/lib/libtarget.a(language_c_libc_string_strsuppt.o)
 .debug_pubnames
                0x000027f2       0x1b /home/masterzdran/WorkingArea/Isel/semestre6/SE2/workplace/code/src/eCos/lib/libtarget.a(language_c_libm_s_modf.o)
 .debug_pubnames
                0x0000280d       0x98 /home/masterzdran/WorkingArea/Isel/semestre6/SE2/workplace/code/src/eCos/lib/libtarget.a(hal_arm_arch_hal_misc.o)
 .debug_pubnames
                0x000028a5      0x154 /home/masterzdran/WorkingArea/Isel/semestre6/SE2/workplace/code/src/eCos/lib/libtarget.a(hal_arm_lpc2xxx_var_lpc2xxx_misc.o)
 .debug_pubnames
                0x000029f9       0x46 /home/masterzdran/WorkingArea/Isel/semestre6/SE2/workplace/code/src/eCos/lib/libtarget.a(hal_arm_lpc2xxx_p2106_p2106_misc.o)
 .debug_pubnames
                0x00002a3f      0x37a /home/masterzdran/WorkingArea/Isel/semestre6/SE2/workplace/code/src/eCos/lib/libtarget.a(kernel_clock.o)
 .debug_pubnames
                0x00002db9       0x2b /home/masterzdran/WorkingArea/Isel/semestre6/SE2/workplace/code/src/eCos/lib/libtarget.a(language_c_libc_startup_invokemain.o)
 .debug_pubnames
                0x00002de4       0x37 /home/masterzdran/WorkingArea/Isel/semestre6/SE2/workplace/code/src/eCos/lib/libtarget.a(language_c_libc_stdio_stdout.o)
 .debug_pubnames
                0x00002e1b      0x283 /home/masterzdran/WorkingArea/Isel/semestre6/SE2/workplace/code/src/eCos/lib/libtarget.a(language_c_libc_stdio_stream.o)
 .debug_pubnames
                0x0000309e       0x38 /home/masterzdran/WorkingArea/Isel/semestre6/SE2/workplace/code/src/eCos/lib/libtarget.a(language_c_libc_stdio_streambuf.o)
 .debug_pubnames
                0x000030d6       0x9b /home/masterzdran/WorkingArea/Isel/semestre6/SE2/workplace/code/src/eCos/lib/libtarget.a(hal_arm_lpc2xxx_var_hal_diag.o)
 .debug_pubnames
                0x00003171       0x1e /home/masterzdran/WorkingArea/Isel/semestre6/SE2/workplace/code/src/eCos/lib/libtarget.a(infra_memcpy.o)
 .debug_pubnames
                0x0000318f       0x3d /home/masterzdran/WorkingArea/Isel/semestre6/SE2/workplace/code/src/eCos/lib/libtarget.a(infra_delete.o)
 .debug_pubnames
                0x000031cc       0x4a /home/masterzdran/WorkingArea/Isel/semestre6/SE2/workplace/code/src/eCos/lib/libtarget.a(services_memalloc_common_malloc.o)
 .debug_pubnames
                0x00003216       0x42 /home/masterzdran/WorkingArea/Isel/semestre6/SE2/workplace/code/src/eCos/lib/libtarget.a(services_memalloc_common_heaps.o)
 .debug_pubnames
                0x00003258       0x1b /home/masterzdran/WorkingArea/Isel/semestre6/SE2/workplace/code/src/eCos/lib/libtarget.a(language_c_libc_startup_exit.o)
 .debug_pubnames
                0x00003273       0x3e /home/masterzdran/WorkingArea/Isel/semestre6/SE2/workplace/code/src/eCos/lib/libtarget.a(language_c_libc_stdio_fflush.o)
 .debug_pubnames
                0x000032b1       0x57 /home/masterzdran/WorkingArea/Isel/semestre6/SE2/workplace/code/src/eCos/lib/libtarget.a(language_c_libc_stdio_stdiofiles.o)
 .debug_pubnames
                0x00003308       0x33 /home/masterzdran/WorkingArea/Isel/semestre6/SE2/workplace/code/src/eCos/lib/libtarget.a(language_c_libc_stdio_stdiosupp.o)
 .debug_pubnames
                0x0000333b       0x2c /home/masterzdran/WorkingArea/Isel/semestre6/SE2/workplace/code/src/eCos/lib/libtarget.a(error_errno.o)
 .debug_pubnames
                0x00003367       0x1e /home/masterzdran/WorkingArea/Isel/semestre6/SE2/workplace/code/src/eCos/lib/libtarget.a(infra_memset.o)
 .debug_pubnames
                0x00003385      0x177 /home/masterzdran/WorkingArea/Isel/semestre6/SE2/workplace/code/src/eCos/lib/libtarget.a(services_memalloc_common_dlmalloc.o)
 .debug_pubnames
                0x000034fc       0x1c /home/masterzdran/WorkingArea/Isel/semestre6/SE2/workplace/code/src/eCos/lib/libtarget.a(language_c_libc_startup__exit.o)
 .debug_pubnames
                0x00003518       0x41 /home/masterzdran/WorkingArea/Isel/semestre6/SE2/workplace/code/src/eCos/lib/libtarget.a(language_c_libc_startup_atexit.o)
 .debug_pubnames
                0x00003559       0x20 /home/masterzdran/WorkingArea/Isel/semestre6/SE2/workplace/code/src/eCos/lib/libtarget.a(language_c_libc_string_memmove.o)

.debug_info     0x00000000    0x488de
 *(.debug_info)
 .debug_info    0x00000000       0xc7 /home/masterzdran/WorkingArea/Isel/semestre6/SE2/workplace/code/src/eCos/lib/vectors.o
 .debug_info    0x000000c7      0x135 ./automato.o
 .debug_info    0x000001fc     0x43ab /home/masterzdran/WorkingArea/Isel/semestre6/SE2/workplace/code/src/eCos/lib/extras.o
 .debug_info    0x000045a7      0xf10 /home/masterzdran/WorkingArea/Isel/semestre6/SE2/workplace/code/src/eCos/lib/libtarget.a(hal_common_hal_if.o)
 .debug_info    0x000054b7      0x176 /home/masterzdran/WorkingArea/Isel/semestre6/SE2/workplace/code/src/eCos/lib/libtarget.a(hal_common_hal_misc.o)
 .debug_info    0x0000562d      0x913 /home/masterzdran/WorkingArea/Isel/semestre6/SE2/workplace/code/src/eCos/lib/libtarget.a(io_common_iosys.o)
 .debug_info    0x00005f40     0x1c0a /home/masterzdran/WorkingArea/Isel/semestre6/SE2/workplace/code/src/eCos/lib/libtarget.a(infra_startup.o)
 .debug_info    0x00007b4a       0x70 /home/masterzdran/WorkingArea/Isel/semestre6/SE2/workplace/code/src/eCos/lib/libtarget.a(infra_prestart.o)
 .debug_info    0x00007bba       0x70 /home/masterzdran/WorkingArea/Isel/semestre6/SE2/workplace/code/src/eCos/lib/libtarget.a(infra_pkgstart.o)
 .debug_info    0x00007c2a       0x70 /home/masterzdran/WorkingArea/Isel/semestre6/SE2/workplace/code/src/eCos/lib/libtarget.a(infra_userstart.o)
 .debug_info    0x00007c9a      0xb2f /home/masterzdran/WorkingArea/Isel/semestre6/SE2/workplace/code/src/eCos/lib/libtarget.a(infra_diag.o)
 .debug_info    0x000087c9     0x57fc /home/masterzdran/WorkingArea/Isel/semestre6/SE2/workplace/code/src/eCos/lib/libtarget.a(kernel_kapi.o)
 .debug_info    0x0000dfc5     0x4280 /home/masterzdran/WorkingArea/Isel/semestre6/SE2/workplace/code/src/eCos/lib/libtarget.a(kernel_thread.o)
 .debug_info    0x00012245     0x1e7b /home/masterzdran/WorkingArea/Isel/semestre6/SE2/workplace/code/src/eCos/lib/libtarget.a(kernel_except.o)
 .debug_info    0x000140c0     0x2a48 /home/masterzdran/WorkingArea/Isel/semestre6/SE2/workplace/code/src/eCos/lib/libtarget.a(kernel_intr.o)
 .debug_info    0x00016b08     0x2ed3 /home/masterzdran/WorkingArea/Isel/semestre6/SE2/workplace/code/src/eCos/lib/libtarget.a(kernel_mlqueue.o)
 .debug_info    0x000199db     0x2d45 /home/masterzdran/WorkingArea/Isel/semestre6/SE2/workplace/code/src/eCos/lib/libtarget.a(kernel_sched.o)
 .debug_info    0x0001c720     0x2910 /home/masterzdran/WorkingArea/Isel/semestre6/SE2/workplace/code/src/eCos/lib/libtarget.a(kernel_cnt_sem.o)
 .debug_info    0x0001f030     0x2ef2 /home/masterzdran/WorkingArea/Isel/semestre6/SE2/workplace/code/src/eCos/lib/libtarget.a(kernel_flag.o)
 .debug_info    0x00021f22     0x393a /home/masterzdran/WorkingArea/Isel/semestre6/SE2/workplace/code/src/eCos/lib/libtarget.a(kernel_mbox.o)
 .debug_info    0x0002585c     0x3560 /home/masterzdran/WorkingArea/Isel/semestre6/SE2/workplace/code/src/eCos/lib/libtarget.a(kernel_mutex.o)
 .debug_info    0x00028dbc     0x1c8a /home/masterzdran/WorkingArea/Isel/semestre6/SE2/workplace/code/src/eCos/lib/libtarget.a(language_c_libc_startup_mainthread.o)
 .debug_info    0x0002aa46      0x12f /home/masterzdran/WorkingArea/Isel/semestre6/SE2/workplace/code/src/eCos/lib/libtarget.a(language_c_libc_stdio_printf.o)
 .debug_info    0x0002ab75     0x230b /home/masterzdran/WorkingArea/Isel/semestre6/SE2/workplace/code/src/eCos/lib/libtarget.a(language_c_libc_stdio_vfnprintf.o)
 .debug_info    0x0002ce80      0x159 /home/masterzdran/WorkingArea/Isel/semestre6/SE2/workplace/code/src/eCos/lib/libtarget.a(language_c_libc_string_memchr.o)
 .debug_info    0x0002cfd9      0x110 /home/masterzdran/WorkingArea/Isel/semestre6/SE2/workplace/code/src/eCos/lib/libtarget.a(language_c_libc_string_strlen.o)
 .debug_info    0x0002d0e9       0x8e /home/masterzdran/WorkingArea/Isel/semestre6/SE2/workplace/code/src/eCos/lib/libtarget.a(language_c_libc_string_strsuppt.o)
 .debug_info    0x0002d177      0x2cd /home/masterzdran/WorkingArea/Isel/semestre6/SE2/workplace/code/src/eCos/lib/libtarget.a(language_c_libm_s_modf.o)
 .debug_info    0x0002d444      0x28c /home/masterzdran/WorkingArea/Isel/semestre6/SE2/workplace/code/src/eCos/lib/libtarget.a(hal_arm_arch_hal_misc.o)
 .debug_info    0x0002d6d0       0xcb /home/masterzdran/WorkingArea/Isel/semestre6/SE2/workplace/code/src/eCos/lib/libtarget.a(hal_arm_arch_context.o)
 .debug_info    0x0002d79b      0x447 /home/masterzdran/WorkingArea/Isel/semestre6/SE2/workplace/code/src/eCos/lib/libtarget.a(hal_arm_lpc2xxx_var_lpc2xxx_misc.o)
 .debug_info    0x0002dbe2       0xa8 /home/masterzdran/WorkingArea/Isel/semestre6/SE2/workplace/code/src/eCos/lib/libtarget.a(hal_arm_lpc2xxx_p2106_p2106_misc.o)
 .debug_info    0x0002dc8a     0x39bf /home/masterzdran/WorkingArea/Isel/semestre6/SE2/workplace/code/src/eCos/lib/libtarget.a(kernel_clock.o)
 .debug_info    0x00031649       0xd4 /home/masterzdran/WorkingArea/Isel/semestre6/SE2/workplace/code/src/eCos/lib/libtarget.a(language_c_libc_startup_invokemain.o)
 .debug_info    0x0003171d     0x2162 /home/masterzdran/WorkingArea/Isel/semestre6/SE2/workplace/code/src/eCos/lib/libtarget.a(language_c_libc_stdio_stdout.o)
 .debug_info    0x0003387f     0x334d /home/masterzdran/WorkingArea/Isel/semestre6/SE2/workplace/code/src/eCos/lib/libtarget.a(language_c_libc_stdio_stream.o)
 .debug_info    0x00036bcc      0x2f7 /home/masterzdran/WorkingArea/Isel/semestre6/SE2/workplace/code/src/eCos/lib/libtarget.a(language_c_libc_stdio_streambuf.o)
 .debug_info    0x00036ec3      0x7f4 /home/masterzdran/WorkingArea/Isel/semestre6/SE2/workplace/code/src/eCos/lib/libtarget.a(hal_arm_lpc2xxx_var_hal_diag.o)
 .debug_info    0x000376b7      0x12c /home/masterzdran/WorkingArea/Isel/semestre6/SE2/workplace/code/src/eCos/lib/libtarget.a(infra_memcpy.o)
 .debug_info    0x000377e3       0xa8 /home/masterzdran/WorkingArea/Isel/semestre6/SE2/workplace/code/src/eCos/lib/libtarget.a(infra_delete.o)
 .debug_info    0x0003788b     0x2f62 /home/masterzdran/WorkingArea/Isel/semestre6/SE2/workplace/code/src/eCos/lib/libtarget.a(services_memalloc_common_malloc.o)
 .debug_info    0x0003a7ed     0x27d8 /home/masterzdran/WorkingArea/Isel/semestre6/SE2/workplace/code/src/eCos/lib/libtarget.a(services_memalloc_common_heaps.o)
 .debug_info    0x0003cfc5       0xf8 /home/masterzdran/WorkingArea/Isel/semestre6/SE2/workplace/code/src/eCos/lib/libtarget.a(language_c_libc_startup_exit.o)
 .debug_info    0x0003d0bd     0x1f81 /home/masterzdran/WorkingArea/Isel/semestre6/SE2/workplace/code/src/eCos/lib/libtarget.a(language_c_libc_stdio_fflush.o)
 .debug_info    0x0003f03e     0x1cfa /home/masterzdran/WorkingArea/Isel/semestre6/SE2/workplace/code/src/eCos/lib/libtarget.a(language_c_libc_stdio_stdiofiles.o)
 .debug_info    0x00040d38     0x1b9e /home/masterzdran/WorkingArea/Isel/semestre6/SE2/workplace/code/src/eCos/lib/libtarget.a(language_c_libc_stdio_stdiosupp.o)
 .debug_info    0x000428d6     0x1ce6 /home/masterzdran/WorkingArea/Isel/semestre6/SE2/workplace/code/src/eCos/lib/libtarget.a(error_errno.o)
 .debug_info    0x000445bc      0x123 /home/masterzdran/WorkingArea/Isel/semestre6/SE2/workplace/code/src/eCos/lib/libtarget.a(infra_memset.o)
 .debug_info    0x000446df     0x23e8 /home/masterzdran/WorkingArea/Isel/semestre6/SE2/workplace/code/src/eCos/lib/libtarget.a(services_memalloc_common_dlmalloc.o)
 .debug_info    0x00046ac7     0x1c23 /home/masterzdran/WorkingArea/Isel/semestre6/SE2/workplace/code/src/eCos/lib/libtarget.a(language_c_libc_startup__exit.o)
 .debug_info    0x000486ea      0x106 /home/masterzdran/WorkingArea/Isel/semestre6/SE2/workplace/code/src/eCos/lib/libtarget.a(language_c_libc_startup_atexit.o)
 .debug_info    0x000487f0       0xee /home/masterzdran/WorkingArea/Isel/semestre6/SE2/workplace/code/src/eCos/lib/libtarget.a(language_c_libc_string_memmove.o)

.debug_abbrev   0x00000000     0xa5d5
 *(.debug_abbrev)
 .debug_abbrev  0x00000000       0x12 /home/masterzdran/WorkingArea/Isel/semestre6/SE2/workplace/code/src/eCos/lib/vectors.o
 .debug_abbrev  0x00000012       0xb9 ./automato.o
 .debug_abbrev  0x000000cb      0xae7 /home/masterzdran/WorkingArea/Isel/semestre6/SE2/workplace/code/src/eCos/lib/extras.o
 .debug_abbrev  0x00000bb2      0x2c9 /home/masterzdran/WorkingArea/Isel/semestre6/SE2/workplace/code/src/eCos/lib/libtarget.a(hal_common_hal_if.o)
 .debug_abbrev  0x00000e7b       0xfb /home/masterzdran/WorkingArea/Isel/semestre6/SE2/workplace/code/src/eCos/lib/libtarget.a(hal_common_hal_misc.o)
 .debug_abbrev  0x00000f76      0x21f /home/masterzdran/WorkingArea/Isel/semestre6/SE2/workplace/code/src/eCos/lib/libtarget.a(io_common_iosys.o)
 .debug_abbrev  0x00001195      0x358 /home/masterzdran/WorkingArea/Isel/semestre6/SE2/workplace/code/src/eCos/lib/libtarget.a(infra_startup.o)
 .debug_abbrev  0x000014ed       0x3d /home/masterzdran/WorkingArea/Isel/semestre6/SE2/workplace/code/src/eCos/lib/libtarget.a(infra_prestart.o)
 .debug_abbrev  0x0000152a       0x3d /home/masterzdran/WorkingArea/Isel/semestre6/SE2/workplace/code/src/eCos/lib/libtarget.a(infra_pkgstart.o)
 .debug_abbrev  0x00001567       0x3d /home/masterzdran/WorkingArea/Isel/semestre6/SE2/workplace/code/src/eCos/lib/libtarget.a(infra_userstart.o)
 .debug_abbrev  0x000015a4      0x374 /home/masterzdran/WorkingArea/Isel/semestre6/SE2/workplace/code/src/eCos/lib/libtarget.a(infra_diag.o)
 .debug_abbrev  0x00001918      0x782 /home/masterzdran/WorkingArea/Isel/semestre6/SE2/workplace/code/src/eCos/lib/libtarget.a(kernel_kapi.o)
 .debug_abbrev  0x0000209a      0x6ef /home/masterzdran/WorkingArea/Isel/semestre6/SE2/workplace/code/src/eCos/lib/libtarget.a(kernel_thread.o)
 .debug_abbrev  0x00002789      0x4b3 /home/masterzdran/WorkingArea/Isel/semestre6/SE2/workplace/code/src/eCos/lib/libtarget.a(kernel_except.o)
 .debug_abbrev  0x00002c3c      0x67e /home/masterzdran/WorkingArea/Isel/semestre6/SE2/workplace/code/src/eCos/lib/libtarget.a(kernel_intr.o)
 .debug_abbrev  0x000032ba      0x668 /home/masterzdran/WorkingArea/Isel/semestre6/SE2/workplace/code/src/eCos/lib/libtarget.a(kernel_mlqueue.o)
 .debug_abbrev  0x00003922      0x667 /home/masterzdran/WorkingArea/Isel/semestre6/SE2/workplace/code/src/eCos/lib/libtarget.a(kernel_sched.o)
 .debug_abbrev  0x00003f89      0x590 /home/masterzdran/WorkingArea/Isel/semestre6/SE2/workplace/code/src/eCos/lib/libtarget.a(kernel_cnt_sem.o)
 .debug_abbrev  0x00004519      0x64a /home/masterzdran/WorkingArea/Isel/semestre6/SE2/workplace/code/src/eCos/lib/libtarget.a(kernel_flag.o)
 .debug_abbrev  0x00004b63      0x5f0 /home/masterzdran/WorkingArea/Isel/semestre6/SE2/workplace/code/src/eCos/lib/libtarget.a(kernel_mbox.o)
 .debug_abbrev  0x00005153      0x605 /home/masterzdran/WorkingArea/Isel/semestre6/SE2/workplace/code/src/eCos/lib/libtarget.a(kernel_mutex.o)
 .debug_abbrev  0x00005758      0x39d /home/masterzdran/WorkingArea/Isel/semestre6/SE2/workplace/code/src/eCos/lib/libtarget.a(language_c_libc_startup_mainthread.o)
 .debug_abbrev  0x00005af5       0xc1 /home/masterzdran/WorkingArea/Isel/semestre6/SE2/workplace/code/src/eCos/lib/libtarget.a(language_c_libc_stdio_printf.o)
 .debug_abbrev  0x00005bb6      0x51f /home/masterzdran/WorkingArea/Isel/semestre6/SE2/workplace/code/src/eCos/lib/libtarget.a(language_c_libc_stdio_vfnprintf.o)
 .debug_abbrev  0x000060d5       0xb7 /home/masterzdran/WorkingArea/Isel/semestre6/SE2/workplace/code/src/eCos/lib/libtarget.a(language_c_libc_string_memchr.o)
 .debug_abbrev  0x0000618c       0x9a /home/masterzdran/WorkingArea/Isel/semestre6/SE2/workplace/code/src/eCos/lib/libtarget.a(language_c_libc_string_strlen.o)
 .debug_abbrev  0x00006226       0x4d /home/masterzdran/WorkingArea/Isel/semestre6/SE2/workplace/code/src/eCos/lib/libtarget.a(language_c_libc_string_strsuppt.o)
 .debug_abbrev  0x00006273      0x143 /home/masterzdran/WorkingArea/Isel/semestre6/SE2/workplace/code/src/eCos/lib/libtarget.a(language_c_libm_s_modf.o)
 .debug_abbrev  0x000063b6      0x15b /home/masterzdran/WorkingArea/Isel/semestre6/SE2/workplace/code/src/eCos/lib/libtarget.a(hal_arm_arch_hal_misc.o)
 .debug_abbrev  0x00006511       0x14 /home/masterzdran/WorkingArea/Isel/semestre6/SE2/workplace/code/src/eCos/lib/libtarget.a(hal_arm_arch_context.o)
 .debug_abbrev  0x00006525      0x23d /home/masterzdran/WorkingArea/Isel/semestre6/SE2/workplace/code/src/eCos/lib/libtarget.a(hal_arm_lpc2xxx_var_lpc2xxx_misc.o)
 .debug_abbrev  0x00006762       0x74 /home/masterzdran/WorkingArea/Isel/semestre6/SE2/workplace/code/src/eCos/lib/libtarget.a(hal_arm_lpc2xxx_p2106_p2106_misc.o)
 .debug_abbrev  0x000067d6      0x71e /home/masterzdran/WorkingArea/Isel/semestre6/SE2/workplace/code/src/eCos/lib/libtarget.a(kernel_clock.o)
 .debug_abbrev  0x00006ef4       0xa2 /home/masterzdran/WorkingArea/Isel/semestre6/SE2/workplace/code/src/eCos/lib/libtarget.a(language_c_libc_startup_invokemain.o)
 .debug_abbrev  0x00006f96      0x44b /home/masterzdran/WorkingArea/Isel/semestre6/SE2/workplace/code/src/eCos/lib/libtarget.a(language_c_libc_stdio_stdout.o)
 .debug_abbrev  0x000073e1      0x643 /home/masterzdran/WorkingArea/Isel/semestre6/SE2/workplace/code/src/eCos/lib/libtarget.a(language_c_libc_stdio_stream.o)
 .debug_abbrev  0x00007a24      0x14b /home/masterzdran/WorkingArea/Isel/semestre6/SE2/workplace/code/src/eCos/lib/libtarget.a(language_c_libc_stdio_streambuf.o)
 .debug_abbrev  0x00007b6f      0x386 /home/masterzdran/WorkingArea/Isel/semestre6/SE2/workplace/code/src/eCos/lib/libtarget.a(hal_arm_lpc2xxx_var_hal_diag.o)
 .debug_abbrev  0x00007ef5       0x97 /home/masterzdran/WorkingArea/Isel/semestre6/SE2/workplace/code/src/eCos/lib/libtarget.a(infra_memcpy.o)
 .debug_abbrev  0x00007f8c       0x6e /home/masterzdran/WorkingArea/Isel/semestre6/SE2/workplace/code/src/eCos/lib/libtarget.a(infra_delete.o)
 .debug_abbrev  0x00007ffa      0x604 /home/masterzdran/WorkingArea/Isel/semestre6/SE2/workplace/code/src/eCos/lib/libtarget.a(services_memalloc_common_malloc.o)
 .debug_abbrev  0x000085fe      0x54a /home/masterzdran/WorkingArea/Isel/semestre6/SE2/workplace/code/src/eCos/lib/libtarget.a(services_memalloc_common_heaps.o)
 .debug_abbrev  0x00008b48       0xaa /home/masterzdran/WorkingArea/Isel/semestre6/SE2/workplace/code/src/eCos/lib/libtarget.a(language_c_libc_startup_exit.o)
 .debug_abbrev  0x00008bf2      0x4bc /home/masterzdran/WorkingArea/Isel/semestre6/SE2/workplace/code/src/eCos/lib/libtarget.a(language_c_libc_stdio_fflush.o)
 .debug_abbrev  0x000090ae      0x39b /home/masterzdran/WorkingArea/Isel/semestre6/SE2/workplace/code/src/eCos/lib/libtarget.a(language_c_libc_stdio_stdiofiles.o)
 .debug_abbrev  0x00009449      0x3ea /home/masterzdran/WorkingArea/Isel/semestre6/SE2/workplace/code/src/eCos/lib/libtarget.a(language_c_libc_stdio_stdiosupp.o)
 .debug_abbrev  0x00009833      0x402 /home/masterzdran/WorkingArea/Isel/semestre6/SE2/workplace/code/src/eCos/lib/libtarget.a(error_errno.o)
 .debug_abbrev  0x00009c35       0x8b /home/masterzdran/WorkingArea/Isel/semestre6/SE2/workplace/code/src/eCos/lib/libtarget.a(infra_memset.o)
 .debug_abbrev  0x00009cc0      0x45e /home/masterzdran/WorkingArea/Isel/semestre6/SE2/workplace/code/src/eCos/lib/libtarget.a(services_memalloc_common_dlmalloc.o)
 .debug_abbrev  0x0000a11e      0x369 /home/masterzdran/WorkingArea/Isel/semestre6/SE2/workplace/code/src/eCos/lib/libtarget.a(language_c_libc_startup__exit.o)
 .debug_abbrev  0x0000a487       0xc6 /home/masterzdran/WorkingArea/Isel/semestre6/SE2/workplace/code/src/eCos/lib/libtarget.a(language_c_libc_startup_atexit.o)
 .debug_abbrev  0x0000a54d       0x88 /home/masterzdran/WorkingArea/Isel/semestre6/SE2/workplace/code/src/eCos/lib/libtarget.a(language_c_libc_string_memmove.o)

.debug_line     0x00000000     0xd3b7
 *(.debug_line)
 .debug_line    0x00000000      0x1c6 /home/masterzdran/WorkingArea/Isel/semestre6/SE2/workplace/code/src/eCos/lib/vectors.o
 .debug_line    0x000001c6      0x5bb ./automato.o
 .debug_line    0x00000781      0xc99 /home/masterzdran/WorkingArea/Isel/semestre6/SE2/workplace/code/src/eCos/lib/extras.o
 .debug_line    0x0000141a      0x566 /home/masterzdran/WorkingArea/Isel/semestre6/SE2/workplace/code/src/eCos/lib/libtarget.a(hal_common_hal_if.o)
 .debug_line    0x00001980      0x176 /home/masterzdran/WorkingArea/Isel/semestre6/SE2/workplace/code/src/eCos/lib/libtarget.a(hal_common_hal_misc.o)
 .debug_line    0x00001af6      0x30d /home/masterzdran/WorkingArea/Isel/semestre6/SE2/workplace/code/src/eCos/lib/libtarget.a(io_common_iosys.o)
 .debug_line    0x00001e03      0x216 /home/masterzdran/WorkingArea/Isel/semestre6/SE2/workplace/code/src/eCos/lib/libtarget.a(infra_startup.o)
 .debug_line    0x00002019       0x7a /home/masterzdran/WorkingArea/Isel/semestre6/SE2/workplace/code/src/eCos/lib/libtarget.a(infra_prestart.o)
 .debug_line    0x00002093       0x7a /home/masterzdran/WorkingArea/Isel/semestre6/SE2/workplace/code/src/eCos/lib/libtarget.a(infra_pkgstart.o)
 .debug_line    0x0000210d       0x7b /home/masterzdran/WorkingArea/Isel/semestre6/SE2/workplace/code/src/eCos/lib/libtarget.a(infra_userstart.o)
 .debug_line    0x00002188      0x59a /home/masterzdran/WorkingArea/Isel/semestre6/SE2/workplace/code/src/eCos/lib/libtarget.a(infra_diag.o)
 .debug_line    0x00002722      0xf09 /home/masterzdran/WorkingArea/Isel/semestre6/SE2/workplace/code/src/eCos/lib/libtarget.a(kernel_kapi.o)
 .debug_line    0x0000362b      0xe46 /home/masterzdran/WorkingArea/Isel/semestre6/SE2/workplace/code/src/eCos/lib/libtarget.a(kernel_thread.o)
 .debug_line    0x00004471      0x2d3 /home/masterzdran/WorkingArea/Isel/semestre6/SE2/workplace/code/src/eCos/lib/libtarget.a(kernel_except.o)
 .debug_line    0x00004744      0x517 /home/masterzdran/WorkingArea/Isel/semestre6/SE2/workplace/code/src/eCos/lib/libtarget.a(kernel_intr.o)
 .debug_line    0x00004c5b      0x6e1 /home/masterzdran/WorkingArea/Isel/semestre6/SE2/workplace/code/src/eCos/lib/libtarget.a(kernel_mlqueue.o)
 .debug_line    0x0000533c      0x535 /home/masterzdran/WorkingArea/Isel/semestre6/SE2/workplace/code/src/eCos/lib/libtarget.a(kernel_sched.o)
 .debug_line    0x00005871      0x50d /home/masterzdran/WorkingArea/Isel/semestre6/SE2/workplace/code/src/eCos/lib/libtarget.a(kernel_cnt_sem.o)
 .debug_line    0x00005d7e      0x6f1 /home/masterzdran/WorkingArea/Isel/semestre6/SE2/workplace/code/src/eCos/lib/libtarget.a(kernel_flag.o)
 .debug_line    0x0000646f      0x8b5 /home/masterzdran/WorkingArea/Isel/semestre6/SE2/workplace/code/src/eCos/lib/libtarget.a(kernel_mbox.o)
 .debug_line    0x00006d24      0x962 /home/masterzdran/WorkingArea/Isel/semestre6/SE2/workplace/code/src/eCos/lib/libtarget.a(kernel_mutex.o)
 .debug_line    0x00007686      0x25b /home/masterzdran/WorkingArea/Isel/semestre6/SE2/workplace/code/src/eCos/lib/libtarget.a(language_c_libc_startup_mainthread.o)
 .debug_line    0x000078e1      0x1c0 /home/masterzdran/WorkingArea/Isel/semestre6/SE2/workplace/code/src/eCos/lib/libtarget.a(language_c_libc_stdio_printf.o)
 .debug_line    0x00007aa1      0x82b /home/masterzdran/WorkingArea/Isel/semestre6/SE2/workplace/code/src/eCos/lib/libtarget.a(language_c_libc_stdio_vfnprintf.o)
 .debug_line    0x000082cc      0x204 /home/masterzdran/WorkingArea/Isel/semestre6/SE2/workplace/code/src/eCos/lib/libtarget.a(language_c_libc_string_memchr.o)
 .debug_line    0x000084d0      0x1d4 /home/masterzdran/WorkingArea/Isel/semestre6/SE2/workplace/code/src/eCos/lib/libtarget.a(language_c_libc_string_strlen.o)
 .debug_line    0x000086a4       0xdf /home/masterzdran/WorkingArea/Isel/semestre6/SE2/workplace/code/src/eCos/lib/libtarget.a(language_c_libc_string_strsuppt.o)
 .debug_line    0x00008783      0x241 /home/masterzdran/WorkingArea/Isel/semestre6/SE2/workplace/code/src/eCos/lib/libtarget.a(language_c_libm_s_modf.o)
 .debug_line    0x000089c4      0x1b7 /home/masterzdran/WorkingArea/Isel/semestre6/SE2/workplace/code/src/eCos/lib/libtarget.a(hal_arm_arch_hal_misc.o)
 .debug_line    0x00008b7b       0x93 /home/masterzdran/WorkingArea/Isel/semestre6/SE2/workplace/code/src/eCos/lib/libtarget.a(hal_arm_arch_context.o)
 .debug_line    0x00008c0e      0x2c9 /home/masterzdran/WorkingArea/Isel/semestre6/SE2/workplace/code/src/eCos/lib/libtarget.a(hal_arm_lpc2xxx_var_lpc2xxx_misc.o)
 .debug_line    0x00008ed7       0x9e /home/masterzdran/WorkingArea/Isel/semestre6/SE2/workplace/code/src/eCos/lib/libtarget.a(hal_arm_lpc2xxx_p2106_p2106_misc.o)
 .debug_line    0x00008f75      0x9e9 /home/masterzdran/WorkingArea/Isel/semestre6/SE2/workplace/code/src/eCos/lib/libtarget.a(kernel_clock.o)
 .debug_line    0x0000995e       0xff /home/masterzdran/WorkingArea/Isel/semestre6/SE2/workplace/code/src/eCos/lib/libtarget.a(language_c_libc_startup_invokemain.o)
 .debug_line    0x00009a5d      0x423 /home/masterzdran/WorkingArea/Isel/semestre6/SE2/workplace/code/src/eCos/lib/libtarget.a(language_c_libc_stdio_stdout.o)
 .debug_line    0x00009e80      0x9e6 /home/masterzdran/WorkingArea/Isel/semestre6/SE2/workplace/code/src/eCos/lib/libtarget.a(language_c_libc_stdio_stream.o)
 .debug_line    0x0000a866      0x1ed /home/masterzdran/WorkingArea/Isel/semestre6/SE2/workplace/code/src/eCos/lib/libtarget.a(language_c_libc_stdio_streambuf.o)
 .debug_line    0x0000aa53      0x378 /home/masterzdran/WorkingArea/Isel/semestre6/SE2/workplace/code/src/eCos/lib/libtarget.a(hal_arm_lpc2xxx_var_hal_diag.o)
 .debug_line    0x0000adcb      0x180 /home/masterzdran/WorkingArea/Isel/semestre6/SE2/workplace/code/src/eCos/lib/libtarget.a(infra_memcpy.o)
 .debug_line    0x0000af4b       0x8b /home/masterzdran/WorkingArea/Isel/semestre6/SE2/workplace/code/src/eCos/lib/libtarget.a(infra_delete.o)
 .debug_line    0x0000afd6      0x642 /home/masterzdran/WorkingArea/Isel/semestre6/SE2/workplace/code/src/eCos/lib/libtarget.a(services_memalloc_common_malloc.o)
 .debug_line    0x0000b618      0x418 /home/masterzdran/WorkingArea/Isel/semestre6/SE2/workplace/code/src/eCos/lib/libtarget.a(services_memalloc_common_heaps.o)
 .debug_line    0x0000ba30      0x15b /home/masterzdran/WorkingArea/Isel/semestre6/SE2/workplace/code/src/eCos/lib/libtarget.a(language_c_libc_startup_exit.o)
 .debug_line    0x0000bb8b      0x3c9 /home/masterzdran/WorkingArea/Isel/semestre6/SE2/workplace/code/src/eCos/lib/libtarget.a(language_c_libc_stdio_fflush.o)
 .debug_line    0x0000bf54      0x2d7 /home/masterzdran/WorkingArea/Isel/semestre6/SE2/workplace/code/src/eCos/lib/libtarget.a(language_c_libc_stdio_stdiofiles.o)
 .debug_line    0x0000c22b      0x385 /home/masterzdran/WorkingArea/Isel/semestre6/SE2/workplace/code/src/eCos/lib/libtarget.a(language_c_libc_stdio_stdiosupp.o)
 .debug_line    0x0000c5b0      0x28e /home/masterzdran/WorkingArea/Isel/semestre6/SE2/workplace/code/src/eCos/lib/libtarget.a(error_errno.o)
 .debug_line    0x0000c83e      0x189 /home/masterzdran/WorkingArea/Isel/semestre6/SE2/workplace/code/src/eCos/lib/libtarget.a(infra_memset.o)
 .debug_line    0x0000c9c7      0x55a /home/masterzdran/WorkingArea/Isel/semestre6/SE2/workplace/code/src/eCos/lib/libtarget.a(services_memalloc_common_dlmalloc.o)
 .debug_line    0x0000cf21      0x225 /home/masterzdran/WorkingArea/Isel/semestre6/SE2/workplace/code/src/eCos/lib/libtarget.a(language_c_libc_startup__exit.o)
 .debug_line    0x0000d146      0x170 /home/masterzdran/WorkingArea/Isel/semestre6/SE2/workplace/code/src/eCos/lib/libtarget.a(language_c_libc_startup_atexit.o)
 .debug_line    0x0000d2b6      0x101 /home/masterzdran/WorkingArea/Isel/semestre6/SE2/workplace/code/src/eCos/lib/libtarget.a(language_c_libc_string_memmove.o)

.debug_frame    0x00000000     0x2df8
 *(.debug_frame)
 .debug_frame   0x00000000       0x30 ./automato.o
 .debug_frame   0x00000030      0x26c /home/masterzdran/WorkingArea/Isel/semestre6/SE2/workplace/code/src/eCos/lib/extras.o
 .debug_frame   0x0000029c      0x264 /home/masterzdran/WorkingArea/Isel/semestre6/SE2/workplace/code/src/eCos/lib/libtarget.a(hal_common_hal_if.o)
 .debug_frame   0x00000500       0x40 /home/masterzdran/WorkingArea/Isel/semestre6/SE2/workplace/code/src/eCos/lib/libtarget.a(hal_common_hal_misc.o)
 .debug_frame   0x00000540      0x168 /home/masterzdran/WorkingArea/Isel/semestre6/SE2/workplace/code/src/eCos/lib/libtarget.a(io_common_iosys.o)
 .debug_frame   0x000006a8       0x28 /home/masterzdran/WorkingArea/Isel/semestre6/SE2/workplace/code/src/eCos/lib/libtarget.a(infra_startup.o)
 .debug_frame   0x000006d0       0x20 /home/masterzdran/WorkingArea/Isel/semestre6/SE2/workplace/code/src/eCos/lib/libtarget.a(infra_prestart.o)
 .debug_frame   0x000006f0       0x20 /home/masterzdran/WorkingArea/Isel/semestre6/SE2/workplace/code/src/eCos/lib/libtarget.a(infra_pkgstart.o)
 .debug_frame   0x00000710       0x20 /home/masterzdran/WorkingArea/Isel/semestre6/SE2/workplace/code/src/eCos/lib/libtarget.a(infra_userstart.o)
 .debug_frame   0x00000730      0x298 /home/masterzdran/WorkingArea/Isel/semestre6/SE2/workplace/code/src/eCos/lib/libtarget.a(infra_diag.o)
 .debug_frame   0x000009c8      0x848 /home/masterzdran/WorkingArea/Isel/semestre6/SE2/workplace/code/src/eCos/lib/libtarget.a(kernel_kapi.o)
 .debug_frame   0x00001210      0x310 /home/masterzdran/WorkingArea/Isel/semestre6/SE2/workplace/code/src/eCos/lib/libtarget.a(kernel_thread.o)
 .debug_frame   0x00001520       0xa8 /home/masterzdran/WorkingArea/Isel/semestre6/SE2/workplace/code/src/eCos/lib/libtarget.a(kernel_except.o)
 .debug_frame   0x000015c8      0x214 /home/masterzdran/WorkingArea/Isel/semestre6/SE2/workplace/code/src/eCos/lib/libtarget.a(kernel_intr.o)
 .debug_frame   0x000017dc      0x1b4 /home/masterzdran/WorkingArea/Isel/semestre6/SE2/workplace/code/src/eCos/lib/libtarget.a(kernel_mlqueue.o)
 .debug_frame   0x00001990      0x164 /home/masterzdran/WorkingArea/Isel/semestre6/SE2/workplace/code/src/eCos/lib/libtarget.a(kernel_sched.o)
 .debug_frame   0x00001af4       0xe0 /home/masterzdran/WorkingArea/Isel/semestre6/SE2/workplace/code/src/eCos/lib/libtarget.a(kernel_cnt_sem.o)
 .debug_frame   0x00001bd4      0x118 /home/masterzdran/WorkingArea/Isel/semestre6/SE2/workplace/code/src/eCos/lib/libtarget.a(kernel_flag.o)
 .debug_frame   0x00001cec      0x13c /home/masterzdran/WorkingArea/Isel/semestre6/SE2/workplace/code/src/eCos/lib/libtarget.a(kernel_mbox.o)
 .debug_frame   0x00001e28      0x214 /home/masterzdran/WorkingArea/Isel/semestre6/SE2/workplace/code/src/eCos/lib/libtarget.a(kernel_mutex.o)
 .debug_frame   0x0000203c       0x48 /home/masterzdran/WorkingArea/Isel/semestre6/SE2/workplace/code/src/eCos/lib/libtarget.a(language_c_libc_startup_mainthread.o)
 .debug_frame   0x00002084       0x34 /home/masterzdran/WorkingArea/Isel/semestre6/SE2/workplace/code/src/eCos/lib/libtarget.a(language_c_libc_stdio_printf.o)
 .debug_frame   0x000020b8       0x60 /home/masterzdran/WorkingArea/Isel/semestre6/SE2/workplace/code/src/eCos/lib/libtarget.a(language_c_libc_stdio_vfnprintf.o)
 .debug_frame   0x00002118       0x2c /home/masterzdran/WorkingArea/Isel/semestre6/SE2/workplace/code/src/eCos/lib/libtarget.a(language_c_libc_string_memchr.o)
 .debug_frame   0x00002144       0x28 /home/masterzdran/WorkingArea/Isel/semestre6/SE2/workplace/code/src/eCos/lib/libtarget.a(language_c_libc_string_strlen.o)
 .debug_frame   0x0000216c       0x30 /home/masterzdran/WorkingArea/Isel/semestre6/SE2/workplace/code/src/eCos/lib/libtarget.a(language_c_libm_s_modf.o)
 .debug_frame   0x0000219c       0x7c /home/masterzdran/WorkingArea/Isel/semestre6/SE2/workplace/code/src/eCos/lib/libtarget.a(hal_arm_arch_hal_misc.o)
 .debug_frame   0x00002218      0x110 /home/masterzdran/WorkingArea/Isel/semestre6/SE2/workplace/code/src/eCos/lib/libtarget.a(hal_arm_lpc2xxx_var_lpc2xxx_misc.o)
 .debug_frame   0x00002328       0x30 /home/masterzdran/WorkingArea/Isel/semestre6/SE2/workplace/code/src/eCos/lib/libtarget.a(hal_arm_lpc2xxx_p2106_p2106_misc.o)
 .debug_frame   0x00002358      0x320 /home/masterzdran/WorkingArea/Isel/semestre6/SE2/workplace/code/src/eCos/lib/libtarget.a(kernel_clock.o)
 .debug_frame   0x00002678       0x28 /home/masterzdran/WorkingArea/Isel/semestre6/SE2/workplace/code/src/eCos/lib/libtarget.a(language_c_libc_startup_invokemain.o)
 .debug_frame   0x000026a0       0x50 /home/masterzdran/WorkingArea/Isel/semestre6/SE2/workplace/code/src/eCos/lib/libtarget.a(language_c_libc_stdio_stdout.o)
 .debug_frame   0x000026f0      0x21c /home/masterzdran/WorkingArea/Isel/semestre6/SE2/workplace/code/src/eCos/lib/libtarget.a(language_c_libc_stdio_stream.o)
 .debug_frame   0x0000290c       0x2c /home/masterzdran/WorkingArea/Isel/semestre6/SE2/workplace/code/src/eCos/lib/libtarget.a(language_c_libc_stdio_streambuf.o)
 .debug_frame   0x00002938       0xf0 /home/masterzdran/WorkingArea/Isel/semestre6/SE2/workplace/code/src/eCos/lib/libtarget.a(hal_arm_lpc2xxx_var_hal_diag.o)
 .debug_frame   0x00002a28       0x2c /home/masterzdran/WorkingArea/Isel/semestre6/SE2/workplace/code/src/eCos/lib/libtarget.a(infra_memcpy.o)
 .debug_frame   0x00002a54       0x30 /home/masterzdran/WorkingArea/Isel/semestre6/SE2/workplace/code/src/eCos/lib/libtarget.a(infra_delete.o)
 .debug_frame   0x00002a84       0xac /home/masterzdran/WorkingArea/Isel/semestre6/SE2/workplace/code/src/eCos/lib/libtarget.a(services_memalloc_common_malloc.o)
 .debug_frame   0x00002b30       0x50 /home/masterzdran/WorkingArea/Isel/semestre6/SE2/workplace/code/src/eCos/lib/libtarget.a(services_memalloc_common_heaps.o)
 .debug_frame   0x00002b80       0x20 /home/masterzdran/WorkingArea/Isel/semestre6/SE2/workplace/code/src/eCos/lib/libtarget.a(language_c_libc_startup_exit.o)
 .debug_frame   0x00002ba0       0x54 /home/masterzdran/WorkingArea/Isel/semestre6/SE2/workplace/code/src/eCos/lib/libtarget.a(language_c_libc_stdio_fflush.o)
 .debug_frame   0x00002bf4       0x40 /home/masterzdran/WorkingArea/Isel/semestre6/SE2/workplace/code/src/eCos/lib/libtarget.a(language_c_libc_stdio_stdiofiles.o)
 .debug_frame   0x00002c34       0x28 /home/masterzdran/WorkingArea/Isel/semestre6/SE2/workplace/code/src/eCos/lib/libtarget.a(language_c_libc_stdio_stdiosupp.o)
 .debug_frame   0x00002c5c       0x20 /home/masterzdran/WorkingArea/Isel/semestre6/SE2/workplace/code/src/eCos/lib/libtarget.a(error_errno.o)
 .debug_frame   0x00002c7c       0x28 /home/masterzdran/WorkingArea/Isel/semestre6/SE2/workplace/code/src/eCos/lib/libtarget.a(infra_memset.o)
 .debug_frame   0x00002ca4       0xd0 /home/masterzdran/WorkingArea/Isel/semestre6/SE2/workplace/code/src/eCos/lib/libtarget.a(services_memalloc_common_dlmalloc.o)
 .debug_frame   0x00002d74       0x20 /home/masterzdran/WorkingArea/Isel/semestre6/SE2/workplace/code/src/eCos/lib/libtarget.a(language_c_libc_startup__exit.o)
 .debug_frame   0x00002d94       0x3c /home/masterzdran/WorkingArea/Isel/semestre6/SE2/workplace/code/src/eCos/lib/libtarget.a(language_c_libc_startup_atexit.o)
 .debug_frame   0x00002dd0       0x28 /home/masterzdran/WorkingArea/Isel/semestre6/SE2/workplace/code/src/eCos/lib/libtarget.a(language_c_libc_string_memmove.o)

.debug_str      0x00000000     0x870b
 *(.debug_str)
 .debug_str     0x00000000      0x10e ./automato.o
                                0x133 (size before relaxing)
 .debug_str     0x0000010e     0x29fc /home/masterzdran/WorkingArea/Isel/semestre6/SE2/workplace/code/src/eCos/lib/extras.o
                               0x3e90 (size before relaxing)
 .debug_str     0x00002b0a      0x57a /home/masterzdran/WorkingArea/Isel/semestre6/SE2/workplace/code/src/eCos/lib/libtarget.a(hal_common_hal_if.o)
                                0x66b (size before relaxing)
 .debug_str     0x00003084       0xa2 /home/masterzdran/WorkingArea/Isel/semestre6/SE2/workplace/code/src/eCos/lib/libtarget.a(hal_common_hal_misc.o)
                                0x179 (size before relaxing)
 .debug_str     0x00003126      0x18b /home/masterzdran/WorkingArea/Isel/semestre6/SE2/workplace/code/src/eCos/lib/libtarget.a(io_common_iosys.o)
                                0x315 (size before relaxing)
 .debug_str     0x000032b1       0x50 /home/masterzdran/WorkingArea/Isel/semestre6/SE2/workplace/code/src/eCos/lib/libtarget.a(infra_startup.o)
                               0x23bd (size before relaxing)
 .debug_str     0x00003301       0x54 /home/masterzdran/WorkingArea/Isel/semestre6/SE2/workplace/code/src/eCos/lib/libtarget.a(infra_prestart.o)
                                 0xcb (size before relaxing)
 .debug_str     0x00003355       0x59 /home/masterzdran/WorkingArea/Isel/semestre6/SE2/workplace/code/src/eCos/lib/libtarget.a(infra_pkgstart.o)
                                 0xd0 (size before relaxing)
 .debug_str     0x000033ae       0x57 /home/masterzdran/WorkingArea/Isel/semestre6/SE2/workplace/code/src/eCos/lib/libtarget.a(infra_userstart.o)
                                 0xce (size before relaxing)
 .debug_str     0x00003405      0x2c6 /home/masterzdran/WorkingArea/Isel/semestre6/SE2/workplace/code/src/eCos/lib/libtarget.a(infra_diag.o)
                                0x473 (size before relaxing)
 .debug_str     0x000036cb     0x1c09 /home/masterzdran/WorkingArea/Isel/semestre6/SE2/workplace/code/src/eCos/lib/libtarget.a(kernel_kapi.o)
                               0x4371 (size before relaxing)
 .debug_str     0x000052d4      0x86d /home/masterzdran/WorkingArea/Isel/semestre6/SE2/workplace/code/src/eCos/lib/libtarget.a(kernel_thread.o)
                               0x3549 (size before relaxing)
 .debug_str     0x00005b41       0xb5 /home/masterzdran/WorkingArea/Isel/semestre6/SE2/workplace/code/src/eCos/lib/libtarget.a(kernel_except.o)
                               0x252c (size before relaxing)
 .debug_str     0x00005bf6      0x17c /home/masterzdran/WorkingArea/Isel/semestre6/SE2/workplace/code/src/eCos/lib/libtarget.a(kernel_intr.o)
                               0x2d2d (size before relaxing)
 .debug_str     0x00005d72       0x74 /home/masterzdran/WorkingArea/Isel/semestre6/SE2/workplace/code/src/eCos/lib/libtarget.a(kernel_mlqueue.o)
                               0x2ce8 (size before relaxing)
 .debug_str     0x00005de6       0xf4 /home/masterzdran/WorkingArea/Isel/semestre6/SE2/workplace/code/src/eCos/lib/libtarget.a(kernel_sched.o)
                               0x3409 (size before relaxing)
 .debug_str     0x00005eda       0x88 /home/masterzdran/WorkingArea/Isel/semestre6/SE2/workplace/code/src/eCos/lib/libtarget.a(kernel_cnt_sem.o)
                               0x2769 (size before relaxing)
 .debug_str     0x00005f62       0x94 /home/masterzdran/WorkingArea/Isel/semestre6/SE2/workplace/code/src/eCos/lib/libtarget.a(kernel_flag.o)
                               0x27b4 (size before relaxing)
 .debug_str     0x00005ff6       0x4f /home/masterzdran/WorkingArea/Isel/semestre6/SE2/workplace/code/src/eCos/lib/libtarget.a(kernel_mbox.o)
                               0x29c2 (size before relaxing)
 .debug_str     0x00006045       0x64 /home/masterzdran/WorkingArea/Isel/semestre6/SE2/workplace/code/src/eCos/lib/libtarget.a(kernel_mutex.o)
                               0x2a04 (size before relaxing)
 .debug_str     0x000060a9       0xbb /home/masterzdran/WorkingArea/Isel/semestre6/SE2/workplace/code/src/eCos/lib/libtarget.a(language_c_libc_startup_mainthread.o)
                               0x248b (size before relaxing)
 .debug_str     0x00006164       0x5c /home/masterzdran/WorkingArea/Isel/semestre6/SE2/workplace/code/src/eCos/lib/libtarget.a(language_c_libc_stdio_printf.o)
                                0x13f (size before relaxing)
 .debug_str     0x000061c0      0x239 /home/masterzdran/WorkingArea/Isel/semestre6/SE2/workplace/code/src/eCos/lib/libtarget.a(language_c_libc_stdio_vfnprintf.o)
                               0x2455 (size before relaxing)
 .debug_str     0x000063f9       0x9d /home/masterzdran/WorkingArea/Isel/semestre6/SE2/workplace/code/src/eCos/lib/libtarget.a(language_c_libc_string_memchr.o)
                                0x152 (size before relaxing)
 .debug_str     0x00006496       0x66 /home/masterzdran/WorkingArea/Isel/semestre6/SE2/workplace/code/src/eCos/lib/libtarget.a(language_c_libc_string_strlen.o)
                                0x14d (size before relaxing)
 .debug_str     0x000064fc       0x58 /home/masterzdran/WorkingArea/Isel/semestre6/SE2/workplace/code/src/eCos/lib/libtarget.a(language_c_libc_string_strsuppt.o)
                                0x10c (size before relaxing)
 .debug_str     0x00006554       0x7d /home/masterzdran/WorkingArea/Isel/semestre6/SE2/workplace/code/src/eCos/lib/libtarget.a(language_c_libm_s_modf.o)
                                0x23a (size before relaxing)
 .debug_str     0x000065d1       0xd6 /home/masterzdran/WorkingArea/Isel/semestre6/SE2/workplace/code/src/eCos/lib/libtarget.a(hal_arm_arch_hal_misc.o)
                                0x1b6 (size before relaxing)
 .debug_str     0x000066a7      0x1b4 /home/masterzdran/WorkingArea/Isel/semestre6/SE2/workplace/code/src/eCos/lib/libtarget.a(hal_arm_lpc2xxx_var_lpc2xxx_misc.o)
                                0x2cc (size before relaxing)
 .debug_str     0x0000685b       0x83 /home/masterzdran/WorkingArea/Isel/semestre6/SE2/workplace/code/src/eCos/lib/libtarget.a(hal_arm_lpc2xxx_p2106_p2106_misc.o)
                                0x109 (size before relaxing)
 .debug_str     0x000068de      0x18b /home/masterzdran/WorkingArea/Isel/semestre6/SE2/workplace/code/src/eCos/lib/libtarget.a(kernel_clock.o)
                               0x3487 (size before relaxing)
 .debug_str     0x00006a69       0x7a /home/masterzdran/WorkingArea/Isel/semestre6/SE2/workplace/code/src/eCos/lib/libtarget.a(language_c_libc_startup_invokemain.o)
                                0x117 (size before relaxing)
 .debug_str     0x00006ae3      0x491 /home/masterzdran/WorkingArea/Isel/semestre6/SE2/workplace/code/src/eCos/lib/libtarget.a(language_c_libc_stdio_stdout.o)
                               0x28bf (size before relaxing)
 .debug_str     0x00006f74      0x6af /home/masterzdran/WorkingArea/Isel/semestre6/SE2/workplace/code/src/eCos/lib/libtarget.a(language_c_libc_stdio_stream.o)
                               0x2de0 (size before relaxing)
 .debug_str     0x00007623       0x6c /home/masterzdran/WorkingArea/Isel/semestre6/SE2/workplace/code/src/eCos/lib/libtarget.a(language_c_libc_stdio_streambuf.o)
                                0x3f1 (size before relaxing)
 .debug_str     0x0000768f      0x23b /home/masterzdran/WorkingArea/Isel/semestre6/SE2/workplace/code/src/eCos/lib/libtarget.a(hal_arm_lpc2xxx_var_hal_diag.o)
                                0x505 (size before relaxing)
 .debug_str     0x000078ca       0x57 /home/masterzdran/WorkingArea/Isel/semestre6/SE2/workplace/code/src/eCos/lib/libtarget.a(infra_memcpy.o)
                                 0xf8 (size before relaxing)
 .debug_str     0x00007921       0x76 /home/masterzdran/WorkingArea/Isel/semestre6/SE2/workplace/code/src/eCos/lib/libtarget.a(infra_delete.o)
                                 0xed (size before relaxing)
 .debug_str     0x00007997      0x664 /home/masterzdran/WorkingArea/Isel/semestre6/SE2/workplace/code/src/eCos/lib/libtarget.a(services_memalloc_common_malloc.o)
                               0x2c67 (size before relaxing)
 .debug_str     0x00007ffb       0xcc /home/masterzdran/WorkingArea/Isel/semestre6/SE2/workplace/code/src/eCos/lib/libtarget.a(services_memalloc_common_heaps.o)
                               0x2c50 (size before relaxing)
 .debug_str     0x000080c7       0x55 /home/masterzdran/WorkingArea/Isel/semestre6/SE2/workplace/code/src/eCos/lib/libtarget.a(language_c_libc_startup_exit.o)
                                0x111 (size before relaxing)
 .debug_str     0x0000811c      0x13d /home/masterzdran/WorkingArea/Isel/semestre6/SE2/workplace/code/src/eCos/lib/libtarget.a(language_c_libc_stdio_fflush.o)
                               0x25b7 (size before relaxing)
 .debug_str     0x00008259       0xc4 /home/masterzdran/WorkingArea/Isel/semestre6/SE2/workplace/code/src/eCos/lib/libtarget.a(language_c_libc_stdio_stdiofiles.o)
                               0x24ae (size before relaxing)
 .debug_str     0x0000831d       0x8b /home/masterzdran/WorkingArea/Isel/semestre6/SE2/workplace/code/src/eCos/lib/libtarget.a(language_c_libc_stdio_stdiosupp.o)
                               0x22be (size before relaxing)
 .debug_str     0x000083a8       0x5a /home/masterzdran/WorkingArea/Isel/semestre6/SE2/workplace/code/src/eCos/lib/libtarget.a(error_errno.o)
                               0x2433 (size before relaxing)
 .debug_str     0x00008402       0x63 /home/masterzdran/WorkingArea/Isel/semestre6/SE2/workplace/code/src/eCos/lib/libtarget.a(infra_memset.o)
                                0x11e (size before relaxing)
 .debug_str     0x00008465      0x11a /home/masterzdran/WorkingArea/Isel/semestre6/SE2/workplace/code/src/eCos/lib/libtarget.a(services_memalloc_common_dlmalloc.o)
                               0x2732 (size before relaxing)
 .debug_str     0x0000857f       0x56 /home/masterzdran/WorkingArea/Isel/semestre6/SE2/workplace/code/src/eCos/lib/libtarget.a(language_c_libc_startup__exit.o)
                               0x23d9 (size before relaxing)
 .debug_str     0x000085d5       0xd5 /home/masterzdran/WorkingArea/Isel/semestre6/SE2/workplace/code/src/eCos/lib/libtarget.a(language_c_libc_startup_atexit.o)
                                0x162 (size before relaxing)
 .debug_str     0x000086aa       0x61 /home/masterzdran/WorkingArea/Isel/semestre6/SE2/workplace/code/src/eCos/lib/libtarget.a(language_c_libc_string_memmove.o)
                                 0xe4 (size before relaxing)

.debug_loc      0x00000000     0xdbfd
 *(.debug_loc)
 .debug_loc     0x00000000       0x2a ./automato.o
 .debug_loc     0x0000002a      0xa2b /home/masterzdran/WorkingArea/Isel/semestre6/SE2/workplace/code/src/eCos/lib/extras.o
 .debug_loc     0x00000a55      0x849 /home/masterzdran/WorkingArea/Isel/semestre6/SE2/workplace/code/src/eCos/lib/libtarget.a(hal_common_hal_if.o)
 .debug_loc     0x0000129e       0x6d /home/masterzdran/WorkingArea/Isel/semestre6/SE2/workplace/code/src/eCos/lib/libtarget.a(hal_common_hal_misc.o)
 .debug_loc     0x0000130b      0x5e1 /home/masterzdran/WorkingArea/Isel/semestre6/SE2/workplace/code/src/eCos/lib/libtarget.a(io_common_iosys.o)
 .debug_loc     0x000018ec       0x2b /home/masterzdran/WorkingArea/Isel/semestre6/SE2/workplace/code/src/eCos/lib/libtarget.a(infra_startup.o)
 .debug_loc     0x00001917     0x11af /home/masterzdran/WorkingArea/Isel/semestre6/SE2/workplace/code/src/eCos/lib/libtarget.a(infra_diag.o)
 .debug_loc     0x00002ac6     0x10bb /home/masterzdran/WorkingArea/Isel/semestre6/SE2/workplace/code/src/eCos/lib/libtarget.a(kernel_kapi.o)
 .debug_loc     0x00003b81      0xca5 /home/masterzdran/WorkingArea/Isel/semestre6/SE2/workplace/code/src/eCos/lib/libtarget.a(kernel_thread.o)
 .debug_loc     0x00004826      0x140 /home/masterzdran/WorkingArea/Isel/semestre6/SE2/workplace/code/src/eCos/lib/libtarget.a(kernel_except.o)
 .debug_loc     0x00004966      0x42f /home/masterzdran/WorkingArea/Isel/semestre6/SE2/workplace/code/src/eCos/lib/libtarget.a(kernel_intr.o)
 .debug_loc     0x00004d95      0x479 /home/masterzdran/WorkingArea/Isel/semestre6/SE2/workplace/code/src/eCos/lib/libtarget.a(kernel_mlqueue.o)
 .debug_loc     0x0000520e      0x3b9 /home/masterzdran/WorkingArea/Isel/semestre6/SE2/workplace/code/src/eCos/lib/libtarget.a(kernel_sched.o)
 .debug_loc     0x000055c7      0x24a /home/masterzdran/WorkingArea/Isel/semestre6/SE2/workplace/code/src/eCos/lib/libtarget.a(kernel_cnt_sem.o)
 .debug_loc     0x00005811      0x62a /home/masterzdran/WorkingArea/Isel/semestre6/SE2/workplace/code/src/eCos/lib/libtarget.a(kernel_flag.o)
 .debug_loc     0x00005e3b      0x630 /home/masterzdran/WorkingArea/Isel/semestre6/SE2/workplace/code/src/eCos/lib/libtarget.a(kernel_mbox.o)
 .debug_loc     0x0000646b      0x62a /home/masterzdran/WorkingArea/Isel/semestre6/SE2/workplace/code/src/eCos/lib/libtarget.a(kernel_mutex.o)
 .debug_loc     0x00006a95       0x67 /home/masterzdran/WorkingArea/Isel/semestre6/SE2/workplace/code/src/eCos/lib/libtarget.a(language_c_libc_startup_mainthread.o)
 .debug_loc     0x00006afc       0x37 /home/masterzdran/WorkingArea/Isel/semestre6/SE2/workplace/code/src/eCos/lib/libtarget.a(language_c_libc_stdio_printf.o)
 .debug_loc     0x00006b33     0x2d5f /home/masterzdran/WorkingArea/Isel/semestre6/SE2/workplace/code/src/eCos/lib/libtarget.a(language_c_libc_stdio_vfnprintf.o)
 .debug_loc     0x00009892      0x196 /home/masterzdran/WorkingArea/Isel/semestre6/SE2/workplace/code/src/eCos/lib/libtarget.a(language_c_libc_string_memchr.o)
 .debug_loc     0x00009a28       0x7c /home/masterzdran/WorkingArea/Isel/semestre6/SE2/workplace/code/src/eCos/lib/libtarget.a(language_c_libc_string_strlen.o)
 .debug_loc     0x00009aa4       0xca /home/masterzdran/WorkingArea/Isel/semestre6/SE2/workplace/code/src/eCos/lib/libtarget.a(language_c_libm_s_modf.o)
 .debug_loc     0x00009b6e       0xd1 /home/masterzdran/WorkingArea/Isel/semestre6/SE2/workplace/code/src/eCos/lib/libtarget.a(hal_arm_arch_hal_misc.o)
 .debug_loc     0x00009c3f      0x1d7 /home/masterzdran/WorkingArea/Isel/semestre6/SE2/workplace/code/src/eCos/lib/libtarget.a(hal_arm_lpc2xxx_var_lpc2xxx_misc.o)
 .debug_loc     0x00009e16     0x1468 /home/masterzdran/WorkingArea/Isel/semestre6/SE2/workplace/code/src/eCos/lib/libtarget.a(kernel_clock.o)
 .debug_loc     0x0000b27e       0x2b /home/masterzdran/WorkingArea/Isel/semestre6/SE2/workplace/code/src/eCos/lib/libtarget.a(language_c_libc_startup_invokemain.o)
 .debug_loc     0x0000b2a9       0x9e /home/masterzdran/WorkingArea/Isel/semestre6/SE2/workplace/code/src/eCos/lib/libtarget.a(language_c_libc_stdio_stdout.o)
 .debug_loc     0x0000b347      0xa69 /home/masterzdran/WorkingArea/Isel/semestre6/SE2/workplace/code/src/eCos/lib/libtarget.a(language_c_libc_stdio_stream.o)
 .debug_loc     0x0000bdb0       0xbb /home/masterzdran/WorkingArea/Isel/semestre6/SE2/workplace/code/src/eCos/lib/libtarget.a(language_c_libc_stdio_streambuf.o)
 .debug_loc     0x0000be6b      0x3c2 /home/masterzdran/WorkingArea/Isel/semestre6/SE2/workplace/code/src/eCos/lib/libtarget.a(hal_arm_lpc2xxx_var_hal_diag.o)
 .debug_loc     0x0000c22d      0x170 /home/masterzdran/WorkingArea/Isel/semestre6/SE2/workplace/code/src/eCos/lib/libtarget.a(infra_memcpy.o)
 .debug_loc     0x0000c39d      0x2a2 /home/masterzdran/WorkingArea/Isel/semestre6/SE2/workplace/code/src/eCos/lib/libtarget.a(services_memalloc_common_malloc.o)
 .debug_loc     0x0000c63f       0xe2 /home/masterzdran/WorkingArea/Isel/semestre6/SE2/workplace/code/src/eCos/lib/libtarget.a(services_memalloc_common_heaps.o)
 .debug_loc     0x0000c721       0x1e /home/masterzdran/WorkingArea/Isel/semestre6/SE2/workplace/code/src/eCos/lib/libtarget.a(language_c_libc_startup_exit.o)
 .debug_loc     0x0000c73f      0x17b /home/masterzdran/WorkingArea/Isel/semestre6/SE2/workplace/code/src/eCos/lib/libtarget.a(language_c_libc_stdio_fflush.o)
 .debug_loc     0x0000c8ba       0x3c /home/masterzdran/WorkingArea/Isel/semestre6/SE2/workplace/code/src/eCos/lib/libtarget.a(language_c_libc_stdio_stdiofiles.o)
 .debug_loc     0x0000c8f6       0x77 /home/masterzdran/WorkingArea/Isel/semestre6/SE2/workplace/code/src/eCos/lib/libtarget.a(language_c_libc_stdio_stdiosupp.o)
 .debug_loc     0x0000c96d      0x123 /home/masterzdran/WorkingArea/Isel/semestre6/SE2/workplace/code/src/eCos/lib/libtarget.a(infra_memset.o)
 .debug_loc     0x0000ca90     0x1030 /home/masterzdran/WorkingArea/Isel/semestre6/SE2/workplace/code/src/eCos/lib/libtarget.a(services_memalloc_common_dlmalloc.o)
 .debug_loc     0x0000dac0       0x13 /home/masterzdran/WorkingArea/Isel/semestre6/SE2/workplace/code/src/eCos/lib/libtarget.a(language_c_libc_startup__exit.o)
 .debug_loc     0x0000dad3       0x3e /home/masterzdran/WorkingArea/Isel/semestre6/SE2/workplace/code/src/eCos/lib/libtarget.a(language_c_libc_startup_atexit.o)
 .debug_loc     0x0000db11       0xec /home/masterzdran/WorkingArea/Isel/semestre6/SE2/workplace/code/src/eCos/lib/libtarget.a(language_c_libc_string_memmove.o)

.debug_macinfo  0x00000000     0xafca
 *(.debug_macinfo)
 .debug_macinfo
                0x00000000     0xafca ./automato.o

.note.arm.ident
 *(.note.arm.ident)

/DISCARD/
 *(.fini_array*)
 *(.ARM.extab* .gnu.linkonce.armextab.*)
 *(.ARM.exidx* .gnu.linkonce.armexidx.*)
 *(.gcc_except_table*)

.rom_vectors    0x00000000       0x40
                0x00000000                __rom_vectors_vma = ABSOLUTE (.)
                0x00000000                . = .
 *(.vectors)
 .vectors       0x00000000       0x40 /home/masterzdran/WorkingArea/Isel/semestre6/SE2/workplace/code/src/eCos/lib/vectors.o
                0x00000000                __exception_handlers
                0x00000020                vectors
                0x00000000                __rom_vectors_lma = LOADADDR (.rom_vectors)

.ARM.extab      0x00000040        0x0
                0x00000040                PROVIDE (__stext, ABSOLUTE (.))
                0x00000040                _stext = ABSOLUTE (.)
                0x00000040                . = .
                0x00000040                . = ALIGN (0x8)
                0x00000040                . = ALIGN (0x8)
                0x00000040                __exidx_start = ABSOLUTE (.)

.ARM.exidx      0x00000040        0x0
                0x00000040                . = .
                0x00000040                __exidx_end = ABSOLUTE (.)

.text           0x00000040     0xf538
 *(.text*)
 .text          0x00000040      0x584 /home/masterzdran/WorkingArea/Isel/semestre6/SE2/workplace/code/src/eCos/lib/vectors.o
                0x000004e4                hal_interrupt_stack_call_pending_DSRs
                0x00000544                __gccmain
                0x00000258                reset_platform
                0x00000040                reset_vector
                0x00000550                _sp
                0x00000548                _psr
                0x00000104                start
 .text          0x000005c4       0x44 ./automato.o
                0x000005c4                main
 .text          0x00000608        0x0 /home/masterzdran/WorkingArea/Isel/semestre6/SE2/workplace/code/src/eCos/lib/extras.o
 .text._GLOBAL__I.49000_ioinit.cxx
                0x00000608        0x4 /home/masterzdran/WorkingArea/Isel/semestre6/SE2/workplace/code/src/eCos/lib/extras.o
 .text.serial_select
                0x0000060c        0x8 /home/masterzdran/WorkingArea/Isel/semestre6/SE2/workplace/code/src/eCos/lib/extras.o
 .text.serial_set_config
                0x00000614       0x1c /home/masterzdran/WorkingArea/Isel/semestre6/SE2/workplace/code/src/eCos/lib/extras.o
 .text.serial_rcv_char
                0x00000630       0x64 /home/masterzdran/WorkingArea/Isel/semestre6/SE2/workplace/code/src/eCos/lib/extras.o
 .text.serial_xmt_char
                0x00000694       0xd4 /home/masterzdran/WorkingArea/Isel/semestre6/SE2/workplace/code/src/eCos/lib/extras.o
 .text.serial_init
                0x00000768       0xb4 /home/masterzdran/WorkingArea/Isel/semestre6/SE2/workplace/code/src/eCos/lib/extras.o
 .text.serial_get_config
                0x0000081c      0x2cc /home/masterzdran/WorkingArea/Isel/semestre6/SE2/workplace/code/src/eCos/lib/extras.o
 .text.serial_read
                0x00000ae8      0x13c /home/masterzdran/WorkingArea/Isel/semestre6/SE2/workplace/code/src/eCos/lib/extras.o
 .text.serial_write
                0x00000c24      0x184 /home/masterzdran/WorkingArea/Isel/semestre6/SE2/workplace/code/src/eCos/lib/extras.o
 .text.tty_init
                0x00000da8       0x14 /home/masterzdran/WorkingArea/Isel/semestre6/SE2/workplace/code/src/eCos/lib/extras.o
 .text.tty_lookup
                0x00000dbc       0x14 /home/masterzdran/WorkingArea/Isel/semestre6/SE2/workplace/code/src/eCos/lib/extras.o
 .text.tty_set_config
                0x00000dd0       0x48 /home/masterzdran/WorkingArea/Isel/semestre6/SE2/workplace/code/src/eCos/lib/extras.o
 .text.tty_get_config
                0x00000e18       0x54 /home/masterzdran/WorkingArea/Isel/semestre6/SE2/workplace/code/src/eCos/lib/extras.o
 .text.tty_select
                0x00000e6c        0xc /home/masterzdran/WorkingArea/Isel/semestre6/SE2/workplace/code/src/eCos/lib/extras.o
 .text.tty_read
                0x00000e78      0x180 /home/masterzdran/WorkingArea/Isel/semestre6/SE2/workplace/code/src/eCos/lib/extras.o
 .text.tty_write
                0x00000ff8       0xf4 /home/masterzdran/WorkingArea/Isel/semestre6/SE2/workplace/code/src/eCos/lib/extras.o
 .text.haldiag_init
                0x000010ec        0x8 /home/masterzdran/WorkingArea/Isel/semestre6/SE2/workplace/code/src/eCos/lib/extras.o
 .text.haldiag_set_config
                0x000010f4       0x40 /home/masterzdran/WorkingArea/Isel/semestre6/SE2/workplace/code/src/eCos/lib/extras.o
 .text.haldiag_getc
                0x00001134       0x1c /home/masterzdran/WorkingArea/Isel/semestre6/SE2/workplace/code/src/eCos/lib/extras.o
 .text.haldiag_putc
                0x00001150       0x1c /home/masterzdran/WorkingArea/Isel/semestre6/SE2/workplace/code/src/eCos/lib/extras.o
 .text.cyg_iso_c_start
                0x0000116c       0x28 /home/masterzdran/WorkingArea/Isel/semestre6/SE2/workplace/code/src/eCos/lib/extras.o
                0x0000116c                cyg_iso_c_start
 .text._GLOBAL__I.56100_cyg_iso_c_start
                0x00001194        0x4 /home/masterzdran/WorkingArea/Isel/semestre6/SE2/workplace/code/src/eCos/lib/extras.o
 .text          0x00001198        0x0 /home/masterzdran/WorkingArea/Isel/semestre6/SE2/workplace/code/src/eCos/lib/libtarget.a(hal_common_hal_if.o)
 .text.nop_service
                0x00001198        0x8 /home/masterzdran/WorkingArea/Isel/semestre6/SE2/workplace/code/src/eCos/lib/libtarget.a(hal_common_hal_if.o)
 .text.set_debug_comm
                0x000011a0      0x118 /home/masterzdran/WorkingArea/Isel/semestre6/SE2/workplace/code/src/eCos/lib/libtarget.a(hal_common_hal_if.o)
 .text.set_console_comm
                0x000012b8       0x94 /home/masterzdran/WorkingArea/Isel/semestre6/SE2/workplace/code/src/eCos/lib/libtarget.a(hal_common_hal_if.o)
 .text.cyg_hal_diag_mangler_gdb_getc
                0x0000134c       0x2c /home/masterzdran/WorkingArea/Isel/semestre6/SE2/workplace/code/src/eCos/lib/libtarget.a(hal_common_hal_if.o)
 .text.cyg_hal_diag_mangler_gdb_read
                0x00001378       0x4c /home/masterzdran/WorkingArea/Isel/semestre6/SE2/workplace/code/src/eCos/lib/libtarget.a(hal_common_hal_if.o)
 .text.cyg_hal_diag_mangler_gdb_init
                0x000013c4       0x8c /home/masterzdran/WorkingArea/Isel/semestre6/SE2/workplace/code/src/eCos/lib/libtarget.a(hal_common_hal_if.o)
                0x000013c4                cyg_hal_diag_mangler_gdb_init
 .text.cyg_hal_diag_mangler_null_getc
                0x00001450       0x2c /home/masterzdran/WorkingArea/Isel/semestre6/SE2/workplace/code/src/eCos/lib/libtarget.a(hal_common_hal_if.o)
 .text.cyg_hal_diag_mangler_null_putc
                0x0000147c       0x2c /home/masterzdran/WorkingArea/Isel/semestre6/SE2/workplace/code/src/eCos/lib/libtarget.a(hal_common_hal_if.o)
 .text.cyg_hal_diag_mangler_null_write
                0x000014a8       0x4c /home/masterzdran/WorkingArea/Isel/semestre6/SE2/workplace/code/src/eCos/lib/libtarget.a(hal_common_hal_if.o)
 .text.cyg_hal_diag_mangler_null_read
                0x000014f4       0x4c /home/masterzdran/WorkingArea/Isel/semestre6/SE2/workplace/code/src/eCos/lib/libtarget.a(hal_common_hal_if.o)
 .text.cyg_hal_diag_mangler_null_control
                0x00001540       0x10 /home/masterzdran/WorkingArea/Isel/semestre6/SE2/workplace/code/src/eCos/lib/libtarget.a(hal_common_hal_if.o)
 .text.cyg_hal_diag_mangler_null_init
                0x00001550       0x8c /home/masterzdran/WorkingArea/Isel/semestre6/SE2/workplace/code/src/eCos/lib/libtarget.a(hal_common_hal_if.o)
                0x00001550                cyg_hal_diag_mangler_null_init
 .text.hal_if_diag_init
                0x000015dc       0x40 /home/masterzdran/WorkingArea/Isel/semestre6/SE2/workplace/code/src/eCos/lib/libtarget.a(hal_common_hal_if.o)
                0x000015dc                hal_if_diag_init
 .text.hal_if_diag_read_char
                0x0000161c       0x50 /home/masterzdran/WorkingArea/Isel/semestre6/SE2/workplace/code/src/eCos/lib/libtarget.a(hal_common_hal_if.o)
                0x0000161c                hal_if_diag_read_char
 .text.hal_if_init
                0x0000166c       0xd8 /home/masterzdran/WorkingArea/Isel/semestre6/SE2/workplace/code/src/eCos/lib/libtarget.a(hal_common_hal_if.o)
                0x0000166c                hal_if_init
 .text.delay_us
                0x00001744       0x88 /home/masterzdran/WorkingArea/Isel/semestre6/SE2/workplace/code/src/eCos/lib/libtarget.a(hal_common_hal_if.o)
 .text.reset    0x000017cc       0x14 /home/masterzdran/WorkingArea/Isel/semestre6/SE2/workplace/code/src/eCos/lib/libtarget.a(hal_common_hal_if.o)
 .text.hal_if_diag_write_char
                0x000017e0       0x74 /home/masterzdran/WorkingArea/Isel/semestre6/SE2/workplace/code/src/eCos/lib/libtarget.a(hal_common_hal_if.o)
                0x000017e0                hal_if_diag_write_char
 .text.cyg_hal_diag_mangler_gdb_flush
                0x00001854      0x1a8 /home/masterzdran/WorkingArea/Isel/semestre6/SE2/workplace/code/src/eCos/lib/libtarget.a(hal_common_hal_if.o)
 .text.cyg_hal_diag_mangler_gdb_control
                0x000019fc       0x2c /home/masterzdran/WorkingArea/Isel/semestre6/SE2/workplace/code/src/eCos/lib/libtarget.a(hal_common_hal_if.o)
 .text.cyg_hal_diag_mangler_gdb_putc
                0x00001a28       0x58 /home/masterzdran/WorkingArea/Isel/semestre6/SE2/workplace/code/src/eCos/lib/libtarget.a(hal_common_hal_if.o)
 .text.cyg_hal_diag_mangler_gdb_write
                0x00001a80       0x3c /home/masterzdran/WorkingArea/Isel/semestre6/SE2/workplace/code/src/eCos/lib/libtarget.a(hal_common_hal_if.o)
 .text          0x00001abc        0x0 /home/masterzdran/WorkingArea/Isel/semestre6/SE2/workplace/code/src/eCos/lib/libtarget.a(hal_common_hal_misc.o)
 .text.cyg_hal_is_break
                0x00001abc       0x48 /home/masterzdran/WorkingArea/Isel/semestre6/SE2/workplace/code/src/eCos/lib/libtarget.a(hal_common_hal_misc.o)
                0x00001abc                cyg_hal_is_break
 .text.cyg_hal_user_break
                0x00001b04        0x8 /home/masterzdran/WorkingArea/Isel/semestre6/SE2/workplace/code/src/eCos/lib/libtarget.a(hal_common_hal_misc.o)
                0x00001b04                cyg_hal_user_break
                0x00001b04                breakinst
 .text.hal_default_isr
                0x00001b0c        0x4 /home/masterzdran/WorkingArea/Isel/semestre6/SE2/workplace/code/src/eCos/lib/libtarget.a(hal_common_hal_misc.o)
                0x00001b0c                hal_default_isr
 .text          0x00001b10        0x0 /home/masterzdran/WorkingArea/Isel/semestre6/SE2/workplace/code/src/eCos/lib/libtarget.a(io_common_iosys.o)
 .text.cyg_io_init
                0x00001b10       0x74 /home/masterzdran/WorkingArea/Isel/semestre6/SE2/workplace/code/src/eCos/lib/libtarget.a(io_common_iosys.o)
                0x00001b10                cyg_io_init
 .text.cyg_io_lookup
                0x00001b84      0x104 /home/masterzdran/WorkingArea/Isel/semestre6/SE2/workplace/code/src/eCos/lib/libtarget.a(io_common_iosys.o)
                0x00001b84                cyg_io_lookup
 .text.cyg_io_write
                0x00001c88       0x48 /home/masterzdran/WorkingArea/Isel/semestre6/SE2/workplace/code/src/eCos/lib/libtarget.a(io_common_iosys.o)
                0x00001c88                cyg_io_write
 .text.cyg_io_read
                0x00001cd0       0x48 /home/masterzdran/WorkingArea/Isel/semestre6/SE2/workplace/code/src/eCos/lib/libtarget.a(io_common_iosys.o)
                0x00001cd0                cyg_io_read
 .text.cyg_io_bwrite
                0x00001d18       0x40 /home/masterzdran/WorkingArea/Isel/semestre6/SE2/workplace/code/src/eCos/lib/libtarget.a(io_common_iosys.o)
                0x00001d18                cyg_io_bwrite
 .text.cyg_io_bread
                0x00001d58       0x40 /home/masterzdran/WorkingArea/Isel/semestre6/SE2/workplace/code/src/eCos/lib/libtarget.a(io_common_iosys.o)
                0x00001d58                cyg_io_bread
 .text.cyg_io_select
                0x00001d98       0x28 /home/masterzdran/WorkingArea/Isel/semestre6/SE2/workplace/code/src/eCos/lib/libtarget.a(io_common_iosys.o)
                0x00001d98                cyg_io_select
 .text.cyg_io_get_config
                0x00001dc0       0x40 /home/masterzdran/WorkingArea/Isel/semestre6/SE2/workplace/code/src/eCos/lib/libtarget.a(io_common_iosys.o)
                0x00001dc0                cyg_io_get_config
 .text.cyg_io_set_config
                0x00001e00       0x40 /home/masterzdran/WorkingArea/Isel/semestre6/SE2/workplace/code/src/eCos/lib/libtarget.a(io_common_iosys.o)
                0x00001e00                cyg_io_set_config
 .text.cyg_devio_cwrite
                0x00001e40        0x8 /home/masterzdran/WorkingArea/Isel/semestre6/SE2/workplace/code/src/eCos/lib/libtarget.a(io_common_iosys.o)
                0x00001e40                cyg_devio_cwrite
 .text.cyg_devio_cread
                0x00001e48        0x8 /home/masterzdran/WorkingArea/Isel/semestre6/SE2/workplace/code/src/eCos/lib/libtarget.a(io_common_iosys.o)
                0x00001e48                cyg_devio_cread
 .text.cyg_devio_bwrite
                0x00001e50        0x8 /home/masterzdran/WorkingArea/Isel/semestre6/SE2/workplace/code/src/eCos/lib/libtarget.a(io_common_iosys.o)
                0x00001e50                cyg_devio_bwrite
 .text.cyg_devio_bread
                0x00001e58        0x8 /home/masterzdran/WorkingArea/Isel/semestre6/SE2/workplace/code/src/eCos/lib/libtarget.a(io_common_iosys.o)
                0x00001e58                cyg_devio_bread
 .text.cyg_devio_select
                0x00001e60        0x8 /home/masterzdran/WorkingArea/Isel/semestre6/SE2/workplace/code/src/eCos/lib/libtarget.a(io_common_iosys.o)
                0x00001e60                cyg_devio_select
 .text.cyg_devio_get_config
                0x00001e68        0x8 /home/masterzdran/WorkingArea/Isel/semestre6/SE2/workplace/code/src/eCos/lib/libtarget.a(io_common_iosys.o)
                0x00001e68                cyg_devio_get_config
 .text.cyg_devio_set_config
                0x00001e70        0x8 /home/masterzdran/WorkingArea/Isel/semestre6/SE2/workplace/code/src/eCos/lib/libtarget.a(io_common_iosys.o)
                0x00001e70                cyg_devio_set_config
 .text          0x00001e78        0x0 /home/masterzdran/WorkingArea/Isel/semestre6/SE2/workplace/code/src/eCos/lib/libtarget.a(infra_startup.o)
 .text.cyg_start
                0x00001e78       0x18 /home/masterzdran/WorkingArea/Isel/semestre6/SE2/workplace/code/src/eCos/lib/libtarget.a(infra_startup.o)
                0x00001e78                cyg_start
 .text          0x00001e90        0x0 /home/masterzdran/WorkingArea/Isel/semestre6/SE2/workplace/code/src/eCos/lib/libtarget.a(infra_prestart.o)
 .text.cyg_prestart
                0x00001e90        0x4 /home/masterzdran/WorkingArea/Isel/semestre6/SE2/workplace/code/src/eCos/lib/libtarget.a(infra_prestart.o)
                0x00001e90                cyg_prestart
 .text          0x00001e94        0x0 /home/masterzdran/WorkingArea/Isel/semestre6/SE2/workplace/code/src/eCos/lib/libtarget.a(infra_pkgstart.o)
 .text.cyg_package_start
                0x00001e94        0x4 /home/masterzdran/WorkingArea/Isel/semestre6/SE2/workplace/code/src/eCos/lib/libtarget.a(infra_pkgstart.o)
                0x00001e94                cyg_package_start
 .text          0x00001e98        0x0 /home/masterzdran/WorkingArea/Isel/semestre6/SE2/workplace/code/src/eCos/lib/libtarget.a(infra_userstart.o)
 .text.cyg_user_start
                0x00001e98        0x4 /home/masterzdran/WorkingArea/Isel/semestre6/SE2/workplace/code/src/eCos/lib/libtarget.a(infra_userstart.o)
                0x00001e98                cyg_user_start
 .text          0x00001e9c        0x0 /home/masterzdran/WorkingArea/Isel/semestre6/SE2/workplace/code/src/eCos/lib/libtarget.a(infra_diag.o)
 .text.diag_init
                0x00001e9c        0x4 /home/masterzdran/WorkingArea/Isel/semestre6/SE2/workplace/code/src/eCos/lib/libtarget.a(infra_diag.o)
                0x00001e9c                diag_init
 .text.diag_init_putc
                0x00001ea0       0x10 /home/masterzdran/WorkingArea/Isel/semestre6/SE2/workplace/code/src/eCos/lib/libtarget.a(infra_diag.o)
                0x00001ea0                diag_init_putc
 .text._ZL4_cvtyPclS_
                0x00001eb0       0xd0 /home/masterzdran/WorkingArea/Isel/semestre6/SE2/workplace/code/src/eCos/lib/libtarget.a(infra_diag.o)
 .text._ZL6_sputccPPv
                0x00001f80       0x3c /home/masterzdran/WorkingArea/Isel/semestre6/SE2/workplace/code/src/eCos/lib/libtarget.a(infra_diag.o)
 .text.diag_vdump_buf_with_offset
                0x00001fbc      0x144 /home/masterzdran/WorkingArea/Isel/semestre6/SE2/workplace/code/src/eCos/lib/libtarget.a(infra_diag.o)
                0x00001fbc                diag_vdump_buf_with_offset
 .text.diag_dump_buf_with_offset
                0x00002100       0x1c /home/masterzdran/WorkingArea/Isel/semestre6/SE2/workplace/code/src/eCos/lib/libtarget.a(infra_diag.o)
                0x00002100                diag_dump_buf_with_offset
 .text.diag_dump_buf
                0x0000211c        0x8 /home/masterzdran/WorkingArea/Isel/semestre6/SE2/workplace/code/src/eCos/lib/libtarget.a(infra_diag.o)
                0x0000211c                diag_dump_buf
 .text._GLOBAL__I.10100_diag_write_char
                0x00002124        0x4 /home/masterzdran/WorkingArea/Isel/semestre6/SE2/workplace/code/src/eCos/lib/libtarget.a(infra_diag.o)
 .text.diag_write_char
                0x00002128       0x28 /home/masterzdran/WorkingArea/Isel/semestre6/SE2/workplace/code/src/eCos/lib/libtarget.a(infra_diag.o)
                0x00002128                diag_write_char
 .text._ZL16_diag_write_charcPPv
                0x00002150        0x4 /home/masterzdran/WorkingArea/Isel/semestre6/SE2/workplace/code/src/eCos/lib/libtarget.a(infra_diag.o)
 .text.diag_write_long_num
                0x00002154      0x11c /home/masterzdran/WorkingArea/Isel/semestre6/SE2/workplace/code/src/eCos/lib/libtarget.a(infra_diag.o)
                0x00002154                diag_write_long_num
 .text.diag_write_num
                0x00002270       0x30 /home/masterzdran/WorkingArea/Isel/semestre6/SE2/workplace/code/src/eCos/lib/libtarget.a(infra_diag.o)
                0x00002270                diag_write_num
 .text.diag_write_hex
                0x000022a0       0x28 /home/masterzdran/WorkingArea/Isel/semestre6/SE2/workplace/code/src/eCos/lib/libtarget.a(infra_diag.o)
                0x000022a0                diag_write_hex
 .text.diag_write_dec
                0x000022c8       0x34 /home/masterzdran/WorkingArea/Isel/semestre6/SE2/workplace/code/src/eCos/lib/libtarget.a(infra_diag.o)
                0x000022c8                diag_write_dec
 .text.diag_write_string
                0x000022fc       0x2c /home/masterzdran/WorkingArea/Isel/semestre6/SE2/workplace/code/src/eCos/lib/libtarget.a(infra_diag.o)
                0x000022fc                diag_write_string
 .text._ZL8_vprintfPFvcPPvES0_PKcS_
                0x00002328      0xb38 /home/masterzdran/WorkingArea/Isel/semestre6/SE2/workplace/code/src/eCos/lib/libtarget.a(infra_diag.o)
 .text.diag_vprintf
                0x00002e60       0x1c /home/masterzdran/WorkingArea/Isel/semestre6/SE2/workplace/code/src/eCos/lib/libtarget.a(infra_diag.o)
                0x00002e60                diag_vprintf
 .text.diag_printf
                0x00002e7c       0x38 /home/masterzdran/WorkingArea/Isel/semestre6/SE2/workplace/code/src/eCos/lib/libtarget.a(infra_diag.o)
                0x00002e7c                diag_printf
 .text.diag_dump_buf_with_offset_16bit
                0x00002eb4       0xe8 /home/masterzdran/WorkingArea/Isel/semestre6/SE2/workplace/code/src/eCos/lib/libtarget.a(infra_diag.o)
                0x00002eb4                diag_dump_buf_with_offset_16bit
 .text.diag_dump_buf_16bit
                0x00002f9c        0x8 /home/masterzdran/WorkingArea/Isel/semestre6/SE2/workplace/code/src/eCos/lib/libtarget.a(infra_diag.o)
                0x00002f9c                diag_dump_buf_16bit
 .text.diag_dump_buf_with_offset_32bit
                0x00002fa4       0xc8 /home/masterzdran/WorkingArea/Isel/semestre6/SE2/workplace/code/src/eCos/lib/libtarget.a(infra_diag.o)
                0x00002fa4                diag_dump_buf_with_offset_32bit
 .text.diag_dump_buf_32bit
                0x0000306c        0x8 /home/masterzdran/WorkingArea/Isel/semestre6/SE2/workplace/code/src/eCos/lib/libtarget.a(infra_diag.o)
                0x0000306c                diag_dump_buf_32bit
 .text.diag_vsprintf
                0x00003074       0x40 /home/masterzdran/WorkingArea/Isel/semestre6/SE2/workplace/code/src/eCos/lib/libtarget.a(infra_diag.o)
                0x00003074                diag_vsprintf
 .text.diag_snprintf
                0x000030b4       0x4c /home/masterzdran/WorkingArea/Isel/semestre6/SE2/workplace/code/src/eCos/lib/libtarget.a(infra_diag.o)
                0x000030b4                diag_snprintf
 .text.diag_sprintf
                0x00003100       0x4c /home/masterzdran/WorkingArea/Isel/semestre6/SE2/workplace/code/src/eCos/lib/libtarget.a(infra_diag.o)
                0x00003100                diag_sprintf
 .text          0x0000314c        0x0 /home/masterzdran/WorkingArea/Isel/semestre6/SE2/workplace/code/src/eCos/lib/libtarget.a(kernel_kapi.o)
 .text.cyg_scheduler_lock
                0x0000314c       0x18 /home/masterzdran/WorkingArea/Isel/semestre6/SE2/workplace/code/src/eCos/lib/libtarget.a(kernel_kapi.o)
                0x0000314c                cyg_scheduler_lock
 .text.cyg_scheduler_read_lock
                0x00003164       0x10 /home/masterzdran/WorkingArea/Isel/semestre6/SE2/workplace/code/src/eCos/lib/libtarget.a(kernel_kapi.o)
                0x00003164                cyg_scheduler_read_lock
 .text.cyg_thread_self
                0x00003174       0x10 /home/masterzdran/WorkingArea/Isel/semestre6/SE2/workplace/code/src/eCos/lib/libtarget.a(kernel_kapi.o)
                0x00003174                cyg_thread_self
 .text.cyg_thread_get_id
                0x00003184        0x8 /home/masterzdran/WorkingArea/Isel/semestre6/SE2/workplace/code/src/eCos/lib/libtarget.a(kernel_kapi.o)
                0x00003184                cyg_thread_get_id
 .text.cyg_thread_idle_thread
                0x0000318c        0xc /home/masterzdran/WorkingArea/Isel/semestre6/SE2/workplace/code/src/eCos/lib/libtarget.a(kernel_kapi.o)
                0x0000318c                cyg_thread_idle_thread
 .text.cyg_thread_get_priority
                0x00003198       0x14 /home/masterzdran/WorkingArea/Isel/semestre6/SE2/workplace/code/src/eCos/lib/libtarget.a(kernel_kapi.o)
                0x00003198                cyg_thread_get_priority
 .text.cyg_thread_get_current_priority
                0x000031ac        0x8 /home/masterzdran/WorkingArea/Isel/semestre6/SE2/workplace/code/src/eCos/lib/libtarget.a(kernel_kapi.o)
                0x000031ac                cyg_thread_get_current_priority
 .text.cyg_thread_deadline_wait
                0x000031b4        0x4 /home/masterzdran/WorkingArea/Isel/semestre6/SE2/workplace/code/src/eCos/lib/libtarget.a(kernel_kapi.o)
                0x000031b4                cyg_thread_deadline_wait
 .text.cyg_thread_get_stack_base
                0x000031b8        0x8 /home/masterzdran/WorkingArea/Isel/semestre6/SE2/workplace/code/src/eCos/lib/libtarget.a(kernel_kapi.o)
                0x000031b8                cyg_thread_get_stack_base
 .text.cyg_thread_get_stack_size
                0x000031c0        0x8 /home/masterzdran/WorkingArea/Isel/semestre6/SE2/workplace/code/src/eCos/lib/libtarget.a(kernel_kapi.o)
                0x000031c0                cyg_thread_get_stack_size
 .text.cyg_thread_get_data
                0x000031c8       0x20 /home/masterzdran/WorkingArea/Isel/semestre6/SE2/workplace/code/src/eCos/lib/libtarget.a(kernel_kapi.o)
                0x000031c8                cyg_thread_get_data
 .text.cyg_thread_get_data_ptr
                0x000031e8       0x20 /home/masterzdran/WorkingArea/Isel/semestre6/SE2/workplace/code/src/eCos/lib/libtarget.a(kernel_kapi.o)
                0x000031e8                cyg_thread_get_data_ptr
 .text.cyg_thread_set_data
                0x00003208       0x20 /home/masterzdran/WorkingArea/Isel/semestre6/SE2/workplace/code/src/eCos/lib/libtarget.a(kernel_kapi.o)
                0x00003208                cyg_thread_set_data
 .text.cyg_interrupt_set_cpu
                0x00003228        0x4 /home/masterzdran/WorkingArea/Isel/semestre6/SE2/workplace/code/src/eCos/lib/libtarget.a(kernel_kapi.o)
                0x00003228                cyg_interrupt_set_cpu
 .text.cyg_interrupt_get_cpu
                0x0000322c        0x8 /home/masterzdran/WorkingArea/Isel/semestre6/SE2/workplace/code/src/eCos/lib/libtarget.a(kernel_kapi.o)
                0x0000322c                cyg_interrupt_get_cpu
 .text.cyg_counter_current_value
                0x00003234       0x1c /home/masterzdran/WorkingArea/Isel/semestre6/SE2/workplace/code/src/eCos/lib/libtarget.a(kernel_kapi.o)
                0x00003234                cyg_counter_current_value
 .text.cyg_counter_set_value
                0x00003250        0xc /home/masterzdran/WorkingArea/Isel/semestre6/SE2/workplace/code/src/eCos/lib/libtarget.a(kernel_kapi.o)
                0x00003250                cyg_counter_set_value
 .text.cyg_clock_to_counter
                0x0000325c        0x8 /home/masterzdran/WorkingArea/Isel/semestre6/SE2/workplace/code/src/eCos/lib/libtarget.a(kernel_kapi.o)
                0x0000325c                cyg_clock_to_counter
 .text.cyg_clock_set_resolution
                0x00003264       0x18 /home/masterzdran/WorkingArea/Isel/semestre6/SE2/workplace/code/src/eCos/lib/libtarget.a(kernel_kapi.o)
                0x00003264                cyg_clock_set_resolution
 .text.cyg_clock_get_resolution
                0x0000327c       0x14 /home/masterzdran/WorkingArea/Isel/semestre6/SE2/workplace/code/src/eCos/lib/libtarget.a(kernel_kapi.o)
                0x0000327c                cyg_clock_get_resolution
 .text.cyg_real_time_clock
                0x00003290       0x10 /home/masterzdran/WorkingArea/Isel/semestre6/SE2/workplace/code/src/eCos/lib/libtarget.a(kernel_kapi.o)
                0x00003290                cyg_real_time_clock
 .text.cyg_current_time
                0x000032a0       0x28 /home/masterzdran/WorkingArea/Isel/semestre6/SE2/workplace/code/src/eCos/lib/libtarget.a(kernel_kapi.o)
                0x000032a0                cyg_current_time
 .text.cyg_mbox_peek
                0x000032c8        0x8 /home/masterzdran/WorkingArea/Isel/semestre6/SE2/workplace/code/src/eCos/lib/libtarget.a(kernel_kapi.o)
                0x000032c8                cyg_mbox_peek
 .text.cyg_mbox_waiting_to_get
                0x000032d0       0x10 /home/masterzdran/WorkingArea/Isel/semestre6/SE2/workplace/code/src/eCos/lib/libtarget.a(kernel_kapi.o)
                0x000032d0                cyg_mbox_waiting_to_get
 .text.cyg_mbox_waiting_to_put
                0x000032e0       0x10 /home/masterzdran/WorkingArea/Isel/semestre6/SE2/workplace/code/src/eCos/lib/libtarget.a(kernel_kapi.o)
                0x000032e0                cyg_mbox_waiting_to_put
 .text.cyg_flag_peek
                0x000032f0        0x8 /home/masterzdran/WorkingArea/Isel/semestre6/SE2/workplace/code/src/eCos/lib/libtarget.a(kernel_kapi.o)
                0x000032f0                cyg_flag_peek
 .text.cyg_flag_waiting
                0x000032f8       0x10 /home/masterzdran/WorkingArea/Isel/semestre6/SE2/workplace/code/src/eCos/lib/libtarget.a(kernel_kapi.o)
                0x000032f8                cyg_flag_waiting
 .text.cyg_spinlock_init
                0x00003308       0x18 /home/masterzdran/WorkingArea/Isel/semestre6/SE2/workplace/code/src/eCos/lib/libtarget.a(kernel_kapi.o)
                0x00003308                cyg_spinlock_init
 .text.cyg_spinlock_destroy
                0x00003320        0x4 /home/masterzdran/WorkingArea/Isel/semestre6/SE2/workplace/code/src/eCos/lib/libtarget.a(kernel_kapi.o)
                0x00003320                cyg_spinlock_destroy
 .text.cyg_spinlock_spin
                0x00003324        0xc /home/masterzdran/WorkingArea/Isel/semestre6/SE2/workplace/code/src/eCos/lib/libtarget.a(kernel_kapi.o)
                0x00003324                cyg_spinlock_spin
 .text.cyg_spinlock_clear
                0x00003330        0xc /home/masterzdran/WorkingArea/Isel/semestre6/SE2/workplace/code/src/eCos/lib/libtarget.a(kernel_kapi.o)
                0x00003330                cyg_spinlock_clear
 .text.cyg_spinlock_try
                0x0000333c       0x1c /home/masterzdran/WorkingArea/Isel/semestre6/SE2/workplace/code/src/eCos/lib/libtarget.a(kernel_kapi.o)
                0x0000333c                cyg_spinlock_try
 .text.cyg_spinlock_test
                0x00003358        0x8 /home/masterzdran/WorkingArea/Isel/semestre6/SE2/workplace/code/src/eCos/lib/libtarget.a(kernel_kapi.o)
                0x00003358                cyg_spinlock_test
 .text.cyg_spinlock_spin_intsave
                0x00003360       0x28 /home/masterzdran/WorkingArea/Isel/semestre6/SE2/workplace/code/src/eCos/lib/libtarget.a(kernel_kapi.o)
                0x00003360                cyg_spinlock_spin_intsave
 .text.cyg_spinlock_clear_intsave
                0x00003388       0x28 /home/masterzdran/WorkingArea/Isel/semestre6/SE2/workplace/code/src/eCos/lib/libtarget.a(kernel_kapi.o)
                0x00003388                cyg_spinlock_clear_intsave
 .text.cyg_cond_timed_wait
                0x000033b0        0x8 /home/masterzdran/WorkingArea/Isel/semestre6/SE2/workplace/code/src/eCos/lib/libtarget.a(kernel_kapi.o)
                0x000033b0                cyg_cond_timed_wait
 .text.cyg_cond_broadcast
                0x000033b8        0x4 /home/masterzdran/WorkingArea/Isel/semestre6/SE2/workplace/code/src/eCos/lib/libtarget.a(kernel_kapi.o)
                0x000033b8                cyg_cond_broadcast
 .text.cyg_cond_signal
                0x000033bc        0x4 /home/masterzdran/WorkingArea/Isel/semestre6/SE2/workplace/code/src/eCos/lib/libtarget.a(kernel_kapi.o)
                0x000033bc                cyg_cond_signal
 .text.cyg_cond_wait
                0x000033c0        0x8 /home/masterzdran/WorkingArea/Isel/semestre6/SE2/workplace/code/src/eCos/lib/libtarget.a(kernel_kapi.o)
                0x000033c0                cyg_cond_wait
 .text.cyg_cond_destroy
                0x000033c8        0x4 /home/masterzdran/WorkingArea/Isel/semestre6/SE2/workplace/code/src/eCos/lib/libtarget.a(kernel_kapi.o)
                0x000033c8                cyg_cond_destroy
 .text.cyg_cond_init
                0x000033cc        0x4 /home/masterzdran/WorkingArea/Isel/semestre6/SE2/workplace/code/src/eCos/lib/libtarget.a(kernel_kapi.o)
                0x000033cc                cyg_cond_init
 .text.cyg_mutex_set_protocol
                0x000033d0        0x4 /home/masterzdran/WorkingArea/Isel/semestre6/SE2/workplace/code/src/eCos/lib/libtarget.a(kernel_kapi.o)
                0x000033d0                cyg_mutex_set_protocol
 .text.cyg_mutex_set_ceiling
                0x000033d4        0x4 /home/masterzdran/WorkingArea/Isel/semestre6/SE2/workplace/code/src/eCos/lib/libtarget.a(kernel_kapi.o)
                0x000033d4                cyg_mutex_set_ceiling
 .text.cyg_mutex_release
                0x000033d8        0x4 /home/masterzdran/WorkingArea/Isel/semestre6/SE2/workplace/code/src/eCos/lib/libtarget.a(kernel_kapi.o)
                0x000033d8                cyg_mutex_release
 .text.cyg_mutex_unlock
                0x000033dc        0x4 /home/masterzdran/WorkingArea/Isel/semestre6/SE2/workplace/code/src/eCos/lib/libtarget.a(kernel_kapi.o)
                0x000033dc                cyg_mutex_unlock
 .text.cyg_mutex_trylock
                0x000033e0        0x4 /home/masterzdran/WorkingArea/Isel/semestre6/SE2/workplace/code/src/eCos/lib/libtarget.a(kernel_kapi.o)
                0x000033e0                cyg_mutex_trylock
 .text.cyg_mutex_lock
                0x000033e4        0x4 /home/masterzdran/WorkingArea/Isel/semestre6/SE2/workplace/code/src/eCos/lib/libtarget.a(kernel_kapi.o)
                0x000033e4                cyg_mutex_lock
 .text.cyg_mutex_destroy
                0x000033e8        0x4 /home/masterzdran/WorkingArea/Isel/semestre6/SE2/workplace/code/src/eCos/lib/libtarget.a(kernel_kapi.o)
                0x000033e8                cyg_mutex_destroy
 .text.cyg_mutex_init
                0x000033ec        0x4 /home/masterzdran/WorkingArea/Isel/semestre6/SE2/workplace/code/src/eCos/lib/libtarget.a(kernel_kapi.o)
                0x000033ec                cyg_mutex_init
 .text.cyg_flag_poll
                0x000033f0       0x1c /home/masterzdran/WorkingArea/Isel/semestre6/SE2/workplace/code/src/eCos/lib/libtarget.a(kernel_kapi.o)
                0x000033f0                cyg_flag_poll
 .text.cyg_flag_timed_wait
                0x0000340c       0x2c /home/masterzdran/WorkingArea/Isel/semestre6/SE2/workplace/code/src/eCos/lib/libtarget.a(kernel_kapi.o)
                0x0000340c                cyg_flag_timed_wait
 .text.cyg_flag_wait
                0x00003438       0x1c /home/masterzdran/WorkingArea/Isel/semestre6/SE2/workplace/code/src/eCos/lib/libtarget.a(kernel_kapi.o)
                0x00003438                cyg_flag_wait
 .text.cyg_flag_maskbits
                0x00003454        0x4 /home/masterzdran/WorkingArea/Isel/semestre6/SE2/workplace/code/src/eCos/lib/libtarget.a(kernel_kapi.o)
                0x00003454                cyg_flag_maskbits
 .text.cyg_flag_setbits
                0x00003458        0x4 /home/masterzdran/WorkingArea/Isel/semestre6/SE2/workplace/code/src/eCos/lib/libtarget.a(kernel_kapi.o)
                0x00003458                cyg_flag_setbits
 .text.cyg_flag_destroy
                0x0000345c        0x4 /home/masterzdran/WorkingArea/Isel/semestre6/SE2/workplace/code/src/eCos/lib/libtarget.a(kernel_kapi.o)
                0x0000345c                cyg_flag_destroy
 .text.cyg_flag_init
                0x00003460        0x8 /home/masterzdran/WorkingArea/Isel/semestre6/SE2/workplace/code/src/eCos/lib/libtarget.a(kernel_kapi.o)
                0x00003460                cyg_flag_init
 .text.cyg_semaphore_peek
                0x00003468       0x14 /home/masterzdran/WorkingArea/Isel/semestre6/SE2/workplace/code/src/eCos/lib/libtarget.a(kernel_kapi.o)
                0x00003468                cyg_semaphore_peek
 .text.cyg_semaphore_post
                0x0000347c        0x4 /home/masterzdran/WorkingArea/Isel/semestre6/SE2/workplace/code/src/eCos/lib/libtarget.a(kernel_kapi.o)
                0x0000347c                cyg_semaphore_post
 .text.cyg_semaphore_trywait
                0x00003480        0x4 /home/masterzdran/WorkingArea/Isel/semestre6/SE2/workplace/code/src/eCos/lib/libtarget.a(kernel_kapi.o)
                0x00003480                cyg_semaphore_trywait
 .text.cyg_semaphore_timed_wait
                0x00003484        0x4 /home/masterzdran/WorkingArea/Isel/semestre6/SE2/workplace/code/src/eCos/lib/libtarget.a(kernel_kapi.o)
                0x00003484                cyg_semaphore_timed_wait
 .text.cyg_semaphore_wait
                0x00003488        0x4 /home/masterzdran/WorkingArea/Isel/semestre6/SE2/workplace/code/src/eCos/lib/libtarget.a(kernel_kapi.o)
                0x00003488                cyg_semaphore_wait
 .text.cyg_semaphore_destroy
                0x0000348c        0x4 /home/masterzdran/WorkingArea/Isel/semestre6/SE2/workplace/code/src/eCos/lib/libtarget.a(kernel_kapi.o)
                0x0000348c                cyg_semaphore_destroy
 .text.cyg_semaphore_init
                0x00003490        0x4 /home/masterzdran/WorkingArea/Isel/semestre6/SE2/workplace/code/src/eCos/lib/libtarget.a(kernel_kapi.o)
                0x00003490                cyg_semaphore_init
 .text.cyg_mbox_tryput
                0x00003494        0x4 /home/masterzdran/WorkingArea/Isel/semestre6/SE2/workplace/code/src/eCos/lib/libtarget.a(kernel_kapi.o)
                0x00003494                cyg_mbox_tryput
 .text.cyg_mbox_timed_put
                0x00003498        0x4 /home/masterzdran/WorkingArea/Isel/semestre6/SE2/workplace/code/src/eCos/lib/libtarget.a(kernel_kapi.o)
                0x00003498                cyg_mbox_timed_put
 .text.cyg_mbox_put
                0x0000349c        0x4 /home/masterzdran/WorkingArea/Isel/semestre6/SE2/workplace/code/src/eCos/lib/libtarget.a(kernel_kapi.o)
                0x0000349c                cyg_mbox_put
 .text.cyg_mbox_peek_item
                0x000034a0        0x4 /home/masterzdran/WorkingArea/Isel/semestre6/SE2/workplace/code/src/eCos/lib/libtarget.a(kernel_kapi.o)
                0x000034a0                cyg_mbox_peek_item
 .text.cyg_mbox_tryget
                0x000034a4        0x4 /home/masterzdran/WorkingArea/Isel/semestre6/SE2/workplace/code/src/eCos/lib/libtarget.a(kernel_kapi.o)
                0x000034a4                cyg_mbox_tryget
 .text.cyg_mbox_timed_get
                0x000034a8        0x4 /home/masterzdran/WorkingArea/Isel/semestre6/SE2/workplace/code/src/eCos/lib/libtarget.a(kernel_kapi.o)
                0x000034a8                cyg_mbox_timed_get
 .text.cyg_mbox_get
                0x000034ac        0x4 /home/masterzdran/WorkingArea/Isel/semestre6/SE2/workplace/code/src/eCos/lib/libtarget.a(kernel_kapi.o)
                0x000034ac                cyg_mbox_get
 .text.cyg_mbox_delete
                0x000034b0        0x4 /home/masterzdran/WorkingArea/Isel/semestre6/SE2/workplace/code/src/eCos/lib/libtarget.a(kernel_kapi.o)
                0x000034b0                cyg_mbox_delete
 .text.cyg_mbox_create
                0x000034b4       0x24 /home/masterzdran/WorkingArea/Isel/semestre6/SE2/workplace/code/src/eCos/lib/libtarget.a(kernel_kapi.o)
                0x000034b4                cyg_mbox_create
 .text.cyg_alarm_disable
                0x000034d8        0x4 /home/masterzdran/WorkingArea/Isel/semestre6/SE2/workplace/code/src/eCos/lib/libtarget.a(kernel_kapi.o)
                0x000034d8                cyg_alarm_disable
 .text.cyg_alarm_enable
                0x000034dc        0x4 /home/masterzdran/WorkingArea/Isel/semestre6/SE2/workplace/code/src/eCos/lib/libtarget.a(kernel_kapi.o)
                0x000034dc                cyg_alarm_enable
 .text.cyg_alarm_get_times
                0x000034e0        0x4 /home/masterzdran/WorkingArea/Isel/semestre6/SE2/workplace/code/src/eCos/lib/libtarget.a(kernel_kapi.o)
                0x000034e0                cyg_alarm_get_times
 .text.cyg_alarm_initialize
                0x000034e4        0x4 /home/masterzdran/WorkingArea/Isel/semestre6/SE2/workplace/code/src/eCos/lib/libtarget.a(kernel_kapi.o)
                0x000034e4                cyg_alarm_initialize
 .text.cyg_alarm_delete
                0x000034e8        0x4 /home/masterzdran/WorkingArea/Isel/semestre6/SE2/workplace/code/src/eCos/lib/libtarget.a(kernel_kapi.o)
                0x000034e8                cyg_alarm_delete
 .text.cyg_alarm_create
                0x000034ec       0x38 /home/masterzdran/WorkingArea/Isel/semestre6/SE2/workplace/code/src/eCos/lib/libtarget.a(kernel_kapi.o)
                0x000034ec                cyg_alarm_create
 .text.cyg_clock_delete
                0x00003524        0x4 /home/masterzdran/WorkingArea/Isel/semestre6/SE2/workplace/code/src/eCos/lib/libtarget.a(kernel_kapi.o)
                0x00003524                cyg_clock_delete
 .text.cyg_clock_create
                0x00003528       0x38 /home/masterzdran/WorkingArea/Isel/semestre6/SE2/workplace/code/src/eCos/lib/libtarget.a(kernel_kapi.o)
                0x00003528                cyg_clock_create
 .text.cyg_counter_multi_tick
                0x00003560        0x8 /home/masterzdran/WorkingArea/Isel/semestre6/SE2/workplace/code/src/eCos/lib/libtarget.a(kernel_kapi.o)
                0x00003560                cyg_counter_multi_tick
 .text.cyg_counter_tick
                0x00003568        0x8 /home/masterzdran/WorkingArea/Isel/semestre6/SE2/workplace/code/src/eCos/lib/libtarget.a(kernel_kapi.o)
                0x00003568                cyg_counter_tick
 .text.cyg_counter_delete
                0x00003570        0x4 /home/masterzdran/WorkingArea/Isel/semestre6/SE2/workplace/code/src/eCos/lib/libtarget.a(kernel_kapi.o)
                0x00003570                cyg_counter_delete
 .text.cyg_counter_create
                0x00003574       0x28 /home/masterzdran/WorkingArea/Isel/semestre6/SE2/workplace/code/src/eCos/lib/libtarget.a(kernel_kapi.o)
                0x00003574                cyg_counter_create
 .text.cyg_interrupt_configure
                0x0000359c        0x4 /home/masterzdran/WorkingArea/Isel/semestre6/SE2/workplace/code/src/eCos/lib/libtarget.a(kernel_kapi.o)
                0x0000359c                cyg_interrupt_configure
 .text.cyg_interrupt_acknowledge
                0x000035a0        0x4 /home/masterzdran/WorkingArea/Isel/semestre6/SE2/workplace/code/src/eCos/lib/libtarget.a(kernel_kapi.o)
                0x000035a0                cyg_interrupt_acknowledge
 .text.cyg_interrupt_unmask_intunsafe
                0x000035a4        0x4 /home/masterzdran/WorkingArea/Isel/semestre6/SE2/workplace/code/src/eCos/lib/libtarget.a(kernel_kapi.o)
                0x000035a4                cyg_interrupt_unmask_intunsafe
 .text.cyg_interrupt_unmask
                0x000035a8        0x4 /home/masterzdran/WorkingArea/Isel/semestre6/SE2/workplace/code/src/eCos/lib/libtarget.a(kernel_kapi.o)
                0x000035a8                cyg_interrupt_unmask
 .text.cyg_interrupt_mask_intunsafe
                0x000035ac        0x4 /home/masterzdran/WorkingArea/Isel/semestre6/SE2/workplace/code/src/eCos/lib/libtarget.a(kernel_kapi.o)
                0x000035ac                cyg_interrupt_mask_intunsafe
 .text.cyg_interrupt_mask
                0x000035b0        0x4 /home/masterzdran/WorkingArea/Isel/semestre6/SE2/workplace/code/src/eCos/lib/libtarget.a(kernel_kapi.o)
                0x000035b0                cyg_interrupt_mask
 .text.cyg_interrupt_enable
                0x000035b4        0x4 /home/masterzdran/WorkingArea/Isel/semestre6/SE2/workplace/code/src/eCos/lib/libtarget.a(kernel_kapi.o)
                0x000035b4                cyg_interrupt_enable
 .text.cyg_interrupt_disable
                0x000035b8        0x4 /home/masterzdran/WorkingArea/Isel/semestre6/SE2/workplace/code/src/eCos/lib/libtarget.a(kernel_kapi.o)
                0x000035b8                cyg_interrupt_disable
 .text.cyg_interrupt_set_vsr
                0x000035bc        0x8 /home/masterzdran/WorkingArea/Isel/semestre6/SE2/workplace/code/src/eCos/lib/libtarget.a(kernel_kapi.o)
                0x000035bc                cyg_interrupt_set_vsr
 .text.cyg_interrupt_get_vsr
                0x000035c4        0x4 /home/masterzdran/WorkingArea/Isel/semestre6/SE2/workplace/code/src/eCos/lib/libtarget.a(kernel_kapi.o)
                0x000035c4                cyg_interrupt_get_vsr
 .text.cyg_interrupt_detach
                0x000035c8        0x4 /home/masterzdran/WorkingArea/Isel/semestre6/SE2/workplace/code/src/eCos/lib/libtarget.a(kernel_kapi.o)
                0x000035c8                cyg_interrupt_detach
 .text.cyg_interrupt_attach
                0x000035cc        0x4 /home/masterzdran/WorkingArea/Isel/semestre6/SE2/workplace/code/src/eCos/lib/libtarget.a(kernel_kapi.o)
                0x000035cc                cyg_interrupt_attach
 .text.cyg_interrupt_delete
                0x000035d0        0x4 /home/masterzdran/WorkingArea/Isel/semestre6/SE2/workplace/code/src/eCos/lib/libtarget.a(kernel_kapi.o)
                0x000035d0                cyg_interrupt_delete
 .text.cyg_interrupt_create
                0x000035d4       0x44 /home/masterzdran/WorkingArea/Isel/semestre6/SE2/workplace/code/src/eCos/lib/libtarget.a(kernel_kapi.o)
                0x000035d4                cyg_interrupt_create
 .text.cyg_exception_call_handler
                0x00003618        0x4 /home/masterzdran/WorkingArea/Isel/semestre6/SE2/workplace/code/src/eCos/lib/libtarget.a(kernel_kapi.o)
                0x00003618                cyg_exception_call_handler
 .text.cyg_exception_clear_handler
                0x0000361c       0x1c /home/masterzdran/WorkingArea/Isel/semestre6/SE2/workplace/code/src/eCos/lib/libtarget.a(kernel_kapi.o)
                0x0000361c                cyg_exception_clear_handler
 .text.cyg_exception_set_handler
                0x00003638       0x48 /home/masterzdran/WorkingArea/Isel/semestre6/SE2/workplace/code/src/eCos/lib/libtarget.a(kernel_kapi.o)
                0x00003638                cyg_exception_set_handler
 .text.cyg_thread_free_data_index
                0x00003680        0x4 /home/masterzdran/WorkingArea/Isel/semestre6/SE2/workplace/code/src/eCos/lib/libtarget.a(kernel_kapi.o)
                0x00003680                cyg_thread_free_data_index
 .text.cyg_thread_new_data_index
                0x00003684        0x4 /home/masterzdran/WorkingArea/Isel/semestre6/SE2/workplace/code/src/eCos/lib/libtarget.a(kernel_kapi.o)
                0x00003684                cyg_thread_new_data_index
 .text.cyg_scheduler_unlock
                0x00003688       0x40 /home/masterzdran/WorkingArea/Isel/semestre6/SE2/workplace/code/src/eCos/lib/libtarget.a(kernel_kapi.o)
                0x00003688                cyg_scheduler_unlock
 .text.cyg_thread_delay
                0x000036c8       0x1c /home/masterzdran/WorkingArea/Isel/semestre6/SE2/workplace/code/src/eCos/lib/libtarget.a(kernel_kapi.o)
                0x000036c8                cyg_thread_delay
 .text.cyg_thread_set_priority
                0x000036e4        0x4 /home/masterzdran/WorkingArea/Isel/semestre6/SE2/workplace/code/src/eCos/lib/libtarget.a(kernel_kapi.o)
                0x000036e4                cyg_thread_set_priority
 .text.cyg_thread_yield
                0x000036e8       0x14 /home/masterzdran/WorkingArea/Isel/semestre6/SE2/workplace/code/src/eCos/lib/libtarget.a(kernel_kapi.o)
                0x000036e8                cyg_thread_yield
 .text.cyg_thread_release
                0x000036fc        0x4 /home/masterzdran/WorkingArea/Isel/semestre6/SE2/workplace/code/src/eCos/lib/libtarget.a(kernel_kapi.o)
                0x000036fc                cyg_thread_release
 .text.cyg_thread_kill
                0x00003700        0x4 /home/masterzdran/WorkingArea/Isel/semestre6/SE2/workplace/code/src/eCos/lib/libtarget.a(kernel_kapi.o)
                0x00003700                cyg_thread_kill
 .text.cyg_thread_resume
                0x00003704       0x28 /home/masterzdran/WorkingArea/Isel/semestre6/SE2/workplace/code/src/eCos/lib/libtarget.a(kernel_kapi.o)
                0x00003704                cyg_thread_resume
 .text.cyg_thread_suspend
                0x0000372c        0x4 /home/masterzdran/WorkingArea/Isel/semestre6/SE2/workplace/code/src/eCos/lib/libtarget.a(kernel_kapi.o)
                0x0000372c                cyg_thread_suspend
 .text.cyg_thread_delete
                0x00003730       0x3c /home/masterzdran/WorkingArea/Isel/semestre6/SE2/workplace/code/src/eCos/lib/libtarget.a(kernel_kapi.o)
                0x00003730                cyg_thread_delete
 .text.cyg_thread_exit
                0x0000376c        0x4 /home/masterzdran/WorkingArea/Isel/semestre6/SE2/workplace/code/src/eCos/lib/libtarget.a(kernel_kapi.o)
                0x0000376c                cyg_thread_exit
 .text.cyg_thread_create
                0x00003770       0x4c /home/masterzdran/WorkingArea/Isel/semestre6/SE2/workplace/code/src/eCos/lib/libtarget.a(kernel_kapi.o)
                0x00003770                cyg_thread_create
 .text.cyg_scheduler_start
                0x000037bc        0x4 /home/masterzdran/WorkingArea/Isel/semestre6/SE2/workplace/code/src/eCos/lib/libtarget.a(kernel_kapi.o)
                0x000037bc                cyg_scheduler_start
 .text.cyg_thread_get_next
                0x000037c0       0xd8 /home/masterzdran/WorkingArea/Isel/semestre6/SE2/workplace/code/src/eCos/lib/libtarget.a(kernel_kapi.o)
                0x000037c0                cyg_thread_get_next
 .text.cyg_thread_get_info
                0x00003898       0xc8 /home/masterzdran/WorkingArea/Isel/semestre6/SE2/workplace/code/src/eCos/lib/libtarget.a(kernel_kapi.o)
                0x00003898                cyg_thread_get_info
 .text.cyg_thread_find
                0x00003960       0xa4 /home/masterzdran/WorkingArea/Isel/semestre6/SE2/workplace/code/src/eCos/lib/libtarget.a(kernel_kapi.o)
                0x00003960                cyg_thread_find
 .text.cyg_scheduler_safe_lock
                0x00003a04       0x48 /home/masterzdran/WorkingArea/Isel/semestre6/SE2/workplace/code/src/eCos/lib/libtarget.a(kernel_kapi.o)
                0x00003a04                cyg_scheduler_safe_lock
 .text          0x00003a4c        0x0 /home/masterzdran/WorkingArea/Isel/semestre6/SE2/workplace/code/src/eCos/lib/libtarget.a(kernel_thread.o)
 .text._Z16idle_thread_mainj
                0x00003a4c        0x4 /home/masterzdran/WorkingArea/Isel/semestre6/SE2/workplace/code/src/eCos/lib/libtarget.a(kernel_thread.o)
                0x00003a4c                _Z16idle_thread_mainj
 .text._ZN10Cyg_Thread17deliver_exceptionEij
                0x00003a50       0x20 /home/masterzdran/WorkingArea/Isel/semestre6/SE2/workplace/code/src/eCos/lib/libtarget.a(kernel_thread.o)
                0x00003a50                _ZN10Cyg_Thread17deliver_exceptionEij
 .text._ZN10Cyg_Thread4exitEv
                0x00003a70       0x68 /home/masterzdran/WorkingArea/Isel/semestre6/SE2/workplace/code/src/eCos/lib/libtarget.a(kernel_thread.o)
                0x00003a70                _ZN10Cyg_Thread4exitEv
 .text._ZN18Cyg_HardwareThread12thread_entryEP10Cyg_Thread
                0x00003ad8       0x2c /home/masterzdran/WorkingArea/Isel/semestre6/SE2/workplace/code/src/eCos/lib/libtarget.a(kernel_thread.o)
                0x00003ad8                _ZN18Cyg_HardwareThread12thread_entryEP10Cyg_Thread
 .text._ZN10Cyg_Thread15free_data_indexEi
                0x00003b04       0x54 /home/masterzdran/WorkingArea/Isel/semestre6/SE2/workplace/code/src/eCos/lib/libtarget.a(kernel_thread.o)
                0x00003b04                _ZN10Cyg_Thread15free_data_indexEi
 .text._ZN10Cyg_Thread19cancel_counted_wakeEv
                0x00003b58       0x48 /home/masterzdran/WorkingArea/Isel/semestre6/SE2/workplace/code/src/eCos/lib/libtarget.a(kernel_thread.o)
                0x00003b58                _ZN10Cyg_Thread19cancel_counted_wakeEv
 .text._ZN10Cyg_ThreadC1EjPFvjEjPcjj
                0x00003ba0      0x1a0 /home/masterzdran/WorkingArea/Isel/semestre6/SE2/workplace/code/src/eCos/lib/libtarget.a(kernel_thread.o)
                0x00003ba0                _ZN10Cyg_ThreadC1EjPFvjEjPcjj
 .text._ZN10Cyg_Thread12reinitializeEv
                0x00003d40       0x64 /home/masterzdran/WorkingArea/Isel/semestre6/SE2/workplace/code/src/eCos/lib/libtarget.a(kernel_thread.o)
                0x00003d40                _ZN10Cyg_Thread12reinitializeEv
 .text._ZN10Cyg_Thread7suspendEv
                0x00003da4       0x78 /home/masterzdran/WorkingArea/Isel/semestre6/SE2/workplace/code/src/eCos/lib/libtarget.a(kernel_thread.o)
                0x00003da4                _ZN10Cyg_Thread7suspendEv
 .text._ZN10Cyg_Thread5sleepEv
                0x00003e1c       0x74 /home/masterzdran/WorkingArea/Isel/semestre6/SE2/workplace/code/src/eCos/lib/libtarget.a(kernel_thread.o)
                0x00003e1c                _ZN10Cyg_Thread5sleepEv
 .text._ZN10Cyg_Thread5delayEy
                0x00003e90       0xc8 /home/masterzdran/WorkingArea/Isel/semestre6/SE2/workplace/code/src/eCos/lib/libtarget.a(kernel_thread.o)
                0x00003e90                _ZN10Cyg_Thread5delayEy
 .text._ZN10Cyg_Thread13counted_sleepEy
                0x00003f58      0x110 /home/masterzdran/WorkingArea/Isel/semestre6/SE2/workplace/code/src/eCos/lib/libtarget.a(kernel_thread.o)
                0x00003f58                _ZN10Cyg_Thread13counted_sleepEy
 .text._ZN10Cyg_Thread13counted_sleepEv
                0x00004068       0xb4 /home/masterzdran/WorkingArea/Isel/semestre6/SE2/workplace/code/src/eCos/lib/libtarget.a(kernel_thread.o)
                0x00004068                _ZN10Cyg_Thread13counted_sleepEv
 .text._ZN10Cyg_Thread12force_resumeEv
                0x0000411c       0x74 /home/masterzdran/WorkingArea/Isel/semestre6/SE2/workplace/code/src/eCos/lib/libtarget.a(kernel_thread.o)
                0x0000411c                _ZN10Cyg_Thread12force_resumeEv
 .text._ZN10Cyg_Thread6resumeEv
                0x00004190       0x80 /home/masterzdran/WorkingArea/Isel/semestre6/SE2/workplace/code/src/eCos/lib/libtarget.a(kernel_thread.o)
                0x00004190                _ZN10Cyg_Thread6resumeEv
 .text._ZN10Cyg_Thread4wakeEv
                0x00004210       0x94 /home/masterzdran/WorkingArea/Isel/semestre6/SE2/workplace/code/src/eCos/lib/libtarget.a(kernel_thread.o)
                0x00004210                _ZN10Cyg_Thread4wakeEv
 .text._ZN10Cyg_Thread12counted_wakeEv
                0x000042a4       0x64 /home/masterzdran/WorkingArea/Isel/semestre6/SE2/workplace/code/src/eCos/lib/libtarget.a(kernel_thread.o)
                0x000042a4                _ZN10Cyg_Thread12counted_wakeEv
 .text._ZN10Cyg_Thread12set_priorityEi
                0x00004308      0x14c /home/masterzdran/WorkingArea/Isel/semestre6/SE2/workplace/code/src/eCos/lib/libtarget.a(kernel_thread.o)
                0x00004308                _ZN10Cyg_Thread12set_priorityEi
 .text._ZN10Cyg_ThreadD1Ev
                0x00004454       0xc8 /home/masterzdran/WorkingArea/Isel/semestre6/SE2/workplace/code/src/eCos/lib/libtarget.a(kernel_thread.o)
                0x00004454                _ZN10Cyg_ThreadD1Ev
 .text._ZN10Cyg_ThreadD2Ev
                0x0000451c       0xc8 /home/masterzdran/WorkingArea/Isel/semestre6/SE2/workplace/code/src/eCos/lib/libtarget.a(kernel_thread.o)
                0x0000451c                _ZN10Cyg_ThreadD2Ev
 .text._ZN10Cyg_Thread4killEv
                0x000045e4       0xf8 /home/masterzdran/WorkingArea/Isel/semestre6/SE2/workplace/code/src/eCos/lib/libtarget.a(kernel_thread.o)
                0x000045e4                _ZN10Cyg_Thread4killEv
 .text._ZN10Cyg_ThreadC2EjPFvjEjPcjj
                0x000046dc      0x1a0 /home/masterzdran/WorkingArea/Isel/semestre6/SE2/workplace/code/src/eCos/lib/libtarget.a(kernel_thread.o)
                0x000046dc                _ZN10Cyg_ThreadC2EjPFvjEjPcjj
 .text._ZN14Cyg_IdleThreadC1Ev
                0x0000487c       0x9c /home/masterzdran/WorkingArea/Isel/semestre6/SE2/workplace/code/src/eCos/lib/libtarget.a(kernel_thread.o)
                0x0000487c                _ZN14Cyg_IdleThreadC1Ev
 .text._Z41__static_initialization_and_destruction_0ii
                0x00004918       0x44 /home/masterzdran/WorkingArea/Isel/semestre6/SE2/workplace/code/src/eCos/lib/libtarget.a(kernel_thread.o)
 .text._GLOBAL__D.11100__ZN18Cyg_HardwareThread12thread_entryEP10Cyg_Thread
                0x0000495c       0x10 /home/masterzdran/WorkingArea/Isel/semestre6/SE2/workplace/code/src/eCos/lib/libtarget.a(kernel_thread.o)
 .text._GLOBAL__I.11100__ZN18Cyg_HardwareThread12thread_entryEP10Cyg_Thread
                0x0000496c       0x10 /home/masterzdran/WorkingArea/Isel/semestre6/SE2/workplace/code/src/eCos/lib/libtarget.a(kernel_thread.o)
 .text._ZN14Cyg_IdleThreadC2Ev
                0x0000497c       0x9c /home/masterzdran/WorkingArea/Isel/semestre6/SE2/workplace/code/src/eCos/lib/libtarget.a(kernel_thread.o)
                0x0000497c                _ZN14Cyg_IdleThreadC2Ev
 .text._ZN10Cyg_Thread14new_data_indexEv
                0x00004a18       0x78 /home/masterzdran/WorkingArea/Isel/semestre6/SE2/workplace/code/src/eCos/lib/libtarget.a(kernel_thread.o)
                0x00004a18                _ZN10Cyg_Thread14new_data_indexEv
 .text._ZN10Cyg_Thread7releaseEv
                0x00004a90       0x7c /home/masterzdran/WorkingArea/Isel/semestre6/SE2/workplace/code/src/eCos/lib/libtarget.a(kernel_thread.o)
                0x00004a90                _ZN10Cyg_Thread7releaseEv
 .text._ZN15Cyg_ThreadTimer5alarmEP9Cyg_Alarmj
                0x00004b0c       0x94 /home/masterzdran/WorkingArea/Isel/semestre6/SE2/workplace/code/src/eCos/lib/libtarget.a(kernel_thread.o)
                0x00004b0c                _ZN15Cyg_ThreadTimer5alarmEP9Cyg_Alarmj
 .text          0x00004ba0        0x0 /home/masterzdran/WorkingArea/Isel/semestre6/SE2/workplace/code/src/eCos/lib/libtarget.a(kernel_except.o)
 .text._Z26cyg_null_exception_handlerjij
                0x00004ba0        0x4 /home/masterzdran/WorkingArea/Isel/semestre6/SE2/workplace/code/src/eCos/lib/libtarget.a(kernel_except.o)
                0x00004ba0                _Z26cyg_null_exception_handlerjij
 .text._ZN21Cyg_Exception_ControlC2Ev
                0x00004ba4       0x14 /home/masterzdran/WorkingArea/Isel/semestre6/SE2/workplace/code/src/eCos/lib/libtarget.a(kernel_except.o)
                0x00004ba4                _ZN21Cyg_Exception_ControlC2Ev
 .text._ZN21Cyg_Exception_ControlC1Ev
                0x00004bb8       0x14 /home/masterzdran/WorkingArea/Isel/semestre6/SE2/workplace/code/src/eCos/lib/libtarget.a(kernel_except.o)
                0x00004bb8                _ZN21Cyg_Exception_ControlC1Ev
 .text._ZN21Cyg_Exception_Control18register_exceptionEiPFvjijEjPS1_Pj
                0x00004bcc       0x38 /home/masterzdran/WorkingArea/Isel/semestre6/SE2/workplace/code/src/eCos/lib/libtarget.a(kernel_except.o)
                0x00004bcc                _ZN21Cyg_Exception_Control18register_exceptionEiPFvjijEjPS1_Pj
 .text._ZN21Cyg_Exception_Control20deregister_exceptionEi
                0x00004c04       0x14 /home/masterzdran/WorkingArea/Isel/semestre6/SE2/workplace/code/src/eCos/lib/libtarget.a(kernel_except.o)
                0x00004c04                _ZN21Cyg_Exception_Control20deregister_exceptionEi
 .text._ZN21Cyg_Exception_Control17deliver_exceptionEij
                0x00004c18       0x20 /home/masterzdran/WorkingArea/Isel/semestre6/SE2/workplace/code/src/eCos/lib/libtarget.a(kernel_except.o)
                0x00004c18                _ZN21Cyg_Exception_Control17deliver_exceptionEij
 .text._GLOBAL__I.12000__Z26cyg_null_exception_handlerjij
                0x00004c38       0x1c /home/masterzdran/WorkingArea/Isel/semestre6/SE2/workplace/code/src/eCos/lib/libtarget.a(kernel_except.o)
 .text.cyg_hal_deliver_exception
                0x00004c54       0x28 /home/masterzdran/WorkingArea/Isel/semestre6/SE2/workplace/code/src/eCos/lib/libtarget.a(kernel_except.o)
                0x00004c54                cyg_hal_deliver_exception
 .text          0x00004c7c        0x0 /home/masterzdran/WorkingArea/Isel/semestre6/SE2/workplace/code/src/eCos/lib/libtarget.a(kernel_intr.o)
 .text._ZN13Cyg_InterruptC2EjijPFjjjEPFvjjjE
                0x00004c7c       0x30 /home/masterzdran/WorkingArea/Isel/semestre6/SE2/workplace/code/src/eCos/lib/libtarget.a(kernel_intr.o)
                0x00004c7c                _ZN13Cyg_InterruptC2EjijPFjjjEPFvjjjE
 .text._ZN13Cyg_InterruptC1EjijPFjjjEPFvjjjE
                0x00004cac       0x30 /home/masterzdran/WorkingArea/Isel/semestre6/SE2/workplace/code/src/eCos/lib/libtarget.a(kernel_intr.o)
                0x00004cac                _ZN13Cyg_InterruptC1EjijPFjjjEPFvjjjE
 .text._ZN13Cyg_InterruptD2Ev
                0x00004cdc       0x50 /home/masterzdran/WorkingArea/Isel/semestre6/SE2/workplace/code/src/eCos/lib/libtarget.a(kernel_intr.o)
                0x00004cdc                _ZN13Cyg_InterruptD2Ev
 .text._ZN13Cyg_InterruptD1Ev
                0x00004d2c       0x50 /home/masterzdran/WorkingArea/Isel/semestre6/SE2/workplace/code/src/eCos/lib/libtarget.a(kernel_intr.o)
                0x00004d2c                _ZN13Cyg_InterruptD1Ev
 .text._ZN13Cyg_Interrupt23call_pending_DSRs_innerEv
                0x00004d7c       0x8c /home/masterzdran/WorkingArea/Isel/semestre6/SE2/workplace/code/src/eCos/lib/libtarget.a(kernel_intr.o)
                0x00004d7c                _ZN13Cyg_Interrupt23call_pending_DSRs_innerEv
 .text.cyg_interrupt_call_pending_DSRs
                0x00004e08        0x4 /home/masterzdran/WorkingArea/Isel/semestre6/SE2/workplace/code/src/eCos/lib/libtarget.a(kernel_intr.o)
                0x00004e08                cyg_interrupt_call_pending_DSRs
 .text._ZN13Cyg_Interrupt8post_dsrEv
                0x00004e0c       0x68 /home/masterzdran/WorkingArea/Isel/semestre6/SE2/workplace/code/src/eCos/lib/libtarget.a(kernel_intr.o)
                0x00004e0c                _ZN13Cyg_Interrupt8post_dsrEv
 .text.cyg_interrupt_post_dsr
                0x00004e74       0x68 /home/masterzdran/WorkingArea/Isel/semestre6/SE2/workplace/code/src/eCos/lib/libtarget.a(kernel_intr.o)
                0x00004e74                cyg_interrupt_post_dsr
 .text._ZN13Cyg_Interrupt6detachEv
                0x00004edc       0x50 /home/masterzdran/WorkingArea/Isel/semestre6/SE2/workplace/code/src/eCos/lib/libtarget.a(kernel_intr.o)
                0x00004edc                _ZN13Cyg_Interrupt6detachEv
 .text._ZN13Cyg_Interrupt7get_vsrEjPPFvvE
                0x00004f2c       0x14 /home/masterzdran/WorkingArea/Isel/semestre6/SE2/workplace/code/src/eCos/lib/libtarget.a(kernel_intr.o)
                0x00004f2c                _ZN13Cyg_Interrupt7get_vsrEjPPFvvE
 .text._ZN13Cyg_Interrupt7set_vsrEjPFvvEPS1_
                0x00004f40       0x50 /home/masterzdran/WorkingArea/Isel/semestre6/SE2/workplace/code/src/eCos/lib/libtarget.a(kernel_intr.o)
                0x00004f40                _ZN13Cyg_Interrupt7set_vsrEjPFvvEPS1_
 .text._ZN13Cyg_Interrupt18disable_interruptsEv
                0x00004f90       0x58 /home/masterzdran/WorkingArea/Isel/semestre6/SE2/workplace/code/src/eCos/lib/libtarget.a(kernel_intr.o)
                0x00004f90                _ZN13Cyg_Interrupt18disable_interruptsEv
 .text._ZN13Cyg_Interrupt17enable_interruptsEv
                0x00004fe8       0x58 /home/masterzdran/WorkingArea/Isel/semestre6/SE2/workplace/code/src/eCos/lib/libtarget.a(kernel_intr.o)
                0x00004fe8                _ZN13Cyg_Interrupt17enable_interruptsEv
 .text._GLOBAL__I.12000__ZN13Cyg_Interrupt15disable_counterE
                0x00005040       0x14 /home/masterzdran/WorkingArea/Isel/semestre6/SE2/workplace/code/src/eCos/lib/libtarget.a(kernel_intr.o)
 .text._GLOBAL__D.12000__ZN13Cyg_Interrupt15disable_counterE
                0x00005054        0x4 /home/masterzdran/WorkingArea/Isel/semestre6/SE2/workplace/code/src/eCos/lib/libtarget.a(kernel_intr.o)
 .text._ZN13Cyg_Interrupt19configure_interruptEjii
                0x00005058        0x4 /home/masterzdran/WorkingArea/Isel/semestre6/SE2/workplace/code/src/eCos/lib/libtarget.a(kernel_intr.o)
                0x00005058                _ZN13Cyg_Interrupt19configure_interruptEjii
 .text._ZN13Cyg_Interrupt21acknowledge_interruptEj
                0x0000505c        0x4 /home/masterzdran/WorkingArea/Isel/semestre6/SE2/workplace/code/src/eCos/lib/libtarget.a(kernel_intr.o)
                0x0000505c                _ZN13Cyg_Interrupt21acknowledge_interruptEj
 .text._ZN13Cyg_Interrupt26unmask_interrupt_intunsafeEj
                0x00005060        0x4 /home/masterzdran/WorkingArea/Isel/semestre6/SE2/workplace/code/src/eCos/lib/libtarget.a(kernel_intr.o)
                0x00005060                _ZN13Cyg_Interrupt26unmask_interrupt_intunsafeEj
 .text._ZN13Cyg_Interrupt16unmask_interruptEj
                0x00005064       0x38 /home/masterzdran/WorkingArea/Isel/semestre6/SE2/workplace/code/src/eCos/lib/libtarget.a(kernel_intr.o)
                0x00005064                _ZN13Cyg_Interrupt16unmask_interruptEj
 .text._ZN13Cyg_Interrupt24mask_interrupt_intunsafeEj
                0x0000509c        0x4 /home/masterzdran/WorkingArea/Isel/semestre6/SE2/workplace/code/src/eCos/lib/libtarget.a(kernel_intr.o)
                0x0000509c                _ZN13Cyg_Interrupt24mask_interrupt_intunsafeEj
 .text._ZN13Cyg_Interrupt14mask_interruptEj
                0x000050a0       0x38 /home/masterzdran/WorkingArea/Isel/semestre6/SE2/workplace/code/src/eCos/lib/libtarget.a(kernel_intr.o)
                0x000050a0                _ZN13Cyg_Interrupt14mask_interruptEj
 .text._ZN13Cyg_Interrupt6attachEv
                0x000050d8       0x5c /home/masterzdran/WorkingArea/Isel/semestre6/SE2/workplace/code/src/eCos/lib/libtarget.a(kernel_intr.o)
                0x000050d8                _ZN13Cyg_Interrupt6attachEv
 .text.interrupt_end
                0x00005134       0xc0 /home/masterzdran/WorkingArea/Isel/semestre6/SE2/workplace/code/src/eCos/lib/libtarget.a(kernel_intr.o)
                0x00005134                interrupt_end
 .text._ZN13Cyg_Interrupt17call_pending_DSRsEv
                0x000051f4        0x4 /home/masterzdran/WorkingArea/Isel/semestre6/SE2/workplace/code/src/eCos/lib/libtarget.a(kernel_intr.o)
                0x000051f4                _ZN13Cyg_Interrupt17call_pending_DSRsEv
 .text          0x000051f8        0x0 /home/masterzdran/WorkingArea/Isel/semestre6/SE2/workplace/code/src/eCos/lib/libtarget.a(kernel_mlqueue.o)
 .text._ZN28Cyg_Scheduler_ImplementationC2Ev
                0x000051f8       0x54 /home/masterzdran/WorkingArea/Isel/semestre6/SE2/workplace/code/src/eCos/lib/libtarget.a(kernel_mlqueue.o)
                0x000051f8                _ZN28Cyg_Scheduler_ImplementationC2Ev
 .text._ZN28Cyg_Scheduler_ImplementationC1Ev
                0x0000524c       0x54 /home/masterzdran/WorkingArea/Isel/semestre6/SE2/workplace/code/src/eCos/lib/libtarget.a(kernel_mlqueue.o)
                0x0000524c                _ZN28Cyg_Scheduler_ImplementationC1Ev
 .text._ZN28Cyg_Scheduler_Implementation10rem_threadEP10Cyg_Thread
                0x000052a0       0xa4 /home/masterzdran/WorkingArea/Isel/semestre6/SE2/workplace/code/src/eCos/lib/libtarget.a(kernel_mlqueue.o)
                0x000052a0                _ZN28Cyg_Scheduler_Implementation10rem_threadEP10Cyg_Thread
 .text._ZN28Cyg_Scheduler_Implementation19set_need_rescheduleEP10Cyg_Thread
                0x00005344       0x4c /home/masterzdran/WorkingArea/Isel/semestre6/SE2/workplace/code/src/eCos/lib/libtarget.a(kernel_mlqueue.o)
                0x00005344                _ZN28Cyg_Scheduler_Implementation19set_need_rescheduleEP10Cyg_Thread
 .text._ZN28Cyg_Scheduler_Implementation15register_threadEP10Cyg_Thread
                0x00005390        0x4 /home/masterzdran/WorkingArea/Isel/semestre6/SE2/workplace/code/src/eCos/lib/libtarget.a(kernel_mlqueue.o)
                0x00005390                _ZN28Cyg_Scheduler_Implementation15register_threadEP10Cyg_Thread
 .text._ZN28Cyg_Scheduler_Implementation17deregister_threadEP10Cyg_Thread
                0x00005394        0x4 /home/masterzdran/WorkingArea/Isel/semestre6/SE2/workplace/code/src/eCos/lib/libtarget.a(kernel_mlqueue.o)
                0x00005394                _ZN28Cyg_Scheduler_Implementation17deregister_threadEP10Cyg_Thread
 .text._ZN28Cyg_Scheduler_Implementation6uniqueEi
                0x00005398        0x8 /home/masterzdran/WorkingArea/Isel/semestre6/SE2/workplace/code/src/eCos/lib/libtarget.a(kernel_mlqueue.o)
                0x00005398                _ZN28Cyg_Scheduler_Implementation6uniqueEi
 .text._ZN28Cyg_Scheduler_Implementation13timeslice_cpuEv
                0x000053a0       0x88 /home/masterzdran/WorkingArea/Isel/semestre6/SE2/workplace/code/src/eCos/lib/libtarget.a(kernel_mlqueue.o)
                0x000053a0                _ZN28Cyg_Scheduler_Implementation13timeslice_cpuEv
 .text._ZN28Cyg_Scheduler_Implementation9timesliceEv
                0x00005428       0x20 /home/masterzdran/WorkingArea/Isel/semestre6/SE2/workplace/code/src/eCos/lib/libtarget.a(kernel_mlqueue.o)
                0x00005428                _ZN28Cyg_Scheduler_Implementation9timesliceEv
 .text.cyg_scheduler_timeslice_cpu
                0x00005448        0xc /home/masterzdran/WorkingArea/Isel/semestre6/SE2/workplace/code/src/eCos/lib/libtarget.a(kernel_mlqueue.o)
                0x00005448                cyg_scheduler_timeslice_cpu
 .text._ZN30Cyg_SchedThread_ImplementationC2Ej
                0x00005454       0x14 /home/masterzdran/WorkingArea/Isel/semestre6/SE2/workplace/code/src/eCos/lib/libtarget.a(kernel_mlqueue.o)
                0x00005454                _ZN30Cyg_SchedThread_ImplementationC2Ej
 .text._ZN30Cyg_SchedThread_ImplementationC1Ej
                0x00005468       0x14 /home/masterzdran/WorkingArea/Isel/semestre6/SE2/workplace/code/src/eCos/lib/libtarget.a(kernel_mlqueue.o)
                0x00005468                _ZN30Cyg_SchedThread_ImplementationC1Ej
 .text._ZN30Cyg_ThreadQueue_Implementation7enqueueEP10Cyg_Thread
                0x0000547c       0x40 /home/masterzdran/WorkingArea/Isel/semestre6/SE2/workplace/code/src/eCos/lib/libtarget.a(kernel_mlqueue.o)
                0x0000547c                _ZN30Cyg_ThreadQueue_Implementation7enqueueEP10Cyg_Thread
 .text._ZN30Cyg_ThreadQueue_Implementation7dequeueEv
                0x000054bc       0x50 /home/masterzdran/WorkingArea/Isel/semestre6/SE2/workplace/code/src/eCos/lib/libtarget.a(kernel_mlqueue.o)
                0x000054bc                _ZN30Cyg_ThreadQueue_Implementation7dequeueEv
 .text._ZN30Cyg_ThreadQueue_Implementation6removeEP10Cyg_Thread
                0x0000550c       0x74 /home/masterzdran/WorkingArea/Isel/semestre6/SE2/workplace/code/src/eCos/lib/libtarget.a(kernel_mlqueue.o)
                0x0000550c                _ZN30Cyg_ThreadQueue_Implementation6removeEP10Cyg_Thread
 .text._ZN28Cyg_Scheduler_Implementation10add_threadEP10Cyg_Thread
                0x00005580       0xb4 /home/masterzdran/WorkingArea/Isel/semestre6/SE2/workplace/code/src/eCos/lib/libtarget.a(kernel_mlqueue.o)
                0x00005580                _ZN28Cyg_Scheduler_Implementation10add_threadEP10Cyg_Thread
 .text._ZN30Cyg_ThreadQueue_Implementation7highpriEv
                0x00005634       0x10 /home/masterzdran/WorkingArea/Isel/semestre6/SE2/workplace/code/src/eCos/lib/libtarget.a(kernel_mlqueue.o)
                0x00005634                _ZN30Cyg_ThreadQueue_Implementation7highpriEv
 .text._ZN30Cyg_SchedThread_Implementation13to_queue_headEv
                0x00005644       0xb8 /home/masterzdran/WorkingArea/Isel/semestre6/SE2/workplace/code/src/eCos/lib/libtarget.a(kernel_mlqueue.o)
                0x00005644                _ZN30Cyg_SchedThread_Implementation13to_queue_headEv
 .text._ZN30Cyg_SchedThread_Implementation12rotate_queueEi
                0x000056fc       0x70 /home/masterzdran/WorkingArea/Isel/semestre6/SE2/workplace/code/src/eCos/lib/libtarget.a(kernel_mlqueue.o)
                0x000056fc                _ZN30Cyg_SchedThread_Implementation12rotate_queueEi
 .text._ZN30Cyg_SchedThread_Implementation5yieldEv
                0x0000576c       0x88 /home/masterzdran/WorkingArea/Isel/semestre6/SE2/workplace/code/src/eCos/lib/libtarget.a(kernel_mlqueue.o)
                0x0000576c                _ZN30Cyg_SchedThread_Implementation5yieldEv
 .text._ZN28Cyg_Scheduler_Implementation15set_idle_threadEP10Cyg_Threadj
                0x000057f4       0x14 /home/masterzdran/WorkingArea/Isel/semestre6/SE2/workplace/code/src/eCos/lib/libtarget.a(kernel_mlqueue.o)
                0x000057f4                _ZN28Cyg_Scheduler_Implementation15set_idle_threadEP10Cyg_Threadj
 .text._ZN28Cyg_Scheduler_Implementation8scheduleEv
                0x00005808       0x28 /home/masterzdran/WorkingArea/Isel/semestre6/SE2/workplace/code/src/eCos/lib/libtarget.a(kernel_mlqueue.o)
                0x00005808                _ZN28Cyg_Scheduler_Implementation8scheduleEv
 .text          0x00005830        0x0 /home/masterzdran/WorkingArea/Isel/semestre6/SE2/workplace/code/src/eCos/lib/libtarget.a(kernel_sched.o)
 .text._Z41__static_initialization_and_destruction_0ii
                0x00005830       0xa0 /home/masterzdran/WorkingArea/Isel/semestre6/SE2/workplace/code/src/eCos/lib/libtarget.a(kernel_sched.o)
 .text._GLOBAL__D.11000_cyg_scheduler_sched_lock
                0x000058d0       0x10 /home/masterzdran/WorkingArea/Isel/semestre6/SE2/workplace/code/src/eCos/lib/libtarget.a(kernel_sched.o)
 .text._GLOBAL__I.11000_cyg_scheduler_sched_lock
                0x000058e0       0x10 /home/masterzdran/WorkingArea/Isel/semestre6/SE2/workplace/code/src/eCos/lib/libtarget.a(kernel_sched.o)
 .text._ZN15Cyg_SchedThread24clear_inherited_priorityEv
                0x000058f0       0x34 /home/masterzdran/WorkingArea/Isel/semestre6/SE2/workplace/code/src/eCos/lib/libtarget.a(kernel_sched.o)
                0x000058f0                _ZN15Cyg_SchedThread24clear_inherited_priorityEv
 .text._ZN15Cyg_SchedThread22clear_priority_ceilingEv
                0x00005924        0x4 /home/masterzdran/WorkingArea/Isel/semestre6/SE2/workplace/code/src/eCos/lib/libtarget.a(kernel_sched.o)
                0x00005924                _ZN15Cyg_SchedThread22clear_priority_ceilingEv
 .text._ZN15Cyg_SchedThread19disinherit_priorityEv
                0x00005928        0x4 /home/masterzdran/WorkingArea/Isel/semestre6/SE2/workplace/code/src/eCos/lib/libtarget.a(kernel_sched.o)
                0x00005928                _ZN15Cyg_SchedThread19disinherit_priorityEv
 .text._ZN15Cyg_SchedThread22set_inherited_priorityEiP10Cyg_Thread
                0x0000592c       0x3c /home/masterzdran/WorkingArea/Isel/semestre6/SE2/workplace/code/src/eCos/lib/libtarget.a(kernel_sched.o)
                0x0000592c                _ZN15Cyg_SchedThread22set_inherited_priorityEiP10Cyg_Thread
 .text._ZN15Cyg_SchedThread20set_priority_ceilingEi
                0x00005968        0x8 /home/masterzdran/WorkingArea/Isel/semestre6/SE2/workplace/code/src/eCos/lib/libtarget.a(kernel_sched.o)
                0x00005968                _ZN15Cyg_SchedThread20set_priority_ceilingEi
 .text._ZN15Cyg_SchedThread16inherit_priorityEP10Cyg_Thread
                0x00005970        0xc /home/masterzdran/WorkingArea/Isel/semestre6/SE2/workplace/code/src/eCos/lib/libtarget.a(kernel_sched.o)
                0x00005970                _ZN15Cyg_SchedThread16inherit_priorityEP10Cyg_Thread
 .text._ZN15Cyg_SchedThread24relay_inherited_priorityEP10Cyg_ThreadP15Cyg_ThreadQueue
                0x0000597c       0x18 /home/masterzdran/WorkingArea/Isel/semestre6/SE2/workplace/code/src/eCos/lib/libtarget.a(kernel_sched.o)
                0x0000597c                _ZN15Cyg_SchedThread24relay_inherited_priorityEP10Cyg_ThreadP15Cyg_ThreadQueue
 .text._ZN15Cyg_SchedThread14relay_priorityEP10Cyg_ThreadP15Cyg_ThreadQueue
                0x00005994        0x4 /home/masterzdran/WorkingArea/Isel/semestre6/SE2/workplace/code/src/eCos/lib/libtarget.a(kernel_sched.o)
                0x00005994                _ZN15Cyg_SchedThread14relay_priorityEP10Cyg_ThreadP15Cyg_ThreadQueue
 .text._ZN15Cyg_SchedThreadC1EP10Cyg_Threadj
                0x00005998       0x28 /home/masterzdran/WorkingArea/Isel/semestre6/SE2/workplace/code/src/eCos/lib/libtarget.a(kernel_sched.o)
                0x00005998                _ZN15Cyg_SchedThreadC1EP10Cyg_Threadj
 .text._ZN15Cyg_SchedThreadC2EP10Cyg_Threadj
                0x000059c0       0x28 /home/masterzdran/WorkingArea/Isel/semestre6/SE2/workplace/code/src/eCos/lib/libtarget.a(kernel_sched.o)
                0x000059c0                _ZN15Cyg_SchedThreadC2EP10Cyg_Threadj
 .text._ZN13Cyg_Scheduler9start_cpuEv
                0x000059e8       0x34 /home/masterzdran/WorkingArea/Isel/semestre6/SE2/workplace/code/src/eCos/lib/libtarget.a(kernel_sched.o)
                0x000059e8                _ZN13Cyg_Scheduler9start_cpuEv
 .text._ZN13Cyg_Scheduler5startEv
                0x00005a1c        0x4 /home/masterzdran/WorkingArea/Isel/semestre6/SE2/workplace/code/src/eCos/lib/libtarget.a(kernel_sched.o)
                0x00005a1c                _ZN13Cyg_Scheduler5startEv
 .text._ZN13Cyg_Scheduler12unlock_innerEj
                0x00005a20       0xf4 /home/masterzdran/WorkingArea/Isel/semestre6/SE2/workplace/code/src/eCos/lib/libtarget.a(kernel_sched.o)
                0x00005a20                _ZN13Cyg_Scheduler12unlock_innerEj
 .text._ZN13Cyg_Scheduler12thread_entryEP10Cyg_Thread
                0x00005b14       0x88 /home/masterzdran/WorkingArea/Isel/semestre6/SE2/workplace/code/src/eCos/lib/libtarget.a(kernel_sched.o)
                0x00005b14                _ZN13Cyg_Scheduler12thread_entryEP10Cyg_Thread
 .text          0x00005b9c        0x0 /home/masterzdran/WorkingArea/Isel/semestre6/SE2/workplace/code/src/eCos/lib/libtarget.a(kernel_cnt_sem.o)
 .text._ZN22Cyg_Counting_SemaphoreC2Ei
                0x00005b9c        0xc /home/masterzdran/WorkingArea/Isel/semestre6/SE2/workplace/code/src/eCos/lib/libtarget.a(kernel_cnt_sem.o)
                0x00005b9c                _ZN22Cyg_Counting_SemaphoreC2Ei
 .text._ZN22Cyg_Counting_SemaphoreC1Ei
                0x00005ba8        0xc /home/masterzdran/WorkingArea/Isel/semestre6/SE2/workplace/code/src/eCos/lib/libtarget.a(kernel_cnt_sem.o)
                0x00005ba8                _ZN22Cyg_Counting_SemaphoreC1Ei
 .text._ZN22Cyg_Counting_SemaphoreD2Ev
                0x00005bb4       0x40 /home/masterzdran/WorkingArea/Isel/semestre6/SE2/workplace/code/src/eCos/lib/libtarget.a(kernel_cnt_sem.o)
                0x00005bb4                _ZN22Cyg_Counting_SemaphoreD2Ev
 .text._ZN22Cyg_Counting_SemaphoreD1Ev
                0x00005bf4       0x40 /home/masterzdran/WorkingArea/Isel/semestre6/SE2/workplace/code/src/eCos/lib/libtarget.a(kernel_cnt_sem.o)
                0x00005bf4                _ZN22Cyg_Counting_SemaphoreD1Ev
 .text._ZNK22Cyg_Counting_Semaphore4peekEv
                0x00005c34        0x8 /home/masterzdran/WorkingArea/Isel/semestre6/SE2/workplace/code/src/eCos/lib/libtarget.a(kernel_cnt_sem.o)
                0x00005c34                _ZNK22Cyg_Counting_Semaphore4peekEv
 .text._ZN22Cyg_Counting_Semaphore4waitEv
                0x00005c3c       0xe4 /home/masterzdran/WorkingArea/Isel/semestre6/SE2/workplace/code/src/eCos/lib/libtarget.a(kernel_cnt_sem.o)
                0x00005c3c                _ZN22Cyg_Counting_Semaphore4waitEv
 .text._ZN22Cyg_Counting_Semaphore4waitEy
                0x00005d20      0x15c /home/masterzdran/WorkingArea/Isel/semestre6/SE2/workplace/code/src/eCos/lib/libtarget.a(kernel_cnt_sem.o)
                0x00005d20                _ZN22Cyg_Counting_Semaphore4waitEy
 .text._ZN22Cyg_Counting_Semaphore4postEv
                0x00005e7c       0x6c /home/masterzdran/WorkingArea/Isel/semestre6/SE2/workplace/code/src/eCos/lib/libtarget.a(kernel_cnt_sem.o)
                0x00005e7c                _ZN22Cyg_Counting_Semaphore4postEv
 .text._ZN22Cyg_Counting_Semaphore7trywaitEv
                0x00005ee8       0x58 /home/masterzdran/WorkingArea/Isel/semestre6/SE2/workplace/code/src/eCos/lib/libtarget.a(kernel_cnt_sem.o)
                0x00005ee8                _ZN22Cyg_Counting_Semaphore7trywaitEv
 .text          0x00005f40        0x0 /home/masterzdran/WorkingArea/Isel/semestre6/SE2/workplace/code/src/eCos/lib/libtarget.a(kernel_flag.o)
 .text._ZN8Cyg_FlagC2Ej
                0x00005f40        0xc /home/masterzdran/WorkingArea/Isel/semestre6/SE2/workplace/code/src/eCos/lib/libtarget.a(kernel_flag.o)
                0x00005f40                _ZN8Cyg_FlagC2Ej
 .text._ZN8Cyg_FlagC1Ej
                0x00005f4c        0xc /home/masterzdran/WorkingArea/Isel/semestre6/SE2/workplace/code/src/eCos/lib/libtarget.a(kernel_flag.o)
                0x00005f4c                _ZN8Cyg_FlagC1Ej
 .text._ZN8Cyg_FlagD2Ev
                0x00005f58       0xb4 /home/masterzdran/WorkingArea/Isel/semestre6/SE2/workplace/code/src/eCos/lib/libtarget.a(kernel_flag.o)
                0x00005f58                _ZN8Cyg_FlagD2Ev
 .text._ZN8Cyg_Flag4pollEjh
                0x0000600c       0x9c /home/masterzdran/WorkingArea/Isel/semestre6/SE2/workplace/code/src/eCos/lib/libtarget.a(kernel_flag.o)
                0x0000600c                _ZN8Cyg_Flag4pollEjh
 .text._ZN8Cyg_Flag8maskbitsEj
                0x000060a8       0x48 /home/masterzdran/WorkingArea/Isel/semestre6/SE2/workplace/code/src/eCos/lib/libtarget.a(kernel_flag.o)
                0x000060a8                _ZN8Cyg_Flag8maskbitsEj
 .text._ZN8Cyg_Flag7setbitsEj
                0x000060f0      0x124 /home/masterzdran/WorkingArea/Isel/semestre6/SE2/workplace/code/src/eCos/lib/libtarget.a(kernel_flag.o)
                0x000060f0                _ZN8Cyg_Flag7setbitsEj
 .text._ZN8Cyg_FlagD1Ev
                0x00006214       0xb4 /home/masterzdran/WorkingArea/Isel/semestre6/SE2/workplace/code/src/eCos/lib/libtarget.a(kernel_flag.o)
                0x00006214                _ZN8Cyg_FlagD1Ev
 .text._ZN8Cyg_Flag4waitEjh
                0x000062c8      0x110 /home/masterzdran/WorkingArea/Isel/semestre6/SE2/workplace/code/src/eCos/lib/libtarget.a(kernel_flag.o)
                0x000062c8                _ZN8Cyg_Flag4waitEjh
 .text._ZN8Cyg_Flag4waitEjhy
                0x000063d8      0x160 /home/masterzdran/WorkingArea/Isel/semestre6/SE2/workplace/code/src/eCos/lib/libtarget.a(kernel_flag.o)
                0x000063d8                _ZN8Cyg_Flag4waitEjhy
 .text          0x00006538        0x0 /home/masterzdran/WorkingArea/Isel/semestre6/SE2/workplace/code/src/eCos/lib/libtarget.a(kernel_mbox.o)
 .text._ZN8Cyg_MboxC2Ev
                0x00006538       0x18 /home/masterzdran/WorkingArea/Isel/semestre6/SE2/workplace/code/src/eCos/lib/libtarget.a(kernel_mbox.o)
                0x00006538                _ZN8Cyg_MboxC2Ev
 .text._ZN8Cyg_MboxC1Ev
                0x00006550       0x18 /home/masterzdran/WorkingArea/Isel/semestre6/SE2/workplace/code/src/eCos/lib/libtarget.a(kernel_mbox.o)
                0x00006550                _ZN8Cyg_MboxC1Ev
 .text._ZN8Cyg_MboxD2Ev
                0x00006568       0x7c /home/masterzdran/WorkingArea/Isel/semestre6/SE2/workplace/code/src/eCos/lib/libtarget.a(kernel_mbox.o)
                0x00006568                _ZN8Cyg_MboxD2Ev
 .text._ZN8Cyg_MboxD1Ev
                0x000065e4       0x7c /home/masterzdran/WorkingArea/Isel/semestre6/SE2/workplace/code/src/eCos/lib/libtarget.a(kernel_mbox.o)
                0x000065e4                _ZN8Cyg_MboxD1Ev
 .text._ZN8Cyg_Mbox9peek_itemEv
                0x00006660       0x70 /home/masterzdran/WorkingArea/Isel/semestre6/SE2/workplace/code/src/eCos/lib/libtarget.a(kernel_mbox.o)
                0x00006660                _ZN8Cyg_Mbox9peek_itemEv
 .text._ZN8Cyg_Mbox3getEy
                0x000066d0      0x188 /home/masterzdran/WorkingArea/Isel/semestre6/SE2/workplace/code/src/eCos/lib/libtarget.a(kernel_mbox.o)
                0x000066d0                _ZN8Cyg_Mbox3getEy
 .text._ZN8Cyg_Mbox6tryputEPv
                0x00006858       0xb4 /home/masterzdran/WorkingArea/Isel/semestre6/SE2/workplace/code/src/eCos/lib/libtarget.a(kernel_mbox.o)
                0x00006858                _ZN8Cyg_Mbox6tryputEPv
 .text._ZN8Cyg_Mbox3putEPv
                0x0000690c      0x128 /home/masterzdran/WorkingArea/Isel/semestre6/SE2/workplace/code/src/eCos/lib/libtarget.a(kernel_mbox.o)
                0x0000690c                _ZN8Cyg_Mbox3putEPv
 .text._ZN8Cyg_Mbox3putEPvy
                0x00006a34      0x17c /home/masterzdran/WorkingArea/Isel/semestre6/SE2/workplace/code/src/eCos/lib/libtarget.a(kernel_mbox.o)
                0x00006a34                _ZN8Cyg_Mbox3putEPvy
 .text._ZN8Cyg_Mbox6trygetEv
                0x00006bb0       0xbc /home/masterzdran/WorkingArea/Isel/semestre6/SE2/workplace/code/src/eCos/lib/libtarget.a(kernel_mbox.o)
                0x00006bb0                _ZN8Cyg_Mbox6trygetEv
 .text._ZN8Cyg_Mbox3getEv
                0x00006c6c      0x134 /home/masterzdran/WorkingArea/Isel/semestre6/SE2/workplace/code/src/eCos/lib/libtarget.a(kernel_mbox.o)
                0x00006c6c                _ZN8Cyg_Mbox3getEv
 .text          0x00006da0        0x0 /home/masterzdran/WorkingArea/Isel/semestre6/SE2/workplace/code/src/eCos/lib/libtarget.a(kernel_mutex.o)
 .text._ZN9Cyg_MutexC2Ev
                0x00006da0       0x1c /home/masterzdran/WorkingArea/Isel/semestre6/SE2/workplace/code/src/eCos/lib/libtarget.a(kernel_mutex.o)
                0x00006da0                _ZN9Cyg_MutexC2Ev
 .text._ZN9Cyg_MutexC1Ev
                0x00006dbc       0x1c /home/masterzdran/WorkingArea/Isel/semestre6/SE2/workplace/code/src/eCos/lib/libtarget.a(kernel_mutex.o)
                0x00006dbc                _ZN9Cyg_MutexC1Ev
 .text._ZN9Cyg_MutexC2ENS_11cyg_protcolE
                0x00006dd8       0x1c /home/masterzdran/WorkingArea/Isel/semestre6/SE2/workplace/code/src/eCos/lib/libtarget.a(kernel_mutex.o)
                0x00006dd8                _ZN9Cyg_MutexC2ENS_11cyg_protcolE
 .text._ZN9Cyg_MutexC1ENS_11cyg_protcolE
                0x00006df4       0x1c /home/masterzdran/WorkingArea/Isel/semestre6/SE2/workplace/code/src/eCos/lib/libtarget.a(kernel_mutex.o)
                0x00006df4                _ZN9Cyg_MutexC1ENS_11cyg_protcolE
 .text._ZN9Cyg_MutexD2Ev
                0x00006e10       0x48 /home/masterzdran/WorkingArea/Isel/semestre6/SE2/workplace/code/src/eCos/lib/libtarget.a(kernel_mutex.o)
                0x00006e10                _ZN9Cyg_MutexD2Ev
 .text._ZN9Cyg_MutexD1Ev
                0x00006e58       0x48 /home/masterzdran/WorkingArea/Isel/semestre6/SE2/workplace/code/src/eCos/lib/libtarget.a(kernel_mutex.o)
                0x00006e58                _ZN9Cyg_MutexD1Ev
 .text._ZN22Cyg_Condition_VariableC2ER9Cyg_Mutex
                0x00006ea0        0xc /home/masterzdran/WorkingArea/Isel/semestre6/SE2/workplace/code/src/eCos/lib/libtarget.a(kernel_mutex.o)
                0x00006ea0                _ZN22Cyg_Condition_VariableC2ER9Cyg_Mutex
 .text._ZN22Cyg_Condition_VariableC1ER9Cyg_Mutex
                0x00006eac        0xc /home/masterzdran/WorkingArea/Isel/semestre6/SE2/workplace/code/src/eCos/lib/libtarget.a(kernel_mutex.o)
                0x00006eac                _ZN22Cyg_Condition_VariableC1ER9Cyg_Mutex
 .text._ZN22Cyg_Condition_VariableC2Ev
                0x00006eb8       0x10 /home/masterzdran/WorkingArea/Isel/semestre6/SE2/workplace/code/src/eCos/lib/libtarget.a(kernel_mutex.o)
                0x00006eb8                _ZN22Cyg_Condition_VariableC2Ev
 .text._ZN22Cyg_Condition_VariableC1Ev
                0x00006ec8       0x10 /home/masterzdran/WorkingArea/Isel/semestre6/SE2/workplace/code/src/eCos/lib/libtarget.a(kernel_mutex.o)
                0x00006ec8                _ZN22Cyg_Condition_VariableC1Ev
 .text._ZN22Cyg_Condition_VariableD2Ev
                0x00006ed8       0x40 /home/masterzdran/WorkingArea/Isel/semestre6/SE2/workplace/code/src/eCos/lib/libtarget.a(kernel_mutex.o)
                0x00006ed8                _ZN22Cyg_Condition_VariableD2Ev
 .text._ZN22Cyg_Condition_VariableD1Ev
                0x00006f18       0x40 /home/masterzdran/WorkingArea/Isel/semestre6/SE2/workplace/code/src/eCos/lib/libtarget.a(kernel_mutex.o)
                0x00006f18                _ZN22Cyg_Condition_VariableD1Ev
 .text._ZN9Cyg_Mutex4lockEv
                0x00006f58      0x184 /home/masterzdran/WorkingArea/Isel/semestre6/SE2/workplace/code/src/eCos/lib/libtarget.a(kernel_mutex.o)
                0x00006f58                _ZN9Cyg_Mutex4lockEv
 .text._ZN9Cyg_Mutex7trylockEv
                0x000070dc       0xa4 /home/masterzdran/WorkingArea/Isel/semestre6/SE2/workplace/code/src/eCos/lib/libtarget.a(kernel_mutex.o)
                0x000070dc                _ZN9Cyg_Mutex7trylockEv
 .text._ZN9Cyg_Mutex12set_protocolENS_11cyg_protcolE
                0x00007180       0x40 /home/masterzdran/WorkingArea/Isel/semestre6/SE2/workplace/code/src/eCos/lib/libtarget.a(kernel_mutex.o)
                0x00007180                _ZN9Cyg_Mutex12set_protocolENS_11cyg_protcolE
 .text._ZN9Cyg_Mutex11set_ceilingEi
                0x000071c0       0x40 /home/masterzdran/WorkingArea/Isel/semestre6/SE2/workplace/code/src/eCos/lib/libtarget.a(kernel_mutex.o)
                0x000071c0                _ZN9Cyg_Mutex11set_ceilingEi
 .text._ZN22Cyg_Condition_Variable9broadcastEv
                0x00007200       0x74 /home/masterzdran/WorkingArea/Isel/semestre6/SE2/workplace/code/src/eCos/lib/libtarget.a(kernel_mutex.o)
                0x00007200                _ZN22Cyg_Condition_Variable9broadcastEv
 .text._ZN22Cyg_Condition_Variable6signalEv
                0x00007274       0x60 /home/masterzdran/WorkingArea/Isel/semestre6/SE2/workplace/code/src/eCos/lib/libtarget.a(kernel_mutex.o)
                0x00007274                _ZN22Cyg_Condition_Variable6signalEv
 .text._ZN9Cyg_Mutex7releaseEv
                0x000072d4       0x64 /home/masterzdran/WorkingArea/Isel/semestre6/SE2/workplace/code/src/eCos/lib/libtarget.a(kernel_mutex.o)
                0x000072d4                _ZN9Cyg_Mutex7releaseEv
 .text._ZN9Cyg_Mutex6unlockEv
                0x00007338       0xf8 /home/masterzdran/WorkingArea/Isel/semestre6/SE2/workplace/code/src/eCos/lib/libtarget.a(kernel_mutex.o)
                0x00007338                _ZN9Cyg_Mutex6unlockEv
 .text._ZN22Cyg_Condition_Variable10wait_innerEP9Cyg_Mutexy
                0x00007430      0x108 /home/masterzdran/WorkingArea/Isel/semestre6/SE2/workplace/code/src/eCos/lib/libtarget.a(kernel_mutex.o)
                0x00007430                _ZN22Cyg_Condition_Variable10wait_innerEP9Cyg_Mutexy
 .text._ZN22Cyg_Condition_Variable10wait_innerEP9Cyg_Mutex
                0x00007538       0xc4 /home/masterzdran/WorkingArea/Isel/semestre6/SE2/workplace/code/src/eCos/lib/libtarget.a(kernel_mutex.o)
                0x00007538                _ZN22Cyg_Condition_Variable10wait_innerEP9Cyg_Mutex
 .text          0x000075fc        0x0 /home/masterzdran/WorkingArea/Isel/semestre6/SE2/workplace/code/src/eCos/lib/libtarget.a(language_c_libc_startup_mainthread.o)
 .text._Z41__static_initialization_and_destruction_0ii
                0x000075fc       0x90 /home/masterzdran/WorkingArea/Isel/semestre6/SE2/workplace/code/src/eCos/lib/libtarget.a(language_c_libc_startup_mainthread.o)
 .text._GLOBAL__D.56000_cyg_libc_main_thread
                0x0000768c       0x10 /home/masterzdran/WorkingArea/Isel/semestre6/SE2/workplace/code/src/eCos/lib/libtarget.a(language_c_libc_startup_mainthread.o)
 .text._GLOBAL__I.56000_cyg_libc_main_thread
                0x0000769c       0x10 /home/masterzdran/WorkingArea/Isel/semestre6/SE2/workplace/code/src/eCos/lib/libtarget.a(language_c_libc_startup_mainthread.o)
 .text          0x000076ac        0x0 /home/masterzdran/WorkingArea/Isel/semestre6/SE2/workplace/code/src/eCos/lib/libtarget.a(language_c_libc_stdio_printf.o)
 .text.printf   0x000076ac       0x38 /home/masterzdran/WorkingArea/Isel/semestre6/SE2/workplace/code/src/eCos/lib/libtarget.a(language_c_libc_stdio_printf.o)
                0x000076ac                printf
 .text          0x000076e4        0x0 /home/masterzdran/WorkingArea/Isel/semestre6/SE2/workplace/code/src/eCos/lib/libtarget.a(language_c_libc_stdio_vfnprintf.o)
 .text._ZL5rounddPiPcS0_cS0_
                0x000076e4      0x12c /home/masterzdran/WorkingArea/Isel/semestre6/SE2/workplace/code/src/eCos/lib/libtarget.a(language_c_libc_stdio_vfnprintf.o)
 .text.vfnprintf
                0x00007810     0x1fd0 /home/masterzdran/WorkingArea/Isel/semestre6/SE2/workplace/code/src/eCos/lib/libtarget.a(language_c_libc_stdio_vfnprintf.o)
                0x00007810                vfnprintf
 .text          0x000097e0        0x0 /home/masterzdran/WorkingArea/Isel/semestre6/SE2/workplace/code/src/eCos/lib/libtarget.a(language_c_libc_string_memchr.o)
 .text.__memchr
                0x000097e0      0x14c /home/masterzdran/WorkingArea/Isel/semestre6/SE2/workplace/code/src/eCos/lib/libtarget.a(language_c_libc_string_memchr.o)
                0x000097e0                memchr
                0x000097e0                __memchr
 .text          0x0000992c        0x0 /home/masterzdran/WorkingArea/Isel/semestre6/SE2/workplace/code/src/eCos/lib/libtarget.a(language_c_libc_string_strlen.o)
 .text.__strlen
                0x0000992c       0xb0 /home/masterzdran/WorkingArea/Isel/semestre6/SE2/workplace/code/src/eCos/lib/libtarget.a(language_c_libc_string_strlen.o)
                0x0000992c                __strlen
                0x0000992c                strlen
 .text          0x000099dc        0x0 /home/masterzdran/WorkingArea/Isel/semestre6/SE2/workplace/code/src/eCos/lib/libtarget.a(language_c_libc_string_strsuppt.o)
 .text          0x000099dc        0x0 /home/masterzdran/WorkingArea/Isel/semestre6/SE2/workplace/code/src/eCos/lib/libtarget.a(language_c_libm_s_modf.o)
 .text.modf     0x000099dc      0x104 /home/masterzdran/WorkingArea/Isel/semestre6/SE2/workplace/code/src/eCos/lib/libtarget.a(language_c_libm_s_modf.o)
                0x000099dc                modf
 .text          0x00009ae0        0x0 /home/masterzdran/WorkingArea/Isel/semestre6/SE2/workplace/code/src/eCos/lib/libtarget.a(hal_arm_arch_hal_misc.o)
 .text.hal_spurious_IRQ
                0x00009ae0        0x4 /home/masterzdran/WorkingArea/Isel/semestre6/SE2/workplace/code/src/eCos/lib/libtarget.a(hal_arm_arch_hal_misc.o)
                0x00009ae0                hal_spurious_IRQ
 .text.cyg_hal_invoke_constructors
                0x00009ae4       0x40 /home/masterzdran/WorkingArea/Isel/semestre6/SE2/workplace/code/src/eCos/lib/libtarget.a(hal_arm_arch_hal_misc.o)
                0x00009ae4                cyg_hal_invoke_constructors
 .text.hal_arch_default_isr
                0x00009b24        0x8 /home/masterzdran/WorkingArea/Isel/semestre6/SE2/workplace/code/src/eCos/lib/libtarget.a(hal_arm_arch_hal_misc.o)
                0x00009b24                hal_arch_default_isr
 .text.hal_lsbindex
                0x00009b2c       0x28 /home/masterzdran/WorkingArea/Isel/semestre6/SE2/workplace/code/src/eCos/lib/libtarget.a(hal_arm_arch_hal_misc.o)
                0x00009b2c                hal_lsbindex
 .text.hal_msbindex
                0x00009b54       0x20 /home/masterzdran/WorkingArea/Isel/semestre6/SE2/workplace/code/src/eCos/lib/libtarget.a(hal_arm_arch_hal_misc.o)
                0x00009b54                hal_msbindex
 .text.exception_handler
                0x00009b74        0xc /home/masterzdran/WorkingArea/Isel/semestre6/SE2/workplace/code/src/eCos/lib/libtarget.a(hal_arm_arch_hal_misc.o)
                0x00009b74                exception_handler
 .text          0x00009b80       0x54 /home/masterzdran/WorkingArea/Isel/semestre6/SE2/workplace/code/src/eCos/lib/libtarget.a(hal_arm_arch_context.o)
                0x00009bbc                hal_setjmp
                0x00009b9c                hal_thread_load_context
                0x00009b80                hal_thread_switch_context
                0x00009bc8                hal_longjmp
 .text          0x00009bd4        0x0 /home/masterzdran/WorkingArea/Isel/semestre6/SE2/workplace/code/src/eCos/lib/libtarget.a(hal_arm_lpc2xxx_var_lpc2xxx_misc.o)
 .text.hal_clock_initialize
                0x00009bd4       0x34 /home/masterzdran/WorkingArea/Isel/semestre6/SE2/workplace/code/src/eCos/lib/libtarget.a(hal_arm_lpc2xxx_var_lpc2xxx_misc.o)
                0x00009bd4                hal_clock_initialize
 .text.hal_clock_reset
                0x00009c08       0x40 /home/masterzdran/WorkingArea/Isel/semestre6/SE2/workplace/code/src/eCos/lib/libtarget.a(hal_arm_lpc2xxx_var_lpc2xxx_misc.o)
                0x00009c08                hal_clock_reset
 .text.hal_clock_read
                0x00009c48       0x14 /home/masterzdran/WorkingArea/Isel/semestre6/SE2/workplace/code/src/eCos/lib/libtarget.a(hal_arm_lpc2xxx_var_lpc2xxx_misc.o)
                0x00009c48                hal_clock_read
 .text.hal_delay_us
                0x00009c5c       0x80 /home/masterzdran/WorkingArea/Isel/semestre6/SE2/workplace/code/src/eCos/lib/libtarget.a(hal_arm_lpc2xxx_var_lpc2xxx_misc.o)
                0x00009c5c                hal_delay_us
 .text.lpc_get_vpbdiv
                0x00009cdc       0x14 /home/masterzdran/WorkingArea/Isel/semestre6/SE2/workplace/code/src/eCos/lib/libtarget.a(hal_arm_lpc2xxx_var_lpc2xxx_misc.o)
                0x00009cdc                lpc_get_vpbdiv
 .text.lpc_set_vpbdiv
                0x00009cf0       0x14 /home/masterzdran/WorkingArea/Isel/semestre6/SE2/workplace/code/src/eCos/lib/libtarget.a(hal_arm_lpc2xxx_var_lpc2xxx_misc.o)
                0x00009cf0                lpc_set_vpbdiv
 .text.hal_IRQ_handler
                0x00009d04       0x44 /home/masterzdran/WorkingArea/Isel/semestre6/SE2/workplace/code/src/eCos/lib/libtarget.a(hal_arm_lpc2xxx_var_lpc2xxx_misc.o)
                0x00009d04                hal_IRQ_handler
 .text.hal_interrupt_mask
                0x00009d48       0x14 /home/masterzdran/WorkingArea/Isel/semestre6/SE2/workplace/code/src/eCos/lib/libtarget.a(hal_arm_lpc2xxx_var_lpc2xxx_misc.o)
                0x00009d48                hal_interrupt_mask
 .text.hal_interrupt_unmask
                0x00009d5c       0x14 /home/masterzdran/WorkingArea/Isel/semestre6/SE2/workplace/code/src/eCos/lib/libtarget.a(hal_arm_lpc2xxx_var_lpc2xxx_misc.o)
                0x00009d5c                hal_interrupt_unmask
 .text.hal_interrupt_acknowledge
                0x00009d70       0x2c /home/masterzdran/WorkingArea/Isel/semestre6/SE2/workplace/code/src/eCos/lib/libtarget.a(hal_arm_lpc2xxx_var_lpc2xxx_misc.o)
                0x00009d70                hal_interrupt_acknowledge
 .text.hal_interrupt_configure
                0x00009d9c       0x8c /home/masterzdran/WorkingArea/Isel/semestre6/SE2/workplace/code/src/eCos/lib/libtarget.a(hal_arm_lpc2xxx_var_lpc2xxx_misc.o)
                0x00009d9c                hal_interrupt_configure
 .text.hal_interrupt_set_level
                0x00009e28       0x1c /home/masterzdran/WorkingArea/Isel/semestre6/SE2/workplace/code/src/eCos/lib/libtarget.a(hal_arm_lpc2xxx_var_lpc2xxx_misc.o)
                0x00009e28                hal_interrupt_set_level
 .text.hal_lpc_watchdog_reset
                0x00009e44       0x28 /home/masterzdran/WorkingArea/Isel/semestre6/SE2/workplace/code/src/eCos/lib/libtarget.a(hal_arm_lpc2xxx_var_lpc2xxx_misc.o)
                0x00009e44                hal_lpc_watchdog_reset
 .text.hal_hardware_init
                0x00009e6c       0x1c /home/masterzdran/WorkingArea/Isel/semestre6/SE2/workplace/code/src/eCos/lib/libtarget.a(hal_arm_lpc2xxx_var_lpc2xxx_misc.o)
                0x00009e6c                hal_hardware_init
 .text          0x00009e88        0x0 /home/masterzdran/WorkingArea/Isel/semestre6/SE2/workplace/code/src/eCos/lib/libtarget.a(hal_arm_lpc2xxx_p2106_p2106_misc.o)
 .text.hal_lpc2xxx_set_leds
                0x00009e88       0x1c /home/masterzdran/WorkingArea/Isel/semestre6/SE2/workplace/code/src/eCos/lib/libtarget.a(hal_arm_lpc2xxx_p2106_p2106_misc.o)
                0x00009e88                hal_lpc2xxx_set_leds
 .text.cyg_hal_plf_comms_init
                0x00009ea4       0x20 /home/masterzdran/WorkingArea/Isel/semestre6/SE2/workplace/code/src/eCos/lib/libtarget.a(hal_arm_lpc2xxx_p2106_p2106_misc.o)
                0x00009ea4                cyg_hal_plf_comms_init
 .text          0x00009ec4        0x0 /home/masterzdran/WorkingArea/Isel/semestre6/SE2/workplace/code/src/eCos/lib/libtarget.a(kernel_clock.o)
 .text._ZN11Cyg_CounterC2Ej
                0x00009ec4       0x28 /home/masterzdran/WorkingArea/Isel/semestre6/SE2/workplace/code/src/eCos/lib/libtarget.a(kernel_clock.o)
                0x00009ec4                _ZN11Cyg_CounterC2Ej
 .text._ZN11Cyg_CounterC1Ej
                0x00009eec       0x28 /home/masterzdran/WorkingArea/Isel/semestre6/SE2/workplace/code/src/eCos/lib/libtarget.a(kernel_clock.o)
                0x00009eec                _ZN11Cyg_CounterC1Ej
 .text._ZN11Cyg_CounterD2Ev
                0x00009f14       0x40 /home/masterzdran/WorkingArea/Isel/semestre6/SE2/workplace/code/src/eCos/lib/libtarget.a(kernel_clock.o)
                0x00009f14                _ZN11Cyg_CounterD2Ev
 .text._ZN11Cyg_CounterD1Ev
                0x00009f54       0x40 /home/masterzdran/WorkingArea/Isel/semestre6/SE2/workplace/code/src/eCos/lib/libtarget.a(kernel_clock.o)
                0x00009f54                _ZN11Cyg_CounterD1Ev
 .text._ZN11Cyg_Counter9rem_alarmEP9Cyg_Alarm
                0x00009f94       0x78 /home/masterzdran/WorkingArea/Isel/semestre6/SE2/workplace/code/src/eCos/lib/libtarget.a(kernel_clock.o)
                0x00009f94                _ZN11Cyg_Counter9rem_alarmEP9Cyg_Alarm
 .text._ZN9Cyg_ClockC2ENS_14cyg_resolutionE
                0x0000a00c       0x48 /home/masterzdran/WorkingArea/Isel/semestre6/SE2/workplace/code/src/eCos/lib/libtarget.a(kernel_clock.o)
                0x0000a00c                _ZN9Cyg_ClockC2ENS_14cyg_resolutionE
 .text._ZN9Cyg_ClockC1ENS_14cyg_resolutionE
                0x0000a054       0x48 /home/masterzdran/WorkingArea/Isel/semestre6/SE2/workplace/code/src/eCos/lib/libtarget.a(kernel_clock.o)
                0x0000a054                _ZN9Cyg_ClockC1ENS_14cyg_resolutionE
 .text._ZN9Cyg_ClockD2Ev
                0x0000a09c       0x40 /home/masterzdran/WorkingArea/Isel/semestre6/SE2/workplace/code/src/eCos/lib/libtarget.a(kernel_clock.o)
                0x0000a09c                _ZN9Cyg_ClockD2Ev
 .text._ZN9Cyg_ClockD1Ev
                0x0000a0dc       0x40 /home/masterzdran/WorkingArea/Isel/semestre6/SE2/workplace/code/src/eCos/lib/libtarget.a(kernel_clock.o)
                0x0000a0dc                _ZN9Cyg_ClockD1Ev
 .text._ZL19construct_converterPN9Cyg_Clock9converterEyyyy
                0x0000a11c      0x958 /home/masterzdran/WorkingArea/Isel/semestre6/SE2/workplace/code/src/eCos/lib/libtarget.a(kernel_clock.o)
 .text._ZN9Cyg_Clock28get_other_to_clock_converterEyPNS_9converterE
                0x0000aa74       0x40 /home/masterzdran/WorkingArea/Isel/semestre6/SE2/workplace/code/src/eCos/lib/libtarget.a(kernel_clock.o)
                0x0000aa74                _ZN9Cyg_Clock28get_other_to_clock_converterEyPNS_9converterE
 .text._ZN9Cyg_Clock28get_clock_to_other_converterEyPNS_9converterE
                0x0000aab4       0x40 /home/masterzdran/WorkingArea/Isel/semestre6/SE2/workplace/code/src/eCos/lib/libtarget.a(kernel_clock.o)
                0x0000aab4                _ZN9Cyg_Clock28get_clock_to_other_converterEyPNS_9converterE
 .text._ZN9Cyg_AlarmC2EP11Cyg_CounterPFvPS_jEj
                0x0000aaf4       0x44 /home/masterzdran/WorkingArea/Isel/semestre6/SE2/workplace/code/src/eCos/lib/libtarget.a(kernel_clock.o)
                0x0000aaf4                _ZN9Cyg_AlarmC2EP11Cyg_CounterPFvPS_jEj
 .text._ZN9Cyg_AlarmC1EP11Cyg_CounterPFvPS_jEj
                0x0000ab38       0x44 /home/masterzdran/WorkingArea/Isel/semestre6/SE2/workplace/code/src/eCos/lib/libtarget.a(kernel_clock.o)
                0x0000ab38                _ZN9Cyg_AlarmC1EP11Cyg_CounterPFvPS_jEj
 .text._ZN9Cyg_AlarmC2Ev
                0x0000ab7c       0x10 /home/masterzdran/WorkingArea/Isel/semestre6/SE2/workplace/code/src/eCos/lib/libtarget.a(kernel_clock.o)
                0x0000ab7c                _ZN9Cyg_AlarmC2Ev
 .text._ZN9Cyg_AlarmC1Ev
                0x0000ab8c       0x10 /home/masterzdran/WorkingArea/Isel/semestre6/SE2/workplace/code/src/eCos/lib/libtarget.a(kernel_clock.o)
                0x0000ab8c                _ZN9Cyg_AlarmC1Ev
 .text._ZN9Cyg_Alarm11synchronizeEv
                0x0000ab9c       0x9c /home/masterzdran/WorkingArea/Isel/semestre6/SE2/workplace/code/src/eCos/lib/libtarget.a(kernel_clock.o)
                0x0000ab9c                _ZN9Cyg_Alarm11synchronizeEv
 .text._ZN11Cyg_Counter9add_alarmEP9Cyg_Alarm
                0x0000ac38       0xbc /home/masterzdran/WorkingArea/Isel/semestre6/SE2/workplace/code/src/eCos/lib/libtarget.a(kernel_clock.o)
                0x0000ac38                _ZN11Cyg_Counter9add_alarmEP9Cyg_Alarm
 .text._ZN17Cyg_RealTimeClock3isrEjj
                0x0000acf4       0x28 /home/masterzdran/WorkingArea/Isel/semestre6/SE2/workplace/code/src/eCos/lib/libtarget.a(kernel_clock.o)
                0x0000acf4                _ZN17Cyg_RealTimeClock3isrEjj
 .text._ZN17Cyg_RealTimeClockC1Ev
                0x0000ad1c       0xa4 /home/masterzdran/WorkingArea/Isel/semestre6/SE2/workplace/code/src/eCos/lib/libtarget.a(kernel_clock.o)
                0x0000ad1c                _ZN17Cyg_RealTimeClockC1Ev
 .text._Z41__static_initialization_and_destruction_0ii
                0x0000adc0       0xa4 /home/masterzdran/WorkingArea/Isel/semestre6/SE2/workplace/code/src/eCos/lib/libtarget.a(kernel_clock.o)
 .text._GLOBAL__D.14000__ZN9Cyg_Clock15real_time_clockE
                0x0000ae64       0x10 /home/masterzdran/WorkingArea/Isel/semestre6/SE2/workplace/code/src/eCos/lib/libtarget.a(kernel_clock.o)
 .text._GLOBAL__I.14000__ZN9Cyg_Clock15real_time_clockE
                0x0000ae74       0x10 /home/masterzdran/WorkingArea/Isel/semestre6/SE2/workplace/code/src/eCos/lib/libtarget.a(kernel_clock.o)
 .text._ZN17Cyg_RealTimeClockC2Ev
                0x0000ae84       0xa4 /home/masterzdran/WorkingArea/Isel/semestre6/SE2/workplace/code/src/eCos/lib/libtarget.a(kernel_clock.o)
                0x0000ae84                _ZN17Cyg_RealTimeClockC2Ev
 .text._ZN9Cyg_Alarm10initializeEyy
                0x0000af28       0x7c /home/masterzdran/WorkingArea/Isel/semestre6/SE2/workplace/code/src/eCos/lib/libtarget.a(kernel_clock.o)
                0x0000af28                _ZN9Cyg_Alarm10initializeEyy
 .text._ZN11Cyg_Counter4tickEj
                0x0000afa4      0x164 /home/masterzdran/WorkingArea/Isel/semestre6/SE2/workplace/code/src/eCos/lib/libtarget.a(kernel_clock.o)
                0x0000afa4                _ZN11Cyg_Counter4tickEj
 .text._ZN17Cyg_RealTimeClock3dsrEjjj
                0x0000b108       0x24 /home/masterzdran/WorkingArea/Isel/semestre6/SE2/workplace/code/src/eCos/lib/libtarget.a(kernel_clock.o)
                0x0000b108                _ZN17Cyg_RealTimeClock3dsrEjjj
 .text._ZN9Cyg_Alarm9get_timesEPyS0_
                0x0000b12c       0x58 /home/masterzdran/WorkingArea/Isel/semestre6/SE2/workplace/code/src/eCos/lib/libtarget.a(kernel_clock.o)
                0x0000b12c                _ZN9Cyg_Alarm9get_timesEPyS0_
 .text._ZN9Cyg_Alarm7disableEv
                0x0000b184       0x4c /home/masterzdran/WorkingArea/Isel/semestre6/SE2/workplace/code/src/eCos/lib/libtarget.a(kernel_clock.o)
                0x0000b184                _ZN9Cyg_Alarm7disableEv
 .text._ZN9Cyg_AlarmD1Ev
                0x0000b1d0       0x38 /home/masterzdran/WorkingArea/Isel/semestre6/SE2/workplace/code/src/eCos/lib/libtarget.a(kernel_clock.o)
                0x0000b1d0                _ZN9Cyg_AlarmD1Ev
 .text._ZN9Cyg_AlarmD2Ev
                0x0000b208       0x38 /home/masterzdran/WorkingArea/Isel/semestre6/SE2/workplace/code/src/eCos/lib/libtarget.a(kernel_clock.o)
                0x0000b208                _ZN9Cyg_AlarmD2Ev
 .text._ZN9Cyg_Alarm6enableEv
                0x0000b240       0x68 /home/masterzdran/WorkingArea/Isel/semestre6/SE2/workplace/code/src/eCos/lib/libtarget.a(kernel_clock.o)
                0x0000b240                _ZN9Cyg_Alarm6enableEv
 .text          0x0000b2a8        0x0 /home/masterzdran/WorkingArea/Isel/semestre6/SE2/workplace/code/src/eCos/lib/libtarget.a(language_c_libc_startup_invokemain.o)
 .text.cyg_libc_invoke_main
                0x0000b2a8       0x28 /home/masterzdran/WorkingArea/Isel/semestre6/SE2/workplace/code/src/eCos/lib/libtarget.a(language_c_libc_startup_invokemain.o)
                0x0000b2a8                cyg_libc_invoke_main
 .text          0x0000b2d0        0x0 /home/masterzdran/WorkingArea/Isel/semestre6/SE2/workplace/code/src/eCos/lib/libtarget.a(language_c_libc_stdio_stdout.o)
 .text._Z41__static_initialization_and_destruction_0ii
                0x0000b2d0      0x130 /home/masterzdran/WorkingArea/Isel/semestre6/SE2/workplace/code/src/eCos/lib/libtarget.a(language_c_libc_stdio_stdout.o)
 .text._GLOBAL__D.56001_cyg_libc_stdio_stdout
                0x0000b400       0x10 /home/masterzdran/WorkingArea/Isel/semestre6/SE2/workplace/code/src/eCos/lib/libtarget.a(language_c_libc_stdio_stdout.o)
 .text._GLOBAL__I.56001_cyg_libc_stdio_stdout
                0x0000b410       0x10 /home/masterzdran/WorkingArea/Isel/semestre6/SE2/workplace/code/src/eCos/lib/libtarget.a(language_c_libc_stdio_stdout.o)
 .text          0x0000b420        0x0 /home/masterzdran/WorkingArea/Isel/semestre6/SE2/workplace/code/src/eCos/lib/libtarget.a(language_c_libc_stdio_stream.o)
 .text._ZN16Cyg_OutputStreamD1Ev
                0x0000b420       0x10 /home/masterzdran/WorkingArea/Isel/semestre6/SE2/workplace/code/src/eCos/lib/libtarget.a(language_c_libc_stdio_stream.o)
                0x0000b420                _ZN16Cyg_OutputStreamD1Ev
 .text._ZN16Cyg_OutputStream5writeEPKhjPj
                0x0000b430        0x8 /home/masterzdran/WorkingArea/Isel/semestre6/SE2/workplace/code/src/eCos/lib/libtarget.a(language_c_libc_stdio_stream.o)
                0x0000b430                _ZN16Cyg_OutputStream5writeEPKhjPj
 .text._ZN16Cyg_OutputStream9get_errorEv
                0x0000b438        0x8 /home/masterzdran/WorkingArea/Isel/semestre6/SE2/workplace/code/src/eCos/lib/libtarget.a(language_c_libc_stdio_stream.o)
                0x0000b438                _ZN16Cyg_OutputStream9get_errorEv
 .text._ZN16Cyg_OutputStreamD0Ev
                0x0000b440       0x20 /home/masterzdran/WorkingArea/Isel/semestre6/SE2/workplace/code/src/eCos/lib/libtarget.a(language_c_libc_stdio_stream.o)
                0x0000b440                _ZN16Cyg_OutputStreamD0Ev
 .text._ZN15Cyg_StdioStream9get_errorEv
                0x0000b460       0x38 /home/masterzdran/WorkingArea/Isel/semestre6/SE2/workplace/code/src/eCos/lib/libtarget.a(language_c_libc_stdio_stream.o)
                0x0000b460                _ZN15Cyg_StdioStream9get_errorEv
 .text._ZN15Cyg_StdioStream21flush_output_unlockedEv
                0x0000b498       0x8c /home/masterzdran/WorkingArea/Isel/semestre6/SE2/workplace/code/src/eCos/lib/libtarget.a(language_c_libc_stdio_stream.o)
                0x0000b498                _ZN15Cyg_StdioStream21flush_output_unlockedEv
 .text._ZN15Cyg_StdioStreamD0Ev
                0x0000b524       0xa8 /home/masterzdran/WorkingArea/Isel/semestre6/SE2/workplace/code/src/eCos/lib/libtarget.a(language_c_libc_stdio_stream.o)
                0x0000b524                _ZN15Cyg_StdioStreamD0Ev
 .text._ZN15Cyg_StdioStream5writeEPKhjPj
                0x0000b5cc      0x1e8 /home/masterzdran/WorkingArea/Isel/semestre6/SE2/workplace/code/src/eCos/lib/libtarget.a(language_c_libc_stdio_stream.o)
                0x0000b5cc                _ZN15Cyg_StdioStream5writeEPKhjPj
 .text._ZN15Cyg_StdioStream9peek_byteEPh
                0x0000b7b4       0xf0 /home/masterzdran/WorkingArea/Isel/semestre6/SE2/workplace/code/src/eCos/lib/libtarget.a(language_c_libc_stdio_stream.o)
                0x0000b7b4                _ZN15Cyg_StdioStream9peek_byteEPh
 .text._ZN15Cyg_StdioStream9read_byteEPh
                0x0000b8a4      0x148 /home/masterzdran/WorkingArea/Isel/semestre6/SE2/workplace/code/src/eCos/lib/libtarget.a(language_c_libc_stdio_stream.o)
                0x0000b8a4                _ZN15Cyg_StdioStream9read_byteEPh
 .text._ZN15Cyg_StdioStream4readEPhjPj
                0x0000b9ec      0x1d4 /home/masterzdran/WorkingArea/Isel/semestre6/SE2/workplace/code/src/eCos/lib/libtarget.a(language_c_libc_stdio_stream.o)
                0x0000b9ec                _ZN15Cyg_StdioStream4readEPhjPj
 .text._ZN15Cyg_StdioStream18refill_read_bufferEv
                0x0000bbc0      0x150 /home/masterzdran/WorkingArea/Isel/semestre6/SE2/workplace/code/src/eCos/lib/libtarget.a(language_c_libc_stdio_stream.o)
                0x0000bbc0                _ZN15Cyg_StdioStream18refill_read_bufferEv
 .text._ZN15Cyg_StdioStream10initializeEPvNS_8OpenModeEiiijPh
                0x0000bd10      0x184 /home/masterzdran/WorkingArea/Isel/semestre6/SE2/workplace/code/src/eCos/lib/libtarget.a(language_c_libc_stdio_stream.o)
                0x0000bd10                _ZN15Cyg_StdioStream10initializeEPvNS_8OpenModeEiiijPh
 .text._ZN15Cyg_StdioStreamC1ENS_8OpenModeEjPh
                0x0000be94       0xb8 /home/masterzdran/WorkingArea/Isel/semestre6/SE2/workplace/code/src/eCos/lib/libtarget.a(language_c_libc_stdio_stream.o)
                0x0000be94                _ZN15Cyg_StdioStreamC1ENS_8OpenModeEjPh
 .text._ZN15Cyg_StdioStreamC2ENS_8OpenModeEjPh
                0x0000bf4c       0xb8 /home/masterzdran/WorkingArea/Isel/semestre6/SE2/workplace/code/src/eCos/lib/libtarget.a(language_c_libc_stdio_stream.o)
                0x0000bf4c                _ZN15Cyg_StdioStreamC2ENS_8OpenModeEjPh
 .text._ZN15Cyg_StdioStreamC1EPvNS_8OpenModeEiiijPh
                0x0000c004       0x8c /home/masterzdran/WorkingArea/Isel/semestre6/SE2/workplace/code/src/eCos/lib/libtarget.a(language_c_libc_stdio_stream.o)
                0x0000c004                _ZN15Cyg_StdioStreamC1EPvNS_8OpenModeEiiijPh
 .text._ZN15Cyg_StdioStreamC2EPvNS_8OpenModeEiiijPh
                0x0000c090       0x8c /home/masterzdran/WorkingArea/Isel/semestre6/SE2/workplace/code/src/eCos/lib/libtarget.a(language_c_libc_stdio_stream.o)
                0x0000c090                _ZN15Cyg_StdioStreamC2EPvNS_8OpenModeEiiijPh
 .text._ZN15Cyg_StdioStreamD1Ev
                0x0000c11c       0xa0 /home/masterzdran/WorkingArea/Isel/semestre6/SE2/workplace/code/src/eCos/lib/libtarget.a(language_c_libc_stdio_stream.o)
                0x0000c11c                _ZN15Cyg_StdioStreamD1Ev
 .text          0x0000c1bc        0x0 /home/masterzdran/WorkingArea/Isel/semestre6/SE2/workplace/code/src/eCos/lib/libtarget.a(language_c_libc_stdio_streambuf.o)
 .text._ZN21Cyg_StdioStreamBuffer10set_bufferEjPh
                0x0000c1bc       0x94 /home/masterzdran/WorkingArea/Isel/semestre6/SE2/workplace/code/src/eCos/lib/libtarget.a(language_c_libc_stdio_streambuf.o)
                0x0000c1bc                _ZN21Cyg_StdioStreamBuffer10set_bufferEjPh
 .text          0x0000c250        0x0 /home/masterzdran/WorkingArea/Isel/semestre6/SE2/workplace/code/src/eCos/lib/libtarget.a(hal_arm_lpc2xxx_var_hal_diag.o)
 .text.cyg_hal_plf_serial_putc
                0x0000c250       0x1c /home/masterzdran/WorkingArea/Isel/semestre6/SE2/workplace/code/src/eCos/lib/libtarget.a(hal_arm_lpc2xxx_var_hal_diag.o)
                0x0000c250                cyg_hal_plf_serial_putc
 .text.cyg_hal_plf_serial_getc
                0x0000c26c       0x20 /home/masterzdran/WorkingArea/Isel/semestre6/SE2/workplace/code/src/eCos/lib/libtarget.a(hal_arm_lpc2xxx_var_hal_diag.o)
                0x0000c26c                cyg_hal_plf_serial_getc
 .text.cyg_hal_plf_serial_write
                0x0000c28c       0x44 /home/masterzdran/WorkingArea/Isel/semestre6/SE2/workplace/code/src/eCos/lib/libtarget.a(hal_arm_lpc2xxx_var_hal_diag.o)
 .text.cyg_hal_plf_serial_read
                0x0000c2d0       0x48 /home/masterzdran/WorkingArea/Isel/semestre6/SE2/workplace/code/src/eCos/lib/libtarget.a(hal_arm_lpc2xxx_var_hal_diag.o)
 .text.cyg_hal_plf_serial_getc_timeout
                0x0000c318       0x84 /home/masterzdran/WorkingArea/Isel/semestre6/SE2/workplace/code/src/eCos/lib/libtarget.a(hal_arm_lpc2xxx_var_hal_diag.o)
                0x0000c318                cyg_hal_plf_serial_getc_timeout
 .text.cyg_hal_plf_serial_init
                0x0000c39c       0xec /home/masterzdran/WorkingArea/Isel/semestre6/SE2/workplace/code/src/eCos/lib/libtarget.a(hal_arm_lpc2xxx_var_hal_diag.o)
                0x0000c39c                cyg_hal_plf_serial_init
 .text.hal_diag_led
                0x0000c488        0x4 /home/masterzdran/WorkingArea/Isel/semestre6/SE2/workplace/code/src/eCos/lib/libtarget.a(hal_arm_lpc2xxx_var_hal_diag.o)
                0x0000c488                hal_diag_led
 .text.cyg_hal_plf_serial_isr
                0x0000c48c       0x70 /home/masterzdran/WorkingArea/Isel/semestre6/SE2/workplace/code/src/eCos/lib/libtarget.a(hal_arm_lpc2xxx_var_hal_diag.o)
 .text.cyg_hal_plf_serial_control
                0x0000c4fc      0x108 /home/masterzdran/WorkingArea/Isel/semestre6/SE2/workplace/code/src/eCos/lib/libtarget.a(hal_arm_lpc2xxx_var_hal_diag.o)
 .text          0x0000c604        0x0 /home/masterzdran/WorkingArea/Isel/semestre6/SE2/workplace/code/src/eCos/lib/libtarget.a(infra_memcpy.o)
 .text._memcpy  0x0000c604      0x118 /home/masterzdran/WorkingArea/Isel/semestre6/SE2/workplace/code/src/eCos/lib/libtarget.a(infra_memcpy.o)
                0x0000c604                memcpy
                0x0000c604                _memcpy
 .text          0x0000c71c        0x0 /home/masterzdran/WorkingArea/Isel/semestre6/SE2/workplace/code/src/eCos/lib/libtarget.a(infra_delete.o)
 .text._ZdlPv   0x0000c71c        0x4 /home/masterzdran/WorkingArea/Isel/semestre6/SE2/workplace/code/src/eCos/lib/libtarget.a(infra_delete.o)
                0x0000c71c                _ZdlPv
 .text._ZdaPv   0x0000c720        0x4 /home/masterzdran/WorkingArea/Isel/semestre6/SE2/workplace/code/src/eCos/lib/libtarget.a(infra_delete.o)
                0x0000c720                _ZdaPv
 .text          0x0000c724        0x0 /home/masterzdran/WorkingArea/Isel/semestre6/SE2/workplace/code/src/eCos/lib/libtarget.a(services_memalloc_common_malloc.o)
 .text.free     0x0000c724      0x11c /home/masterzdran/WorkingArea/Isel/semestre6/SE2/workplace/code/src/eCos/lib/libtarget.a(services_memalloc_common_malloc.o)
                0x0000c724                free
 .text.malloc   0x0000c840       0x58 /home/masterzdran/WorkingArea/Isel/semestre6/SE2/workplace/code/src/eCos/lib/libtarget.a(services_memalloc_common_malloc.o)
                0x0000c840                malloc
 .text.calloc   0x0000c898       0x30 /home/masterzdran/WorkingArea/Isel/semestre6/SE2/workplace/code/src/eCos/lib/libtarget.a(services_memalloc_common_malloc.o)
                0x0000c898                calloc
 .text.mallinfo
                0x0000c8c8      0x100 /home/masterzdran/WorkingArea/Isel/semestre6/SE2/workplace/code/src/eCos/lib/libtarget.a(services_memalloc_common_malloc.o)
                0x0000c8c8                mallinfo
 .text.realloc  0x0000c9c8       0xc8 /home/masterzdran/WorkingArea/Isel/semestre6/SE2/workplace/code/src/eCos/lib/libtarget.a(services_memalloc_common_malloc.o)
                0x0000c9c8                realloc
 .text          0x0000ca90        0x0 /home/masterzdran/WorkingArea/Isel/semestre6/SE2/workplace/code/src/eCos/lib/libtarget.a(services_memalloc_common_heaps.o)
 .text._Z41__static_initialization_and_destruction_0ii
                0x0000ca90      0x128 /home/masterzdran/WorkingArea/Isel/semestre6/SE2/workplace/code/src/eCos/lib/libtarget.a(services_memalloc_common_heaps.o)
 .text._GLOBAL__D.19900_cygmem_pool_heap1
                0x0000cbb8       0x10 /home/masterzdran/WorkingArea/Isel/semestre6/SE2/workplace/code/src/eCos/lib/libtarget.a(services_memalloc_common_heaps.o)
 .text._GLOBAL__I.19900_cygmem_pool_heap1
                0x0000cbc8       0x10 /home/masterzdran/WorkingArea/Isel/semestre6/SE2/workplace/code/src/eCos/lib/libtarget.a(services_memalloc_common_heaps.o)
 .text          0x0000cbd8        0x0 /home/masterzdran/WorkingArea/Isel/semestre6/SE2/workplace/code/src/eCos/lib/libtarget.a(language_c_libc_startup_exit.o)
 .text.exit     0x0000cbd8       0x18 /home/masterzdran/WorkingArea/Isel/semestre6/SE2/workplace/code/src/eCos/lib/libtarget.a(language_c_libc_startup_exit.o)
                0x0000cbd8                exit
 .text          0x0000cbf0        0x0 /home/masterzdran/WorkingArea/Isel/semestre6/SE2/workplace/code/src/eCos/lib/libtarget.a(language_c_libc_stdio_fflush.o)
 .text.cyg_libc_stdio_flush_all_but
                0x0000cbf0      0x180 /home/masterzdran/WorkingArea/Isel/semestre6/SE2/workplace/code/src/eCos/lib/libtarget.a(language_c_libc_stdio_fflush.o)
                0x0000cbf0                cyg_libc_stdio_flush_all_but
 .text.fflush   0x0000cd70       0x6c /home/masterzdran/WorkingArea/Isel/semestre6/SE2/workplace/code/src/eCos/lib/libtarget.a(language_c_libc_stdio_fflush.o)
                0x0000cd70                fflush
 .text          0x0000cddc        0x0 /home/masterzdran/WorkingArea/Isel/semestre6/SE2/workplace/code/src/eCos/lib/libtarget.a(language_c_libc_stdio_stdiofiles.o)
 .text._Z41__static_initialization_and_destruction_0ii
                0x0000cddc       0x44 /home/masterzdran/WorkingArea/Isel/semestre6/SE2/workplace/code/src/eCos/lib/libtarget.a(language_c_libc_stdio_stdiofiles.o)
 .text._GLOBAL__D.56000__ZN20Cyg_libc_stdio_files5filesE
                0x0000ce20       0x10 /home/masterzdran/WorkingArea/Isel/semestre6/SE2/workplace/code/src/eCos/lib/libtarget.a(language_c_libc_stdio_stdiofiles.o)
 .text._GLOBAL__I.56000__ZN20Cyg_libc_stdio_files5filesE
                0x0000ce30       0x10 /home/masterzdran/WorkingArea/Isel/semestre6/SE2/workplace/code/src/eCos/lib/libtarget.a(language_c_libc_stdio_stdiofiles.o)
 .text          0x0000ce40        0x0 /home/masterzdran/WorkingArea/Isel/semestre6/SE2/workplace/code/src/eCos/lib/libtarget.a(language_c_libc_stdio_stdiosupp.o)
 .text.Cyg_libc_stdio_find_filename
                0x0000ce40       0x24 /home/masterzdran/WorkingArea/Isel/semestre6/SE2/workplace/code/src/eCos/lib/libtarget.a(language_c_libc_stdio_stdiosupp.o)
                0x0000ce40                Cyg_libc_stdio_find_filename
 .text          0x0000ce64        0x0 /home/masterzdran/WorkingArea/Isel/semestre6/SE2/workplace/code/src/eCos/lib/libtarget.a(error_errno.o)
 .text.cyg_error_get_errno_p
                0x0000ce64       0x18 /home/masterzdran/WorkingArea/Isel/semestre6/SE2/workplace/code/src/eCos/lib/libtarget.a(error_errno.o)
                0x0000ce64                cyg_error_get_errno_p
 .text          0x0000ce7c        0x0 /home/masterzdran/WorkingArea/Isel/semestre6/SE2/workplace/code/src/eCos/lib/libtarget.a(infra_memset.o)
 .text._memset  0x0000ce7c       0xf0 /home/masterzdran/WorkingArea/Isel/semestre6/SE2/workplace/code/src/eCos/lib/libtarget.a(infra_memset.o)
                0x0000ce7c                _memset
                0x0000ce7c                memset
 .text          0x0000cf6c        0x0 /home/masterzdran/WorkingArea/Isel/semestre6/SE2/workplace/code/src/eCos/lib/libtarget.a(services_memalloc_common_dlmalloc.o)
 .text._ZN35Cyg_Mempool_dlmalloc_ImplementationC2EPhij
                0x0000cf6c       0x88 /home/masterzdran/WorkingArea/Isel/semestre6/SE2/workplace/code/src/eCos/lib/libtarget.a(services_memalloc_common_dlmalloc.o)
                0x0000cf6c                _ZN35Cyg_Mempool_dlmalloc_ImplementationC2EPhij
 .text._ZN35Cyg_Mempool_dlmalloc_ImplementationC1EPhij
                0x0000cff4       0x88 /home/masterzdran/WorkingArea/Isel/semestre6/SE2/workplace/code/src/eCos/lib/libtarget.a(services_memalloc_common_dlmalloc.o)
                0x0000cff4                _ZN35Cyg_Mempool_dlmalloc_ImplementationC1EPhij
 .text._ZN35Cyg_Mempool_dlmalloc_Implementation9try_allocEi
                0x0000d07c      0x538 /home/masterzdran/WorkingArea/Isel/semestre6/SE2/workplace/code/src/eCos/lib/libtarget.a(services_memalloc_common_dlmalloc.o)
                0x0000d07c                _ZN35Cyg_Mempool_dlmalloc_Implementation9try_allocEi
 .text._ZN35Cyg_Mempool_dlmalloc_Implementation4freeEPhi
                0x0000d5b4      0x260 /home/masterzdran/WorkingArea/Isel/semestre6/SE2/workplace/code/src/eCos/lib/libtarget.a(services_memalloc_common_dlmalloc.o)
                0x0000d5b4                _ZN35Cyg_Mempool_dlmalloc_Implementation4freeEPhi
 .text._ZN35Cyg_Mempool_dlmalloc_Implementation10get_statusEtR18Cyg_Mempool_Status
                0x0000d814       0xd4 /home/masterzdran/WorkingArea/Isel/semestre6/SE2/workplace/code/src/eCos/lib/libtarget.a(services_memalloc_common_dlmalloc.o)
                0x0000d814                _ZN35Cyg_Mempool_dlmalloc_Implementation10get_statusEtR18Cyg_Mempool_Status
 .text._ZN35Cyg_Mempool_dlmalloc_Implementation12resize_allocEPhiPi
                0x0000d8e8      0x39c /home/masterzdran/WorkingArea/Isel/semestre6/SE2/workplace/code/src/eCos/lib/libtarget.a(services_memalloc_common_dlmalloc.o)
                0x0000d8e8                _ZN35Cyg_Mempool_dlmalloc_Implementation12resize_allocEPhiPi
 .text          0x0000dc84        0x0 /home/masterzdran/WorkingArea/Isel/semestre6/SE2/workplace/code/src/eCos/lib/libtarget.a(language_c_libc_startup__exit.o)
 .text._exit    0x0000dc84        0x8 /home/masterzdran/WorkingArea/Isel/semestre6/SE2/workplace/code/src/eCos/lib/libtarget.a(language_c_libc_startup__exit.o)
                0x0000dc84                _exit
 .text          0x0000dc8c        0x0 /home/masterzdran/WorkingArea/Isel/semestre6/SE2/workplace/code/src/eCos/lib/libtarget.a(language_c_libc_startup_atexit.o)
 .text.cyg_libc_invoke_atexit_handlers
                0x0000dc8c       0x4c /home/masterzdran/WorkingArea/Isel/semestre6/SE2/workplace/code/src/eCos/lib/libtarget.a(language_c_libc_startup_atexit.o)
                0x0000dc8c                cyg_libc_invoke_atexit_handlers
 .text.atexit   0x0000dcd8       0x30 /home/masterzdran/WorkingArea/Isel/semestre6/SE2/workplace/code/src/eCos/lib/libtarget.a(language_c_libc_startup_atexit.o)
                0x0000dcd8                atexit
 .text          0x0000dd08        0x0 /home/masterzdran/WorkingArea/Isel/semestre6/SE2/workplace/code/src/eCos/lib/libtarget.a(language_c_libc_string_memmove.o)
 .text.__memmove
                0x0000dd08       0x74 /home/masterzdran/WorkingArea/Isel/semestre6/SE2/workplace/code/src/eCos/lib/libtarget.a(language_c_libc_string_memmove.o)
                0x0000dd08                memmove
                0x0000dd08                __memmove
 .text          0x0000dd7c      0x144 /home/masterzdran/Applications/eCos/3.0/gnutools/arm-eabi/bin/../lib/gcc/arm-eabi/4.3.2/libgcc.a(_divsi3.o)
                0x0000dd7c                __aeabi_idiv
                0x0000dd7c                __divsi3
                0x0000dea8                __aeabi_idivmod
 .text          0x0000dec0        0x4 /home/masterzdran/Applications/eCos/3.0/gnutools/arm-eabi/bin/../lib/gcc/arm-eabi/4.3.2/libgcc.a(_dvmd_tls.o)
                0x0000dec0                __aeabi_ldiv0
                0x0000dec0                __div0
                0x0000dec0                __aeabi_idiv0
 .text          0x0000dec4      0x41c /home/masterzdran/Applications/eCos/3.0/gnutools/arm-eabi/bin/../lib/gcc/arm-eabi/4.3.2/libgcc.a(_addsubdf3.o)
                0x0000e280                __floatdidf
                0x0000e204                __floatsidf
                0x0000e1e0                __aeabi_ui2d
                0x0000dec4                __aeabi_drsub
                0x0000e22c                __extendsfdf2
                0x0000ded0                __adddf3
                0x0000e1e0                __floatunsidf
                0x0000ded0                __aeabi_dadd
                0x0000e26c                __aeabi_ul2d
                0x0000decc                __aeabi_dsub
                0x0000e26c                __floatundidf
                0x0000e204                __aeabi_i2d
                0x0000e280                __aeabi_l2d
                0x0000e22c                __aeabi_f2d
                0x0000decc                __subdf3
 .text          0x0000e2e0      0x49c /home/masterzdran/Applications/eCos/3.0/gnutools/arm-eabi/bin/../lib/gcc/arm-eabi/4.3.2/libgcc.a(_muldivdf3.o)
                0x0000e570                __aeabi_ddiv
                0x0000e2e0                __aeabi_dmul
                0x0000e570                __divdf3
                0x0000e2e0                __muldf3
 .text          0x0000e77c      0x140 /home/masterzdran/Applications/eCos/3.0/gnutools/arm-eabi/bin/../lib/gcc/arm-eabi/4.3.2/libgcc.a(_cmpdf2.o)
                0x0000e874                __aeabi_dcmple
                0x0000e78c                __cmpdf2
                0x0000e78c                __eqdf2
                0x0000e77c                __gtdf2
                0x0000e82c                __aeabi_cdcmple
                0x0000e810                __aeabi_cdrcmple
                0x0000e784                __ltdf2
                0x0000e85c                __aeabi_dcmplt
                0x0000e784                __ledf2
                0x0000e8a4                __aeabi_dcmpgt
                0x0000e88c                __aeabi_dcmpge
                0x0000e78c                __nedf2
                0x0000e844                __aeabi_dcmpeq
                0x0000e82c                __aeabi_cdcmpeq
                0x0000e77c                __gedf2
 .text          0x0000e8bc       0x38 /home/masterzdran/Applications/eCos/3.0/gnutools/arm-eabi/bin/../lib/gcc/arm-eabi/4.3.2/libgcc.a(_unorddf2.o)
                0x0000e8bc                __aeabi_dcmpun
                0x0000e8bc                __unorddf2
 .text          0x0000e8f4       0x5c /home/masterzdran/Applications/eCos/3.0/gnutools/arm-eabi/bin/../lib/gcc/arm-eabi/4.3.2/libgcc.a(_fixdfsi.o)
                0x0000e8f4                __fixdfsi
                0x0000e8f4                __aeabi_d2iz
 .text          0x0000e950       0x1c /home/masterzdran/Applications/eCos/3.0/gnutools/arm-eabi/bin/../lib/gcc/arm-eabi/4.3.2/libgcc.a(_aeabi_uldivmod.o)
                0x0000e950                __aeabi_uldivmod
 .text          0x0000e96c       0x90 /home/masterzdran/Applications/eCos/3.0/gnutools/arm-eabi/bin/../lib/gcc/arm-eabi/4.3.2/libgcc.a(bpabi.o)
                0x0000e96c                __gnu_uldivmod_helper
                0x0000e9b4                __gnu_ldivmod_helper
 .text          0x0000e9fc      0x56c /home/masterzdran/Applications/eCos/3.0/gnutools/arm-eabi/bin/../lib/gcc/arm-eabi/4.3.2/libgcc.a(_divdi3.o)
                0x0000e9fc                __divdi3
 .text          0x0000ef68      0x4fc /home/masterzdran/Applications/eCos/3.0/gnutools/arm-eabi/bin/../lib/gcc/arm-eabi/4.3.2/libgcc.a(_udivdi3.o)
                0x0000ef68                __udivdi3
 .text          0x0000f464      0x114 /home/masterzdran/Applications/eCos/3.0/gnutools/arm-eabi/bin/../lib/gcc/arm-eabi/4.3.2/libgcc.a(_udivsi3.o)
                0x0000f464                __udivsi3
                0x0000f464                __aeabi_uidiv
                0x0000f560                __aeabi_uidivmod
 .text          0x0000f578        0x0 /home/masterzdran/Applications/eCos/3.0/gnutools/arm-eabi/bin/../lib/gcc/arm-eabi/4.3.2/libgcc.a(_clz.o)
 *(.gnu.warning)
 *(.gnu.linkonce.t.*)
 *(.init)
 *(.glue_7)
 .glue_7        0x0000f578        0x0 /home/masterzdran/WorkingArea/Isel/semestre6/SE2/workplace/code/src/eCos/lib/vectors.o
 .glue_7        0x0000f578        0x0 ./automato.o
 .glue_7        0x0000f578        0x0 /home/masterzdran/WorkingArea/Isel/semestre6/SE2/workplace/code/src/eCos/lib/extras.o
 .glue_7        0x0000f578        0x0 /home/masterzdran/WorkingArea/Isel/semestre6/SE2/workplace/code/src/eCos/lib/libtarget.a(hal_common_hal_if.o)
 .glue_7        0x0000f578        0x0 /home/masterzdran/WorkingArea/Isel/semestre6/SE2/workplace/code/src/eCos/lib/libtarget.a(hal_common_hal_misc.o)
 .glue_7        0x0000f578        0x0 /home/masterzdran/WorkingArea/Isel/semestre6/SE2/workplace/code/src/eCos/lib/libtarget.a(io_common_iosys.o)
 .glue_7        0x0000f578        0x0 /home/masterzdran/WorkingArea/Isel/semestre6/SE2/workplace/code/src/eCos/lib/libtarget.a(infra_startup.o)
 .glue_7        0x0000f578        0x0 /home/masterzdran/WorkingArea/Isel/semestre6/SE2/workplace/code/src/eCos/lib/libtarget.a(infra_prestart.o)
 .glue_7        0x0000f578        0x0 /home/masterzdran/WorkingArea/Isel/semestre6/SE2/workplace/code/src/eCos/lib/libtarget.a(infra_pkgstart.o)
 .glue_7        0x0000f578        0x0 /home/masterzdran/WorkingArea/Isel/semestre6/SE2/workplace/code/src/eCos/lib/libtarget.a(infra_userstart.o)
 .glue_7        0x0000f578        0x0 /home/masterzdran/WorkingArea/Isel/semestre6/SE2/workplace/code/src/eCos/lib/libtarget.a(infra_diag.o)
 .glue_7        0x0000f578        0x0 /home/masterzdran/WorkingArea/Isel/semestre6/SE2/workplace/code/src/eCos/lib/libtarget.a(kernel_kapi.o)
 .glue_7        0x0000f578        0x0 /home/masterzdran/WorkingArea/Isel/semestre6/SE2/workplace/code/src/eCos/lib/libtarget.a(kernel_thread.o)
 .glue_7        0x0000f578        0x0 /home/masterzdran/WorkingArea/Isel/semestre6/SE2/workplace/code/src/eCos/lib/libtarget.a(kernel_except.o)
 .glue_7        0x0000f578        0x0 /home/masterzdran/WorkingArea/Isel/semestre6/SE2/workplace/code/src/eCos/lib/libtarget.a(kernel_intr.o)
 .glue_7        0x0000f578        0x0 /home/masterzdran/WorkingArea/Isel/semestre6/SE2/workplace/code/src/eCos/lib/libtarget.a(kernel_mlqueue.o)
 .glue_7        0x0000f578        0x0 /home/masterzdran/WorkingArea/Isel/semestre6/SE2/workplace/code/src/eCos/lib/libtarget.a(kernel_sched.o)
 .glue_7        0x0000f578        0x0 /home/masterzdran/WorkingArea/Isel/semestre6/SE2/workplace/code/src/eCos/lib/libtarget.a(kernel_cnt_sem.o)
 .glue_7        0x0000f578        0x0 /home/masterzdran/WorkingArea/Isel/semestre6/SE2/workplace/code/src/eCos/lib/libtarget.a(kernel_flag.o)
 .glue_7        0x0000f578        0x0 /home/masterzdran/WorkingArea/Isel/semestre6/SE2/workplace/code/src/eCos/lib/libtarget.a(kernel_mbox.o)
 .glue_7        0x0000f578        0x0 /home/masterzdran/WorkingArea/Isel/semestre6/SE2/workplace/code/src/eCos/lib/libtarget.a(kernel_mutex.o)
 .glue_7        0x0000f578        0x0 /home/masterzdran/WorkingArea/Isel/semestre6/SE2/workplace/code/src/eCos/lib/libtarget.a(language_c_libc_startup_mainthread.o)
 .glue_7        0x0000f578        0x0 /home/masterzdran/WorkingArea/Isel/semestre6/SE2/workplace/code/src/eCos/lib/libtarget.a(language_c_libc_stdio_printf.o)
 .glue_7        0x0000f578        0x0 /home/masterzdran/WorkingArea/Isel/semestre6/SE2/workplace/code/src/eCos/lib/libtarget.a(language_c_libc_stdio_vfnprintf.o)
 .glue_7        0x0000f578        0x0 /home/masterzdran/WorkingArea/Isel/semestre6/SE2/workplace/code/src/eCos/lib/libtarget.a(language_c_libc_string_memchr.o)
 .glue_7        0x0000f578        0x0 /home/masterzdran/WorkingArea/Isel/semestre6/SE2/workplace/code/src/eCos/lib/libtarget.a(language_c_libc_string_strlen.o)
 .glue_7        0x0000f578        0x0 /home/masterzdran/WorkingArea/Isel/semestre6/SE2/workplace/code/src/eCos/lib/libtarget.a(language_c_libc_string_strsuppt.o)
 .glue_7        0x0000f578        0x0 /home/masterzdran/WorkingArea/Isel/semestre6/SE2/workplace/code/src/eCos/lib/libtarget.a(language_c_libm_s_modf.o)
 .glue_7        0x0000f578        0x0 /home/masterzdran/WorkingArea/Isel/semestre6/SE2/workplace/code/src/eCos/lib/libtarget.a(hal_arm_arch_hal_misc.o)
 .glue_7        0x0000f578        0x0 /home/masterzdran/WorkingArea/Isel/semestre6/SE2/workplace/code/src/eCos/lib/libtarget.a(hal_arm_arch_context.o)
 .glue_7        0x0000f578        0x0 /home/masterzdran/WorkingArea/Isel/semestre6/SE2/workplace/code/src/eCos/lib/libtarget.a(hal_arm_lpc2xxx_var_lpc2xxx_misc.o)
 .glue_7        0x0000f578        0x0 /home/masterzdran/WorkingArea/Isel/semestre6/SE2/workplace/code/src/eCos/lib/libtarget.a(hal_arm_lpc2xxx_p2106_p2106_misc.o)
 .glue_7        0x0000f578        0x0 /home/masterzdran/WorkingArea/Isel/semestre6/SE2/workplace/code/src/eCos/lib/libtarget.a(kernel_clock.o)
 .glue_7        0x0000f578        0x0 /home/masterzdran/WorkingArea/Isel/semestre6/SE2/workplace/code/src/eCos/lib/libtarget.a(language_c_libc_startup_invokemain.o)
 .glue_7        0x0000f578        0x0 /home/masterzdran/WorkingArea/Isel/semestre6/SE2/workplace/code/src/eCos/lib/libtarget.a(language_c_libc_stdio_stdout.o)
 .glue_7        0x0000f578        0x0 /home/masterzdran/WorkingArea/Isel/semestre6/SE2/workplace/code/src/eCos/lib/libtarget.a(language_c_libc_stdio_stream.o)
 .glue_7        0x0000f578        0x0 /home/masterzdran/WorkingArea/Isel/semestre6/SE2/workplace/code/src/eCos/lib/libtarget.a(language_c_libc_stdio_streambuf.o)
 .glue_7        0x0000f578        0x0 /home/masterzdran/WorkingArea/Isel/semestre6/SE2/workplace/code/src/eCos/lib/libtarget.a(hal_arm_lpc2xxx_var_hal_diag.o)
 .glue_7        0x0000f578        0x0 /home/masterzdran/WorkingArea/Isel/semestre6/SE2/workplace/code/src/eCos/lib/libtarget.a(infra_memcpy.o)
 .glue_7        0x0000f578        0x0 /home/masterzdran/WorkingArea/Isel/semestre6/SE2/workplace/code/src/eCos/lib/libtarget.a(infra_delete.o)
 .glue_7        0x0000f578        0x0 /home/masterzdran/WorkingArea/Isel/semestre6/SE2/workplace/code/src/eCos/lib/libtarget.a(services_memalloc_common_malloc.o)
 .glue_7        0x0000f578        0x0 /home/masterzdran/WorkingArea/Isel/semestre6/SE2/workplace/code/src/eCos/lib/libtarget.a(services_memalloc_common_heaps.o)
 .glue_7        0x0000f578        0x0 /home/masterzdran/WorkingArea/Isel/semestre6/SE2/workplace/code/src/eCos/lib/libtarget.a(language_c_libc_startup_exit.o)
 .glue_7        0x0000f578        0x0 /home/masterzdran/WorkingArea/Isel/semestre6/SE2/workplace/code/src/eCos/lib/libtarget.a(language_c_libc_stdio_fflush.o)
 .glue_7        0x0000f578        0x0 /home/masterzdran/WorkingArea/Isel/semestre6/SE2/workplace/code/src/eCos/lib/libtarget.a(language_c_libc_stdio_stdiofiles.o)
 .glue_7        0x0000f578        0x0 /home/masterzdran/WorkingArea/Isel/semestre6/SE2/workplace/code/src/eCos/lib/libtarget.a(language_c_libc_stdio_stdiosupp.o)
 .glue_7        0x0000f578        0x0 /home/masterzdran/WorkingArea/Isel/semestre6/SE2/workplace/code/src/eCos/lib/libtarget.a(error_errno.o)
 .glue_7        0x0000f578        0x0 /home/masterzdran/WorkingArea/Isel/semestre6/SE2/workplace/code/src/eCos/lib/libtarget.a(infra_memset.o)
 .glue_7        0x0000f578        0x0 /home/masterzdran/WorkingArea/Isel/semestre6/SE2/workplace/code/src/eCos/lib/libtarget.a(services_memalloc_common_dlmalloc.o)
 .glue_7        0x0000f578        0x0 /home/masterzdran/WorkingArea/Isel/semestre6/SE2/workplace/code/src/eCos/lib/libtarget.a(language_c_libc_startup__exit.o)
 .glue_7        0x0000f578        0x0 /home/masterzdran/WorkingArea/Isel/semestre6/SE2/workplace/code/src/eCos/lib/libtarget.a(language_c_libc_startup_atexit.o)
 .glue_7        0x0000f578        0x0 /home/masterzdran/WorkingArea/Isel/semestre6/SE2/workplace/code/src/eCos/lib/libtarget.a(language_c_libc_string_memmove.o)
 .glue_7        0x0000f578        0x0 /home/masterzdran/Applications/eCos/3.0/gnutools/arm-eabi/bin/../lib/gcc/arm-eabi/4.3.2/libgcc.a(_divsi3.o)
 .glue_7        0x0000f578        0x0 /home/masterzdran/Applications/eCos/3.0/gnutools/arm-eabi/bin/../lib/gcc/arm-eabi/4.3.2/libgcc.a(_dvmd_tls.o)
 .glue_7        0x0000f578        0x0 /home/masterzdran/Applications/eCos/3.0/gnutools/arm-eabi/bin/../lib/gcc/arm-eabi/4.3.2/libgcc.a(_addsubdf3.o)
 .glue_7        0x0000f578        0x0 /home/masterzdran/Applications/eCos/3.0/gnutools/arm-eabi/bin/../lib/gcc/arm-eabi/4.3.2/libgcc.a(_muldivdf3.o)
 .glue_7        0x0000f578        0x0 /home/masterzdran/Applications/eCos/3.0/gnutools/arm-eabi/bin/../lib/gcc/arm-eabi/4.3.2/libgcc.a(_cmpdf2.o)
 .glue_7        0x0000f578        0x0 /home/masterzdran/Applications/eCos/3.0/gnutools/arm-eabi/bin/../lib/gcc/arm-eabi/4.3.2/libgcc.a(_unorddf2.o)
 .glue_7        0x0000f578        0x0 /home/masterzdran/Applications/eCos/3.0/gnutools/arm-eabi/bin/../lib/gcc/arm-eabi/4.3.2/libgcc.a(_fixdfsi.o)
 .glue_7        0x0000f578        0x0 /home/masterzdran/Applications/eCos/3.0/gnutools/arm-eabi/bin/../lib/gcc/arm-eabi/4.3.2/libgcc.a(_aeabi_uldivmod.o)
 .glue_7        0x0000f578        0x0 /home/masterzdran/Applications/eCos/3.0/gnutools/arm-eabi/bin/../lib/gcc/arm-eabi/4.3.2/libgcc.a(bpabi.o)
 .glue_7        0x0000f578        0x0 /home/masterzdran/Applications/eCos/3.0/gnutools/arm-eabi/bin/../lib/gcc/arm-eabi/4.3.2/libgcc.a(_divdi3.o)
 .glue_7        0x0000f578        0x0 /home/masterzdran/Applications/eCos/3.0/gnutools/arm-eabi/bin/../lib/gcc/arm-eabi/4.3.2/libgcc.a(_udivdi3.o)
 .glue_7        0x0000f578        0x0 /home/masterzdran/Applications/eCos/3.0/gnutools/arm-eabi/bin/../lib/gcc/arm-eabi/4.3.2/libgcc.a(_udivsi3.o)
 .glue_7        0x0000f578        0x0 /home/masterzdran/Applications/eCos/3.0/gnutools/arm-eabi/bin/../lib/gcc/arm-eabi/4.3.2/libgcc.a(_clz.o)
 *(.glue_7t)
 .glue_7t       0x0000f578        0x0 /home/masterzdran/WorkingArea/Isel/semestre6/SE2/workplace/code/src/eCos/lib/vectors.o
 .glue_7t       0x0000f578        0x0 ./automato.o
 .glue_7t       0x0000f578        0x0 /home/masterzdran/WorkingArea/Isel/semestre6/SE2/workplace/code/src/eCos/lib/extras.o
 .glue_7t       0x0000f578        0x0 /home/masterzdran/WorkingArea/Isel/semestre6/SE2/workplace/code/src/eCos/lib/libtarget.a(hal_common_hal_if.o)
 .glue_7t       0x0000f578        0x0 /home/masterzdran/WorkingArea/Isel/semestre6/SE2/workplace/code/src/eCos/lib/libtarget.a(hal_common_hal_misc.o)
 .glue_7t       0x0000f578        0x0 /home/masterzdran/WorkingArea/Isel/semestre6/SE2/workplace/code/src/eCos/lib/libtarget.a(io_common_iosys.o)
 .glue_7t       0x0000f578        0x0 /home/masterzdran/WorkingArea/Isel/semestre6/SE2/workplace/code/src/eCos/lib/libtarget.a(infra_startup.o)
 .glue_7t       0x0000f578        0x0 /home/masterzdran/WorkingArea/Isel/semestre6/SE2/workplace/code/src/eCos/lib/libtarget.a(infra_prestart.o)
 .glue_7t       0x0000f578        0x0 /home/masterzdran/WorkingArea/Isel/semestre6/SE2/workplace/code/src/eCos/lib/libtarget.a(infra_pkgstart.o)
 .glue_7t       0x0000f578        0x0 /home/masterzdran/WorkingArea/Isel/semestre6/SE2/workplace/code/src/eCos/lib/libtarget.a(infra_userstart.o)
 .glue_7t       0x0000f578        0x0 /home/masterzdran/WorkingArea/Isel/semestre6/SE2/workplace/code/src/eCos/lib/libtarget.a(infra_diag.o)
 .glue_7t       0x0000f578        0x0 /home/masterzdran/WorkingArea/Isel/semestre6/SE2/workplace/code/src/eCos/lib/libtarget.a(kernel_kapi.o)
 .glue_7t       0x0000f578        0x0 /home/masterzdran/WorkingArea/Isel/semestre6/SE2/workplace/code/src/eCos/lib/libtarget.a(kernel_thread.o)
 .glue_7t       0x0000f578        0x0 /home/masterzdran/WorkingArea/Isel/semestre6/SE2/workplace/code/src/eCos/lib/libtarget.a(kernel_except.o)
 .glue_7t       0x0000f578        0x0 /home/masterzdran/WorkingArea/Isel/semestre6/SE2/workplace/code/src/eCos/lib/libtarget.a(kernel_intr.o)
 .glue_7t       0x0000f578        0x0 /home/masterzdran/WorkingArea/Isel/semestre6/SE2/workplace/code/src/eCos/lib/libtarget.a(kernel_mlqueue.o)
 .glue_7t       0x0000f578        0x0 /home/masterzdran/WorkingArea/Isel/semestre6/SE2/workplace/code/src/eCos/lib/libtarget.a(kernel_sched.o)
 .glue_7t       0x0000f578        0x0 /home/masterzdran/WorkingArea/Isel/semestre6/SE2/workplace/code/src/eCos/lib/libtarget.a(kernel_cnt_sem.o)
 .glue_7t       0x0000f578        0x0 /home/masterzdran/WorkingArea/Isel/semestre6/SE2/workplace/code/src/eCos/lib/libtarget.a(kernel_flag.o)
 .glue_7t       0x0000f578        0x0 /home/masterzdran/WorkingArea/Isel/semestre6/SE2/workplace/code/src/eCos/lib/libtarget.a(kernel_mbox.o)
 .glue_7t       0x0000f578        0x0 /home/masterzdran/WorkingArea/Isel/semestre6/SE2/workplace/code/src/eCos/lib/libtarget.a(kernel_mutex.o)
 .glue_7t       0x0000f578        0x0 /home/masterzdran/WorkingArea/Isel/semestre6/SE2/workplace/code/src/eCos/lib/libtarget.a(language_c_libc_startup_mainthread.o)
 .glue_7t       0x0000f578        0x0 /home/masterzdran/WorkingArea/Isel/semestre6/SE2/workplace/code/src/eCos/lib/libtarget.a(language_c_libc_stdio_printf.o)
 .glue_7t       0x0000f578        0x0 /home/masterzdran/WorkingArea/Isel/semestre6/SE2/workplace/code/src/eCos/lib/libtarget.a(language_c_libc_stdio_vfnprintf.o)
 .glue_7t       0x0000f578        0x0 /home/masterzdran/WorkingArea/Isel/semestre6/SE2/workplace/code/src/eCos/lib/libtarget.a(language_c_libc_string_memchr.o)
 .glue_7t       0x0000f578        0x0 /home/masterzdran/WorkingArea/Isel/semestre6/SE2/workplace/code/src/eCos/lib/libtarget.a(language_c_libc_string_strlen.o)
 .glue_7t       0x0000f578        0x0 /home/masterzdran/WorkingArea/Isel/semestre6/SE2/workplace/code/src/eCos/lib/libtarget.a(language_c_libc_string_strsuppt.o)
 .glue_7t       0x0000f578        0x0 /home/masterzdran/WorkingArea/Isel/semestre6/SE2/workplace/code/src/eCos/lib/libtarget.a(language_c_libm_s_modf.o)
 .glue_7t       0x0000f578        0x0 /home/masterzdran/WorkingArea/Isel/semestre6/SE2/workplace/code/src/eCos/lib/libtarget.a(hal_arm_arch_hal_misc.o)
 .glue_7t       0x0000f578        0x0 /home/masterzdran/WorkingArea/Isel/semestre6/SE2/workplace/code/src/eCos/lib/libtarget.a(hal_arm_arch_context.o)
 .glue_7t       0x0000f578        0x0 /home/masterzdran/WorkingArea/Isel/semestre6/SE2/workplace/code/src/eCos/lib/libtarget.a(hal_arm_lpc2xxx_var_lpc2xxx_misc.o)
 .glue_7t       0x0000f578        0x0 /home/masterzdran/WorkingArea/Isel/semestre6/SE2/workplace/code/src/eCos/lib/libtarget.a(hal_arm_lpc2xxx_p2106_p2106_misc.o)
 .glue_7t       0x0000f578        0x0 /home/masterzdran/WorkingArea/Isel/semestre6/SE2/workplace/code/src/eCos/lib/libtarget.a(kernel_clock.o)
 .glue_7t       0x0000f578        0x0 /home/masterzdran/WorkingArea/Isel/semestre6/SE2/workplace/code/src/eCos/lib/libtarget.a(language_c_libc_startup_invokemain.o)
 .glue_7t       0x0000f578        0x0 /home/masterzdran/WorkingArea/Isel/semestre6/SE2/workplace/code/src/eCos/lib/libtarget.a(language_c_libc_stdio_stdout.o)
 .glue_7t       0x0000f578        0x0 /home/masterzdran/WorkingArea/Isel/semestre6/SE2/workplace/code/src/eCos/lib/libtarget.a(language_c_libc_stdio_stream.o)
 .glue_7t       0x0000f578        0x0 /home/masterzdran/WorkingArea/Isel/semestre6/SE2/workplace/code/src/eCos/lib/libtarget.a(language_c_libc_stdio_streambuf.o)
 .glue_7t       0x0000f578        0x0 /home/masterzdran/WorkingArea/Isel/semestre6/SE2/workplace/code/src/eCos/lib/libtarget.a(hal_arm_lpc2xxx_var_hal_diag.o)
 .glue_7t       0x0000f578        0x0 /home/masterzdran/WorkingArea/Isel/semestre6/SE2/workplace/code/src/eCos/lib/libtarget.a(infra_memcpy.o)
 .glue_7t       0x0000f578        0x0 /home/masterzdran/WorkingArea/Isel/semestre6/SE2/workplace/code/src/eCos/lib/libtarget.a(infra_delete.o)
 .glue_7t       0x0000f578        0x0 /home/masterzdran/WorkingArea/Isel/semestre6/SE2/workplace/code/src/eCos/lib/libtarget.a(services_memalloc_common_malloc.o)
 .glue_7t       0x0000f578        0x0 /home/masterzdran/WorkingArea/Isel/semestre6/SE2/workplace/code/src/eCos/lib/libtarget.a(services_memalloc_common_heaps.o)
 .glue_7t       0x0000f578        0x0 /home/masterzdran/WorkingArea/Isel/semestre6/SE2/workplace/code/src/eCos/lib/libtarget.a(language_c_libc_startup_exit.o)
 .glue_7t       0x0000f578        0x0 /home/masterzdran/WorkingArea/Isel/semestre6/SE2/workplace/code/src/eCos/lib/libtarget.a(language_c_libc_stdio_fflush.o)
 .glue_7t       0x0000f578        0x0 /home/masterzdran/WorkingArea/Isel/semestre6/SE2/workplace/code/src/eCos/lib/libtarget.a(language_c_libc_stdio_stdiofiles.o)
 .glue_7t       0x0000f578        0x0 /home/masterzdran/WorkingArea/Isel/semestre6/SE2/workplace/code/src/eCos/lib/libtarget.a(language_c_libc_stdio_stdiosupp.o)
 .glue_7t       0x0000f578        0x0 /home/masterzdran/WorkingArea/Isel/semestre6/SE2/workplace/code/src/eCos/lib/libtarget.a(error_errno.o)
 .glue_7t       0x0000f578        0x0 /home/masterzdran/WorkingArea/Isel/semestre6/SE2/workplace/code/src/eCos/lib/libtarget.a(infra_memset.o)
 .glue_7t       0x0000f578        0x0 /home/masterzdran/WorkingArea/Isel/semestre6/SE2/workplace/code/src/eCos/lib/libtarget.a(services_memalloc_common_dlmalloc.o)
 .glue_7t       0x0000f578        0x0 /home/masterzdran/WorkingArea/Isel/semestre6/SE2/workplace/code/src/eCos/lib/libtarget.a(language_c_libc_startup__exit.o)
 .glue_7t       0x0000f578        0x0 /home/masterzdran/WorkingArea/Isel/semestre6/SE2/workplace/code/src/eCos/lib/libtarget.a(language_c_libc_startup_atexit.o)
 .glue_7t       0x0000f578        0x0 /home/masterzdran/WorkingArea/Isel/semestre6/SE2/workplace/code/src/eCos/lib/libtarget.a(language_c_libc_string_memmove.o)
 .glue_7t       0x0000f578        0x0 /home/masterzdran/Applications/eCos/3.0/gnutools/arm-eabi/bin/../lib/gcc/arm-eabi/4.3.2/libgcc.a(_divsi3.o)
 .glue_7t       0x0000f578        0x0 /home/masterzdran/Applications/eCos/3.0/gnutools/arm-eabi/bin/../lib/gcc/arm-eabi/4.3.2/libgcc.a(_dvmd_tls.o)
 .glue_7t       0x0000f578        0x0 /home/masterzdran/Applications/eCos/3.0/gnutools/arm-eabi/bin/../lib/gcc/arm-eabi/4.3.2/libgcc.a(_addsubdf3.o)
 .glue_7t       0x0000f578        0x0 /home/masterzdran/Applications/eCos/3.0/gnutools/arm-eabi/bin/../lib/gcc/arm-eabi/4.3.2/libgcc.a(_muldivdf3.o)
 .glue_7t       0x0000f578        0x0 /home/masterzdran/Applications/eCos/3.0/gnutools/arm-eabi/bin/../lib/gcc/arm-eabi/4.3.2/libgcc.a(_cmpdf2.o)
 .glue_7t       0x0000f578        0x0 /home/masterzdran/Applications/eCos/3.0/gnutools/arm-eabi/bin/../lib/gcc/arm-eabi/4.3.2/libgcc.a(_unorddf2.o)
 .glue_7t       0x0000f578        0x0 /home/masterzdran/Applications/eCos/3.0/gnutools/arm-eabi/bin/../lib/gcc/arm-eabi/4.3.2/libgcc.a(_fixdfsi.o)
 .glue_7t       0x0000f578        0x0 /home/masterzdran/Applications/eCos/3.0/gnutools/arm-eabi/bin/../lib/gcc/arm-eabi/4.3.2/libgcc.a(_aeabi_uldivmod.o)
 .glue_7t       0x0000f578        0x0 /home/masterzdran/Applications/eCos/3.0/gnutools/arm-eabi/bin/../lib/gcc/arm-eabi/4.3.2/libgcc.a(bpabi.o)
 .glue_7t       0x0000f578        0x0 /home/masterzdran/Applications/eCos/3.0/gnutools/arm-eabi/bin/../lib/gcc/arm-eabi/4.3.2/libgcc.a(_divdi3.o)
 .glue_7t       0x0000f578        0x0 /home/masterzdran/Applications/eCos/3.0/gnutools/arm-eabi/bin/../lib/gcc/arm-eabi/4.3.2/libgcc.a(_udivdi3.o)
 .glue_7t       0x0000f578        0x0 /home/masterzdran/Applications/eCos/3.0/gnutools/arm-eabi/bin/../lib/gcc/arm-eabi/4.3.2/libgcc.a(_udivsi3.o)
 .glue_7t       0x0000f578        0x0 /home/masterzdran/Applications/eCos/3.0/gnutools/arm-eabi/bin/../lib/gcc/arm-eabi/4.3.2/libgcc.a(_clz.o)
                0x0000f578                __CTOR_LIST__ = ABSOLUTE (.)
 *(SORT(.ctors*))
                0x0000f578                __CTOR_END__ = ABSOLUTE (.)
                0x0000f578                __DTOR_LIST__ = ABSOLUTE (.)
 *(SORT(.dtors*))
                0x0000f578                __DTOR_END__ = ABSOLUTE (.)
                0x0000f578                _etext = .
                0x0000f578                PROVIDE (__etext, .)

.vfp11_veneer   0x0000f578        0x0
 .vfp11_veneer  0x0000f578        0x0 /home/masterzdran/WorkingArea/Isel/semestre6/SE2/workplace/code/src/eCos/lib/vectors.o
 .vfp11_veneer  0x0000f578        0x0 ./automato.o
 .vfp11_veneer  0x0000f578        0x0 /home/masterzdran/WorkingArea/Isel/semestre6/SE2/workplace/code/src/eCos/lib/extras.o
 .vfp11_veneer  0x0000f578        0x0 /home/masterzdran/WorkingArea/Isel/semestre6/SE2/workplace/code/src/eCos/lib/libtarget.a(hal_common_hal_if.o)
 .vfp11_veneer  0x0000f578        0x0 /home/masterzdran/WorkingArea/Isel/semestre6/SE2/workplace/code/src/eCos/lib/libtarget.a(hal_common_hal_misc.o)
 .vfp11_veneer  0x0000f578        0x0 /home/masterzdran/WorkingArea/Isel/semestre6/SE2/workplace/code/src/eCos/lib/libtarget.a(io_common_iosys.o)
 .vfp11_veneer  0x0000f578        0x0 /home/masterzdran/WorkingArea/Isel/semestre6/SE2/workplace/code/src/eCos/lib/libtarget.a(infra_startup.o)
 .vfp11_veneer  0x0000f578        0x0 /home/masterzdran/WorkingArea/Isel/semestre6/SE2/workplace/code/src/eCos/lib/libtarget.a(infra_prestart.o)
 .vfp11_veneer  0x0000f578        0x0 /home/masterzdran/WorkingArea/Isel/semestre6/SE2/workplace/code/src/eCos/lib/libtarget.a(infra_pkgstart.o)
 .vfp11_veneer  0x0000f578        0x0 /home/masterzdran/WorkingArea/Isel/semestre6/SE2/workplace/code/src/eCos/lib/libtarget.a(infra_userstart.o)
 .vfp11_veneer  0x0000f578        0x0 /home/masterzdran/WorkingArea/Isel/semestre6/SE2/workplace/code/src/eCos/lib/libtarget.a(infra_diag.o)
 .vfp11_veneer  0x0000f578        0x0 /home/masterzdran/WorkingArea/Isel/semestre6/SE2/workplace/code/src/eCos/lib/libtarget.a(kernel_kapi.o)
 .vfp11_veneer  0x0000f578        0x0 /home/masterzdran/WorkingArea/Isel/semestre6/SE2/workplace/code/src/eCos/lib/libtarget.a(kernel_thread.o)
 .vfp11_veneer  0x0000f578        0x0 /home/masterzdran/WorkingArea/Isel/semestre6/SE2/workplace/code/src/eCos/lib/libtarget.a(kernel_except.o)
 .vfp11_veneer  0x0000f578        0x0 /home/masterzdran/WorkingArea/Isel/semestre6/SE2/workplace/code/src/eCos/lib/libtarget.a(kernel_intr.o)
 .vfp11_veneer  0x0000f578        0x0 /home/masterzdran/WorkingArea/Isel/semestre6/SE2/workplace/code/src/eCos/lib/libtarget.a(kernel_mlqueue.o)
 .vfp11_veneer  0x0000f578        0x0 /home/masterzdran/WorkingArea/Isel/semestre6/SE2/workplace/code/src/eCos/lib/libtarget.a(kernel_sched.o)
 .vfp11_veneer  0x0000f578        0x0 /home/masterzdran/WorkingArea/Isel/semestre6/SE2/workplace/code/src/eCos/lib/libtarget.a(kernel_cnt_sem.o)
 .vfp11_veneer  0x0000f578        0x0 /home/masterzdran/WorkingArea/Isel/semestre6/SE2/workplace/code/src/eCos/lib/libtarget.a(kernel_flag.o)
 .vfp11_veneer  0x0000f578        0x0 /home/masterzdran/WorkingArea/Isel/semestre6/SE2/workplace/code/src/eCos/lib/libtarget.a(kernel_mbox.o)
 .vfp11_veneer  0x0000f578        0x0 /home/masterzdran/WorkingArea/Isel/semestre6/SE2/workplace/code/src/eCos/lib/libtarget.a(kernel_mutex.o)
 .vfp11_veneer  0x0000f578        0x0 /home/masterzdran/WorkingArea/Isel/semestre6/SE2/workplace/code/src/eCos/lib/libtarget.a(language_c_libc_startup_mainthread.o)
 .vfp11_veneer  0x0000f578        0x0 /home/masterzdran/WorkingArea/Isel/semestre6/SE2/workplace/code/src/eCos/lib/libtarget.a(language_c_libc_stdio_printf.o)
 .vfp11_veneer  0x0000f578        0x0 /home/masterzdran/WorkingArea/Isel/semestre6/SE2/workplace/code/src/eCos/lib/libtarget.a(language_c_libc_stdio_vfnprintf.o)
 .vfp11_veneer  0x0000f578        0x0 /home/masterzdran/WorkingArea/Isel/semestre6/SE2/workplace/code/src/eCos/lib/libtarget.a(language_c_libc_string_memchr.o)
 .vfp11_veneer  0x0000f578        0x0 /home/masterzdran/WorkingArea/Isel/semestre6/SE2/workplace/code/src/eCos/lib/libtarget.a(language_c_libc_string_strlen.o)
 .vfp11_veneer  0x0000f578        0x0 /home/masterzdran/WorkingArea/Isel/semestre6/SE2/workplace/code/src/eCos/lib/libtarget.a(language_c_libc_string_strsuppt.o)
 .vfp11_veneer  0x0000f578        0x0 /home/masterzdran/WorkingArea/Isel/semestre6/SE2/workplace/code/src/eCos/lib/libtarget.a(language_c_libm_s_modf.o)
 .vfp11_veneer  0x0000f578        0x0 /home/masterzdran/WorkingArea/Isel/semestre6/SE2/workplace/code/src/eCos/lib/libtarget.a(hal_arm_arch_hal_misc.o)
 .vfp11_veneer  0x0000f578        0x0 /home/masterzdran/WorkingArea/Isel/semestre6/SE2/workplace/code/src/eCos/lib/libtarget.a(hal_arm_arch_context.o)
 .vfp11_veneer  0x0000f578        0x0 /home/masterzdran/WorkingArea/Isel/semestre6/SE2/workplace/code/src/eCos/lib/libtarget.a(hal_arm_lpc2xxx_var_lpc2xxx_misc.o)
 .vfp11_veneer  0x0000f578        0x0 /home/masterzdran/WorkingArea/Isel/semestre6/SE2/workplace/code/src/eCos/lib/libtarget.a(hal_arm_lpc2xxx_p2106_p2106_misc.o)
 .vfp11_veneer  0x0000f578        0x0 /home/masterzdran/WorkingArea/Isel/semestre6/SE2/workplace/code/src/eCos/lib/libtarget.a(kernel_clock.o)
 .vfp11_veneer  0x0000f578        0x0 /home/masterzdran/WorkingArea/Isel/semestre6/SE2/workplace/code/src/eCos/lib/libtarget.a(language_c_libc_startup_invokemain.o)
 .vfp11_veneer  0x0000f578        0x0 /home/masterzdran/WorkingArea/Isel/semestre6/SE2/workplace/code/src/eCos/lib/libtarget.a(language_c_libc_stdio_stdout.o)
 .vfp11_veneer  0x0000f578        0x0 /home/masterzdran/WorkingArea/Isel/semestre6/SE2/workplace/code/src/eCos/lib/libtarget.a(language_c_libc_stdio_stream.o)
 .vfp11_veneer  0x0000f578        0x0 /home/masterzdran/WorkingArea/Isel/semestre6/SE2/workplace/code/src/eCos/lib/libtarget.a(language_c_libc_stdio_streambuf.o)
 .vfp11_veneer  0x0000f578        0x0 /home/masterzdran/WorkingArea/Isel/semestre6/SE2/workplace/code/src/eCos/lib/libtarget.a(hal_arm_lpc2xxx_var_hal_diag.o)
 .vfp11_veneer  0x0000f578        0x0 /home/masterzdran/WorkingArea/Isel/semestre6/SE2/workplace/code/src/eCos/lib/libtarget.a(infra_memcpy.o)
 .vfp11_veneer  0x0000f578        0x0 /home/masterzdran/WorkingArea/Isel/semestre6/SE2/workplace/code/src/eCos/lib/libtarget.a(infra_delete.o)
 .vfp11_veneer  0x0000f578        0x0 /home/masterzdran/WorkingArea/Isel/semestre6/SE2/workplace/code/src/eCos/lib/libtarget.a(services_memalloc_common_malloc.o)
 .vfp11_veneer  0x0000f578        0x0 /home/masterzdran/WorkingArea/Isel/semestre6/SE2/workplace/code/src/eCos/lib/libtarget.a(services_memalloc_common_heaps.o)
 .vfp11_veneer  0x0000f578        0x0 /home/masterzdran/WorkingArea/Isel/semestre6/SE2/workplace/code/src/eCos/lib/libtarget.a(language_c_libc_startup_exit.o)
 .vfp11_veneer  0x0000f578        0x0 /home/masterzdran/WorkingArea/Isel/semestre6/SE2/workplace/code/src/eCos/lib/libtarget.a(language_c_libc_stdio_fflush.o)
 .vfp11_veneer  0x0000f578        0x0 /home/masterzdran/WorkingArea/Isel/semestre6/SE2/workplace/code/src/eCos/lib/libtarget.a(language_c_libc_stdio_stdiofiles.o)
 .vfp11_veneer  0x0000f578        0x0 /home/masterzdran/WorkingArea/Isel/semestre6/SE2/workplace/code/src/eCos/lib/libtarget.a(language_c_libc_stdio_stdiosupp.o)
 .vfp11_veneer  0x0000f578        0x0 /home/masterzdran/WorkingArea/Isel/semestre6/SE2/workplace/code/src/eCos/lib/libtarget.a(error_errno.o)
 .vfp11_veneer  0x0000f578        0x0 /home/masterzdran/WorkingArea/Isel/semestre6/SE2/workplace/code/src/eCos/lib/libtarget.a(infra_memset.o)
 .vfp11_veneer  0x0000f578        0x0 /home/masterzdran/WorkingArea/Isel/semestre6/SE2/workplace/code/src/eCos/lib/libtarget.a(services_memalloc_common_dlmalloc.o)
 .vfp11_veneer  0x0000f578        0x0 /home/masterzdran/WorkingArea/Isel/semestre6/SE2/workplace/code/src/eCos/lib/libtarget.a(language_c_libc_startup__exit.o)
 .vfp11_veneer  0x0000f578        0x0 /home/masterzdran/WorkingArea/Isel/semestre6/SE2/workplace/code/src/eCos/lib/libtarget.a(language_c_libc_startup_atexit.o)
 .vfp11_veneer  0x0000f578        0x0 /home/masterzdran/WorkingArea/Isel/semestre6/SE2/workplace/code/src/eCos/lib/libtarget.a(language_c_libc_string_memmove.o)
 .vfp11_veneer  0x0000f578        0x0 /home/masterzdran/Applications/eCos/3.0/gnutools/arm-eabi/bin/../lib/gcc/arm-eabi/4.3.2/libgcc.a(_divsi3.o)
 .vfp11_veneer  0x0000f578        0x0 /home/masterzdran/Applications/eCos/3.0/gnutools/arm-eabi/bin/../lib/gcc/arm-eabi/4.3.2/libgcc.a(_dvmd_tls.o)
 .vfp11_veneer  0x0000f578        0x0 /home/masterzdran/Applications/eCos/3.0/gnutools/arm-eabi/bin/../lib/gcc/arm-eabi/4.3.2/libgcc.a(_addsubdf3.o)
 .vfp11_veneer  0x0000f578        0x0 /home/masterzdran/Applications/eCos/3.0/gnutools/arm-eabi/bin/../lib/gcc/arm-eabi/4.3.2/libgcc.a(_muldivdf3.o)
 .vfp11_veneer  0x0000f578        0x0 /home/masterzdran/Applications/eCos/3.0/gnutools/arm-eabi/bin/../lib/gcc/arm-eabi/4.3.2/libgcc.a(_cmpdf2.o)
 .vfp11_veneer  0x0000f578        0x0 /home/masterzdran/Applications/eCos/3.0/gnutools/arm-eabi/bin/../lib/gcc/arm-eabi/4.3.2/libgcc.a(_unorddf2.o)
 .vfp11_veneer  0x0000f578        0x0 /home/masterzdran/Applications/eCos/3.0/gnutools/arm-eabi/bin/../lib/gcc/arm-eabi/4.3.2/libgcc.a(_fixdfsi.o)
 .vfp11_veneer  0x0000f578        0x0 /home/masterzdran/Applications/eCos/3.0/gnutools/arm-eabi/bin/../lib/gcc/arm-eabi/4.3.2/libgcc.a(_aeabi_uldivmod.o)
 .vfp11_veneer  0x0000f578        0x0 /home/masterzdran/Applications/eCos/3.0/gnutools/arm-eabi/bin/../lib/gcc/arm-eabi/4.3.2/libgcc.a(bpabi.o)
 .vfp11_veneer  0x0000f578        0x0 /home/masterzdran/Applications/eCos/3.0/gnutools/arm-eabi/bin/../lib/gcc/arm-eabi/4.3.2/libgcc.a(_divdi3.o)
 .vfp11_veneer  0x0000f578        0x0 /home/masterzdran/Applications/eCos/3.0/gnutools/arm-eabi/bin/../lib/gcc/arm-eabi/4.3.2/libgcc.a(_udivdi3.o)
 .vfp11_veneer  0x0000f578        0x0 /home/masterzdran/Applications/eCos/3.0/gnutools/arm-eabi/bin/../lib/gcc/arm-eabi/4.3.2/libgcc.a(_udivsi3.o)
 .vfp11_veneer  0x0000f578        0x0 /home/masterzdran/Applications/eCos/3.0/gnutools/arm-eabi/bin/../lib/gcc/arm-eabi/4.3.2/libgcc.a(_clz.o)

.v4_bx          0x0000f578        0x0
 .v4_bx         0x0000f578        0x0 /home/masterzdran/WorkingArea/Isel/semestre6/SE2/workplace/code/src/eCos/lib/vectors.o
 .v4_bx         0x0000f578        0x0 ./automato.o
 .v4_bx         0x0000f578        0x0 /home/masterzdran/WorkingArea/Isel/semestre6/SE2/workplace/code/src/eCos/lib/extras.o
 .v4_bx         0x0000f578        0x0 /home/masterzdran/WorkingArea/Isel/semestre6/SE2/workplace/code/src/eCos/lib/libtarget.a(hal_common_hal_if.o)
 .v4_bx         0x0000f578        0x0 /home/masterzdran/WorkingArea/Isel/semestre6/SE2/workplace/code/src/eCos/lib/libtarget.a(hal_common_hal_misc.o)
 .v4_bx         0x0000f578        0x0 /home/masterzdran/WorkingArea/Isel/semestre6/SE2/workplace/code/src/eCos/lib/libtarget.a(io_common_iosys.o)
 .v4_bx         0x0000f578        0x0 /home/masterzdran/WorkingArea/Isel/semestre6/SE2/workplace/code/src/eCos/lib/libtarget.a(infra_startup.o)
 .v4_bx         0x0000f578        0x0 /home/masterzdran/WorkingArea/Isel/semestre6/SE2/workplace/code/src/eCos/lib/libtarget.a(infra_prestart.o)
 .v4_bx         0x0000f578        0x0 /home/masterzdran/WorkingArea/Isel/semestre6/SE2/workplace/code/src/eCos/lib/libtarget.a(infra_pkgstart.o)
 .v4_bx         0x0000f578        0x0 /home/masterzdran/WorkingArea/Isel/semestre6/SE2/workplace/code/src/eCos/lib/libtarget.a(infra_userstart.o)
 .v4_bx         0x0000f578        0x0 /home/masterzdran/WorkingArea/Isel/semestre6/SE2/workplace/code/src/eCos/lib/libtarget.a(infra_diag.o)
 .v4_bx         0x0000f578        0x0 /home/masterzdran/WorkingArea/Isel/semestre6/SE2/workplace/code/src/eCos/lib/libtarget.a(kernel_kapi.o)
 .v4_bx         0x0000f578        0x0 /home/masterzdran/WorkingArea/Isel/semestre6/SE2/workplace/code/src/eCos/lib/libtarget.a(kernel_thread.o)
 .v4_bx         0x0000f578        0x0 /home/masterzdran/WorkingArea/Isel/semestre6/SE2/workplace/code/src/eCos/lib/libtarget.a(kernel_except.o)
 .v4_bx         0x0000f578        0x0 /home/masterzdran/WorkingArea/Isel/semestre6/SE2/workplace/code/src/eCos/lib/libtarget.a(kernel_intr.o)
 .v4_bx         0x0000f578        0x0 /home/masterzdran/WorkingArea/Isel/semestre6/SE2/workplace/code/src/eCos/lib/libtarget.a(kernel_mlqueue.o)
 .v4_bx         0x0000f578        0x0 /home/masterzdran/WorkingArea/Isel/semestre6/SE2/workplace/code/src/eCos/lib/libtarget.a(kernel_sched.o)
 .v4_bx         0x0000f578        0x0 /home/masterzdran/WorkingArea/Isel/semestre6/SE2/workplace/code/src/eCos/lib/libtarget.a(kernel_cnt_sem.o)
 .v4_bx         0x0000f578        0x0 /home/masterzdran/WorkingArea/Isel/semestre6/SE2/workplace/code/src/eCos/lib/libtarget.a(kernel_flag.o)
 .v4_bx         0x0000f578        0x0 /home/masterzdran/WorkingArea/Isel/semestre6/SE2/workplace/code/src/eCos/lib/libtarget.a(kernel_mbox.o)
 .v4_bx         0x0000f578        0x0 /home/masterzdran/WorkingArea/Isel/semestre6/SE2/workplace/code/src/eCos/lib/libtarget.a(kernel_mutex.o)
 .v4_bx         0x0000f578        0x0 /home/masterzdran/WorkingArea/Isel/semestre6/SE2/workplace/code/src/eCos/lib/libtarget.a(language_c_libc_startup_mainthread.o)
 .v4_bx         0x0000f578        0x0 /home/masterzdran/WorkingArea/Isel/semestre6/SE2/workplace/code/src/eCos/lib/libtarget.a(language_c_libc_stdio_printf.o)
 .v4_bx         0x0000f578        0x0 /home/masterzdran/WorkingArea/Isel/semestre6/SE2/workplace/code/src/eCos/lib/libtarget.a(language_c_libc_stdio_vfnprintf.o)
 .v4_bx         0x0000f578        0x0 /home/masterzdran/WorkingArea/Isel/semestre6/SE2/workplace/code/src/eCos/lib/libtarget.a(language_c_libc_string_memchr.o)
 .v4_bx         0x0000f578        0x0 /home/masterzdran/WorkingArea/Isel/semestre6/SE2/workplace/code/src/eCos/lib/libtarget.a(language_c_libc_string_strlen.o)
 .v4_bx         0x0000f578        0x0 /home/masterzdran/WorkingArea/Isel/semestre6/SE2/workplace/code/src/eCos/lib/libtarget.a(language_c_libc_string_strsuppt.o)
 .v4_bx         0x0000f578        0x0 /home/masterzdran/WorkingArea/Isel/semestre6/SE2/workplace/code/src/eCos/lib/libtarget.a(language_c_libm_s_modf.o)
 .v4_bx         0x0000f578        0x0 /home/masterzdran/WorkingArea/Isel/semestre6/SE2/workplace/code/src/eCos/lib/libtarget.a(hal_arm_arch_hal_misc.o)
 .v4_bx         0x0000f578        0x0 /home/masterzdran/WorkingArea/Isel/semestre6/SE2/workplace/code/src/eCos/lib/libtarget.a(hal_arm_arch_context.o)
 .v4_bx         0x0000f578        0x0 /home/masterzdran/WorkingArea/Isel/semestre6/SE2/workplace/code/src/eCos/lib/libtarget.a(hal_arm_lpc2xxx_var_lpc2xxx_misc.o)
 .v4_bx         0x0000f578        0x0 /home/masterzdran/WorkingArea/Isel/semestre6/SE2/workplace/code/src/eCos/lib/libtarget.a(hal_arm_lpc2xxx_p2106_p2106_misc.o)
 .v4_bx         0x0000f578        0x0 /home/masterzdran/WorkingArea/Isel/semestre6/SE2/workplace/code/src/eCos/lib/libtarget.a(kernel_clock.o)
 .v4_bx         0x0000f578        0x0 /home/masterzdran/WorkingArea/Isel/semestre6/SE2/workplace/code/src/eCos/lib/libtarget.a(language_c_libc_startup_invokemain.o)
 .v4_bx         0x0000f578        0x0 /home/masterzdran/WorkingArea/Isel/semestre6/SE2/workplace/code/src/eCos/lib/libtarget.a(language_c_libc_stdio_stdout.o)
 .v4_bx         0x0000f578        0x0 /home/masterzdran/WorkingArea/Isel/semestre6/SE2/workplace/code/src/eCos/lib/libtarget.a(language_c_libc_stdio_stream.o)
 .v4_bx         0x0000f578        0x0 /home/masterzdran/WorkingArea/Isel/semestre6/SE2/workplace/code/src/eCos/lib/libtarget.a(language_c_libc_stdio_streambuf.o)
 .v4_bx         0x0000f578        0x0 /home/masterzdran/WorkingArea/Isel/semestre6/SE2/workplace/code/src/eCos/lib/libtarget.a(hal_arm_lpc2xxx_var_hal_diag.o)
 .v4_bx         0x0000f578        0x0 /home/masterzdran/WorkingArea/Isel/semestre6/SE2/workplace/code/src/eCos/lib/libtarget.a(infra_memcpy.o)
 .v4_bx         0x0000f578        0x0 /home/masterzdran/WorkingArea/Isel/semestre6/SE2/workplace/code/src/eCos/lib/libtarget.a(infra_delete.o)
 .v4_bx         0x0000f578        0x0 /home/masterzdran/WorkingArea/Isel/semestre6/SE2/workplace/code/src/eCos/lib/libtarget.a(services_memalloc_common_malloc.o)
 .v4_bx         0x0000f578        0x0 /home/masterzdran/WorkingArea/Isel/semestre6/SE2/workplace/code/src/eCos/lib/libtarget.a(services_memalloc_common_heaps.o)
 .v4_bx         0x0000f578        0x0 /home/masterzdran/WorkingArea/Isel/semestre6/SE2/workplace/code/src/eCos/lib/libtarget.a(language_c_libc_startup_exit.o)
 .v4_bx         0x0000f578        0x0 /home/masterzdran/WorkingArea/Isel/semestre6/SE2/workplace/code/src/eCos/lib/libtarget.a(language_c_libc_stdio_fflush.o)
 .v4_bx         0x0000f578        0x0 /home/masterzdran/WorkingArea/Isel/semestre6/SE2/workplace/code/src/eCos/lib/libtarget.a(language_c_libc_stdio_stdiofiles.o)
 .v4_bx         0x0000f578        0x0 /home/masterzdran/WorkingArea/Isel/semestre6/SE2/workplace/code/src/eCos/lib/libtarget.a(language_c_libc_stdio_stdiosupp.o)
 .v4_bx         0x0000f578        0x0 /home/masterzdran/WorkingArea/Isel/semestre6/SE2/workplace/code/src/eCos/lib/libtarget.a(error_errno.o)
 .v4_bx         0x0000f578        0x0 /home/masterzdran/WorkingArea/Isel/semestre6/SE2/workplace/code/src/eCos/lib/libtarget.a(infra_memset.o)
 .v4_bx         0x0000f578        0x0 /home/masterzdran/WorkingArea/Isel/semestre6/SE2/workplace/code/src/eCos/lib/libtarget.a(services_memalloc_common_dlmalloc.o)
 .v4_bx         0x0000f578        0x0 /home/masterzdran/WorkingArea/Isel/semestre6/SE2/workplace/code/src/eCos/lib/libtarget.a(language_c_libc_startup__exit.o)
 .v4_bx         0x0000f578        0x0 /home/masterzdran/WorkingArea/Isel/semestre6/SE2/workplace/code/src/eCos/lib/libtarget.a(language_c_libc_startup_atexit.o)
 .v4_bx         0x0000f578        0x0 /home/masterzdran/WorkingArea/Isel/semestre6/SE2/workplace/code/src/eCos/lib/libtarget.a(language_c_libc_string_memmove.o)
 .v4_bx         0x0000f578        0x0 /home/masterzdran/Applications/eCos/3.0/gnutools/arm-eabi/bin/../lib/gcc/arm-eabi/4.3.2/libgcc.a(_divsi3.o)
 .v4_bx         0x0000f578        0x0 /home/masterzdran/Applications/eCos/3.0/gnutools/arm-eabi/bin/../lib/gcc/arm-eabi/4.3.2/libgcc.a(_dvmd_tls.o)
 .v4_bx         0x0000f578        0x0 /home/masterzdran/Applications/eCos/3.0/gnutools/arm-eabi/bin/../lib/gcc/arm-eabi/4.3.2/libgcc.a(_addsubdf3.o)
 .v4_bx         0x0000f578        0x0 /home/masterzdran/Applications/eCos/3.0/gnutools/arm-eabi/bin/../lib/gcc/arm-eabi/4.3.2/libgcc.a(_muldivdf3.o)
 .v4_bx         0x0000f578        0x0 /home/masterzdran/Applications/eCos/3.0/gnutools/arm-eabi/bin/../lib/gcc/arm-eabi/4.3.2/libgcc.a(_cmpdf2.o)
 .v4_bx         0x0000f578        0x0 /home/masterzdran/Applications/eCos/3.0/gnutools/arm-eabi/bin/../lib/gcc/arm-eabi/4.3.2/libgcc.a(_unorddf2.o)
 .v4_bx         0x0000f578        0x0 /home/masterzdran/Applications/eCos/3.0/gnutools/arm-eabi/bin/../lib/gcc/arm-eabi/4.3.2/libgcc.a(_fixdfsi.o)
 .v4_bx         0x0000f578        0x0 /home/masterzdran/Applications/eCos/3.0/gnutools/arm-eabi/bin/../lib/gcc/arm-eabi/4.3.2/libgcc.a(_aeabi_uldivmod.o)
 .v4_bx         0x0000f578        0x0 /home/masterzdran/Applications/eCos/3.0/gnutools/arm-eabi/bin/../lib/gcc/arm-eabi/4.3.2/libgcc.a(bpabi.o)
 .v4_bx         0x0000f578        0x0 /home/masterzdran/Applications/eCos/3.0/gnutools/arm-eabi/bin/../lib/gcc/arm-eabi/4.3.2/libgcc.a(_divdi3.o)
 .v4_bx         0x0000f578        0x0 /home/masterzdran/Applications/eCos/3.0/gnutools/arm-eabi/bin/../lib/gcc/arm-eabi/4.3.2/libgcc.a(_udivdi3.o)
 .v4_bx         0x0000f578        0x0 /home/masterzdran/Applications/eCos/3.0/gnutools/arm-eabi/bin/../lib/gcc/arm-eabi/4.3.2/libgcc.a(_udivsi3.o)
 .v4_bx         0x0000f578        0x0 /home/masterzdran/Applications/eCos/3.0/gnutools/arm-eabi/bin/../lib/gcc/arm-eabi/4.3.2/libgcc.a(_clz.o)

.fini           0x0000f578        0x0
                0x0000f578                . = .
 *(.fini)

.rodata         0x0000f578      0x300
                0x0000f578                . = .
 *(.rodata*)
 .rodata        0x0000f578        0xc ./automato.o
 .rodata.str1.4
                0x0000f584       0x2c /home/masterzdran/WorkingArea/Isel/semestre6/SE2/workplace/code/src/eCos/lib/extras.o
                                 0x3c (size before relaxing)
 .rodata.__FUNCTION__.2650
                0x0000f5b0       0x14 /home/masterzdran/WorkingArea/Isel/semestre6/SE2/workplace/code/src/eCos/lib/extras.o
 .rodata.hex.1865
                0x0000f5c4       0x14 /home/masterzdran/WorkingArea/Isel/semestre6/SE2/workplace/code/src/eCos/lib/libtarget.a(hal_common_hal_if.o)
 .rodata.str1.4
                0x0000f5d8       0xb2 /home/masterzdran/WorkingArea/Isel/semestre6/SE2/workplace/code/src/eCos/lib/libtarget.a(infra_diag.o)
                                 0xc0 (size before relaxing)
 *fill*         0x0000f68a        0x2 00
 .rodata.str1.4
                0x0000f68c        0xc /home/masterzdran/WorkingArea/Isel/semestre6/SE2/workplace/code/src/eCos/lib/libtarget.a(kernel_thread.o)
 .rodata.str1.4
                0x0000f698        0x5 /home/masterzdran/WorkingArea/Isel/semestre6/SE2/workplace/code/src/eCos/lib/libtarget.a(language_c_libc_startup_mainthread.o)
                                  0x8 (size before relaxing)
 *fill*         0x0000f69d        0x3 00
 .rodata.str1.4
                0x0000f6a0       0x22 /home/masterzdran/WorkingArea/Isel/semestre6/SE2/workplace/code/src/eCos/lib/libtarget.a(language_c_libc_stdio_vfnprintf.o)
                                 0x4c (size before relaxing)
 *fill*         0x0000f6c2        0x6 00
 .rodata.Cyg_libc_str_null_mask_1
                0x0000f6c8        0x8 /home/masterzdran/WorkingArea/Isel/semestre6/SE2/workplace/code/src/eCos/lib/libtarget.a(language_c_libc_string_strsuppt.o)
                0x0000f6c8                Cyg_libc_str_null_mask_1
 .rodata.Cyg_libc_str_null_mask_2
                0x0000f6d0        0x8 /home/masterzdran/WorkingArea/Isel/semestre6/SE2/workplace/code/src/eCos/lib/libtarget.a(language_c_libc_string_strsuppt.o)
                0x0000f6d0                Cyg_libc_str_null_mask_2
 .rodata._ZZL19construct_converterPN9Cyg_Clock9converterEyyyyE6primes
                0x0000f6d8       0x60 /home/masterzdran/WorkingArea/Isel/semestre6/SE2/workplace/code/src/eCos/lib/libtarget.a(kernel_clock.o)
 .rodata.str1.4
                0x00000000       0x24 /home/masterzdran/WorkingArea/Isel/semestre6/SE2/workplace/code/src/eCos/lib/libtarget.a(language_c_libc_startup_invokemain.o)
                                  0x4 (size before relaxing)
 .rodata._ZZ20cyg_libc_invoke_mainE3C.4
                0x0000f738        0x8 /home/masterzdran/WorkingArea/Isel/semestre6/SE2/workplace/code/src/eCos/lib/libtarget.a(language_c_libc_startup_invokemain.o)
 .rodata.str1.4
                0x00000000       0x10 /home/masterzdran/WorkingArea/Isel/semestre6/SE2/workplace/code/src/eCos/lib/libtarget.a(language_c_libc_stdio_stdout.o)
 .rodata.stdout
                0x0000f740        0x4 /home/masterzdran/WorkingArea/Isel/semestre6/SE2/workplace/code/src/eCos/lib/libtarget.a(language_c_libc_stdio_stdout.o)
                0x0000f740                stdout
 *fill*         0x0000f744        0x4 00
 .rodata._ZTV15Cyg_StdioStream
                0x0000f748       0x18 /home/masterzdran/WorkingArea/Isel/semestre6/SE2/workplace/code/src/eCos/lib/libtarget.a(language_c_libc_stdio_stream.o)
                0x0000f748                _ZTV15Cyg_StdioStream
 .rodata._ZTV16Cyg_OutputStream
                0x0000f760       0x18 /home/masterzdran/WorkingArea/Isel/semestre6/SE2/workplace/code/src/eCos/lib/libtarget.a(language_c_libc_stdio_stream.o)
                0x0000f760                _ZTV16Cyg_OutputStream
 .rodata        0x0000f778      0x100 /home/masterzdran/Applications/eCos/3.0/gnutools/arm-eabi/bin/../lib/gcc/arm-eabi/4.3.2/libgcc.a(_clz.o)
                0x0000f778                __clz_tab
 *(.gnu.linkonce.r.*)

.rodata1        0x0000f878        0x0
                0x0000f878                . = .
 *(.rodata1)

.fixup          0x0000f878        0x0
                0x0000f878                . = .
 *(.fixup)

.gcc_except_table
                0x0000f878        0x0
                0x0000f878                . = .

.fixed_vectors  0x40000400      0x140
                0x40000400                . = .
 *(.fixed_vectors)
 .fixed_vectors
                0x40000400      0x140 /home/masterzdran/WorkingArea/Isel/semestre6/SE2/workplace/code/src/eCos/lib/vectors.o
                0x40000400                hal_vsr_table
                0x40000420                hal_dram_size
                0x40000424                hal_dram_type
                0x40000430                hal_virtual_vector_table

.data           0x40000540      0x344 load address 0x0000f878
                0x40000540                __ram_data_start = ABSOLUTE (.)
 *(.data*)
 .data          0x40000540      0x184 /home/masterzdran/WorkingArea/Isel/semestre6/SE2/workplace/code/src/eCos/lib/vectors.o
                0x40000544                hal_interrupt_handlers
                0x400005c4                hal_interrupt_data
                0x40000644                hal_interrupt_objects
 .data          0x400006c4        0x0 ./automato.o
 .data          0x400006c4        0x0 /home/masterzdran/WorkingArea/Isel/semestre6/SE2/workplace/code/src/eCos/lib/extras.o
 .data.cyg_io_serial_devio
                0x400006c4       0x1c /home/masterzdran/WorkingArea/Isel/semestre6/SE2/workplace/code/src/eCos/lib/extras.o
                0x400006c4                cyg_io_serial_devio
 .data.cyg_io_serial_callbacks
                0x400006e0        0xc /home/masterzdran/WorkingArea/Isel/semestre6/SE2/workplace/code/src/eCos/lib/extras.o
                0x400006e0                cyg_io_serial_callbacks
 .data.tty_devio
                0x400006ec       0x1c /home/masterzdran/WorkingArea/Isel/semestre6/SE2/workplace/code/src/eCos/lib/extras.o
 .data.haldiag_channel0
                0x40000708       0x98 /home/masterzdran/WorkingArea/Isel/semestre6/SE2/workplace/code/src/eCos/lib/extras.o
 .data.haldiag_funs
                0x400007a0       0x14 /home/masterzdran/WorkingArea/Isel/semestre6/SE2/workplace/code/src/eCos/lib/extras.o
 .data          0x400007b4        0x0 /home/masterzdran/WorkingArea/Isel/semestre6/SE2/workplace/code/src/eCos/lib/libtarget.a(hal_common_hal_if.o)
 .data.__selected_id.1834
                0x400007b4        0x4 /home/masterzdran/WorkingArea/Isel/semestre6/SE2/workplace/code/src/eCos/lib/libtarget.a(hal_common_hal_if.o)
 .data.__selected_id.1791
                0x400007b8        0x4 /home/masterzdran/WorkingArea/Isel/semestre6/SE2/workplace/code/src/eCos/lib/libtarget.a(hal_common_hal_if.o)
 .data          0x400007bc        0x0 /home/masterzdran/WorkingArea/Isel/semestre6/SE2/workplace/code/src/eCos/lib/libtarget.a(hal_common_hal_misc.o)
 .data          0x400007bc        0x0 /home/masterzdran/WorkingArea/Isel/semestre6/SE2/workplace/code/src/eCos/lib/libtarget.a(io_common_iosys.o)
 .data          0x400007bc        0x0 /home/masterzdran/WorkingArea/Isel/semestre6/SE2/workplace/code/src/eCos/lib/libtarget.a(infra_startup.o)
 .data          0x400007bc        0x0 /home/masterzdran/WorkingArea/Isel/semestre6/SE2/workplace/code/src/eCos/lib/libtarget.a(infra_prestart.o)
 .data          0x400007bc        0x0 /home/masterzdran/WorkingArea/Isel/semestre6/SE2/workplace/code/src/eCos/lib/libtarget.a(infra_pkgstart.o)
 .data          0x400007bc        0x0 /home/masterzdran/WorkingArea/Isel/semestre6/SE2/workplace/code/src/eCos/lib/libtarget.a(infra_userstart.o)
 .data          0x400007bc        0x0 /home/masterzdran/WorkingArea/Isel/semestre6/SE2/workplace/code/src/eCos/lib/libtarget.a(infra_diag.o)
 .data._ZL5_putc
                0x400007bc        0x4 /home/masterzdran/WorkingArea/Isel/semestre6/SE2/workplace/code/src/eCos/lib/libtarget.a(infra_diag.o)
 .data          0x400007c0        0x0 /home/masterzdran/WorkingArea/Isel/semestre6/SE2/workplace/code/src/eCos/lib/libtarget.a(kernel_kapi.o)
 .data          0x400007c0        0x0 /home/masterzdran/WorkingArea/Isel/semestre6/SE2/workplace/code/src/eCos/lib/libtarget.a(kernel_thread.o)
 .data._ZN10Cyg_Thread15thread_data_mapE
                0x400007c0        0x4 /home/masterzdran/WorkingArea/Isel/semestre6/SE2/workplace/code/src/eCos/lib/libtarget.a(kernel_thread.o)
                0x400007c0                _ZN10Cyg_Thread15thread_data_mapE
 .data._ZL14next_unique_id
                0x400007c4        0x2 /home/masterzdran/WorkingArea/Isel/semestre6/SE2/workplace/code/src/eCos/lib/libtarget.a(kernel_thread.o)
 .data          0x400007c6        0x0 /home/masterzdran/WorkingArea/Isel/semestre6/SE2/workplace/code/src/eCos/lib/libtarget.a(kernel_except.o)
 .data          0x400007c6        0x0 /home/masterzdran/WorkingArea/Isel/semestre6/SE2/workplace/code/src/eCos/lib/libtarget.a(kernel_intr.o)
 .data          0x400007c6        0x0 /home/masterzdran/WorkingArea/Isel/semestre6/SE2/workplace/code/src/eCos/lib/libtarget.a(kernel_mlqueue.o)
 .data          0x400007c6        0x0 /home/masterzdran/WorkingArea/Isel/semestre6/SE2/workplace/code/src/eCos/lib/libtarget.a(kernel_sched.o)
 *fill*         0x400007c6        0x2 00
 .data.cyg_scheduler_sched_lock
                0x400007c8        0x4 /home/masterzdran/WorkingArea/Isel/semestre6/SE2/workplace/code/src/eCos/lib/libtarget.a(kernel_sched.o)
                0x400007c8                cyg_scheduler_sched_lock
 .data          0x400007cc        0x0 /home/masterzdran/WorkingArea/Isel/semestre6/SE2/workplace/code/src/eCos/lib/libtarget.a(kernel_cnt_sem.o)
 .data          0x400007cc        0x0 /home/masterzdran/WorkingArea/Isel/semestre6/SE2/workplace/code/src/eCos/lib/libtarget.a(kernel_flag.o)
 .data          0x400007cc        0x0 /home/masterzdran/WorkingArea/Isel/semestre6/SE2/workplace/code/src/eCos/lib/libtarget.a(kernel_mbox.o)
 .data          0x400007cc        0x0 /home/masterzdran/WorkingArea/Isel/semestre6/SE2/workplace/code/src/eCos/lib/libtarget.a(kernel_mutex.o)
 .data          0x400007cc        0x0 /home/masterzdran/WorkingArea/Isel/semestre6/SE2/workplace/code/src/eCos/lib/libtarget.a(language_c_libc_startup_mainthread.o)
 .data          0x400007cc        0x0 /home/masterzdran/WorkingArea/Isel/semestre6/SE2/workplace/code/src/eCos/lib/libtarget.a(language_c_libc_stdio_printf.o)
 .data          0x400007cc        0x0 /home/masterzdran/WorkingArea/Isel/semestre6/SE2/workplace/code/src/eCos/lib/libtarget.a(language_c_libc_stdio_vfnprintf.o)
 .data._ZZ9vfnprintfE6zeroes
                0x400007cc       0x10 /home/masterzdran/WorkingArea/Isel/semestre6/SE2/workplace/code/src/eCos/lib/libtarget.a(language_c_libc_stdio_vfnprintf.o)
 .data._ZZ9vfnprintfE6blanks
                0x400007dc       0x10 /home/masterzdran/WorkingArea/Isel/semestre6/SE2/workplace/code/src/eCos/lib/libtarget.a(language_c_libc_stdio_vfnprintf.o)
 .data          0x400007ec        0x0 /home/masterzdran/WorkingArea/Isel/semestre6/SE2/workplace/code/src/eCos/lib/libtarget.a(language_c_libc_string_memchr.o)
 .data          0x400007ec        0x0 /home/masterzdran/WorkingArea/Isel/semestre6/SE2/workplace/code/src/eCos/lib/libtarget.a(language_c_libc_string_strlen.o)
 .data          0x400007ec        0x0 /home/masterzdran/WorkingArea/Isel/semestre6/SE2/workplace/code/src/eCos/lib/libtarget.a(language_c_libc_string_strsuppt.o)
 .data          0x400007ec        0x0 /home/masterzdran/WorkingArea/Isel/semestre6/SE2/workplace/code/src/eCos/lib/libtarget.a(language_c_libm_s_modf.o)
 .data          0x400007ec        0x0 /home/masterzdran/WorkingArea/Isel/semestre6/SE2/workplace/code/src/eCos/lib/libtarget.a(hal_arm_arch_hal_misc.o)
 .data          0x400007ec        0x0 /home/masterzdran/WorkingArea/Isel/semestre6/SE2/workplace/code/src/eCos/lib/libtarget.a(hal_arm_arch_context.o)
 .data          0x400007ec        0x0 /home/masterzdran/WorkingArea/Isel/semestre6/SE2/workplace/code/src/eCos/lib/libtarget.a(hal_arm_lpc2xxx_var_lpc2xxx_misc.o)
 .data          0x400007ec        0x0 /home/masterzdran/WorkingArea/Isel/semestre6/SE2/workplace/code/src/eCos/lib/libtarget.a(hal_arm_lpc2xxx_p2106_p2106_misc.o)
 .data          0x400007ec        0x0 /home/masterzdran/WorkingArea/Isel/semestre6/SE2/workplace/code/src/eCos/lib/libtarget.a(kernel_clock.o)
 .data.rtc_resolution
                0x400007ec        0x8 /home/masterzdran/WorkingArea/Isel/semestre6/SE2/workplace/code/src/eCos/lib/libtarget.a(kernel_clock.o)
                0x400007ec                rtc_resolution
 .data          0x400007f4        0x0 /home/masterzdran/WorkingArea/Isel/semestre6/SE2/workplace/code/src/eCos/lib/libtarget.a(language_c_libc_startup_invokemain.o)
 .data          0x400007f4        0x0 /home/masterzdran/WorkingArea/Isel/semestre6/SE2/workplace/code/src/eCos/lib/libtarget.a(language_c_libc_stdio_stdout.o)
 .data          0x400007f4        0x0 /home/masterzdran/WorkingArea/Isel/semestre6/SE2/workplace/code/src/eCos/lib/libtarget.a(language_c_libc_stdio_stream.o)
 .data          0x400007f4        0x0 /home/masterzdran/WorkingArea/Isel/semestre6/SE2/workplace/code/src/eCos/lib/libtarget.a(language_c_libc_stdio_streambuf.o)
 .data          0x400007f4        0x0 /home/masterzdran/WorkingArea/Isel/semestre6/SE2/workplace/code/src/eCos/lib/libtarget.a(hal_arm_lpc2xxx_var_hal_diag.o)
 .data.lpc2xxx_ser_channels
                0x400007f4       0x20 /home/masterzdran/WorkingArea/Isel/semestre6/SE2/workplace/code/src/eCos/lib/libtarget.a(hal_arm_lpc2xxx_var_hal_diag.o)
 .data          0x40000814        0x0 /home/masterzdran/WorkingArea/Isel/semestre6/SE2/workplace/code/src/eCos/lib/libtarget.a(infra_memcpy.o)
 .data          0x40000814        0x0 /home/masterzdran/WorkingArea/Isel/semestre6/SE2/workplace/code/src/eCos/lib/libtarget.a(infra_delete.o)
 .data          0x40000814        0x0 /home/masterzdran/WorkingArea/Isel/semestre6/SE2/workplace/code/src/eCos/lib/libtarget.a(services_memalloc_common_malloc.o)
 .data          0x40000814        0x0 /home/masterzdran/WorkingArea/Isel/semestre6/SE2/workplace/code/src/eCos/lib/libtarget.a(services_memalloc_common_heaps.o)
 .data.cygmem_memalloc_heaps
                0x40000814        0x8 /home/masterzdran/WorkingArea/Isel/semestre6/SE2/workplace/code/src/eCos/lib/libtarget.a(services_memalloc_common_heaps.o)
                0x40000814                cygmem_memalloc_heaps
 .data          0x4000081c        0x0 /home/masterzdran/WorkingArea/Isel/semestre6/SE2/workplace/code/src/eCos/lib/libtarget.a(language_c_libc_startup_exit.o)
 .data          0x4000081c        0x0 /home/masterzdran/WorkingArea/Isel/semestre6/SE2/workplace/code/src/eCos/lib/libtarget.a(language_c_libc_stdio_fflush.o)
 .data          0x4000081c        0x0 /home/masterzdran/WorkingArea/Isel/semestre6/SE2/workplace/code/src/eCos/lib/libtarget.a(language_c_libc_stdio_stdiofiles.o)
 .data          0x4000081c        0x0 /home/masterzdran/WorkingArea/Isel/semestre6/SE2/workplace/code/src/eCos/lib/libtarget.a(language_c_libc_stdio_stdiosupp.o)
 .data          0x4000081c        0x0 /home/masterzdran/WorkingArea/Isel/semestre6/SE2/workplace/code/src/eCos/lib/libtarget.a(error_errno.o)
 .data          0x4000081c        0x0 /home/masterzdran/WorkingArea/Isel/semestre6/SE2/workplace/code/src/eCos/lib/libtarget.a(infra_memset.o)
 .data          0x4000081c        0x0 /home/masterzdran/WorkingArea/Isel/semestre6/SE2/workplace/code/src/eCos/lib/libtarget.a(services_memalloc_common_dlmalloc.o)
 .data          0x4000081c        0x0 /home/masterzdran/WorkingArea/Isel/semestre6/SE2/workplace/code/src/eCos/lib/libtarget.a(language_c_libc_startup__exit.o)
 .data          0x4000081c        0x0 /home/masterzdran/WorkingArea/Isel/semestre6/SE2/workplace/code/src/eCos/lib/libtarget.a(language_c_libc_startup_atexit.o)
 .data          0x4000081c        0x0 /home/masterzdran/WorkingArea/Isel/semestre6/SE2/workplace/code/src/eCos/lib/libtarget.a(language_c_libc_string_memmove.o)
 .data          0x4000081c        0x0 /home/masterzdran/Applications/eCos/3.0/gnutools/arm-eabi/bin/../lib/gcc/arm-eabi/4.3.2/libgcc.a(_divsi3.o)
 .data          0x4000081c        0x0 /home/masterzdran/Applications/eCos/3.0/gnutools/arm-eabi/bin/../lib/gcc/arm-eabi/4.3.2/libgcc.a(_dvmd_tls.o)
 .data          0x4000081c        0x0 /home/masterzdran/Applications/eCos/3.0/gnutools/arm-eabi/bin/../lib/gcc/arm-eabi/4.3.2/libgcc.a(_addsubdf3.o)
 .data          0x4000081c        0x0 /home/masterzdran/Applications/eCos/3.0/gnutools/arm-eabi/bin/../lib/gcc/arm-eabi/4.3.2/libgcc.a(_muldivdf3.o)
 .data          0x4000081c        0x0 /home/masterzdran/Applications/eCos/3.0/gnutools/arm-eabi/bin/../lib/gcc/arm-eabi/4.3.2/libgcc.a(_cmpdf2.o)
 .data          0x4000081c        0x0 /home/masterzdran/Applications/eCos/3.0/gnutools/arm-eabi/bin/../lib/gcc/arm-eabi/4.3.2/libgcc.a(_unorddf2.o)
 .data          0x4000081c        0x0 /home/masterzdran/Applications/eCos/3.0/gnutools/arm-eabi/bin/../lib/gcc/arm-eabi/4.3.2/libgcc.a(_fixdfsi.o)
 .data          0x4000081c        0x0 /home/masterzdran/Applications/eCos/3.0/gnutools/arm-eabi/bin/../lib/gcc/arm-eabi/4.3.2/libgcc.a(_aeabi_uldivmod.o)
 .data          0x4000081c        0x0 /home/masterzdran/Applications/eCos/3.0/gnutools/arm-eabi/bin/../lib/gcc/arm-eabi/4.3.2/libgcc.a(bpabi.o)
 .data          0x4000081c        0x0 /home/masterzdran/Applications/eCos/3.0/gnutools/arm-eabi/bin/../lib/gcc/arm-eabi/4.3.2/libgcc.a(_divdi3.o)
 .data          0x4000081c        0x0 /home/masterzdran/Applications/eCos/3.0/gnutools/arm-eabi/bin/../lib/gcc/arm-eabi/4.3.2/libgcc.a(_udivdi3.o)
 .data          0x4000081c        0x0 /home/masterzdran/Applications/eCos/3.0/gnutools/arm-eabi/bin/../lib/gcc/arm-eabi/4.3.2/libgcc.a(_udivsi3.o)
 .data          0x4000081c        0x0 /home/masterzdran/Applications/eCos/3.0/gnutools/arm-eabi/bin/../lib/gcc/arm-eabi/4.3.2/libgcc.a(_clz.o)
 *(.data1)
 *(.gnu.linkonce.d.*)
                0x4000081c                . = ALIGN (0x4)
 *(SORT(.ecos.table.*))
 .ecos.table.devtab.begin
                0x4000081c        0x0 /home/masterzdran/WorkingArea/Isel/semestre6/SE2/workplace/code/src/eCos/lib/extras.o
                0x4000081c                __DEVTAB__
 .ecos.table.devtab.data
                0x4000081c       0x38 /home/masterzdran/WorkingArea/Isel/semestre6/SE2/workplace/code/src/eCos/lib/extras.o
                0x40000838                haldiag_io0
                0x4000081c                tty_io_diag
 .ecos.table.devtab.finish
                0x40000854        0x0 /home/masterzdran/WorkingArea/Isel/semestre6/SE2/workplace/code/src/eCos/lib/extras.o
                0x40000854                __DEVTAB_END__
                0x40000854                . = ALIGN (0x4)
                0x40000854                __init_array_start__ = ABSOLUTE (.)
 *(SORT(.init_array.*))
 .init_array.10100
                0x40000854        0x4 /home/masterzdran/WorkingArea/Isel/semestre6/SE2/workplace/code/src/eCos/lib/libtarget.a(infra_diag.o)
 .init_array.11000
                0x40000858        0x4 /home/masterzdran/WorkingArea/Isel/semestre6/SE2/workplace/code/src/eCos/lib/libtarget.a(kernel_sched.o)
 .init_array.11100
                0x4000085c        0x4 /home/masterzdran/WorkingArea/Isel/semestre6/SE2/workplace/code/src/eCos/lib/libtarget.a(kernel_thread.o)
 .init_array.12000
                0x40000860        0x4 /home/masterzdran/WorkingArea/Isel/semestre6/SE2/workplace/code/src/eCos/lib/libtarget.a(kernel_except.o)
 .init_array.12000
                0x40000864        0x4 /home/masterzdran/WorkingArea/Isel/semestre6/SE2/workplace/code/src/eCos/lib/libtarget.a(kernel_intr.o)
 .init_array.14000
                0x40000868        0x4 /home/masterzdran/WorkingArea/Isel/semestre6/SE2/workplace/code/src/eCos/lib/libtarget.a(kernel_clock.o)
 .init_array.19900
                0x4000086c        0x4 /home/masterzdran/WorkingArea/Isel/semestre6/SE2/workplace/code/src/eCos/lib/libtarget.a(services_memalloc_common_heaps.o)
 .init_array.49000
                0x40000870        0x4 /home/masterzdran/WorkingArea/Isel/semestre6/SE2/workplace/code/src/eCos/lib/extras.o
 .init_array.56000
                0x40000874        0x4 /home/masterzdran/WorkingArea/Isel/semestre6/SE2/workplace/code/src/eCos/lib/libtarget.a(language_c_libc_startup_mainthread.o)
 .init_array.56000
                0x40000878        0x4 /home/masterzdran/WorkingArea/Isel/semestre6/SE2/workplace/code/src/eCos/lib/libtarget.a(language_c_libc_stdio_stdiofiles.o)
 .init_array.56001
                0x4000087c        0x4 /home/masterzdran/WorkingArea/Isel/semestre6/SE2/workplace/code/src/eCos/lib/libtarget.a(language_c_libc_stdio_stdout.o)
 .init_array.56100
                0x40000880        0x4 /home/masterzdran/WorkingArea/Isel/semestre6/SE2/workplace/code/src/eCos/lib/extras.o
 *(SORT(.init_array))
                0x40000884                __init_array_end__ = ABSOLUTE (.)
 *(.dynamic)
 *(.sdata*)
 *(.gnu.linkonce.s.*)
                0x40000884                . = ALIGN (0x4)
 *(.2ram.*)
                0x0000f878                __rom_data_start = LOADADDR (.data)
                0x40000884                __ram_data_end = .
                0x40000884                PROVIDE (__ram_data_end, .)
                0x40000884                _edata = .
                0x40000884                PROVIDE (edata, .)
                0x0000fbbc                PROVIDE (__rom_data_end, (LOADADDR (.data) + SIZEOF (.data)))

.bss            0x40000884     0x434c load address 0x0000fbbc
                0x40000884                __bss_start = ABSOLUTE (.)
 *(.scommon)
 *(.dynsbss)
 *(.sbss*)
 *(.gnu.linkonce.sb.*)
 *(.dynbss)
 *(.bss*)
 *fill*         0x40000884        0xc 00
 .bss           0x40000890     0x1310 /home/masterzdran/WorkingArea/Isel/semestre6/SE2/workplace/code/src/eCos/lib/vectors.o
                0x40000990                cyg_interrupt_stack_base
                0x40001990                cyg_interrupt_stack
 .bss           0x40001ba0        0x0 ./automato.o
 .bss           0x40001ba0        0x0 /home/masterzdran/WorkingArea/Isel/semestre6/SE2/workplace/code/src/eCos/lib/extras.o
 .bss.tty_private_info_diag
                0x40001ba0        0xc /home/masterzdran/WorkingArea/Isel/semestre6/SE2/workplace/code/src/eCos/lib/extras.o
 .bss._no_data  0x40001bac        0x4 /home/masterzdran/WorkingArea/Isel/semestre6/SE2/workplace/code/src/eCos/lib/extras.o
 .bss._ZZ15cyg_iso_c_startE11initialized
                0x40001bb0        0x4 /home/masterzdran/WorkingArea/Isel/semestre6/SE2/workplace/code/src/eCos/lib/extras.o
 .bss           0x40001bb4        0x0 /home/masterzdran/WorkingArea/Isel/semestre6/SE2/workplace/code/src/eCos/lib/libtarget.a(hal_common_hal_if.o)
 .bss.called.1998
                0x40001bb4        0x1 /home/masterzdran/WorkingArea/Isel/semestre6/SE2/workplace/code/src/eCos/lib/libtarget.a(hal_common_hal_if.o)
 *fill*         0x40001bb5        0x3 00
 .bss.__mangler_pos
                0x40001bb8        0x4 /home/masterzdran/WorkingArea/Isel/semestre6/SE2/workplace/code/src/eCos/lib/libtarget.a(hal_common_hal_if.o)
 .bss.comm_channels
                0x40001bbc       0x40 /home/masterzdran/WorkingArea/Isel/semestre6/SE2/workplace/code/src/eCos/lib/libtarget.a(hal_common_hal_if.o)
 .bss.__mangler_line
                0x40001bfc       0x64 /home/masterzdran/WorkingArea/Isel/semestre6/SE2/workplace/code/src/eCos/lib/libtarget.a(hal_common_hal_if.o)
 .bss           0x40001c60        0x0 /home/masterzdran/WorkingArea/Isel/semestre6/SE2/workplace/code/src/eCos/lib/libtarget.a(hal_common_hal_misc.o)
 .bss           0x40001c60        0x0 /home/masterzdran/WorkingArea/Isel/semestre6/SE2/workplace/code/src/eCos/lib/libtarget.a(io_common_iosys.o)
 .bss._init.2138
                0x40001c60        0x4 /home/masterzdran/WorkingArea/Isel/semestre6/SE2/workplace/code/src/eCos/lib/libtarget.a(io_common_iosys.o)
 .bss           0x40001c64        0x0 /home/masterzdran/WorkingArea/Isel/semestre6/SE2/workplace/code/src/eCos/lib/libtarget.a(infra_startup.o)
 .bss           0x40001c64        0x0 /home/masterzdran/WorkingArea/Isel/semestre6/SE2/workplace/code/src/eCos/lib/libtarget.a(infra_prestart.o)
 .bss           0x40001c64        0x0 /home/masterzdran/WorkingArea/Isel/semestre6/SE2/workplace/code/src/eCos/lib/libtarget.a(infra_pkgstart.o)
 .bss           0x40001c64        0x0 /home/masterzdran/WorkingArea/Isel/semestre6/SE2/workplace/code/src/eCos/lib/libtarget.a(infra_userstart.o)
 .bss           0x40001c64        0x0 /home/masterzdran/WorkingArea/Isel/semestre6/SE2/workplace/code/src/eCos/lib/libtarget.a(infra_diag.o)
 .bss           0x40001c64        0x0 /home/masterzdran/WorkingArea/Isel/semestre6/SE2/workplace/code/src/eCos/lib/libtarget.a(kernel_kapi.o)
 .bss           0x40001c64        0x0 /home/masterzdran/WorkingArea/Isel/semestre6/SE2/workplace/code/src/eCos/lib/libtarget.a(kernel_thread.o)
 .bss._ZN10Cyg_Thread11thread_listE
                0x40001c64        0x4 /home/masterzdran/WorkingArea/Isel/semestre6/SE2/workplace/code/src/eCos/lib/libtarget.a(kernel_thread.o)
                0x40001c64                _ZN10Cyg_Thread11thread_listE
 .bss.idle_thread_loops
                0x40001c68        0x4 /home/masterzdran/WorkingArea/Isel/semestre6/SE2/workplace/code/src/eCos/lib/libtarget.a(kernel_thread.o)
                0x40001c68                idle_thread_loops
 *fill*         0x40001c6c        0x4 00
 .bss.idle_thread
                0x40001c70       0xa8 /home/masterzdran/WorkingArea/Isel/semestre6/SE2/workplace/code/src/eCos/lib/libtarget.a(kernel_thread.o)
                0x40001c70                idle_thread
 .bss._ZL17idle_thread_stack
                0x40001d18      0x800 /home/masterzdran/WorkingArea/Isel/semestre6/SE2/workplace/code/src/eCos/lib/libtarget.a(kernel_thread.o)
 .bss           0x40002518        0x0 /home/masterzdran/WorkingArea/Isel/semestre6/SE2/workplace/code/src/eCos/lib/libtarget.a(kernel_except.o)
 .bss._ZN10Cyg_Thread17exception_controlE
                0x40002518        0x8 /home/masterzdran/WorkingArea/Isel/semestre6/SE2/workplace/code/src/eCos/lib/libtarget.a(kernel_except.o)
                0x40002518                _ZN10Cyg_Thread17exception_controlE
 .bss           0x40002520        0x0 /home/masterzdran/WorkingArea/Isel/semestre6/SE2/workplace/code/src/eCos/lib/libtarget.a(kernel_intr.o)
 .bss._ZN13Cyg_Interrupt15disable_counterE
                0x40002520        0x4 /home/masterzdran/WorkingArea/Isel/semestre6/SE2/workplace/code/src/eCos/lib/libtarget.a(kernel_intr.o)
                0x40002520                _ZN13Cyg_Interrupt15disable_counterE
 .bss._ZN13Cyg_Interrupt26interrupt_disable_spinlockE
                0x40002524        0x4 /home/masterzdran/WorkingArea/Isel/semestre6/SE2/workplace/code/src/eCos/lib/libtarget.a(kernel_intr.o)
                0x40002524                _ZN13Cyg_Interrupt26interrupt_disable_spinlockE
 .bss._ZN13Cyg_Interrupt23interrupt_disable_stateE
                0x40002528        0x4 /home/masterzdran/WorkingArea/Isel/semestre6/SE2/workplace/code/src/eCos/lib/libtarget.a(kernel_intr.o)
                0x40002528                _ZN13Cyg_Interrupt23interrupt_disable_stateE
 .bss._ZN13Cyg_Interrupt8dsr_listE
                0x4000252c        0x4 /home/masterzdran/WorkingArea/Isel/semestre6/SE2/workplace/code/src/eCos/lib/libtarget.a(kernel_intr.o)
                0x4000252c                _ZN13Cyg_Interrupt8dsr_listE
 .bss._ZN13Cyg_Interrupt13dsr_list_tailE
                0x40002530        0x4 /home/masterzdran/WorkingArea/Isel/semestre6/SE2/workplace/code/src/eCos/lib/libtarget.a(kernel_intr.o)
                0x40002530                _ZN13Cyg_Interrupt13dsr_list_tailE
 .bss           0x40002534        0x0 /home/masterzdran/WorkingArea/Isel/semestre6/SE2/workplace/code/src/eCos/lib/libtarget.a(kernel_mlqueue.o)
 .bss._ZN28Cyg_Scheduler_Implementation15timeslice_countE
                0x40002534        0x4 /home/masterzdran/WorkingArea/Isel/semestre6/SE2/workplace/code/src/eCos/lib/libtarget.a(kernel_mlqueue.o)
                0x40002534                _ZN28Cyg_Scheduler_Implementation15timeslice_countE
 .bss           0x40002538        0x0 /home/masterzdran/WorkingArea/Isel/semestre6/SE2/workplace/code/src/eCos/lib/libtarget.a(kernel_sched.o)
 .bss._ZN18Cyg_Scheduler_Base14current_threadE
                0x40002538        0x4 /home/masterzdran/WorkingArea/Isel/semestre6/SE2/workplace/code/src/eCos/lib/libtarget.a(kernel_sched.o)
                0x40002538                _ZN18Cyg_Scheduler_Base14current_threadE
 .bss._ZN18Cyg_Scheduler_Base15need_rescheduleE
                0x4000253c        0x4 /home/masterzdran/WorkingArea/Isel/semestre6/SE2/workplace/code/src/eCos/lib/libtarget.a(kernel_sched.o)
                0x4000253c                _ZN18Cyg_Scheduler_Base15need_rescheduleE
 .bss._ZN13Cyg_Scheduler9schedulerE
                0x40002540       0x84 /home/masterzdran/WorkingArea/Isel/semestre6/SE2/workplace/code/src/eCos/lib/libtarget.a(kernel_sched.o)
                0x40002540                _ZN13Cyg_Scheduler9schedulerE
 .bss._ZN18Cyg_Scheduler_Base15thread_switchesE
                0x400025c4        0x4 /home/masterzdran/WorkingArea/Isel/semestre6/SE2/workplace/code/src/eCos/lib/libtarget.a(kernel_sched.o)
                0x400025c4                _ZN18Cyg_Scheduler_Base15thread_switchesE
 .bss           0x400025c8        0x0 /home/masterzdran/WorkingArea/Isel/semestre6/SE2/workplace/code/src/eCos/lib/libtarget.a(kernel_cnt_sem.o)
 .bss           0x400025c8        0x0 /home/masterzdran/WorkingArea/Isel/semestre6/SE2/workplace/code/src/eCos/lib/libtarget.a(kernel_flag.o)
 .bss           0x400025c8        0x0 /home/masterzdran/WorkingArea/Isel/semestre6/SE2/workplace/code/src/eCos/lib/libtarget.a(kernel_mbox.o)
 .bss           0x400025c8        0x0 /home/masterzdran/WorkingArea/Isel/semestre6/SE2/workplace/code/src/eCos/lib/libtarget.a(kernel_mutex.o)
 .bss           0x400025c8        0x0 /home/masterzdran/WorkingArea/Isel/semestre6/SE2/workplace/code/src/eCos/lib/libtarget.a(language_c_libc_startup_mainthread.o)
 .bss.cyg_libc_main_thread
                0x400025c8       0xa8 /home/masterzdran/WorkingArea/Isel/semestre6/SE2/workplace/code/src/eCos/lib/libtarget.a(language_c_libc_startup_mainthread.o)
                0x400025c8                cyg_libc_main_thread
 .bss._ZL19cyg_libc_main_stack
                0x40002670     0x2000 /home/masterzdran/WorkingArea/Isel/semestre6/SE2/workplace/code/src/eCos/lib/libtarget.a(language_c_libc_startup_mainthread.o)
 .bss           0x40004670        0x0 /home/masterzdran/WorkingArea/Isel/semestre6/SE2/workplace/code/src/eCos/lib/libtarget.a(language_c_libc_stdio_printf.o)
 .bss           0x40004670        0x0 /home/masterzdran/WorkingArea/Isel/semestre6/SE2/workplace/code/src/eCos/lib/libtarget.a(language_c_libc_stdio_vfnprintf.o)
 .bss           0x40004670        0x0 /home/masterzdran/WorkingArea/Isel/semestre6/SE2/workplace/code/src/eCos/lib/libtarget.a(language_c_libc_string_memchr.o)
 .bss           0x40004670        0x0 /home/masterzdran/WorkingArea/Isel/semestre6/SE2/workplace/code/src/eCos/lib/libtarget.a(language_c_libc_string_strlen.o)
 .bss           0x40004670        0x0 /home/masterzdran/WorkingArea/Isel/semestre6/SE2/workplace/code/src/eCos/lib/libtarget.a(language_c_libc_string_strsuppt.o)
 .bss           0x40004670        0x0 /home/masterzdran/WorkingArea/Isel/semestre6/SE2/workplace/code/src/eCos/lib/libtarget.a(language_c_libm_s_modf.o)
 .bss           0x40004670        0x0 /home/masterzdran/WorkingArea/Isel/semestre6/SE2/workplace/code/src/eCos/lib/libtarget.a(hal_arm_arch_hal_misc.o)
 .bss           0x40004670        0x0 /home/masterzdran/WorkingArea/Isel/semestre6/SE2/workplace/code/src/eCos/lib/libtarget.a(hal_arm_arch_context.o)
 .bss           0x40004670        0x0 /home/masterzdran/WorkingArea/Isel/semestre6/SE2/workplace/code/src/eCos/lib/libtarget.a(hal_arm_lpc2xxx_var_lpc2xxx_misc.o)
 .bss._period   0x40004670        0x4 /home/masterzdran/WorkingArea/Isel/semestre6/SE2/workplace/code/src/eCos/lib/libtarget.a(hal_arm_lpc2xxx_var_lpc2xxx_misc.o)
 .bss           0x40004674        0x0 /home/masterzdran/WorkingArea/Isel/semestre6/SE2/workplace/code/src/eCos/lib/libtarget.a(hal_arm_lpc2xxx_p2106_p2106_misc.o)
 .bss.initialized.1284
                0x40004674        0x4 /home/masterzdran/WorkingArea/Isel/semestre6/SE2/workplace/code/src/eCos/lib/libtarget.a(hal_arm_lpc2xxx_p2106_p2106_misc.o)
 .bss           0x40004678        0x0 /home/masterzdran/WorkingArea/Isel/semestre6/SE2/workplace/code/src/eCos/lib/libtarget.a(kernel_clock.o)
 .bss._ZN9Cyg_Clock15real_time_clockE
                0x40004678        0x4 /home/masterzdran/WorkingArea/Isel/semestre6/SE2/workplace/code/src/eCos/lib/libtarget.a(kernel_clock.o)
                0x40004678                _ZN9Cyg_Clock15real_time_clockE
 *fill*         0x4000467c        0x4 00
 .bss._ZN17Cyg_RealTimeClock3rtcE
                0x40004680       0x38 /home/masterzdran/WorkingArea/Isel/semestre6/SE2/workplace/code/src/eCos/lib/libtarget.a(kernel_clock.o)
                0x40004680                _ZN17Cyg_RealTimeClock3rtcE
 .bss           0x400046b8        0x0 /home/masterzdran/WorkingArea/Isel/semestre6/SE2/workplace/code/src/eCos/lib/libtarget.a(language_c_libc_startup_invokemain.o)
 .bss           0x400046b8        0x0 /home/masterzdran/WorkingArea/Isel/semestre6/SE2/workplace/code/src/eCos/lib/libtarget.a(language_c_libc_stdio_stdout.o)
 .bss.cyg_libc_stdio_stdout
                0x400046b8       0x44 /home/masterzdran/WorkingArea/Isel/semestre6/SE2/workplace/code/src/eCos/lib/libtarget.a(language_c_libc_stdio_stdout.o)
                0x400046b8                cyg_libc_stdio_stdout
 .bss           0x400046fc        0x0 /home/masterzdran/WorkingArea/Isel/semestre6/SE2/workplace/code/src/eCos/lib/libtarget.a(language_c_libc_stdio_stream.o)
 .bss           0x400046fc        0x0 /home/masterzdran/WorkingArea/Isel/semestre6/SE2/workplace/code/src/eCos/lib/libtarget.a(language_c_libc_stdio_streambuf.o)
 .bss           0x400046fc        0x0 /home/masterzdran/WorkingArea/Isel/semestre6/SE2/workplace/code/src/eCos/lib/libtarget.a(hal_arm_lpc2xxx_var_hal_diag.o)
 .bss.irq_state.2421
                0x400046fc        0x4 /home/masterzdran/WorkingArea/Isel/semestre6/SE2/workplace/code/src/eCos/lib/libtarget.a(hal_arm_lpc2xxx_var_hal_diag.o)
 .bss           0x40004700        0x0 /home/masterzdran/WorkingArea/Isel/semestre6/SE2/workplace/code/src/eCos/lib/libtarget.a(infra_memcpy.o)
 .bss           0x40004700        0x0 /home/masterzdran/WorkingArea/Isel/semestre6/SE2/workplace/code/src/eCos/lib/libtarget.a(infra_delete.o)
 .bss           0x40004700        0x0 /home/masterzdran/WorkingArea/Isel/semestre6/SE2/workplace/code/src/eCos/lib/libtarget.a(services_memalloc_common_malloc.o)
 .bss           0x40004700        0x0 /home/masterzdran/WorkingArea/Isel/semestre6/SE2/workplace/code/src/eCos/lib/libtarget.a(services_memalloc_common_heaps.o)
 .bss.cygmem_pool_heap1
                0x40004700      0x414 /home/masterzdran/WorkingArea/Isel/semestre6/SE2/workplace/code/src/eCos/lib/libtarget.a(services_memalloc_common_heaps.o)
                0x40004700                cygmem_pool_heap1
 .bss           0x40004b14        0x0 /home/masterzdran/WorkingArea/Isel/semestre6/SE2/workplace/code/src/eCos/lib/libtarget.a(language_c_libc_startup_exit.o)
 .bss           0x40004b14        0x0 /home/masterzdran/WorkingArea/Isel/semestre6/SE2/workplace/code/src/eCos/lib/libtarget.a(language_c_libc_stdio_fflush.o)
 .bss           0x40004b14        0x0 /home/masterzdran/WorkingArea/Isel/semestre6/SE2/workplace/code/src/eCos/lib/libtarget.a(language_c_libc_stdio_stdiofiles.o)
 .bss._ZN20Cyg_libc_stdio_files5filesE
                0x40004b14       0x20 /home/masterzdran/WorkingArea/Isel/semestre6/SE2/workplace/code/src/eCos/lib/libtarget.a(language_c_libc_stdio_stdiofiles.o)
                0x40004b14                _ZN20Cyg_libc_stdio_files5filesE
 .bss._ZN20Cyg_libc_stdio_files10files_lockE
                0x40004b34       0x14 /home/masterzdran/WorkingArea/Isel/semestre6/SE2/workplace/code/src/eCos/lib/libtarget.a(language_c_libc_stdio_stdiofiles.o)
                0x40004b34                _ZN20Cyg_libc_stdio_files10files_lockE
 .bss           0x40004b48        0x0 /home/masterzdran/WorkingArea/Isel/semestre6/SE2/workplace/code/src/eCos/lib/libtarget.a(language_c_libc_stdio_stdiosupp.o)
 .bss           0x40004b48        0x0 /home/masterzdran/WorkingArea/Isel/semestre6/SE2/workplace/code/src/eCos/lib/libtarget.a(error_errno.o)
 .bss           0x40004b48        0x0 /home/masterzdran/WorkingArea/Isel/semestre6/SE2/workplace/code/src/eCos/lib/libtarget.a(infra_memset.o)
 .bss           0x40004b48        0x0 /home/masterzdran/WorkingArea/Isel/semestre6/SE2/workplace/code/src/eCos/lib/libtarget.a(services_memalloc_common_dlmalloc.o)
 .bss           0x40004b48        0x0 /home/masterzdran/WorkingArea/Isel/semestre6/SE2/workplace/code/src/eCos/lib/libtarget.a(language_c_libc_startup__exit.o)
 .bss           0x40004b48        0x0 /home/masterzdran/WorkingArea/Isel/semestre6/SE2/workplace/code/src/eCos/lib/libtarget.a(language_c_libc_startup_atexit.o)
 .bss._ZL30cyg_libc_atexit_handlers_count
                0x40004b48        0x4 /home/masterzdran/WorkingArea/Isel/semestre6/SE2/workplace/code/src/eCos/lib/libtarget.a(language_c_libc_startup_atexit.o)
 .bss._ZL24cyg_libc_atexit_handlers
                0x40004b4c       0x80 /home/masterzdran/WorkingArea/Isel/semestre6/SE2/workplace/code/src/eCos/lib/libtarget.a(language_c_libc_startup_atexit.o)
 .bss           0x40004bcc        0x0 /home/masterzdran/WorkingArea/Isel/semestre6/SE2/workplace/code/src/eCos/lib/libtarget.a(language_c_libc_string_memmove.o)
 .bss           0x40004bcc        0x0 /home/masterzdran/Applications/eCos/3.0/gnutools/arm-eabi/bin/../lib/gcc/arm-eabi/4.3.2/libgcc.a(_divsi3.o)
 .bss           0x40004bcc        0x0 /home/masterzdran/Applications/eCos/3.0/gnutools/arm-eabi/bin/../lib/gcc/arm-eabi/4.3.2/libgcc.a(_dvmd_tls.o)
 .bss           0x40004bcc        0x0 /home/masterzdran/Applications/eCos/3.0/gnutools/arm-eabi/bin/../lib/gcc/arm-eabi/4.3.2/libgcc.a(_addsubdf3.o)
 .bss           0x40004bcc        0x0 /home/masterzdran/Applications/eCos/3.0/gnutools/arm-eabi/bin/../lib/gcc/arm-eabi/4.3.2/libgcc.a(_muldivdf3.o)
 .bss           0x40004bcc        0x0 /home/masterzdran/Applications/eCos/3.0/gnutools/arm-eabi/bin/../lib/gcc/arm-eabi/4.3.2/libgcc.a(_cmpdf2.o)
 .bss           0x40004bcc        0x0 /home/masterzdran/Applications/eCos/3.0/gnutools/arm-eabi/bin/../lib/gcc/arm-eabi/4.3.2/libgcc.a(_unorddf2.o)
 .bss           0x40004bcc        0x0 /home/masterzdran/Applications/eCos/3.0/gnutools/arm-eabi/bin/../lib/gcc/arm-eabi/4.3.2/libgcc.a(_fixdfsi.o)
 .bss           0x40004bcc        0x0 /home/masterzdran/Applications/eCos/3.0/gnutools/arm-eabi/bin/../lib/gcc/arm-eabi/4.3.2/libgcc.a(_aeabi_uldivmod.o)
 .bss           0x40004bcc        0x0 /home/masterzdran/Applications/eCos/3.0/gnutools/arm-eabi/bin/../lib/gcc/arm-eabi/4.3.2/libgcc.a(bpabi.o)
 .bss           0x40004bcc        0x0 /home/masterzdran/Applications/eCos/3.0/gnutools/arm-eabi/bin/../lib/gcc/arm-eabi/4.3.2/libgcc.a(_divdi3.o)
 .bss           0x40004bcc        0x0 /home/masterzdran/Applications/eCos/3.0/gnutools/arm-eabi/bin/../lib/gcc/arm-eabi/4.3.2/libgcc.a(_udivdi3.o)
 .bss           0x40004bcc        0x0 /home/masterzdran/Applications/eCos/3.0/gnutools/arm-eabi/bin/../lib/gcc/arm-eabi/4.3.2/libgcc.a(_udivsi3.o)
 .bss           0x40004bcc        0x0 /home/masterzdran/Applications/eCos/3.0/gnutools/arm-eabi/bin/../lib/gcc/arm-eabi/4.3.2/libgcc.a(_clz.o)
 *(.gnu.linkonce.b.*)
 *(COMMON)
 COMMON         0x40004bcc        0x4 /home/masterzdran/WorkingArea/Isel/semestre6/SE2/workplace/code/src/eCos/lib/libtarget.a(hal_common_hal_misc.o)
                0x40004bcc                _cyg_hal_compiler_dummy
                0x40004bd0                __bss_end = ABSOLUTE (.)
                0x40004bd0                __heap1 = ALIGN (0x8)
                0x40004bd0                . = ALIGN (0x4)
                0x40004bd0                _end = .
                0x40004bd0                PROVIDE (end, .)
OUTPUT(Automato.elf elf32-littlearm)

.ARM.attributes
                0x00000000       0x2c
 .ARM.attributes
                0x00000000       0x1e /home/masterzdran/WorkingArea/Isel/semestre6/SE2/workplace/code/src/eCos/lib/vectors.o
 .ARM.attributes
                0x0000001e       0x30 ./automato.o
 .ARM.attributes
                0x0000004e       0x2e /home/masterzdran/WorkingArea/Isel/semestre6/SE2/workplace/code/src/eCos/lib/extras.o
 .ARM.attributes
                0x0000007c       0x2e /home/masterzdran/WorkingArea/Isel/semestre6/SE2/workplace/code/src/eCos/lib/libtarget.a(hal_common_hal_if.o)
 .ARM.attributes
                0x000000aa       0x2e /home/masterzdran/WorkingArea/Isel/semestre6/SE2/workplace/code/src/eCos/lib/libtarget.a(hal_common_hal_misc.o)
 .ARM.attributes
                0x000000d8       0x2e /home/masterzdran/WorkingArea/Isel/semestre6/SE2/workplace/code/src/eCos/lib/libtarget.a(io_common_iosys.o)
 .ARM.attributes
                0x00000106       0x2e /home/masterzdran/WorkingArea/Isel/semestre6/SE2/workplace/code/src/eCos/lib/libtarget.a(infra_startup.o)
 .ARM.attributes
                0x00000134       0x2e /home/masterzdran/WorkingArea/Isel/semestre6/SE2/workplace/code/src/eCos/lib/libtarget.a(infra_prestart.o)
 .ARM.attributes
                0x00000162       0x2e /home/masterzdran/WorkingArea/Isel/semestre6/SE2/workplace/code/src/eCos/lib/libtarget.a(infra_pkgstart.o)
 .ARM.attributes
                0x00000190       0x2e /home/masterzdran/WorkingArea/Isel/semestre6/SE2/workplace/code/src/eCos/lib/libtarget.a(infra_userstart.o)
 .ARM.attributes
                0x000001be       0x2e /home/masterzdran/WorkingArea/Isel/semestre6/SE2/workplace/code/src/eCos/lib/libtarget.a(infra_diag.o)
 .ARM.attributes
                0x000001ec       0x2e /home/masterzdran/WorkingArea/Isel/semestre6/SE2/workplace/code/src/eCos/lib/libtarget.a(kernel_kapi.o)
 .ARM.attributes
                0x0000021a       0x2e /home/masterzdran/WorkingArea/Isel/semestre6/SE2/workplace/code/src/eCos/lib/libtarget.a(kernel_thread.o)
 .ARM.attributes
                0x00000248       0x2e /home/masterzdran/WorkingArea/Isel/semestre6/SE2/workplace/code/src/eCos/lib/libtarget.a(kernel_except.o)
 .ARM.attributes
                0x00000276       0x2e /home/masterzdran/WorkingArea/Isel/semestre6/SE2/workplace/code/src/eCos/lib/libtarget.a(kernel_intr.o)
 .ARM.attributes
                0x000002a4       0x2e /home/masterzdran/WorkingArea/Isel/semestre6/SE2/workplace/code/src/eCos/lib/libtarget.a(kernel_mlqueue.o)
 .ARM.attributes
                0x000002d2       0x2e /home/masterzdran/WorkingArea/Isel/semestre6/SE2/workplace/code/src/eCos/lib/libtarget.a(kernel_sched.o)
 .ARM.attributes
                0x00000300       0x2e /home/masterzdran/WorkingArea/Isel/semestre6/SE2/workplace/code/src/eCos/lib/libtarget.a(kernel_cnt_sem.o)
 .ARM.attributes
                0x0000032e       0x2e /home/masterzdran/WorkingArea/Isel/semestre6/SE2/workplace/code/src/eCos/lib/libtarget.a(kernel_flag.o)
 .ARM.attributes
                0x0000035c       0x2e /home/masterzdran/WorkingArea/Isel/semestre6/SE2/workplace/code/src/eCos/lib/libtarget.a(kernel_mbox.o)
 .ARM.attributes
                0x0000038a       0x2e /home/masterzdran/WorkingArea/Isel/semestre6/SE2/workplace/code/src/eCos/lib/libtarget.a(kernel_mutex.o)
 .ARM.attributes
                0x000003b8       0x2e /home/masterzdran/WorkingArea/Isel/semestre6/SE2/workplace/code/src/eCos/lib/libtarget.a(language_c_libc_startup_mainthread.o)
 .ARM.attributes
                0x000003e6       0x2e /home/masterzdran/WorkingArea/Isel/semestre6/SE2/workplace/code/src/eCos/lib/libtarget.a(language_c_libc_stdio_printf.o)
 .ARM.attributes
                0x00000414       0x2e /home/masterzdran/WorkingArea/Isel/semestre6/SE2/workplace/code/src/eCos/lib/libtarget.a(language_c_libc_stdio_vfnprintf.o)
 .ARM.attributes
                0x00000442       0x2e /home/masterzdran/WorkingArea/Isel/semestre6/SE2/workplace/code/src/eCos/lib/libtarget.a(language_c_libc_string_memchr.o)
 .ARM.attributes
                0x00000470       0x2e /home/masterzdran/WorkingArea/Isel/semestre6/SE2/workplace/code/src/eCos/lib/libtarget.a(language_c_libc_string_strlen.o)
 .ARM.attributes
                0x0000049e       0x2c /home/masterzdran/WorkingArea/Isel/semestre6/SE2/workplace/code/src/eCos/lib/libtarget.a(language_c_libc_string_strsuppt.o)
 .ARM.attributes
                0x000004ca       0x2e /home/masterzdran/WorkingArea/Isel/semestre6/SE2/workplace/code/src/eCos/lib/libtarget.a(language_c_libm_s_modf.o)
 .ARM.attributes
                0x000004f8       0x2e /home/masterzdran/WorkingArea/Isel/semestre6/SE2/workplace/code/src/eCos/lib/libtarget.a(hal_arm_arch_hal_misc.o)
 .ARM.attributes
                0x00000526       0x1e /home/masterzdran/WorkingArea/Isel/semestre6/SE2/workplace/code/src/eCos/lib/libtarget.a(hal_arm_arch_context.o)
 .ARM.attributes
                0x00000544       0x2e /home/masterzdran/WorkingArea/Isel/semestre6/SE2/workplace/code/src/eCos/lib/libtarget.a(hal_arm_lpc2xxx_var_lpc2xxx_misc.o)
 .ARM.attributes
                0x00000572       0x2e /home/masterzdran/WorkingArea/Isel/semestre6/SE2/workplace/code/src/eCos/lib/libtarget.a(hal_arm_lpc2xxx_p2106_p2106_misc.o)
 .ARM.attributes
                0x000005a0       0x2e /home/masterzdran/WorkingArea/Isel/semestre6/SE2/workplace/code/src/eCos/lib/libtarget.a(kernel_clock.o)
 .ARM.attributes
                0x000005ce       0x2e /home/masterzdran/WorkingArea/Isel/semestre6/SE2/workplace/code/src/eCos/lib/libtarget.a(language_c_libc_startup_invokemain.o)
 .ARM.attributes
                0x000005fc       0x2e /home/masterzdran/WorkingArea/Isel/semestre6/SE2/workplace/code/src/eCos/lib/libtarget.a(language_c_libc_stdio_stdout.o)
 .ARM.attributes
                0x0000062a       0x2e /home/masterzdran/WorkingArea/Isel/semestre6/SE2/workplace/code/src/eCos/lib/libtarget.a(language_c_libc_stdio_stream.o)
 .ARM.attributes
                0x00000658       0x2e /home/masterzdran/WorkingArea/Isel/semestre6/SE2/workplace/code/src/eCos/lib/libtarget.a(language_c_libc_stdio_streambuf.o)
 .ARM.attributes
                0x00000686       0x2e /home/masterzdran/WorkingArea/Isel/semestre6/SE2/workplace/code/src/eCos/lib/libtarget.a(hal_arm_lpc2xxx_var_hal_diag.o)
 .ARM.attributes
                0x000006b4       0x2e /home/masterzdran/WorkingArea/Isel/semestre6/SE2/workplace/code/src/eCos/lib/libtarget.a(infra_memcpy.o)
 .ARM.attributes
                0x000006e2       0x2e /home/masterzdran/WorkingArea/Isel/semestre6/SE2/workplace/code/src/eCos/lib/libtarget.a(infra_delete.o)
 .ARM.attributes
                0x00000710       0x2e /home/masterzdran/WorkingArea/Isel/semestre6/SE2/workplace/code/src/eCos/lib/libtarget.a(services_memalloc_common_malloc.o)
 .ARM.attributes
                0x0000073e       0x2e /home/masterzdran/WorkingArea/Isel/semestre6/SE2/workplace/code/src/eCos/lib/libtarget.a(services_memalloc_common_heaps.o)
 .ARM.attributes
                0x0000076c       0x2e /home/masterzdran/WorkingArea/Isel/semestre6/SE2/workplace/code/src/eCos/lib/libtarget.a(language_c_libc_startup_exit.o)
 .ARM.attributes
                0x0000079a       0x2e /home/masterzdran/WorkingArea/Isel/semestre6/SE2/workplace/code/src/eCos/lib/libtarget.a(language_c_libc_stdio_fflush.o)
 .ARM.attributes
                0x000007c8       0x2e /home/masterzdran/WorkingArea/Isel/semestre6/SE2/workplace/code/src/eCos/lib/libtarget.a(language_c_libc_stdio_stdiofiles.o)
 .ARM.attributes
                0x000007f6       0x2e /home/masterzdran/WorkingArea/Isel/semestre6/SE2/workplace/code/src/eCos/lib/libtarget.a(language_c_libc_stdio_stdiosupp.o)
 .ARM.attributes
                0x00000824       0x2e /home/masterzdran/WorkingArea/Isel/semestre6/SE2/workplace/code/src/eCos/lib/libtarget.a(error_errno.o)
 .ARM.attributes
                0x00000852       0x2e /home/masterzdran/WorkingArea/Isel/semestre6/SE2/workplace/code/src/eCos/lib/libtarget.a(infra_memset.o)
 .ARM.attributes
                0x00000880       0x2e /home/masterzdran/WorkingArea/Isel/semestre6/SE2/workplace/code/src/eCos/lib/libtarget.a(services_memalloc_common_dlmalloc.o)
 .ARM.attributes
                0x000008ae       0x2e /home/masterzdran/WorkingArea/Isel/semestre6/SE2/workplace/code/src/eCos/lib/libtarget.a(language_c_libc_startup__exit.o)
 .ARM.attributes
                0x000008dc       0x2e /home/masterzdran/WorkingArea/Isel/semestre6/SE2/workplace/code/src/eCos/lib/libtarget.a(language_c_libc_startup_atexit.o)
 .ARM.attributes
                0x0000090a       0x2e /home/masterzdran/WorkingArea/Isel/semestre6/SE2/workplace/code/src/eCos/lib/libtarget.a(language_c_libc_string_memmove.o)
 .ARM.attributes
                0x00000938       0x1e /home/masterzdran/Applications/eCos/3.0/gnutools/arm-eabi/bin/../lib/gcc/arm-eabi/4.3.2/libgcc.a(_divsi3.o)
 .ARM.attributes
                0x00000956       0x1e /home/masterzdran/Applications/eCos/3.0/gnutools/arm-eabi/bin/../lib/gcc/arm-eabi/4.3.2/libgcc.a(_dvmd_tls.o)
 .ARM.attributes
                0x00000974       0x1e /home/masterzdran/Applications/eCos/3.0/gnutools/arm-eabi/bin/../lib/gcc/arm-eabi/4.3.2/libgcc.a(_addsubdf3.o)
 .ARM.attributes
                0x00000992       0x1e /home/masterzdran/Applications/eCos/3.0/gnutools/arm-eabi/bin/../lib/gcc/arm-eabi/4.3.2/libgcc.a(_muldivdf3.o)
 .ARM.attributes
                0x000009b0       0x1e /home/masterzdran/Applications/eCos/3.0/gnutools/arm-eabi/bin/../lib/gcc/arm-eabi/4.3.2/libgcc.a(_cmpdf2.o)
 .ARM.attributes
                0x000009ce       0x1e /home/masterzdran/Applications/eCos/3.0/gnutools/arm-eabi/bin/../lib/gcc/arm-eabi/4.3.2/libgcc.a(_unorddf2.o)
 .ARM.attributes
                0x000009ec       0x1e /home/masterzdran/Applications/eCos/3.0/gnutools/arm-eabi/bin/../lib/gcc/arm-eabi/4.3.2/libgcc.a(_fixdfsi.o)
 .ARM.attributes
                0x00000a0a       0x1e /home/masterzdran/Applications/eCos/3.0/gnutools/arm-eabi/bin/../lib/gcc/arm-eabi/4.3.2/libgcc.a(_aeabi_uldivmod.o)
 .ARM.attributes
                0x00000a28       0x2e /home/masterzdran/Applications/eCos/3.0/gnutools/arm-eabi/bin/../lib/gcc/arm-eabi/4.3.2/libgcc.a(bpabi.o)
 .ARM.attributes
                0x00000a56       0x2e /home/masterzdran/Applications/eCos/3.0/gnutools/arm-eabi/bin/../lib/gcc/arm-eabi/4.3.2/libgcc.a(_divdi3.o)
 .ARM.attributes
                0x00000a84       0x2e /home/masterzdran/Applications/eCos/3.0/gnutools/arm-eabi/bin/../lib/gcc/arm-eabi/4.3.2/libgcc.a(_udivdi3.o)
 .ARM.attributes
                0x00000ab2       0x1e /home/masterzdran/Applications/eCos/3.0/gnutools/arm-eabi/bin/../lib/gcc/arm-eabi/4.3.2/libgcc.a(_udivsi3.o)
 .ARM.attributes
                0x00000ad0       0x2c /home/masterzdran/Applications/eCos/3.0/gnutools/arm-eabi/bin/../lib/gcc/arm-eabi/4.3.2/libgcc.a(_clz.o)

.debug_ranges   0x00000000     0x45a0
 .debug_ranges  0x00000000       0x20 /home/masterzdran/WorkingArea/Isel/semestre6/SE2/workplace/code/src/eCos/lib/vectors.o
 .debug_ranges  0x00000020      0x118 /home/masterzdran/WorkingArea/Isel/semestre6/SE2/workplace/code/src/eCos/lib/extras.o
 .debug_ranges  0x00000138      0x278 /home/masterzdran/WorkingArea/Isel/semestre6/SE2/workplace/code/src/eCos/lib/libtarget.a(hal_common_hal_if.o)
 .debug_ranges  0x000003b0       0x28 /home/masterzdran/WorkingArea/Isel/semestre6/SE2/workplace/code/src/eCos/lib/libtarget.a(hal_common_hal_misc.o)
 .debug_ranges  0x000003d8       0xb8 /home/masterzdran/WorkingArea/Isel/semestre6/SE2/workplace/code/src/eCos/lib/libtarget.a(io_common_iosys.o)
 .debug_ranges  0x00000490       0x18 /home/masterzdran/WorkingArea/Isel/semestre6/SE2/workplace/code/src/eCos/lib/libtarget.a(infra_startup.o)
 .debug_ranges  0x000004a8       0x18 /home/masterzdran/WorkingArea/Isel/semestre6/SE2/workplace/code/src/eCos/lib/libtarget.a(infra_prestart.o)
 .debug_ranges  0x000004c0       0x18 /home/masterzdran/WorkingArea/Isel/semestre6/SE2/workplace/code/src/eCos/lib/libtarget.a(infra_pkgstart.o)
 .debug_ranges  0x000004d8       0x18 /home/masterzdran/WorkingArea/Isel/semestre6/SE2/workplace/code/src/eCos/lib/libtarget.a(infra_userstart.o)
 .debug_ranges  0x000004f0      0x188 /home/masterzdran/WorkingArea/Isel/semestre6/SE2/workplace/code/src/eCos/lib/libtarget.a(infra_diag.o)
 .debug_ranges  0x00000678      0x6a8 /home/masterzdran/WorkingArea/Isel/semestre6/SE2/workplace/code/src/eCos/lib/libtarget.a(kernel_kapi.o)
 .debug_ranges  0x00000d20      0x620 /home/masterzdran/WorkingArea/Isel/semestre6/SE2/workplace/code/src/eCos/lib/libtarget.a(kernel_thread.o)
 .debug_ranges  0x00001340       0x50 /home/masterzdran/WorkingArea/Isel/semestre6/SE2/workplace/code/src/eCos/lib/libtarget.a(kernel_except.o)
 .debug_ranges  0x00001390      0x148 /home/masterzdran/WorkingArea/Isel/semestre6/SE2/workplace/code/src/eCos/lib/libtarget.a(kernel_intr.o)
 .debug_ranges  0x000014d8      0x338 /home/masterzdran/WorkingArea/Isel/semestre6/SE2/workplace/code/src/eCos/lib/libtarget.a(kernel_mlqueue.o)
 .debug_ranges  0x00001810      0x2a0 /home/masterzdran/WorkingArea/Isel/semestre6/SE2/workplace/code/src/eCos/lib/libtarget.a(kernel_sched.o)
 .debug_ranges  0x00001ab0      0x268 /home/masterzdran/WorkingArea/Isel/semestre6/SE2/workplace/code/src/eCos/lib/libtarget.a(kernel_cnt_sem.o)
 .debug_ranges  0x00001d18      0x430 /home/masterzdran/WorkingArea/Isel/semestre6/SE2/workplace/code/src/eCos/lib/libtarget.a(kernel_flag.o)
 .debug_ranges  0x00002148      0x6f0 /home/masterzdran/WorkingArea/Isel/semestre6/SE2/workplace/code/src/eCos/lib/libtarget.a(kernel_mbox.o)
 .debug_ranges  0x00002838      0x700 /home/masterzdran/WorkingArea/Isel/semestre6/SE2/workplace/code/src/eCos/lib/libtarget.a(kernel_mutex.o)
 .debug_ranges  0x00002f38       0x28 /home/masterzdran/WorkingArea/Isel/semestre6/SE2/workplace/code/src/eCos/lib/libtarget.a(language_c_libc_startup_mainthread.o)
 .debug_ranges  0x00002f60       0x18 /home/masterzdran/WorkingArea/Isel/semestre6/SE2/workplace/code/src/eCos/lib/libtarget.a(language_c_libc_stdio_printf.o)
 .debug_ranges  0x00002f78      0x3c0 /home/masterzdran/WorkingArea/Isel/semestre6/SE2/workplace/code/src/eCos/lib/libtarget.a(language_c_libc_stdio_vfnprintf.o)
 .debug_ranges  0x00003338       0x18 /home/masterzdran/WorkingArea/Isel/semestre6/SE2/workplace/code/src/eCos/lib/libtarget.a(language_c_libc_string_memchr.o)
 .debug_ranges  0x00003350       0x18 /home/masterzdran/WorkingArea/Isel/semestre6/SE2/workplace/code/src/eCos/lib/libtarget.a(language_c_libc_string_strlen.o)
 .debug_ranges  0x00003368       0x18 /home/masterzdran/WorkingArea/Isel/semestre6/SE2/workplace/code/src/eCos/lib/libtarget.a(language_c_libm_s_modf.o)
 .debug_ranges  0x00003380       0x40 /home/masterzdran/WorkingArea/Isel/semestre6/SE2/workplace/code/src/eCos/lib/libtarget.a(hal_arm_arch_hal_misc.o)
 .debug_ranges  0x000033c0       0xc8 /home/masterzdran/WorkingArea/Isel/semestre6/SE2/workplace/code/src/eCos/lib/libtarget.a(hal_arm_lpc2xxx_var_lpc2xxx_misc.o)
 .debug_ranges  0x00003488       0x20 /home/masterzdran/WorkingArea/Isel/semestre6/SE2/workplace/code/src/eCos/lib/libtarget.a(hal_arm_lpc2xxx_p2106_p2106_misc.o)
 .debug_ranges  0x000034a8      0x690 /home/masterzdran/WorkingArea/Isel/semestre6/SE2/workplace/code/src/eCos/lib/libtarget.a(kernel_clock.o)
 .debug_ranges  0x00003b38       0x18 /home/masterzdran/WorkingArea/Isel/semestre6/SE2/workplace/code/src/eCos/lib/libtarget.a(language_c_libc_startup_invokemain.o)
 .debug_ranges  0x00003b50       0x40 /home/masterzdran/WorkingArea/Isel/semestre6/SE2/workplace/code/src/eCos/lib/libtarget.a(language_c_libc_stdio_stdout.o)
 .debug_ranges  0x00003b90      0x3d8 /home/masterzdran/WorkingArea/Isel/semestre6/SE2/workplace/code/src/eCos/lib/libtarget.a(language_c_libc_stdio_stream.o)
 .debug_ranges  0x00003f68       0x18 /home/masterzdran/WorkingArea/Isel/semestre6/SE2/workplace/code/src/eCos/lib/libtarget.a(language_c_libc_stdio_streambuf.o)
 .debug_ranges  0x00003f80      0x138 /home/masterzdran/WorkingArea/Isel/semestre6/SE2/workplace/code/src/eCos/lib/libtarget.a(hal_arm_lpc2xxx_var_hal_diag.o)
 .debug_ranges  0x000040b8       0x18 /home/masterzdran/WorkingArea/Isel/semestre6/SE2/workplace/code/src/eCos/lib/libtarget.a(infra_memcpy.o)
 .debug_ranges  0x000040d0       0x20 /home/masterzdran/WorkingArea/Isel/semestre6/SE2/workplace/code/src/eCos/lib/libtarget.a(infra_delete.o)
 .debug_ranges  0x000040f0      0x228 /home/masterzdran/WorkingArea/Isel/semestre6/SE2/workplace/code/src/eCos/lib/libtarget.a(services_memalloc_common_malloc.o)
 .debug_ranges  0x00004318       0xa0 /home/masterzdran/WorkingArea/Isel/semestre6/SE2/workplace/code/src/eCos/lib/libtarget.a(services_memalloc_common_heaps.o)
 .debug_ranges  0x000043b8       0x18 /home/masterzdran/WorkingArea/Isel/semestre6/SE2/workplace/code/src/eCos/lib/libtarget.a(language_c_libc_startup_exit.o)
 .debug_ranges  0x000043d0       0x50 /home/masterzdran/WorkingArea/Isel/semestre6/SE2/workplace/code/src/eCos/lib/libtarget.a(language_c_libc_stdio_fflush.o)
 .debug_ranges  0x00004420       0x28 /home/masterzdran/WorkingArea/Isel/semestre6/SE2/workplace/code/src/eCos/lib/libtarget.a(language_c_libc_stdio_stdiofiles.o)
 .debug_ranges  0x00004448       0x18 /home/masterzdran/WorkingArea/Isel/semestre6/SE2/workplace/code/src/eCos/lib/libtarget.a(language_c_libc_stdio_stdiosupp.o)
 .debug_ranges  0x00004460       0x18 /home/masterzdran/WorkingArea/Isel/semestre6/SE2/workplace/code/src/eCos/lib/libtarget.a(error_errno.o)
 .debug_ranges  0x00004478       0x18 /home/masterzdran/WorkingArea/Isel/semestre6/SE2/workplace/code/src/eCos/lib/libtarget.a(infra_memset.o)
 .debug_ranges  0x00004490       0xc0 /home/masterzdran/WorkingArea/Isel/semestre6/SE2/workplace/code/src/eCos/lib/libtarget.a(services_memalloc_common_dlmalloc.o)
 .debug_ranges  0x00004550       0x18 /home/masterzdran/WorkingArea/Isel/semestre6/SE2/workplace/code/src/eCos/lib/libtarget.a(language_c_libc_startup__exit.o)
 .debug_ranges  0x00004568       0x20 /home/masterzdran/WorkingArea/Isel/semestre6/SE2/workplace/code/src/eCos/lib/libtarget.a(language_c_libc_startup_atexit.o)
 .debug_ranges  0x00004588       0x18 /home/masterzdran/WorkingArea/Isel/semestre6/SE2/workplace/code/src/eCos/lib/libtarget.a(language_c_libc_string_memmove.o)

.comment        0x00000000      0xa5f
 .comment       0x00000000       0x2d ./automato.o
 .comment       0x0000002d      0x10e /home/masterzdran/WorkingArea/Isel/semestre6/SE2/workplace/code/src/eCos/lib/extras.o
 .comment       0x0000013b       0x2d /home/masterzdran/WorkingArea/Isel/semestre6/SE2/workplace/code/src/eCos/lib/libtarget.a(hal_common_hal_if.o)
 .comment       0x00000168       0x2d /home/masterzdran/WorkingArea/Isel/semestre6/SE2/workplace/code/src/eCos/lib/libtarget.a(hal_common_hal_misc.o)
 .comment       0x00000195       0x2d /home/masterzdran/WorkingArea/Isel/semestre6/SE2/workplace/code/src/eCos/lib/libtarget.a(io_common_iosys.o)
 .comment       0x000001c2       0x2d /home/masterzdran/WorkingArea/Isel/semestre6/SE2/workplace/code/src/eCos/lib/libtarget.a(infra_startup.o)
 .comment       0x000001ef       0x2d /home/masterzdran/WorkingArea/Isel/semestre6/SE2/workplace/code/src/eCos/lib/libtarget.a(infra_prestart.o)
 .comment       0x0000021c       0x2d /home/masterzdran/WorkingArea/Isel/semestre6/SE2/workplace/code/src/eCos/lib/libtarget.a(infra_pkgstart.o)
 .comment       0x00000249       0x2d /home/masterzdran/WorkingArea/Isel/semestre6/SE2/workplace/code/src/eCos/lib/libtarget.a(infra_userstart.o)
 .comment       0x00000276       0x2d /home/masterzdran/WorkingArea/Isel/semestre6/SE2/workplace/code/src/eCos/lib/libtarget.a(infra_diag.o)
 .comment       0x000002a3       0x2d /home/masterzdran/WorkingArea/Isel/semestre6/SE2/workplace/code/src/eCos/lib/libtarget.a(kernel_kapi.o)
 .comment       0x000002d0       0x2d /home/masterzdran/WorkingArea/Isel/semestre6/SE2/workplace/code/src/eCos/lib/libtarget.a(kernel_thread.o)
 .comment       0x000002fd       0x2d /home/masterzdran/WorkingArea/Isel/semestre6/SE2/workplace/code/src/eCos/lib/libtarget.a(kernel_except.o)
 .comment       0x0000032a       0x2d /home/masterzdran/WorkingArea/Isel/semestre6/SE2/workplace/code/src/eCos/lib/libtarget.a(kernel_intr.o)
 .comment       0x00000357       0x2d /home/masterzdran/WorkingArea/Isel/semestre6/SE2/workplace/code/src/eCos/lib/libtarget.a(kernel_mlqueue.o)
 .comment       0x00000384       0x2d /home/masterzdran/WorkingArea/Isel/semestre6/SE2/workplace/code/src/eCos/lib/libtarget.a(kernel_sched.o)
 .comment       0x000003b1       0x2d /home/masterzdran/WorkingArea/Isel/semestre6/SE2/workplace/code/src/eCos/lib/libtarget.a(kernel_cnt_sem.o)
 .comment       0x000003de       0x2d /home/masterzdran/WorkingArea/Isel/semestre6/SE2/workplace/code/src/eCos/lib/libtarget.a(kernel_flag.o)
 .comment       0x0000040b       0x2d /home/masterzdran/WorkingArea/Isel/semestre6/SE2/workplace/code/src/eCos/lib/libtarget.a(kernel_mbox.o)
 .comment       0x00000438       0x2d /home/masterzdran/WorkingArea/Isel/semestre6/SE2/workplace/code/src/eCos/lib/libtarget.a(kernel_mutex.o)
 .comment       0x00000465       0x2d /home/masterzdran/WorkingArea/Isel/semestre6/SE2/workplace/code/src/eCos/lib/libtarget.a(language_c_libc_startup_mainthread.o)
 .comment       0x00000492       0x2d /home/masterzdran/WorkingArea/Isel/semestre6/SE2/workplace/code/src/eCos/lib/libtarget.a(language_c_libc_stdio_printf.o)
 .comment       0x000004bf       0x2d /home/masterzdran/WorkingArea/Isel/semestre6/SE2/workplace/code/src/eCos/lib/libtarget.a(language_c_libc_stdio_vfnprintf.o)
 .comment       0x000004ec       0x2d /home/masterzdran/WorkingArea/Isel/semestre6/SE2/workplace/code/src/eCos/lib/libtarget.a(language_c_libc_string_memchr.o)
 .comment       0x00000519       0x2d /home/masterzdran/WorkingArea/Isel/semestre6/SE2/workplace/code/src/eCos/lib/libtarget.a(language_c_libc_string_strlen.o)
 .comment       0x00000546       0x2d /home/masterzdran/WorkingArea/Isel/semestre6/SE2/workplace/code/src/eCos/lib/libtarget.a(language_c_libc_string_strsuppt.o)
 .comment       0x00000573       0x2d /home/masterzdran/WorkingArea/Isel/semestre6/SE2/workplace/code/src/eCos/lib/libtarget.a(language_c_libm_s_modf.o)
 .comment       0x000005a0       0x2d /home/masterzdran/WorkingArea/Isel/semestre6/SE2/workplace/code/src/eCos/lib/libtarget.a(hal_arm_arch_hal_misc.o)
 .comment       0x000005cd       0x2d /home/masterzdran/WorkingArea/Isel/semestre6/SE2/workplace/code/src/eCos/lib/libtarget.a(hal_arm_lpc2xxx_var_lpc2xxx_misc.o)
 .comment       0x000005fa       0x2d /home/masterzdran/WorkingArea/Isel/semestre6/SE2/workplace/code/src/eCos/lib/libtarget.a(hal_arm_lpc2xxx_p2106_p2106_misc.o)
 .comment       0x00000627       0x2d /home/masterzdran/WorkingArea/Isel/semestre6/SE2/workplace/code/src/eCos/lib/libtarget.a(kernel_clock.o)
 .comment       0x00000654       0x2d /home/masterzdran/WorkingArea/Isel/semestre6/SE2/workplace/code/src/eCos/lib/libtarget.a(language_c_libc_startup_invokemain.o)
 .comment       0x00000681       0x2d /home/masterzdran/WorkingArea/Isel/semestre6/SE2/workplace/code/src/eCos/lib/libtarget.a(language_c_libc_stdio_stdout.o)
 .comment       0x000006ae       0x2d /home/masterzdran/WorkingArea/Isel/semestre6/SE2/workplace/code/src/eCos/lib/libtarget.a(language_c_libc_stdio_stream.o)
 .comment       0x000006db       0x2d /home/masterzdran/WorkingArea/Isel/semestre6/SE2/workplace/code/src/eCos/lib/libtarget.a(language_c_libc_stdio_streambuf.o)
 .comment       0x00000708       0x2d /home/masterzdran/WorkingArea/Isel/semestre6/SE2/workplace/code/src/eCos/lib/libtarget.a(hal_arm_lpc2xxx_var_hal_diag.o)
 .comment       0x00000735       0x2d /home/masterzdran/WorkingArea/Isel/semestre6/SE2/workplace/code/src/eCos/lib/libtarget.a(infra_memcpy.o)
 .comment       0x00000762       0x2d /home/masterzdran/WorkingArea/Isel/semestre6/SE2/workplace/code/src/eCos/lib/libtarget.a(infra_delete.o)
 .comment       0x0000078f       0x2d /home/masterzdran/WorkingArea/Isel/semestre6/SE2/workplace/code/src/eCos/lib/libtarget.a(services_memalloc_common_malloc.o)
 .comment       0x000007bc       0x2d /home/masterzdran/WorkingArea/Isel/semestre6/SE2/workplace/code/src/eCos/lib/libtarget.a(services_memalloc_common_heaps.o)
 .comment       0x000007e9       0x2d /home/masterzdran/WorkingArea/Isel/semestre6/SE2/workplace/code/src/eCos/lib/libtarget.a(language_c_libc_startup_exit.o)
 .comment       0x00000816       0x2d /home/masterzdran/WorkingArea/Isel/semestre6/SE2/workplace/code/src/eCos/lib/libtarget.a(language_c_libc_stdio_fflush.o)
 .comment       0x00000843       0x2d /home/masterzdran/WorkingArea/Isel/semestre6/SE2/workplace/code/src/eCos/lib/libtarget.a(language_c_libc_stdio_stdiofiles.o)
 .comment       0x00000870       0x2d /home/masterzdran/WorkingArea/Isel/semestre6/SE2/workplace/code/src/eCos/lib/libtarget.a(language_c_libc_stdio_stdiosupp.o)
 .comment       0x0000089d       0x2d /home/masterzdran/WorkingArea/Isel/semestre6/SE2/workplace/code/src/eCos/lib/libtarget.a(error_errno.o)
 .comment       0x000008ca       0x2d /home/masterzdran/WorkingArea/Isel/semestre6/SE2/workplace/code/src/eCos/lib/libtarget.a(infra_memset.o)
 .comment       0x000008f7       0x2d /home/masterzdran/WorkingArea/Isel/semestre6/SE2/workplace/code/src/eCos/lib/libtarget.a(services_memalloc_common_dlmalloc.o)
 .comment       0x00000924       0x2d /home/masterzdran/WorkingArea/Isel/semestre6/SE2/workplace/code/src/eCos/lib/libtarget.a(language_c_libc_startup__exit.o)
 .comment       0x00000951       0x2d /home/masterzdran/WorkingArea/Isel/semestre6/SE2/workplace/code/src/eCos/lib/libtarget.a(language_c_libc_startup_atexit.o)
 .comment       0x0000097e       0x2d /home/masterzdran/WorkingArea/Isel/semestre6/SE2/workplace/code/src/eCos/lib/libtarget.a(language_c_libc_string_memmove.o)
 .comment       0x000009ab       0x2d /home/masterzdran/Applications/eCos/3.0/gnutools/arm-eabi/bin/../lib/gcc/arm-eabi/4.3.2/libgcc.a(bpabi.o)
 .comment       0x000009d8       0x2d /home/masterzdran/Applications/eCos/3.0/gnutools/arm-eabi/bin/../lib/gcc/arm-eabi/4.3.2/libgcc.a(_divdi3.o)
 .comment       0x00000a05       0x2d /home/masterzdran/Applications/eCos/3.0/gnutools/arm-eabi/bin/../lib/gcc/arm-eabi/4.3.2/libgcc.a(_udivdi3.o)
 .comment       0x00000a32       0x2d /home/masterzdran/Applications/eCos/3.0/gnutools/arm-eabi/bin/../lib/gcc/arm-eabi/4.3.2/libgcc.a(_clz.o)
