ARM GAS  /tmp/ccsbzIdS.s 			page 1


   1              		.cpu arm7tdmi
   2              		.fpu softvfp
   3              		.eabi_attribute 20, 1
   4              		.eabi_attribute 21, 1
   5              		.eabi_attribute 23, 3
   6              		.eabi_attribute 24, 1
   7              		.eabi_attribute 25, 1
   8              		.eabi_attribute 26, 1
   9              		.eabi_attribute 30, 6
  10              		.eabi_attribute 18, 4
  11              		.file	"POWER.c"
  18 0000 E8000000 		.text
  18      02009900 
  18      00000201 
  18      FB0E0D00 
  18      01010101 
  19              	.Ltext0:
  20              		.section	.text.POWER_Off_Peripherical,"ax",%progbits
  21              		.align	2
  22              		.global	POWER_Off_Peripherical
  23              		.type	POWER_Off_Peripherical, %function
  24              	POWER_Off_Peripherical:
  25              	.LFB2:
  26              		.file 1 "POWER.c"
   1:POWER.c       **** /*
   2:POWER.c       **** #=======================================================================
   3:POWER.c       **** # SE1   - Sistemas Embebidos 1
   4:POWER.c       **** #-----------------------------------------------------------------------
   5:POWER.c       **** # Turma:	LI51N
   6:POWER.c       **** # Semestre:	Inverno 2010/2011
   7:POWER.c       **** # Data:		Novembro/2010
   8:POWER.c       **** #-----------------------------------------------------------------------
   9:POWER.c       **** # Nome: 	Nuno Cancelo
  10:POWER.c       **** # Numero:	31401
  11:POWER.c       **** #-----------------------------------------------------------------------
  12:POWER.c       **** # Nome:		Nuno Sousa
  13:POWER.c       **** # Numero:	33595
  14:POWER.c       **** #-----------------------------------------------------------------------
  15:POWER.c       **** # LEIC  - Licenciatura em Engenharia Informática e Computadores
  16:POWER.c       **** # DEETC - Dep. de Eng. Electrónica e Telecomunicações e Computadores
  17:POWER.c       **** # ISEL  - Instituto Superior de Engenharia de Lisboa
  18:POWER.c       **** #=======================================================================
  19:POWER.c       **** */
  20:POWER.c       **** /**
  21:POWER.c       ****  * @author Nuno Cancelo, (nuno.cancelo<at>gmail.com)
  22:POWER.c       ****  * @author Nuno Sousa,   (ng.sousa<at>gmail.com)
  23:POWER.c       ****  * @date November/2010
  24:POWER.c       ****  * 
  25:POWER.c       ****  * @file  POWER.c
  26:POWER.c       ****  * @brief Module to configure GPIO ports of LPC2106 from Philips
  27:POWER.c       ****  * 
ARM GAS  /tmp/ccsbzIdS.s 			page 2


  28:POWER.c       ****  * */
  29:POWER.c       **** #include "POWER.h"
  30:POWER.c       **** 
  31:POWER.c       **** /**
  32:POWER.c       ****  * @brief Turn off the peripherical device in peripherical.
  33:POWER.c       ****  * @remarks Should use the appropriate value in enum 'ePWPeripherical', for best accurracy. 
  34:POWER.c       ****  * @param peripherical: Peripherical to be powered off.
  35:POWER.c       ****  * */
  36:POWER.c       **** void POWER_Off_Peripherical(ePWPeripherical peripherical){
  27              		.loc 1 36 0
  28              		@ Function supports interworking.
  29              		@ args = 0, pretend = 0, frame = 8
  30              		@ frame_needed = 1, uses_anonymous_args = 0
  31 0000 0DC0A0E1 		mov	ip, sp
  32              	.LCFI0:
  33 0004 00D82DE9 		stmfd	sp!, {fp, ip, lr, pc}
  34              	.LCFI1:
  35 0008 04B04CE2 		sub	fp, ip, #4
  36              	.LCFI2:
  37 000c 08D04DE2 		sub	sp, sp, #8
  38              	.LCFI3:
  39 0010 10000BE5 		str	r0, [fp, #-16]
  37:POWER.c       ****     pPOWER->POWER_CONTROL_PERIPHERICAL &= ~peripherical;
  40              		.loc 1 37 0
  41 0014 0E22A0E3 		mov	r2, #-536870912
  42 0018 7F2982E2 		add	r2, r2, #2080768
  43 001c 062C82E2 		add	r2, r2, #1536
  44 0020 0E32A0E3 		mov	r3, #-536870912
  45 0024 7F3983E2 		add	r3, r3, #2080768
  46 0028 063C83E2 		add	r3, r3, #1536
  47 002c 041093E5 		ldr	r1, [r3, #4]
  48 0030 10301BE5 		ldr	r3, [fp, #-16]
  49 0034 0330E0E1 		mvn	r3, r3
  50 0038 033001E0 		and	r3, r1, r3
  51 003c 043082E5 		str	r3, [r2, #4]
  38:POWER.c       **** }
  52              		.loc 1 38 0
  53 0040 0CD04BE2 		sub	sp, fp, #12
  54 0044 00689DE8 		ldmfd	sp, {fp, sp, lr}
  55 0048 1EFF2FE1 		bx	lr
  56              	.LFE2:
  57              		.size	POWER_Off_Peripherical, .-POWER_Off_Peripherical
  58              		.section	.text.POWER_On_Peripherical,"ax",%progbits
  59              		.align	2
  60              		.global	POWER_On_Peripherical
  61              		.type	POWER_On_Peripherical, %function
  62              	POWER_On_Peripherical:
  63              	.LFB3:
  39:POWER.c       **** 
  40:POWER.c       **** /**
  41:POWER.c       ****  * @brief Turn on the peripherical device in  peripherical.
  42:POWER.c       ****  * @remarks Should use the appropriate value in enum 'ePWPeripherical', for best accurracy. 
  43:POWER.c       ****  * @param peripherical: Peripherical to be powered on.
  44:POWER.c       ****  * */
  45:POWER.c       **** void POWER_On_Peripherical(ePWPeripherical peripherical){
  64              		.loc 1 45 0
  65              		@ Function supports interworking.
ARM GAS  /tmp/ccsbzIdS.s 			page 3


  66              		@ args = 0, pretend = 0, frame = 8
  67              		@ frame_needed = 1, uses_anonymous_args = 0
  68 0000 0DC0A0E1 		mov	ip, sp
  69              	.LCFI4:
  70 0004 00D82DE9 		stmfd	sp!, {fp, ip, lr, pc}
  71              	.LCFI5:
  72 0008 04B04CE2 		sub	fp, ip, #4
  73              	.LCFI6:
  74 000c 08D04DE2 		sub	sp, sp, #8
  75              	.LCFI7:
  76 0010 10000BE5 		str	r0, [fp, #-16]
  46:POWER.c       ****     pPOWER->POWER_CONTROL_PERIPHERICAL|= peripherical;
  77              		.loc 1 46 0
  78 0014 0E22A0E3 		mov	r2, #-536870912
  79 0018 7F2982E2 		add	r2, r2, #2080768
  80 001c 062C82E2 		add	r2, r2, #1536
  81 0020 0E32A0E3 		mov	r3, #-536870912
  82 0024 7F3983E2 		add	r3, r3, #2080768
  83 0028 063C83E2 		add	r3, r3, #1536
  84 002c 041093E5 		ldr	r1, [r3, #4]
  85 0030 10301BE5 		ldr	r3, [fp, #-16]
  86 0034 033081E1 		orr	r3, r1, r3
  87 0038 043082E5 		str	r3, [r2, #4]
  47:POWER.c       **** }
  88              		.loc 1 47 0
  89 003c 0CD04BE2 		sub	sp, fp, #12
  90 0040 00689DE8 		ldmfd	sp, {fp, sp, lr}
  91 0044 1EFF2FE1 		bx	lr
  92              	.LFE3:
  93              		.size	POWER_On_Peripherical, .-POWER_On_Peripherical
  94              		.section	.text.POWER_Down,"ax",%progbits
  95              		.align	2
  96              		.global	POWER_Down
  97              		.type	POWER_Down, %function
  98              	POWER_Down:
  99              	.LFB4:
  48:POWER.c       **** 
  49:POWER.c       **** /**
  50:POWER.c       ****  * @brief Function that powerdown the device. 
  51:POWER.c       ****  * @details 
  52:POWER.c       ****  * According to the Manual, page 32:
  53:POWER.c       ****  * "Power-down mode - when 1, this bit causes the oscillator and all on-chip clocks to be stopped. 
  54:POWER.c       ****  * A wakeup condition from an external interrupt can cause the oscillator to restart, 
  55:POWER.c       ****  * the PD bit to be cleared, and the processor to resume execution."
  56:POWER.c       ****  **/
  57:POWER.c       **** void POWER_Down(){
 100              		.loc 1 57 0
 101              		@ Function supports interworking.
 102              		@ args = 0, pretend = 0, frame = 0
 103              		@ frame_needed = 1, uses_anonymous_args = 0
 104 0000 0DC0A0E1 		mov	ip, sp
 105              	.LCFI8:
 106 0004 00D82DE9 		stmfd	sp!, {fp, ip, lr, pc}
 107              	.LCFI9:
 108 0008 04B04CE2 		sub	fp, ip, #4
 109              	.LCFI10:
  58:POWER.c       ****     pPOWER->POWER_CONTROL |= __PCON_PD__;
ARM GAS  /tmp/ccsbzIdS.s 			page 4


 110              		.loc 1 58 0
 111 000c 0E22A0E3 		mov	r2, #-536870912
 112 0010 7F2982E2 		add	r2, r2, #2080768
 113 0014 062C82E2 		add	r2, r2, #1536
 114 0018 0E32A0E3 		mov	r3, #-536870912
 115 001c 7F3983E2 		add	r3, r3, #2080768
 116 0020 063C83E2 		add	r3, r3, #1536
 117 0024 003093E5 		ldr	r3, [r3, #0]
 118 0028 023083E3 		orr	r3, r3, #2
 119 002c 003082E5 		str	r3, [r2, #0]
  59:POWER.c       **** }
 120              		.loc 1 59 0
 121 0030 0CD04BE2 		sub	sp, fp, #12
 122 0034 00689DE8 		ldmfd	sp, {fp, sp, lr}
 123 0038 1EFF2FE1 		bx	lr
 124              	.LFE4:
 125              		.size	POWER_Down, .-POWER_Down
 126              		.section	.text.POWER_Idle,"ax",%progbits
 127              		.align	2
 128              		.global	POWER_Idle
 129              		.type	POWER_Idle, %function
 130              	POWER_Idle:
 131              	.LFB5:
  60:POWER.c       **** 
  61:POWER.c       **** /**
  62:POWER.c       ****  * @brief Function that turn the device into idle mode. 
  63:POWER.c       ****  * @details 
  64:POWER.c       ****  * According to the Manual, page 32:
  65:POWER.c       ****  * "Idle mode - when 1, this bit causes the processor clock to be stopped, 
  66:POWER.c       ****  * while on-chip peripherals remain active. Any enabled interrupt from a 
  67:POWER.c       ****  * peripheral or an external interrupt source will cause the processor to 
  68:POWER.c       ****  * resume execution."
  69:POWER.c       ****  **/
  70:POWER.c       **** void POWER_Idle(){
 132              		.loc 1 70 0
 133              		@ Function supports interworking.
 134              		@ args = 0, pretend = 0, frame = 0
 135              		@ frame_needed = 1, uses_anonymous_args = 0
 136 0000 0DC0A0E1 		mov	ip, sp
 137              	.LCFI11:
 138 0004 00D82DE9 		stmfd	sp!, {fp, ip, lr, pc}
 139              	.LCFI12:
 140 0008 04B04CE2 		sub	fp, ip, #4
 141              	.LCFI13:
  71:POWER.c       ****   pPOWER->POWER_CONTROL |= __PCON_IDL__;
 142              		.loc 1 71 0
 143 000c 0E22A0E3 		mov	r2, #-536870912
 144 0010 7F2982E2 		add	r2, r2, #2080768
 145 0014 062C82E2 		add	r2, r2, #1536
 146 0018 0E32A0E3 		mov	r3, #-536870912
 147 001c 7F3983E2 		add	r3, r3, #2080768
 148 0020 063C83E2 		add	r3, r3, #1536
 149 0024 003093E5 		ldr	r3, [r3, #0]
 150 0028 013083E3 		orr	r3, r3, #1
 151 002c 003082E5 		str	r3, [r2, #0]
  72:POWER.c       **** }
 152              		.loc 1 72 0
ARM GAS  /tmp/ccsbzIdS.s 			page 5


 153 0030 0CD04BE2 		sub	sp, fp, #12
 154 0034 00689DE8 		ldmfd	sp, {fp, sp, lr}
 155 0038 1EFF2FE1 		bx	lr
 156              	.LFE5:
 157              		.size	POWER_Idle, .-POWER_Idle
 158              		.section	.debug_frame,"",%progbits
 159              	.Lframe0:
 160 0000 0C000000 		.4byte	.LECIE0-.LSCIE0
 161              	.LSCIE0:
 162 0004 FFFFFFFF 		.4byte	0xffffffff
 163 0008 01       		.byte	0x1
 164 0009 00       		.ascii	"\000"
 165 000a 01       		.uleb128 0x1
 166 000b 7C       		.sleb128 -4
 167 000c 0E       		.byte	0xe
 168 000d 0C       		.byte	0xc
 169 000e 0D       		.uleb128 0xd
 170 000f 00       		.uleb128 0x0
 171              		.align	2
 172              	.LECIE0:
 173              	.LSFDE0:
 174 0010 1C000000 		.4byte	.LEFDE0-.LASFDE0
 175              	.LASFDE0:
 176 0014 00000000 		.4byte	.Lframe0
 177 0018 00000000 		.4byte	.LFB2
 178 001c 4C000000 		.4byte	.LFE2-.LFB2
 179 0020 44       		.byte	0x4
 180              		.4byte	.LCFI0-.LFB2
 181 0021 0D       		.byte	0xd
 182 0022 0C       		.uleb128 0xc
 183 0023 44       		.byte	0x4
 184              		.4byte	.LCFI1-.LCFI0
 185 0024 8E       		.byte	0x8e
 186 0025 02       		.uleb128 0x2
 187 0026 8D       		.byte	0x8d
 188 0027 03       		.uleb128 0x3
 189 0028 8B       		.byte	0x8b
 190 0029 04       		.uleb128 0x4
 191 002a 44       		.byte	0x4
 192              		.4byte	.LCFI2-.LCFI1
 193 002b 0C       		.byte	0xc
 194 002c 0B       		.uleb128 0xb
 195 002d 04       		.uleb128 0x4
 196 002e 0000     		.align	2
 197              	.LEFDE0:
 198              	.LSFDE2:
 199 0030 1C000000 		.4byte	.LEFDE2-.LASFDE2
 200              	.LASFDE2:
 201 0034 00000000 		.4byte	.Lframe0
 202 0038 00000000 		.4byte	.LFB3
 203 003c 48000000 		.4byte	.LFE3-.LFB3
 204 0040 44       		.byte	0x4
 205              		.4byte	.LCFI4-.LFB3
 206 0041 0D       		.byte	0xd
 207 0042 0C       		.uleb128 0xc
 208 0043 44       		.byte	0x4
 209              		.4byte	.LCFI5-.LCFI4
ARM GAS  /tmp/ccsbzIdS.s 			page 6


 210 0044 8E       		.byte	0x8e
 211 0045 02       		.uleb128 0x2
 212 0046 8D       		.byte	0x8d
 213 0047 03       		.uleb128 0x3
 214 0048 8B       		.byte	0x8b
 215 0049 04       		.uleb128 0x4
 216 004a 44       		.byte	0x4
 217              		.4byte	.LCFI6-.LCFI5
 218 004b 0C       		.byte	0xc
 219 004c 0B       		.uleb128 0xb
 220 004d 04       		.uleb128 0x4
 221 004e 0000     		.align	2
 222              	.LEFDE2:
 223              	.LSFDE4:
 224 0050 1C000000 		.4byte	.LEFDE4-.LASFDE4
 225              	.LASFDE4:
 226 0054 00000000 		.4byte	.Lframe0
 227 0058 00000000 		.4byte	.LFB4
 228 005c 3C000000 		.4byte	.LFE4-.LFB4
 229 0060 44       		.byte	0x4
 230              		.4byte	.LCFI8-.LFB4
 231 0061 0D       		.byte	0xd
 232 0062 0C       		.uleb128 0xc
 233 0063 44       		.byte	0x4
 234              		.4byte	.LCFI9-.LCFI8
 235 0064 8E       		.byte	0x8e
 236 0065 02       		.uleb128 0x2
 237 0066 8D       		.byte	0x8d
 238 0067 03       		.uleb128 0x3
 239 0068 8B       		.byte	0x8b
 240 0069 04       		.uleb128 0x4
 241 006a 44       		.byte	0x4
 242              		.4byte	.LCFI10-.LCFI9
 243 006b 0C       		.byte	0xc
 244 006c 0B       		.uleb128 0xb
 245 006d 04       		.uleb128 0x4
 246 006e 0000     		.align	2
 247              	.LEFDE4:
 248              	.LSFDE6:
 249 0070 1C000000 		.4byte	.LEFDE6-.LASFDE6
 250              	.LASFDE6:
 251 0074 00000000 		.4byte	.Lframe0
 252 0078 00000000 		.4byte	.LFB5
 253 007c 3C000000 		.4byte	.LFE5-.LFB5
 254 0080 44       		.byte	0x4
 255              		.4byte	.LCFI11-.LFB5
 256 0081 0D       		.byte	0xd
 257 0082 0C       		.uleb128 0xc
 258 0083 44       		.byte	0x4
 259              		.4byte	.LCFI12-.LCFI11
 260 0084 8E       		.byte	0x8e
 261 0085 02       		.uleb128 0x2
 262 0086 8D       		.byte	0x8d
 263 0087 03       		.uleb128 0x3
 264 0088 8B       		.byte	0x8b
 265 0089 04       		.uleb128 0x4
 266 008a 44       		.byte	0x4
ARM GAS  /tmp/ccsbzIdS.s 			page 7


 267              		.4byte	.LCFI13-.LCFI12
 268 008b 0C       		.byte	0xc
 269 008c 0B       		.uleb128 0xb
 270 008d 04       		.uleb128 0x4
 271 008e 0000     		.align	2
 272              	.LEFDE6:
 273              		.text
 274              	.Letext0: