ARM GAS  /tmp/ccQW9zZt.s 			page 1


   1              		.cpu arm7tdmi
   2              		.fpu softvfp
   3              		.eabi_attribute 20, 1
   4              		.eabi_attribute 21, 1
   5              		.eabi_attribute 23, 3
   6              		.eabi_attribute 24, 1
   7              		.eabi_attribute 25, 1
   8              		.eabi_attribute 26, 1
   9              		.eabi_attribute 30, 6
  10              		.eabi_attribute 18, 4
  11              		.file	"test_uIP.c"
  18 0000 D5020000 		.text
  18      02003202 
  18      00000201 
  18      FB0E0D00 
  18      01010101 
  19              	.Ltext0:
  20              		.section	.data.ether_addr,"aw",%progbits
  21              		.type	ether_addr, %object
  22              		.size	ether_addr, 6
  23              	ether_addr:
  24 0000 02       		.byte	2
  25 0001 6E       		.byte	110
  26 0002 75       		.byte	117
  27 0003 6E       		.byte	110
  28 0004 6F       		.byte	111
  29 0005 00       		.byte	0
  30              		.section	.rodata.C.0.2845,"a",%progbits
  31              		.type	C.0.2845, %object
  32              		.size	C.0.2845, 11
  33              	C.0.2845:
  34 0000 00000000 		.4byte	0
  35 0004 01       		.byte	1
  36 0005 02       		.byte	2
  37 0006 6E       		.byte	110
  38 0007 75       		.byte	117
  39 0008 6E       		.byte	110
  40 0009 6F       		.byte	111
  41 000a 00       		.byte	0
  42              		.section	.text.uip_setup,"ax",%progbits
  43              		.align	2
  44              		.global	uip_setup
  45              		.type	uip_setup, %function
  46              	uip_setup:
  47              	.LFB2:
  48              		.file 1 "test_uIP.c"
   1:test_uIP.c    **** #include "test_uIP.h"
   2:test_uIP.c    **** 
   3:test_uIP.c    **** #include "GPIO.h"
   4:test_uIP.c    **** #include "TYPES.h"
   5:test_uIP.c    **** #include "Ethernet.h"
ARM GAS  /tmp/ccQW9zZt.s 			page 2


   6:test_uIP.c    **** #include "LPC21XX.h"
   7:test_uIP.c    **** 
   8:test_uIP.c    **** #include <cyg/hal/hal_io.h>
   9:test_uIP.c    **** #include <cyg/infra/diag.h>
  10:test_uIP.c    **** #include <cyg/kernel/kapi.h>
  11:test_uIP.c    **** 
  12:test_uIP.c    **** #include "timer.h"
  13:test_uIP.c    **** #include "uip.h"
  14:test_uIP.c    **** #include "uip-conf.h"
  15:test_uIP.c    **** #include "uip_arp.h"
  16:test_uIP.c    **** 
  17:test_uIP.c    **** #ifndef UIP_APPCALL
  18:test_uIP.c    **** #define UIP_APPCALL     main_application
  19:test_uIP.c    **** #endif
  20:test_uIP.c    **** 
  21:test_uIP.c    **** #define PACKET_SIZE 1516
  22:test_uIP.c    **** static U8 ether_addr[] = {0x02, 0x6E, 0x75, 0x6E, 0x6F, 00};
  23:test_uIP.c    **** static U8 packet[PACKET_SIZE];
  24:test_uIP.c    **** 
  25:test_uIP.c    **** 
  26:test_uIP.c    **** struct timer periodic_timer, arp_timer;
  27:test_uIP.c    **** 
  28:test_uIP.c    **** void uip_setup(){
  49              		.loc 1 28 0
  50              		@ Function supports interworking.
  51              		@ args = 0, pretend = 0, frame = 16
  52              		@ frame_needed = 1, uses_anonymous_args = 0
  53 0000 0DC0A0E1 		mov	ip, sp
  54              	.LCFI0:
  55 0004 00D82DE9 		stmfd	sp!, {fp, ip, lr, pc}
  56              	.LCFI1:
  57 0008 04B04CE2 		sub	fp, ip, #4
  58              	.LCFI2:
  59 000c 10D04DE2 		sub	sp, sp, #16
  60              	.LCFI3:
  29:test_uIP.c    **** 
  30:test_uIP.c    **** 	ETHERNET_Device eth ={
  31:test_uIP.c    **** 		NULL,
  32:test_uIP.c    **** 		ETHERNET_FULL_DUPLEX,
  33:test_uIP.c    **** 		{0x02, 0x6E, 0x75, 0x6E, 0x6F, 00}
  34:test_uIP.c    **** 	};
  61              		.loc 1 34 0
  62 0010 28319FE5 		ldr	r3, .L3
  63 0014 17204BE2 		sub	r2, fp, #23
  64 0018 0BC0A0E3 		mov	ip, #11
  65 001c 0200A0E1 		mov	r0, r2
  66 0020 0310A0E1 		mov	r1, r3
  67 0024 0C20A0E1 		mov	r2, ip
  68 0028 FEFFFFEB 		bl	memcpy
  35:test_uIP.c    **** 
  36:test_uIP.c    **** 	uip_ipaddr_t ipaddr;
  37:test_uIP.c    **** 	timer_set(&periodic_timer, CLOCK_SECOND / 2);
  69              		.loc 1 37 0
  70 002c 10019FE5 		ldr	r0, .L3+4
  71 0030 7D1FA0E3 		mov	r1, #500
  72 0034 FEFFFFEB 		bl	timer_set
  38:test_uIP.c    **** 	timer_set(&arp_timer, CLOCK_SECOND * 10);
ARM GAS  /tmp/ccQW9zZt.s 			page 3


  73              		.loc 1 38 0
  74 0038 08019FE5 		ldr	r0, .L3+8
  75 003c 271CA0E3 		mov	r1, #9984
  76 0040 101081E2 		add	r1, r1, #16
  77 0044 FEFFFFEB 		bl	timer_set
  39:test_uIP.c    **** 
  40:test_uIP.c    **** 	Ethernet_init(&eth);
  78              		.loc 1 40 0
  79 0048 17304BE2 		sub	r3, fp, #23
  80 004c 0300A0E1 		mov	r0, r3
  81 0050 FEFFFFEB 		bl	Ethernet_init
  41:test_uIP.c    **** 	Ethernet_init(&eth);
  82              		.loc 1 41 0
  83 0054 17304BE2 		sub	r3, fp, #23
  84 0058 0300A0E1 		mov	r0, r3
  85 005c FEFFFFEB 		bl	Ethernet_init
  42:test_uIP.c    **** 
  43:test_uIP.c    **** 	uip_init();
  86              		.loc 1 43 0
  87 0060 FEFFFFEB 		bl	uip_init
  44:test_uIP.c    **** 
  45:test_uIP.c    **** 	//set mac address
  46:test_uIP.c    **** 	uip_setdraddr(ether_addr);
  88              		.loc 1 46 0
  89 0064 E0309FE5 		ldr	r3, .L3+12
  90 0068 B020D3E1 		ldrh	r2, [r3, #0]
  91 006c DC309FE5 		ldr	r3, .L3+16
  92 0070 B020C3E1 		strh	r2, [r3, #0]	@ movhi
  93 0074 D8209FE5 		ldr	r2, .L3+20
  94 0078 D8309FE5 		ldr	r3, .L3+24
  95 007c B030D3E1 		ldrh	r3, [r3, #0]
  96 0080 B030C2E1 		strh	r3, [r2, #0]	@ movhi
  47:test_uIP.c    **** 	//set ip address
  48:test_uIP.c    **** 	uip_ipaddr(ipaddr, 192,168,0,2);
  97              		.loc 1 48 0
  98 0084 573CE0E3 		mvn	r3, #22272
  99 0088 3F3043E2 		sub	r3, r3, #63
 100 008c BC314BE1 		strh	r3, [fp, #-28]	@ movhi
 101 0090 1C304BE2 		sub	r3, fp, #28
 102 0094 022083E2 		add	r2, r3, #2
 103 0098 023CA0E3 		mov	r3, #512
 104 009c B030C2E1 		strh	r3, [r2, #0]	@ movhi
  49:test_uIP.c    **** 	uip_sethostaddr(ipaddr);
 105              		.loc 1 49 0
 106 00a0 BC215BE1 		ldrh	r2, [fp, #-28]
 107 00a4 B0309FE5 		ldr	r3, .L3+28
 108 00a8 B020C3E1 		strh	r2, [r3, #0]	@ movhi
 109 00ac AC209FE5 		ldr	r2, .L3+32
 110 00b0 1C304BE2 		sub	r3, fp, #28
 111 00b4 023083E2 		add	r3, r3, #2
 112 00b8 B030D3E1 		ldrh	r3, [r3, #0]
 113 00bc B030C2E1 		strh	r3, [r2, #0]	@ movhi
  50:test_uIP.c    **** 	//set gateway address
  51:test_uIP.c    **** 	uip_ipaddr(ipaddr, 192,168,0,254);
 114              		.loc 1 51 0
 115 00c0 573CE0E3 		mvn	r3, #22272
 116 00c4 3F3043E2 		sub	r3, r3, #63
ARM GAS  /tmp/ccQW9zZt.s 			page 4


 117 00c8 BC314BE1 		strh	r3, [fp, #-28]	@ movhi
 118 00cc 1C304BE2 		sub	r3, fp, #28
 119 00d0 022083E2 		add	r2, r3, #2
 120 00d4 FE3CA0E3 		mov	r3, #65024
 121 00d8 B030C2E1 		strh	r3, [r2, #0]	@ movhi
  52:test_uIP.c    **** 	uip_setdraddr(ipaddr);
 122              		.loc 1 52 0
 123 00dc BC215BE1 		ldrh	r2, [fp, #-28]
 124 00e0 68309FE5 		ldr	r3, .L3+16
 125 00e4 B020C3E1 		strh	r2, [r3, #0]	@ movhi
 126 00e8 64209FE5 		ldr	r2, .L3+20
 127 00ec 1C304BE2 		sub	r3, fp, #28
 128 00f0 023083E2 		add	r3, r3, #2
 129 00f4 B030D3E1 		ldrh	r3, [r3, #0]
 130 00f8 B030C2E1 		strh	r3, [r2, #0]	@ movhi
  53:test_uIP.c    **** 	//set subnet mask
  54:test_uIP.c    **** 	uip_ipaddr(ipaddr, 255, 255, 255, 0);
 131              		.loc 1 54 0
 132 00fc 0030E0E3 		mvn	r3, #0
 133 0100 BC314BE1 		strh	r3, [fp, #-28]	@ movhi
 134 0104 1C304BE2 		sub	r3, fp, #28
 135 0108 022083E2 		add	r2, r3, #2
 136 010c FF30A0E3 		mov	r3, #255
 137 0110 B030C2E1 		strh	r3, [r2, #0]	@ movhi
  55:test_uIP.c    **** 	uip_setnetmask(ipaddr);
 138              		.loc 1 55 0
 139 0114 BC215BE1 		ldrh	r2, [fp, #-28]
 140 0118 44309FE5 		ldr	r3, .L3+36
 141 011c B020C3E1 		strh	r2, [r3, #0]	@ movhi
 142 0120 40209FE5 		ldr	r2, .L3+40
 143 0124 1C304BE2 		sub	r3, fp, #28
 144 0128 023083E2 		add	r3, r3, #2
 145 012c B030D3E1 		ldrh	r3, [r3, #0]
 146 0130 B030C2E1 		strh	r3, [r2, #0]	@ movhi
  56:test_uIP.c    **** }
 147              		.loc 1 56 0
 148 0134 0CD04BE2 		sub	sp, fp, #12
 149 0138 00689DE8 		ldmfd	sp, {fp, sp, lr}
 150 013c 1EFF2FE1 		bx	lr
 151              	.L4:
 152              		.align	2
 153              	.L3:
 154 0140 00000000 		.word	C.0.2845
 155 0144 00000000 		.word	periodic_timer
 156 0148 00000000 		.word	arp_timer
 157 014c 00000000 		.word	ether_addr
 158 0150 00000000 		.word	uip_draddr
 159 0154 02000000 		.word	uip_draddr+2
 160 0158 02000000 		.word	ether_addr+2
 161 015c 00000000 		.word	uip_hostaddr
 162 0160 02000000 		.word	uip_hostaddr+2
 163 0164 00000000 		.word	uip_netmask
 164 0168 02000000 		.word	uip_netmask+2
 165              	.LFE2:
 166              		.size	uip_setup, .-uip_setup
 167              		.section	.text.uip_activity,"ax",%progbits
 168              		.align	2
ARM GAS  /tmp/ccQW9zZt.s 			page 5


 169              		.global	uip_activity
 170              		.type	uip_activity, %function
 171              	uip_activity:
 172              	.LFB3:
  57:test_uIP.c    **** 
  58:test_uIP.c    **** 
  59:test_uIP.c    **** #define BUF ((struct uip_eth_hdr *)uip_buf)
  60:test_uIP.c    **** 
  61:test_uIP.c    **** void uip_activity() {
 173              		.loc 1 61 0
 174              		@ Function supports interworking.
 175              		@ args = 0, pretend = 0, frame = 8
 176              		@ frame_needed = 1, uses_anonymous_args = 0
 177 0000 0DC0A0E1 		mov	ip, sp
 178              	.LCFI4:
 179 0004 00D82DE9 		stmfd	sp!, {fp, ip, lr, pc}
 180              	.LCFI5:
 181 0008 04B04CE2 		sub	fp, ip, #4
 182              	.LCFI6:
 183 000c 08D04DE2 		sub	sp, sp, #8
 184              	.LCFI7:
  62:test_uIP.c    **** 	int i;
  63:test_uIP.c    **** //	uip_len = Ethernet_receive(uip_buf, UIP_BUFSIZE, CLOCK_SECOND / 2);
  64:test_uIP.c    **** 	uip_len = Ethernet_receive(uip_buf, UIP_BUFSIZE);
 185              		.loc 1 64 0
 186 0010 F0019FE5 		ldr	r0, .L18
 187 0014 691FA0E3 		mov	r1, #420
 188 0018 FEFFFFEB 		bl	Ethernet_receive
 189 001c 0030A0E1 		mov	r3, r0
 190 0020 0338A0E1 		mov	r3, r3, asl #16
 191 0024 2328A0E1 		mov	r2, r3, lsr #16
 192 0028 DC319FE5 		ldr	r3, .L18+4
 193 002c B020C3E1 		strh	r2, [r3, #0]	@ movhi
  65:test_uIP.c    **** 	if (uip_len > 0) {
 194              		.loc 1 65 0
 195 0030 D4319FE5 		ldr	r3, .L18+4
 196 0034 B030D3E1 		ldrh	r3, [r3, #0]
 197 0038 000053E3 		cmp	r3, #0
 198 003c 2B00000A 		beq	.L6
  66:test_uIP.c    **** 		if (BUF->type == HTONS(UIP_ETHTYPE_IP)) {
 199              		.loc 1 66 0
 200 0040 C0319FE5 		ldr	r3, .L18
 201 0044 0C20D3E5 		ldrb	r2, [r3, #12]	@ zero_extendqisi2
 202 0048 0D30D3E5 		ldrb	r3, [r3, #13]	@ zero_extendqisi2
 203 004c 0334A0E1 		mov	r3, r3, asl #8
 204 0050 023083E1 		orr	r3, r3, r2
 205 0054 0338A0E1 		mov	r3, r3, asl #16
 206 0058 2338A0E1 		mov	r3, r3, lsr #16
 207 005c 080053E3 		cmp	r3, #8
 208 0060 0C00001A 		bne	.L7
  67:test_uIP.c    **** 			uip_arp_ipin();
  68:test_uIP.c    **** 			uip_input();
 209              		.loc 1 68 0
 210 0064 0100A0E3 		mov	r0, #1
 211 0068 FEFFFFEB 		bl	uip_process
  69:test_uIP.c    **** 			if (uip_len > 0) {
 212              		.loc 1 69 0
ARM GAS  /tmp/ccQW9zZt.s 			page 6


 213 006c 98319FE5 		ldr	r3, .L18+4
 214 0070 B030D3E1 		ldrh	r3, [r3, #0]
 215 0074 000053E3 		cmp	r3, #0
 216 0078 5F00000A 		beq	.L17
  70:test_uIP.c    **** 				uip_arp_out();
 217              		.loc 1 70 0
 218 007c FEFFFFEB 		bl	uip_arp_out
  71:test_uIP.c    **** 				Ethernet_send(uip_buf, uip_len);
 219              		.loc 1 71 0
 220 0080 84319FE5 		ldr	r3, .L18+4
 221 0084 B030D3E1 		ldrh	r3, [r3, #0]
 222 0088 78019FE5 		ldr	r0, .L18
 223 008c 0310A0E1 		mov	r1, r3
 224 0090 FEFFFFEB 		bl	Ethernet_send
 225 0094 580000EA 		b	.L17
 226              	.L7:
  72:test_uIP.c    **** 			}
  73:test_uIP.c    **** 		}
  74:test_uIP.c    **** 		else if (BUF->type == HTONS(UIP_ETHTYPE_ARP)) {
 227              		.loc 1 74 0
 228 0098 68319FE5 		ldr	r3, .L18
 229 009c 0C20D3E5 		ldrb	r2, [r3, #12]	@ zero_extendqisi2
 230 00a0 0D30D3E5 		ldrb	r3, [r3, #13]	@ zero_extendqisi2
 231 00a4 0334A0E1 		mov	r3, r3, asl #8
 232 00a8 023083E1 		orr	r3, r3, r2
 233 00ac 0338A0E1 		mov	r3, r3, asl #16
 234 00b0 2328A0E1 		mov	r2, r3, lsr #16
 235 00b4 063CA0E3 		mov	r3, #1536
 236 00b8 083083E2 		add	r3, r3, #8
 237 00bc 030052E1 		cmp	r2, r3
 238 00c0 4D00001A 		bne	.L17
  75:test_uIP.c    **** 			uip_arp_arpin();
 239              		.loc 1 75 0
 240 00c4 FEFFFFEB 		bl	uip_arp_arpin
  76:test_uIP.c    **** 			if (uip_len > 0) {
 241              		.loc 1 76 0
 242 00c8 3C319FE5 		ldr	r3, .L18+4
 243 00cc B030D3E1 		ldrh	r3, [r3, #0]
 244 00d0 000053E3 		cmp	r3, #0
 245 00d4 4800000A 		beq	.L17
  77:test_uIP.c    **** 				//Ethernet_send(uip_buf, uip_len, 10);
  78:test_uIP.c    **** 				Ethernet_send(uip_buf, uip_len);
 246              		.loc 1 78 0
 247 00d8 2C319FE5 		ldr	r3, .L18+4
 248 00dc B030D3E1 		ldrh	r3, [r3, #0]
 249 00e0 20019FE5 		ldr	r0, .L18
 250 00e4 0310A0E1 		mov	r1, r3
 251 00e8 FEFFFFEB 		bl	Ethernet_send
 252 00ec 420000EA 		b	.L17
 253              	.L6:
  79:test_uIP.c    **** 			}
  80:test_uIP.c    **** 		}
  81:test_uIP.c    **** 	} else if (timer_expired(&periodic_timer)) {
 254              		.loc 1 81 0
 255 00f0 18019FE5 		ldr	r0, .L18+8
 256 00f4 FEFFFFEB 		bl	timer_expired
 257 00f8 0030A0E1 		mov	r3, r0
ARM GAS  /tmp/ccQW9zZt.s 			page 7


 258 00fc 000053E3 		cmp	r3, #0
 259 0100 3D00000A 		beq	.L17
  82:test_uIP.c    **** 		timer_reset(&periodic_timer);
 260              		.loc 1 82 0
 261 0104 04019FE5 		ldr	r0, .L18+8
 262 0108 FEFFFFEB 		bl	timer_reset
  83:test_uIP.c    **** 		for (i = 0; i < UIP_CONNS; i++) {
 263              		.loc 1 83 0
 264 010c 0030A0E3 		mov	r3, #0
 265 0110 10300BE5 		str	r3, [fp, #-16]
 266 0114 1A0000EA 		b	.L11
 267              	.L13:
  84:test_uIP.c    **** 			uip_periodic(i);
 268              		.loc 1 84 0
 269 0118 10101BE5 		ldr	r1, [fp, #-16]
 270 011c 0130A0E1 		mov	r3, r1
 271 0120 0322A0E1 		mov	r2, r3, asl #4
 272 0124 0231A0E1 		mov	r3, r2, asl #2
 273 0128 033062E0 		rsb	r3, r2, r3
 274 012c 033061E0 		rsb	r3, r1, r3
 275 0130 0331A0E1 		mov	r3, r3, asl #2
 276 0134 0320A0E1 		mov	r2, r3
 277 0138 D4309FE5 		ldr	r3, .L18+12
 278 013c 032082E0 		add	r2, r2, r3
 279 0140 D0309FE5 		ldr	r3, .L18+16
 280 0144 002083E5 		str	r2, [r3, #0]
 281 0148 0200A0E3 		mov	r0, #2
 282 014c FEFFFFEB 		bl	uip_process
  85:test_uIP.c    **** 			if (uip_len > 0) {
 283              		.loc 1 85 0
 284 0150 B4309FE5 		ldr	r3, .L18+4
 285 0154 B030D3E1 		ldrh	r3, [r3, #0]
 286 0158 000053E3 		cmp	r3, #0
 287 015c 0500000A 		beq	.L12
  86:test_uIP.c    **** 				uip_arp_out();
 288              		.loc 1 86 0
 289 0160 FEFFFFEB 		bl	uip_arp_out
  87:test_uIP.c    **** 				Ethernet_send(uip_buf, uip_len);
 290              		.loc 1 87 0
 291 0164 A0309FE5 		ldr	r3, .L18+4
 292 0168 B030D3E1 		ldrh	r3, [r3, #0]
 293 016c 94009FE5 		ldr	r0, .L18
 294 0170 0310A0E1 		mov	r1, r3
 295 0174 FEFFFFEB 		bl	Ethernet_send
 296              	.L12:
 297              		.loc 1 83 0
 298 0178 10301BE5 		ldr	r3, [fp, #-16]
 299 017c 013083E2 		add	r3, r3, #1
 300 0180 10300BE5 		str	r3, [fp, #-16]
 301              	.L11:
 302 0184 10301BE5 		ldr	r3, [fp, #-16]
 303 0188 270053E3 		cmp	r3, #39
 304 018c E1FFFFDA 		ble	.L13
  88:test_uIP.c    **** 			}
  89:test_uIP.c    **** 		}
  90:test_uIP.c    **** 		for (i = 0; i < UIP_UDP_CONNS; i++) {
 305              		.loc 1 90 0
ARM GAS  /tmp/ccQW9zZt.s 			page 8


 306 0190 0030A0E3 		mov	r3, #0
 307 0194 10300BE5 		str	r3, [fp, #-16]
 308 0198 0C0000EA 		b	.L14
 309              	.L16:
  91:test_uIP.c    **** 			//uip_udp_periodic(i);
  92:test_uIP.c    **** 			if (uip_len > 0) {
 310              		.loc 1 92 0
 311 019c 68309FE5 		ldr	r3, .L18+4
 312 01a0 B030D3E1 		ldrh	r3, [r3, #0]
 313 01a4 000053E3 		cmp	r3, #0
 314 01a8 0500000A 		beq	.L15
  93:test_uIP.c    **** 				uip_arp_out();
 315              		.loc 1 93 0
 316 01ac FEFFFFEB 		bl	uip_arp_out
  94:test_uIP.c    **** 				Ethernet_send(uip_buf, uip_len);
 317              		.loc 1 94 0
 318 01b0 54309FE5 		ldr	r3, .L18+4
 319 01b4 B030D3E1 		ldrh	r3, [r3, #0]
 320 01b8 48009FE5 		ldr	r0, .L18
 321 01bc 0310A0E1 		mov	r1, r3
 322 01c0 FEFFFFEB 		bl	Ethernet_send
 323              	.L15:
 324              		.loc 1 90 0
 325 01c4 10301BE5 		ldr	r3, [fp, #-16]
 326 01c8 013083E2 		add	r3, r3, #1
 327 01cc 10300BE5 		str	r3, [fp, #-16]
 328              	.L14:
 329 01d0 10301BE5 		ldr	r3, [fp, #-16]
 330 01d4 090053E3 		cmp	r3, #9
 331 01d8 EFFFFFDA 		ble	.L16
  95:test_uIP.c    **** 			}
  96:test_uIP.c    **** 		}
  97:test_uIP.c    **** 		if (timer_expired(&arp_timer)) {
 332              		.loc 1 97 0
 333 01dc 38009FE5 		ldr	r0, .L18+20
 334 01e0 FEFFFFEB 		bl	timer_expired
 335 01e4 0030A0E1 		mov	r3, r0
 336 01e8 000053E3 		cmp	r3, #0
 337 01ec 0200000A 		beq	.L17
  98:test_uIP.c    **** 			timer_reset(&arp_timer);
 338              		.loc 1 98 0
 339 01f0 24009FE5 		ldr	r0, .L18+20
 340 01f4 FEFFFFEB 		bl	timer_reset
  99:test_uIP.c    **** 			uip_arp_timer();
 341              		.loc 1 99 0
 342 01f8 FEFFFFEB 		bl	uip_arp_timer
 343              	.L17:
 100:test_uIP.c    **** 		}
 101:test_uIP.c    **** 	}
 102:test_uIP.c    **** }
 344              		.loc 1 102 0
 345 01fc 0CD04BE2 		sub	sp, fp, #12
 346 0200 00689DE8 		ldmfd	sp, {fp, sp, lr}
 347 0204 1EFF2FE1 		bx	lr
 348              	.L19:
 349              		.align	2
 350              	.L18:
ARM GAS  /tmp/ccQW9zZt.s 			page 9


 351 0208 00000000 		.word	uip_buf
 352 020c 00000000 		.word	uip_len
 353 0210 00000000 		.word	periodic_timer
 354 0214 00000000 		.word	uip_conns
 355 0218 00000000 		.word	uip_conn
 356 021c 00000000 		.word	arp_timer
 357              	.LFE3:
 358              		.size	uip_activity, .-uip_activity
 359              		.section	.text.gpio_init,"ax",%progbits
 360              		.align	2
 361              		.global	gpio_init
 362              		.type	gpio_init, %function
 363              	gpio_init:
 364              	.LFB4:
 103:test_uIP.c    **** 
 104:test_uIP.c    **** void gpio_init(){
 365              		.loc 1 104 0
 366              		@ Function supports interworking.
 367              		@ args = 0, pretend = 0, frame = 8
 368              		@ frame_needed = 1, uses_anonymous_args = 0
 369 0000 0DC0A0E1 		mov	ip, sp
 370              	.LCFI8:
 371 0004 00D82DE9 		stmfd	sp!, {fp, ip, lr, pc}
 372              	.LCFI9:
 373 0008 04B04CE2 		sub	fp, ip, #4
 374              	.LCFI10:
 375 000c 08D04DE2 		sub	sp, sp, #8
 376              	.LCFI11:
 377              	.LBB2:
 105:test_uIP.c    **** 	cyg_uint32 iodir;
 106:test_uIP.c    **** 	/*activate gpio for CS, Reset*/
 107:test_uIP.c    **** 	GPIO_INIT_PINSEL0((CS_PIN | RESET));
 378              		.loc 1 107 0
 379 0010 0E32A0E3 		mov	r3, #-536870912
 380 0014 0B3983E2 		add	r3, r3, #180224
 381 0018 003093E5 		ldr	r3, [r3, #0]
 382 001c 10300BE5 		str	r3, [fp, #-16]
 383 0020 0E32A0E3 		mov	r3, #-536870912
 384 0024 0B3983E2 		add	r3, r3, #180224
 385 0028 10201BE5 		ldr	r2, [fp, #-16]
 386 002c 032C02E2 		and	r2, r2, #768
 387 0030 002083E5 		str	r2, [r3, #0]
 388              	.LBE2:
 108:test_uIP.c    **** 
 109:test_uIP.c    **** 	/*set dir to output for CS and Reset*/
 110:test_uIP.c    **** 	HAL_READ_UINT32((pGPIO)->IODIR, iodir);
 389              		.loc 1 110 0
 390 0034 0E32A0E3 		mov	r3, #-536870912
 391 0038 0A3983E2 		add	r3, r3, #163840
 392 003c 083093E5 		ldr	r3, [r3, #8]
 393 0040 003093E5 		ldr	r3, [r3, #0]
 394 0044 14300BE5 		str	r3, [fp, #-20]
 111:test_uIP.c    **** 	iodir = iodir | (CS_PIN | RESET);
 395              		.loc 1 111 0
 396 0048 14301BE5 		ldr	r3, [fp, #-20]
 397 004c 033C83E3 		orr	r3, r3, #768
 398 0050 14300BE5 		str	r3, [fp, #-20]
ARM GAS  /tmp/ccQW9zZt.s 			page 10


 112:test_uIP.c    **** 	HAL_WRITE_UINT32(CYGARC_HAL_LPC2XXX_REG_IO_BASE+CYGARC_HAL_LPC2XXX_REG_IODIR, iodir);
 399              		.loc 1 112 0
 400 0054 8E32A0E3 		mov	r3, #-536870904
 401 0058 0A3983E2 		add	r3, r3, #163840
 402 005c 14201BE5 		ldr	r2, [fp, #-20]
 403 0060 002083E5 		str	r2, [r3, #0]
 113:test_uIP.c    **** 
 114:test_uIP.c    **** 	/*CS OFF & RESET OFF*/
 115:test_uIP.c    **** 	HAL_WRITE_UINT32(CYGARC_HAL_LPC2XXX_REG_IO_BASE + CYGARC_HAL_LPC2XXX_REG_IOSET, CS_PIN);
 404              		.loc 1 115 0
 405 0064 4E32A0E3 		mov	r3, #-536870908
 406 0068 0A3983E2 		add	r3, r3, #163840
 407 006c 012CA0E3 		mov	r2, #256
 408 0070 002083E5 		str	r2, [r3, #0]
 116:test_uIP.c    **** 	HAL_WRITE_UINT32(CYGARC_HAL_LPC2XXX_REG_IO_BASE + CYGARC_HAL_LPC2XXX_REG_IOSET, RESET);
 409              		.loc 1 116 0
 410 0074 4E32A0E3 		mov	r3, #-536870908
 411 0078 0A3983E2 		add	r3, r3, #163840
 412 007c 022CA0E3 		mov	r2, #512
 413 0080 002083E5 		str	r2, [r3, #0]
 117:test_uIP.c    **** 
 118:test_uIP.c    **** }
 414              		.loc 1 118 0
 415 0084 0CD04BE2 		sub	sp, fp, #12
 416 0088 00689DE8 		ldmfd	sp, {fp, sp, lr}
 417 008c 1EFF2FE1 		bx	lr
 418              	.LFE4:
 419              		.size	gpio_init, .-gpio_init
 420              		.section	.text.main_application_init,"ax",%progbits
 421              		.align	2
 422              		.type	main_application_init, %function
 423              	main_application_init:
 424              	.LFB5:
 119:test_uIP.c    **** 
 120:test_uIP.c    **** static void main_application_init(){
 425              		.loc 1 120 0
 426              		@ Function supports interworking.
 427              		@ args = 0, pretend = 0, frame = 0
 428              		@ frame_needed = 1, uses_anonymous_args = 0
 429 0000 0DC0A0E1 		mov	ip, sp
 430              	.LCFI12:
 431 0004 00D82DE9 		stmfd	sp!, {fp, ip, lr, pc}
 432              	.LCFI13:
 433 0008 04B04CE2 		sub	fp, ip, #4
 434              	.LCFI14:
 121:test_uIP.c    **** 		uip_listen(HTONS(1234));
 435              		.loc 1 121 0
 436 000c D20CA0E3 		mov	r0, #53760
 437 0010 040080E2 		add	r0, r0, #4
 438 0014 FEFFFFEB 		bl	uip_listen
 122:test_uIP.c    **** }
 439              		.loc 1 122 0
 440 0018 0CD04BE2 		sub	sp, fp, #12
 441 001c 00689DE8 		ldmfd	sp, {fp, sp, lr}
 442 0020 1EFF2FE1 		bx	lr
 443              	.LFE5:
 444              		.size	main_application_init, .-main_application_init
ARM GAS  /tmp/ccQW9zZt.s 			page 11


 445              		.section	.text.main_application,"ax",%progbits
 446              		.align	2
 447              		.global	main_application
 448              		.type	main_application, %function
 449              	main_application:
 450              	.LFB6:
 123:test_uIP.c    **** void main_application(void){
 451              		.loc 1 123 0
 452              		@ Function supports interworking.
 453              		@ args = 0, pretend = 0, frame = 0
 454              		@ frame_needed = 1, uses_anonymous_args = 0
 455 0000 0DC0A0E1 		mov	ip, sp
 456              	.LCFI15:
 457 0004 00D82DE9 		stmfd	sp!, {fp, ip, lr, pc}
 458              	.LCFI16:
 459 0008 04B04CE2 		sub	fp, ip, #4
 460              	.LCFI17:
 124:test_uIP.c    **** 	if (uip_newdata())
 461              		.loc 1 124 0
 462 000c 34309FE5 		ldr	r3, .L27
 463 0010 0030D3E5 		ldrb	r3, [r3, #0]	@ zero_extendqisi2
 464 0014 023003E2 		and	r3, r3, #2
 465 0018 000053E3 		cmp	r3, #0
 466 001c 0600000A 		beq	.L26
 125:test_uIP.c    **** 		uip_send(uip_appdata, uip_datalen());
 467              		.loc 1 125 0
 468 0020 24309FE5 		ldr	r3, .L27+4
 469 0024 002093E5 		ldr	r2, [r3, #0]
 470 0028 20309FE5 		ldr	r3, .L27+8
 471 002c B030D3E1 		ldrh	r3, [r3, #0]
 472 0030 0200A0E1 		mov	r0, r2
 473 0034 0310A0E1 		mov	r1, r3
 474 0038 FEFFFFEB 		bl	uip_send
 475              	.L26:
 126:test_uIP.c    **** }
 476              		.loc 1 126 0
 477 003c 0CD04BE2 		sub	sp, fp, #12
 478 0040 00689DE8 		ldmfd	sp, {fp, sp, lr}
 479 0044 1EFF2FE1 		bx	lr
 480              	.L28:
 481              		.align	2
 482              	.L27:
 483 0048 00000000 		.word	uip_flags
 484 004c 00000000 		.word	uip_appdata
 485 0050 00000000 		.word	uip_len
 486              	.LFE6:
 487              		.size	main_application, .-main_application
 488              		.section	.rodata
 489              		.align	2
 490              	.LC0:
 491 0000 54657374 		.ascii	"Testing uip\012\015\000"
 491      696E6720 
 491      7569700A 
 491      0D00
 492 000e 0000     		.section	.text.main,"ax",%progbits
 493              		.align	2
 494              		.global	main
ARM GAS  /tmp/ccQW9zZt.s 			page 12


 495              		.type	main, %function
 496              	main:
 497              	.LFB7:
 127:test_uIP.c    **** 
 128:test_uIP.c    **** int main(){
 498              		.loc 1 128 0
 499              		@ Function supports interworking.
 500              		@ args = 0, pretend = 0, frame = 0
 501              		@ frame_needed = 1, uses_anonymous_args = 0
 502 0000 0DC0A0E1 		mov	ip, sp
 503              	.LCFI18:
 504 0004 00D82DE9 		stmfd	sp!, {fp, ip, lr, pc}
 505              	.LCFI19:
 506 0008 04B04CE2 		sub	fp, ip, #4
 507              	.LCFI20:
 129:test_uIP.c    **** 
 130:test_uIP.c    **** 	diag_printf("Testing uip\n\r");
 508              		.loc 1 130 0
 509 000c 14009FE5 		ldr	r0, .L32
 510 0010 FEFFFFEB 		bl	diag_printf
 131:test_uIP.c    **** 	gpio_init();
 511              		.loc 1 131 0
 512 0014 FEFFFFEB 		bl	gpio_init
 132:test_uIP.c    **** 	//gpio_test();
 133:test_uIP.c    **** 	//enc_test(1,5,5);
 134:test_uIP.c    **** 	uip_setup();
 513              		.loc 1 134 0
 514 0018 FEFFFFEB 		bl	uip_setup
 135:test_uIP.c    **** 
 136:test_uIP.c    **** 	main_application_init();
 515              		.loc 1 136 0
 516 001c FEFFFFEB 		bl	main_application_init
 517              	.L30:
 137:test_uIP.c    **** 
 138:test_uIP.c    **** 	while(1){
 139:test_uIP.c    **** 		uip_activity();
 518              		.loc 1 139 0
 519 0020 FEFFFFEB 		bl	uip_activity
 520 0024 FDFFFFEA 		b	.L30
 521              	.L33:
 522              		.align	2
 523              	.L32:
 524 0028 00000000 		.word	.LC0
 525              	.LFE7:
 526              		.size	main, .-main
 527              		.section	.bss.packet,"aw",%nobits
 528              		.type	packet, %object
 529              		.size	packet, 1516
 530              	packet:
 531 0000 00000000 		.space	1516
 531      00000000 
 531      00000000 
 531      00000000 
 531      00000000 
 532              		.comm	periodic_timer,8,1
 533              		.comm	arp_timer,8,1
 534              		.section	.debug_frame,"",%progbits
ARM GAS  /tmp/ccQW9zZt.s 			page 13


 535              	.Lframe0:
 536 0000 0C000000 		.4byte	.LECIE0-.LSCIE0
 537              	.LSCIE0:
 538 0004 FFFFFFFF 		.4byte	0xffffffff
 539 0008 01       		.byte	0x1
 540 0009 00       		.ascii	"\000"
 541 000a 01       		.uleb128 0x1
 542 000b 7C       		.sleb128 -4
 543 000c 0E       		.byte	0xe
 544 000d 0C       		.byte	0xc
 545 000e 0D       		.uleb128 0xd
 546 000f 00       		.uleb128 0x0
 547              		.align	2
 548              	.LECIE0:
 549              	.LSFDE0:
 550 0010 1C000000 		.4byte	.LEFDE0-.LASFDE0
 551              	.LASFDE0:
 552 0014 00000000 		.4byte	.Lframe0
 553 0018 00000000 		.4byte	.LFB2
 554 001c 6C010000 		.4byte	.LFE2-.LFB2
 555 0020 44       		.byte	0x4
 556              		.4byte	.LCFI0-.LFB2
 557 0021 0D       		.byte	0xd
 558 0022 0C       		.uleb128 0xc
 559 0023 44       		.byte	0x4
 560              		.4byte	.LCFI1-.LCFI0
 561 0024 8E       		.byte	0x8e
 562 0025 02       		.uleb128 0x2
 563 0026 8D       		.byte	0x8d
 564 0027 03       		.uleb128 0x3
 565 0028 8B       		.byte	0x8b
 566 0029 04       		.uleb128 0x4
 567 002a 44       		.byte	0x4
 568              		.4byte	.LCFI2-.LCFI1
 569 002b 0C       		.byte	0xc
 570 002c 0B       		.uleb128 0xb
 571 002d 04       		.uleb128 0x4
 572 002e 0000     		.align	2
 573              	.LEFDE0:
 574              	.LSFDE2:
 575 0030 1C000000 		.4byte	.LEFDE2-.LASFDE2
 576              	.LASFDE2:
 577 0034 00000000 		.4byte	.Lframe0
 578 0038 00000000 		.4byte	.LFB3
 579 003c 20020000 		.4byte	.LFE3-.LFB3
 580 0040 44       		.byte	0x4
 581              		.4byte	.LCFI4-.LFB3
 582 0041 0D       		.byte	0xd
 583 0042 0C       		.uleb128 0xc
 584 0043 44       		.byte	0x4
 585              		.4byte	.LCFI5-.LCFI4
 586 0044 8E       		.byte	0x8e
 587 0045 02       		.uleb128 0x2
 588 0046 8D       		.byte	0x8d
 589 0047 03       		.uleb128 0x3
 590 0048 8B       		.byte	0x8b
 591 0049 04       		.uleb128 0x4
ARM GAS  /tmp/ccQW9zZt.s 			page 14


 592 004a 44       		.byte	0x4
 593              		.4byte	.LCFI6-.LCFI5
 594 004b 0C       		.byte	0xc
 595 004c 0B       		.uleb128 0xb
 596 004d 04       		.uleb128 0x4
 597 004e 0000     		.align	2
 598              	.LEFDE2:
 599              	.LSFDE4:
 600 0050 1C000000 		.4byte	.LEFDE4-.LASFDE4
 601              	.LASFDE4:
 602 0054 00000000 		.4byte	.Lframe0
 603 0058 00000000 		.4byte	.LFB4
 604 005c 90000000 		.4byte	.LFE4-.LFB4
 605 0060 44       		.byte	0x4
 606              		.4byte	.LCFI8-.LFB4
 607 0061 0D       		.byte	0xd
 608 0062 0C       		.uleb128 0xc
 609 0063 44       		.byte	0x4
 610              		.4byte	.LCFI9-.LCFI8
 611 0064 8E       		.byte	0x8e
 612 0065 02       		.uleb128 0x2
 613 0066 8D       		.byte	0x8d
 614 0067 03       		.uleb128 0x3
 615 0068 8B       		.byte	0x8b
 616 0069 04       		.uleb128 0x4
 617 006a 44       		.byte	0x4
 618              		.4byte	.LCFI10-.LCFI9
 619 006b 0C       		.byte	0xc
 620 006c 0B       		.uleb128 0xb
 621 006d 04       		.uleb128 0x4
 622 006e 0000     		.align	2
 623              	.LEFDE4:
 624              	.LSFDE6:
 625 0070 1C000000 		.4byte	.LEFDE6-.LASFDE6
 626              	.LASFDE6:
 627 0074 00000000 		.4byte	.Lframe0
 628 0078 00000000 		.4byte	.LFB5
 629 007c 24000000 		.4byte	.LFE5-.LFB5
 630 0080 44       		.byte	0x4
 631              		.4byte	.LCFI12-.LFB5
 632 0081 0D       		.byte	0xd
 633 0082 0C       		.uleb128 0xc
 634 0083 44       		.byte	0x4
 635              		.4byte	.LCFI13-.LCFI12
 636 0084 8E       		.byte	0x8e
 637 0085 02       		.uleb128 0x2
 638 0086 8D       		.byte	0x8d
 639 0087 03       		.uleb128 0x3
 640 0088 8B       		.byte	0x8b
 641 0089 04       		.uleb128 0x4
 642 008a 44       		.byte	0x4
 643              		.4byte	.LCFI14-.LCFI13
 644 008b 0C       		.byte	0xc
 645 008c 0B       		.uleb128 0xb
 646 008d 04       		.uleb128 0x4
 647 008e 0000     		.align	2
 648              	.LEFDE6:
ARM GAS  /tmp/ccQW9zZt.s 			page 15


 649              	.LSFDE8:
 650 0090 1C000000 		.4byte	.LEFDE8-.LASFDE8
 651              	.LASFDE8:
 652 0094 00000000 		.4byte	.Lframe0
 653 0098 00000000 		.4byte	.LFB6
 654 009c 54000000 		.4byte	.LFE6-.LFB6
 655 00a0 44       		.byte	0x4
 656              		.4byte	.LCFI15-.LFB6
 657 00a1 0D       		.byte	0xd
 658 00a2 0C       		.uleb128 0xc
 659 00a3 44       		.byte	0x4
 660              		.4byte	.LCFI16-.LCFI15
 661 00a4 8E       		.byte	0x8e
 662 00a5 02       		.uleb128 0x2
 663 00a6 8D       		.byte	0x8d
 664 00a7 03       		.uleb128 0x3
 665 00a8 8B       		.byte	0x8b
 666 00a9 04       		.uleb128 0x4
 667 00aa 44       		.byte	0x4
 668              		.4byte	.LCFI17-.LCFI16
 669 00ab 0C       		.byte	0xc
 670 00ac 0B       		.uleb128 0xb
 671 00ad 04       		.uleb128 0x4
 672 00ae 0000     		.align	2
 673              	.LEFDE8:
 674              	.LSFDE10:
 675 00b0 1C000000 		.4byte	.LEFDE10-.LASFDE10
 676              	.LASFDE10:
 677 00b4 00000000 		.4byte	.Lframe0
 678 00b8 00000000 		.4byte	.LFB7
 679 00bc 2C000000 		.4byte	.LFE7-.LFB7
 680 00c0 44       		.byte	0x4
 681              		.4byte	.LCFI18-.LFB7
 682 00c1 0D       		.byte	0xd
 683 00c2 0C       		.uleb128 0xc
 684 00c3 44       		.byte	0x4
 685              		.4byte	.LCFI19-.LCFI18
 686 00c4 8E       		.byte	0x8e
 687 00c5 02       		.uleb128 0x2
 688 00c6 8D       		.byte	0x8d
 689 00c7 03       		.uleb128 0x3
 690 00c8 8B       		.byte	0x8b
 691 00c9 04       		.uleb128 0x4
 692 00ca 44       		.byte	0x4
 693              		.4byte	.LCFI20-.LCFI19
 694 00cb 0C       		.byte	0xc
 695 00cc 0B       		.uleb128 0xb
 696 00cd 04       		.uleb128 0x4
 697 00ce 0000     		.align	2
 698              	.LEFDE10:
 699              		.text
 700              	.Letext0: