ARM GAS  /tmp/ccTFyqST.s 			page 1


   1              		.cpu arm7tdmi
   2              		.fpu softvfp
   3              		.eabi_attribute 20, 1
   4              		.eabi_attribute 21, 1
   5              		.eabi_attribute 23, 3
   6              		.eabi_attribute 24, 1
   7              		.eabi_attribute 25, 1
   8              		.eabi_attribute 26, 1
   9              		.eabi_attribute 30, 6
  10              		.eabi_attribute 18, 4
  11              		.file	"test_uIP.c"
  12              		.section	.debug_abbrev,"",%progbits
  13              	.Ldebug_abbrev0:
  14              		.section	.debug_info,"",%progbits
  15              	.Ldebug_info0:
  16              		.section	.debug_line,"",%progbits
  17              	.Ldebug_line0:
  18 0000 D3020000 		.text
  18      02003202 
  18      00000201 
  18      FB0E0D00 
  18      01010101 
  19              	.Ltext0:
  20              		.section	.data.ether_addr,"aw",%progbits
  21              		.type	ether_addr, %object
  22              		.size	ether_addr, 6
  23              	ether_addr:
  24 0000 02       		.byte	2
  25 0001 6E       		.byte	110
  26 0002 75       		.byte	117
  27 0003 6E       		.byte	110
  28 0004 6F       		.byte	111
  29 0005 00       		.byte	0
  30              		.section	.rodata.C.0.2845,"a",%progbits
  31              		.align	2
  32              		.type	C.0.2845, %object
  33              		.size	C.0.2845, 12
  34              	C.0.2845:
  35 0000 00000000 		.word	0
  36 0004 01       		.byte	1
  37 0005 02       		.byte	2
  38 0006 6E       		.byte	110
  39 0007 75       		.byte	117
  40 0008 6E       		.byte	110
  41 0009 6F       		.byte	111
  42 000a 00       		.byte	0
  43 000b 00       		.space	1
  44              		.section	.text.uip_setup,"ax",%progbits
  45              		.align	2
  46              		.global	uip_setup
  47              		.type	uip_setup, %function
  48              	uip_setup:
  49              	.LFB2:
  50              		.file 1 "test_uIP.c"
   1:test_uIP.c    **** #include "test_uIP.h"
   2:test_uIP.c    **** 
   3:test_uIP.c    **** #include "GPIO.h"
ARM GAS  /tmp/ccTFyqST.s 			page 2


   4:test_uIP.c    **** #include "TYPES.h"
   5:test_uIP.c    **** #include "Ethernet.h"
   6:test_uIP.c    **** #include "LPC21XX.h"
   7:test_uIP.c    **** 
   8:test_uIP.c    **** #include <cyg/hal/hal_io.h>
   9:test_uIP.c    **** #include <cyg/infra/diag.h>
  10:test_uIP.c    **** #include <cyg/kernel/kapi.h>
  11:test_uIP.c    **** 
  12:test_uIP.c    **** #include "timer.h"
  13:test_uIP.c    **** #include "uip.h"
  14:test_uIP.c    **** #include "uip-conf.h"
  15:test_uIP.c    **** #include "uip_arp.h"
  16:test_uIP.c    **** 
  17:test_uIP.c    **** 
  18:test_uIP.c    **** #define PACKET_SIZE 1516
  19:test_uIP.c    **** static U8 ether_addr[] = {0x02, 0x6E, 0x75, 0x6E, 0x6F, 00};
  20:test_uIP.c    **** static U8 packet[PACKET_SIZE];
  21:test_uIP.c    **** 
  22:test_uIP.c    **** 
  23:test_uIP.c    **** struct timer periodic_timer, arp_timer;
  24:test_uIP.c    **** 
  25:test_uIP.c    **** void uip_setup(){
  51              		.loc 1 25 0
  52              		@ Function supports interworking.
  53              		@ args = 0, pretend = 0, frame = 16
  54              		@ frame_needed = 1, uses_anonymous_args = 0
  55 0000 0DC0A0E1 		mov	ip, sp
  56              	.LCFI0:
  57 0004 00D82DE9 		stmfd	sp!, {fp, ip, lr, pc}
  58              	.LCFI1:
  59 0008 04B04CE2 		sub	fp, ip, #4
  60              	.LCFI2:
  61 000c 10D04DE2 		sub	sp, sp, #16
  62              	.LCFI3:
  26:test_uIP.c    **** 
  27:test_uIP.c    **** 	ETHERNET_Device eth ={
  28:test_uIP.c    **** 						NULL,
  29:test_uIP.c    **** 						ETHERNET_FULL_DUPLEX,
  30:test_uIP.c    **** 						{0x02, 0x6E, 0x75, 0x6E, 0x6F, 00}
  31:test_uIP.c    **** 						};
  63              		.loc 1 31 0
  64 0010 1C319FE5 		ldr	r3, .L3
  65 0014 18C04BE2 		sub	ip, fp, #24
  66 0018 070093E8 		ldmia	r3, {r0, r1, r2}
  67 001c 07008CE8 		stmia	ip, {r0, r1, r2}
  32:test_uIP.c    **** 
  33:test_uIP.c    **** 	uip_ipaddr_t ipaddr;
  34:test_uIP.c    **** 	timer_set(&periodic_timer, CLOCK_SECOND / 2);
  68              		.loc 1 34 0
  69 0020 10019FE5 		ldr	r0, .L3+4
  70 0024 7D1FA0E3 		mov	r1, #500
  71 0028 FEFFFFEB 		bl	timer_set
  35:test_uIP.c    **** 	timer_set(&arp_timer, CLOCK_SECOND * 10);
  72              		.loc 1 35 0
  73 002c 08019FE5 		ldr	r0, .L3+8
  74 0030 271CA0E3 		mov	r1, #9984
  75 0034 101081E2 		add	r1, r1, #16
ARM GAS  /tmp/ccTFyqST.s 			page 3


  76 0038 FEFFFFEB 		bl	timer_set
  36:test_uIP.c    **** 
  37:test_uIP.c    **** 	Ethernet_init(&eth);
  77              		.loc 1 37 0
  78 003c 18304BE2 		sub	r3, fp, #24
  79 0040 0300A0E1 		mov	r0, r3
  80 0044 FEFFFFEB 		bl	Ethernet_init
  38:test_uIP.c    **** 	Ethernet_init(&eth);
  81              		.loc 1 38 0
  82 0048 18304BE2 		sub	r3, fp, #24
  83 004c 0300A0E1 		mov	r0, r3
  84 0050 FEFFFFEB 		bl	Ethernet_init
  39:test_uIP.c    **** 
  40:test_uIP.c    **** 	uip_init();
  85              		.loc 1 40 0
  86 0054 FEFFFFEB 		bl	uip_init
  41:test_uIP.c    **** 
  42:test_uIP.c    **** 	//set mac address
  43:test_uIP.c    **** 	uip_setdraddr(ether_addr);
  87              		.loc 1 43 0
  88 0058 E0309FE5 		ldr	r3, .L3+12
  89 005c B020D3E1 		ldrh	r2, [r3, #0]
  90 0060 DC309FE5 		ldr	r3, .L3+16
  91 0064 B020C3E1 		strh	r2, [r3, #0]	@ movhi
  92 0068 D8209FE5 		ldr	r2, .L3+20
  93 006c D8309FE5 		ldr	r3, .L3+24
  94 0070 B030D3E1 		ldrh	r3, [r3, #0]
  95 0074 B030C2E1 		strh	r3, [r2, #0]	@ movhi
  44:test_uIP.c    **** 	//set ip address
  45:test_uIP.c    **** 	uip_ipaddr(ipaddr, 192,168,0,2);
  96              		.loc 1 45 0
  97 0078 573CE0E3 		mvn	r3, #22272
  98 007c 3F3043E2 		sub	r3, r3, #63
  99 0080 BC314BE1 		strh	r3, [fp, #-28]	@ movhi
 100 0084 1C304BE2 		sub	r3, fp, #28
 101 0088 022083E2 		add	r2, r3, #2
 102 008c 023CA0E3 		mov	r3, #512
 103 0090 B030C2E1 		strh	r3, [r2, #0]	@ movhi
  46:test_uIP.c    **** 	uip_sethostaddr(ipaddr);
 104              		.loc 1 46 0
 105 0094 BC215BE1 		ldrh	r2, [fp, #-28]
 106 0098 B0309FE5 		ldr	r3, .L3+28
 107 009c B020C3E1 		strh	r2, [r3, #0]	@ movhi
 108 00a0 AC209FE5 		ldr	r2, .L3+32
 109 00a4 1C304BE2 		sub	r3, fp, #28
 110 00a8 023083E2 		add	r3, r3, #2
 111 00ac B030D3E1 		ldrh	r3, [r3, #0]
 112 00b0 B030C2E1 		strh	r3, [r2, #0]	@ movhi
  47:test_uIP.c    **** 	//set gateway address
  48:test_uIP.c    **** 	uip_ipaddr(ipaddr, 192,168,0,254);
 113              		.loc 1 48 0
 114 00b4 573CE0E3 		mvn	r3, #22272
 115 00b8 3F3043E2 		sub	r3, r3, #63
 116 00bc BC314BE1 		strh	r3, [fp, #-28]	@ movhi
 117 00c0 1C304BE2 		sub	r3, fp, #28
 118 00c4 022083E2 		add	r2, r3, #2
 119 00c8 FE3CA0E3 		mov	r3, #65024
ARM GAS  /tmp/ccTFyqST.s 			page 4


 120 00cc B030C2E1 		strh	r3, [r2, #0]	@ movhi
  49:test_uIP.c    **** 	uip_setdraddr(ipaddr);
 121              		.loc 1 49 0
 122 00d0 BC215BE1 		ldrh	r2, [fp, #-28]
 123 00d4 68309FE5 		ldr	r3, .L3+16
 124 00d8 B020C3E1 		strh	r2, [r3, #0]	@ movhi
 125 00dc 64209FE5 		ldr	r2, .L3+20
 126 00e0 1C304BE2 		sub	r3, fp, #28
 127 00e4 023083E2 		add	r3, r3, #2
 128 00e8 B030D3E1 		ldrh	r3, [r3, #0]
 129 00ec B030C2E1 		strh	r3, [r2, #0]	@ movhi
  50:test_uIP.c    **** 	//set subnet mask
  51:test_uIP.c    **** 	uip_ipaddr(ipaddr, 255, 255, 255, 0);
 130              		.loc 1 51 0
 131 00f0 0030E0E3 		mvn	r3, #0
 132 00f4 BC314BE1 		strh	r3, [fp, #-28]	@ movhi
 133 00f8 1C304BE2 		sub	r3, fp, #28
 134 00fc 022083E2 		add	r2, r3, #2
 135 0100 FF30A0E3 		mov	r3, #255
 136 0104 B030C2E1 		strh	r3, [r2, #0]	@ movhi
  52:test_uIP.c    **** 	uip_setnetmask(ipaddr);
 137              		.loc 1 52 0
 138 0108 BC215BE1 		ldrh	r2, [fp, #-28]
 139 010c 44309FE5 		ldr	r3, .L3+36
 140 0110 B020C3E1 		strh	r2, [r3, #0]	@ movhi
 141 0114 40209FE5 		ldr	r2, .L3+40
 142 0118 1C304BE2 		sub	r3, fp, #28
 143 011c 023083E2 		add	r3, r3, #2
 144 0120 B030D3E1 		ldrh	r3, [r3, #0]
 145 0124 B030C2E1 		strh	r3, [r2, #0]	@ movhi
  53:test_uIP.c    **** }
 146              		.loc 1 53 0
 147 0128 0CD04BE2 		sub	sp, fp, #12
 148 012c 00689DE8 		ldmfd	sp, {fp, sp, lr}
 149 0130 1EFF2FE1 		bx	lr
 150              	.L4:
 151              		.align	2
 152              	.L3:
 153 0134 00000000 		.word	C.0.2845
 154 0138 00000000 		.word	periodic_timer
 155 013c 00000000 		.word	arp_timer
 156 0140 00000000 		.word	ether_addr
 157 0144 00000000 		.word	uip_draddr
 158 0148 02000000 		.word	uip_draddr+2
 159 014c 02000000 		.word	ether_addr+2
 160 0150 00000000 		.word	uip_hostaddr
 161 0154 02000000 		.word	uip_hostaddr+2
 162 0158 00000000 		.word	uip_netmask
 163 015c 02000000 		.word	uip_netmask+2
 164              	.LFE2:
 165              		.size	uip_setup, .-uip_setup
 166              		.section	.text.uip_activity,"ax",%progbits
 167              		.align	2
 168              		.global	uip_activity
 169              		.type	uip_activity, %function
 170              	uip_activity:
 171              	.LFB3:
ARM GAS  /tmp/ccTFyqST.s 			page 5


  54:test_uIP.c    **** 
  55:test_uIP.c    **** 
  56:test_uIP.c    **** #define BUF ((struct uip_eth_hdr *)uip_buf)
  57:test_uIP.c    **** 
  58:test_uIP.c    **** void uip_activity() {
 172              		.loc 1 58 0
 173              		@ Function supports interworking.
 174              		@ args = 0, pretend = 0, frame = 8
 175              		@ frame_needed = 1, uses_anonymous_args = 0
 176 0000 0DC0A0E1 		mov	ip, sp
 177              	.LCFI4:
 178 0004 00D82DE9 		stmfd	sp!, {fp, ip, lr, pc}
 179              	.LCFI5:
 180 0008 04B04CE2 		sub	fp, ip, #4
 181              	.LCFI6:
 182 000c 08D04DE2 		sub	sp, sp, #8
 183              	.LCFI7:
  59:test_uIP.c    **** 	int i;
  60:test_uIP.c    **** //	uip_len = Ethernet_receive(uip_buf, UIP_BUFSIZE, CLOCK_SECOND / 2);
  61:test_uIP.c    **** 	uip_len = Ethernet_receive(uip_buf, UIP_BUFSIZE);
 184              		.loc 1 61 0
 185 0010 C0019FE5 		ldr	r0, .L18
 186 0014 691FA0E3 		mov	r1, #420
 187 0018 FEFFFFEB 		bl	Ethernet_receive
 188 001c 0030A0E1 		mov	r3, r0
 189 0020 0338A0E1 		mov	r3, r3, asl #16
 190 0024 2328A0E1 		mov	r2, r3, lsr #16
 191 0028 AC319FE5 		ldr	r3, .L18+4
 192 002c B020C3E1 		strh	r2, [r3, #0]	@ movhi
  62:test_uIP.c    **** 	if (uip_len > 0) {
 193              		.loc 1 62 0
 194 0030 A4319FE5 		ldr	r3, .L18+4
 195 0034 B030D3E1 		ldrh	r3, [r3, #0]
 196 0038 000053E3 		cmp	r3, #0
 197 003c 2100000A 		beq	.L6
  63:test_uIP.c    **** 		if (BUF->type == HTONS(UIP_ETHTYPE_IP)) {
 198              		.loc 1 63 0
 199 0040 90319FE5 		ldr	r3, .L18
 200 0044 BC30D3E1 		ldrh	r3, [r3, #12]
 201 0048 080053E3 		cmp	r3, #8
 202 004c 0C00001A 		bne	.L7
  64:test_uIP.c    **** 			uip_arp_ipin();
  65:test_uIP.c    **** 			uip_input();
 203              		.loc 1 65 0
 204 0050 0100A0E3 		mov	r0, #1
 205 0054 FEFFFFEB 		bl	uip_process
  66:test_uIP.c    **** 			if (uip_len > 0) {
 206              		.loc 1 66 0
 207 0058 7C319FE5 		ldr	r3, .L18+4
 208 005c B030D3E1 		ldrh	r3, [r3, #0]
 209 0060 000053E3 		cmp	r3, #0
 210 0064 5800000A 		beq	.L17
  67:test_uIP.c    **** 				uip_arp_out();
 211              		.loc 1 67 0
 212 0068 FEFFFFEB 		bl	uip_arp_out
  68:test_uIP.c    **** 				Ethernet_send(uip_buf, uip_len);
 213              		.loc 1 68 0
ARM GAS  /tmp/ccTFyqST.s 			page 6


 214 006c 68319FE5 		ldr	r3, .L18+4
 215 0070 B030D3E1 		ldrh	r3, [r3, #0]
 216 0074 5C019FE5 		ldr	r0, .L18
 217 0078 0310A0E1 		mov	r1, r3
 218 007c FEFFFFEB 		bl	Ethernet_send
 219 0080 510000EA 		b	.L17
 220              	.L7:
  69:test_uIP.c    **** 			}
  70:test_uIP.c    **** 		}
  71:test_uIP.c    **** 		else if (BUF->type == HTONS(UIP_ETHTYPE_ARP)) {
 221              		.loc 1 71 0
 222 0084 4C319FE5 		ldr	r3, .L18
 223 0088 BC20D3E1 		ldrh	r2, [r3, #12]
 224 008c 063CA0E3 		mov	r3, #1536
 225 0090 083083E2 		add	r3, r3, #8
 226 0094 030052E1 		cmp	r2, r3
 227 0098 4B00001A 		bne	.L17
  72:test_uIP.c    **** 			uip_arp_arpin();
 228              		.loc 1 72 0
 229 009c FEFFFFEB 		bl	uip_arp_arpin
  73:test_uIP.c    **** 			if (uip_len > 0) {
 230              		.loc 1 73 0
 231 00a0 34319FE5 		ldr	r3, .L18+4
 232 00a4 B030D3E1 		ldrh	r3, [r3, #0]
 233 00a8 000053E3 		cmp	r3, #0
 234 00ac 4600000A 		beq	.L17
  74:test_uIP.c    **** 				//Ethernet_send(uip_buf, uip_len, 10);
  75:test_uIP.c    **** 				Ethernet_send(uip_buf, uip_len);
 235              		.loc 1 75 0
 236 00b0 24319FE5 		ldr	r3, .L18+4
 237 00b4 B030D3E1 		ldrh	r3, [r3, #0]
 238 00b8 18019FE5 		ldr	r0, .L18
 239 00bc 0310A0E1 		mov	r1, r3
 240 00c0 FEFFFFEB 		bl	Ethernet_send
 241 00c4 400000EA 		b	.L17
 242              	.L6:
  76:test_uIP.c    **** 			}
  77:test_uIP.c    **** 		}
  78:test_uIP.c    **** 	} else if (timer_expired(&periodic_timer)) {
 243              		.loc 1 78 0
 244 00c8 10019FE5 		ldr	r0, .L18+8
 245 00cc FEFFFFEB 		bl	timer_expired
 246 00d0 0030A0E1 		mov	r3, r0
 247 00d4 000053E3 		cmp	r3, #0
 248 00d8 3B00000A 		beq	.L17
  79:test_uIP.c    **** 		timer_reset(&periodic_timer);
 249              		.loc 1 79 0
 250 00dc FC009FE5 		ldr	r0, .L18+8
 251 00e0 FEFFFFEB 		bl	timer_reset
  80:test_uIP.c    **** 		for (i = 0; i < UIP_CONNS; i++) {
 252              		.loc 1 80 0
 253 00e4 0030A0E3 		mov	r3, #0
 254 00e8 10300BE5 		str	r3, [fp, #-16]
 255 00ec 180000EA 		b	.L11
 256              	.L13:
  81:test_uIP.c    **** 			uip_periodic(i);
 257              		.loc 1 81 0
ARM GAS  /tmp/ccTFyqST.s 			page 7


 258 00f0 10301BE5 		ldr	r3, [fp, #-16]
 259 00f4 0321A0E1 		mov	r2, r3, asl #2
 260 00f8 0231A0E1 		mov	r3, r2, asl #2
 261 00fc 033062E0 		rsb	r3, r2, r3
 262 0100 0322A0E1 		mov	r2, r3, asl #4
 263 0104 022083E0 		add	r2, r3, r2
 264 0108 D4309FE5 		ldr	r3, .L18+12
 265 010c 032082E0 		add	r2, r2, r3
 266 0110 D0309FE5 		ldr	r3, .L18+16
 267 0114 002083E5 		str	r2, [r3, #0]
 268 0118 0200A0E3 		mov	r0, #2
 269 011c FEFFFFEB 		bl	uip_process
  82:test_uIP.c    **** 			if (uip_len > 0) {
 270              		.loc 1 82 0
 271 0120 B4309FE5 		ldr	r3, .L18+4
 272 0124 B030D3E1 		ldrh	r3, [r3, #0]
 273 0128 000053E3 		cmp	r3, #0
 274 012c 0500000A 		beq	.L12
  83:test_uIP.c    **** 				uip_arp_out();
 275              		.loc 1 83 0
 276 0130 FEFFFFEB 		bl	uip_arp_out
  84:test_uIP.c    **** 				Ethernet_send(uip_buf, uip_len);
 277              		.loc 1 84 0
 278 0134 A0309FE5 		ldr	r3, .L18+4
 279 0138 B030D3E1 		ldrh	r3, [r3, #0]
 280 013c 94009FE5 		ldr	r0, .L18
 281 0140 0310A0E1 		mov	r1, r3
 282 0144 FEFFFFEB 		bl	Ethernet_send
 283              	.L12:
 284              		.loc 1 80 0
 285 0148 10301BE5 		ldr	r3, [fp, #-16]
 286 014c 013083E2 		add	r3, r3, #1
 287 0150 10300BE5 		str	r3, [fp, #-16]
 288              	.L11:
 289 0154 10301BE5 		ldr	r3, [fp, #-16]
 290 0158 270053E3 		cmp	r3, #39
 291 015c E3FFFFDA 		ble	.L13
  85:test_uIP.c    **** 			}
  86:test_uIP.c    **** 		}
  87:test_uIP.c    **** 		for (i = 0; i < UIP_UDP_CONNS; i++) {
 292              		.loc 1 87 0
 293 0160 0030A0E3 		mov	r3, #0
 294 0164 10300BE5 		str	r3, [fp, #-16]
 295 0168 0C0000EA 		b	.L14
 296              	.L16:
  88:test_uIP.c    **** 			//uip_udp_periodic(i);
  89:test_uIP.c    **** 			if (uip_len > 0) {
 297              		.loc 1 89 0
 298 016c 68309FE5 		ldr	r3, .L18+4
 299 0170 B030D3E1 		ldrh	r3, [r3, #0]
 300 0174 000053E3 		cmp	r3, #0
 301 0178 0500000A 		beq	.L15
  90:test_uIP.c    **** 				uip_arp_out();
 302              		.loc 1 90 0
 303 017c FEFFFFEB 		bl	uip_arp_out
  91:test_uIP.c    **** 				Ethernet_send(uip_buf, uip_len);
 304              		.loc 1 91 0
ARM GAS  /tmp/ccTFyqST.s 			page 8


 305 0180 54309FE5 		ldr	r3, .L18+4
 306 0184 B030D3E1 		ldrh	r3, [r3, #0]
 307 0188 48009FE5 		ldr	r0, .L18
 308 018c 0310A0E1 		mov	r1, r3
 309 0190 FEFFFFEB 		bl	Ethernet_send
 310              	.L15:
 311              		.loc 1 87 0
 312 0194 10301BE5 		ldr	r3, [fp, #-16]
 313 0198 013083E2 		add	r3, r3, #1
 314 019c 10300BE5 		str	r3, [fp, #-16]
 315              	.L14:
 316 01a0 10301BE5 		ldr	r3, [fp, #-16]
 317 01a4 090053E3 		cmp	r3, #9
 318 01a8 EFFFFFDA 		ble	.L16
  92:test_uIP.c    **** 			}
  93:test_uIP.c    **** 		}
  94:test_uIP.c    **** 		if (timer_expired(&arp_timer)) {
 319              		.loc 1 94 0
 320 01ac 38009FE5 		ldr	r0, .L18+20
 321 01b0 FEFFFFEB 		bl	timer_expired
 322 01b4 0030A0E1 		mov	r3, r0
 323 01b8 000053E3 		cmp	r3, #0
 324 01bc 0200000A 		beq	.L17
  95:test_uIP.c    **** 			timer_reset(&arp_timer);
 325              		.loc 1 95 0
 326 01c0 24009FE5 		ldr	r0, .L18+20
 327 01c4 FEFFFFEB 		bl	timer_reset
  96:test_uIP.c    **** 			uip_arp_timer();
 328              		.loc 1 96 0
 329 01c8 FEFFFFEB 		bl	uip_arp_timer
 330              	.L17:
  97:test_uIP.c    **** 		}
  98:test_uIP.c    **** 	}
  99:test_uIP.c    **** }
 331              		.loc 1 99 0
 332 01cc 0CD04BE2 		sub	sp, fp, #12
 333 01d0 00689DE8 		ldmfd	sp, {fp, sp, lr}
 334 01d4 1EFF2FE1 		bx	lr
 335              	.L19:
 336              		.align	2
 337              	.L18:
 338 01d8 00000000 		.word	uip_buf
 339 01dc 00000000 		.word	uip_len
 340 01e0 00000000 		.word	periodic_timer
 341 01e4 00000000 		.word	uip_conns
 342 01e8 00000000 		.word	uip_conn
 343 01ec 00000000 		.word	arp_timer
 344              	.LFE3:
 345              		.size	uip_activity, .-uip_activity
 346              		.section	.text.gpio_init,"ax",%progbits
 347              		.align	2
 348              		.global	gpio_init
 349              		.type	gpio_init, %function
 350              	gpio_init:
 351              	.LFB4:
 100:test_uIP.c    **** 
 101:test_uIP.c    **** void gpio_init(){
ARM GAS  /tmp/ccTFyqST.s 			page 9


 352              		.loc 1 101 0
 353              		@ Function supports interworking.
 354              		@ args = 0, pretend = 0, frame = 8
 355              		@ frame_needed = 1, uses_anonymous_args = 0
 356 0000 0DC0A0E1 		mov	ip, sp
 357              	.LCFI8:
 358 0004 00D82DE9 		stmfd	sp!, {fp, ip, lr, pc}
 359              	.LCFI9:
 360 0008 04B04CE2 		sub	fp, ip, #4
 361              	.LCFI10:
 362 000c 08D04DE2 		sub	sp, sp, #8
 363              	.LCFI11:
 364              	.LBB2:
 102:test_uIP.c    **** 	cyg_uint32 iodir;
 103:test_uIP.c    **** 	/*activate gpio for CS, Reset*/
 104:test_uIP.c    **** 	GPIO_INIT_PINSEL0((CS_PIN | RESET));
 365              		.loc 1 104 0
 366 0010 0E32A0E3 		mov	r3, #-536870912
 367 0014 0B3983E2 		add	r3, r3, #180224
 368 0018 003093E5 		ldr	r3, [r3, #0]
 369 001c 10300BE5 		str	r3, [fp, #-16]
 370 0020 0E32A0E3 		mov	r3, #-536870912
 371 0024 0B3983E2 		add	r3, r3, #180224
 372 0028 10201BE5 		ldr	r2, [fp, #-16]
 373 002c 032C02E2 		and	r2, r2, #768
 374 0030 002083E5 		str	r2, [r3, #0]
 375              	.LBE2:
 105:test_uIP.c    **** 
 106:test_uIP.c    **** 	/*set dir to output for CS and Reset*/
 107:test_uIP.c    **** 	HAL_READ_UINT32((pGPIO)->IODIR, iodir);
 376              		.loc 1 107 0
 377 0034 0E32A0E3 		mov	r3, #-536870912
 378 0038 0A3983E2 		add	r3, r3, #163840
 379 003c 083093E5 		ldr	r3, [r3, #8]
 380 0040 003093E5 		ldr	r3, [r3, #0]
 381 0044 14300BE5 		str	r3, [fp, #-20]
 108:test_uIP.c    **** 	iodir = iodir | (CS_PIN | RESET);
 382              		.loc 1 108 0
 383 0048 14301BE5 		ldr	r3, [fp, #-20]
 384 004c 033C83E3 		orr	r3, r3, #768
 385 0050 14300BE5 		str	r3, [fp, #-20]
 109:test_uIP.c    **** 	HAL_WRITE_UINT32(CYGARC_HAL_LPC2XXX_REG_IO_BASE+CYGARC_HAL_LPC2XXX_REG_IODIR, iodir);
 386              		.loc 1 109 0
 387 0054 8E32A0E3 		mov	r3, #-536870904
 388 0058 0A3983E2 		add	r3, r3, #163840
 389 005c 14201BE5 		ldr	r2, [fp, #-20]
 390 0060 002083E5 		str	r2, [r3, #0]
 110:test_uIP.c    **** 
 111:test_uIP.c    **** 	/*CS OFF & RESET OFF*/
 112:test_uIP.c    **** 	HAL_WRITE_UINT32(CYGARC_HAL_LPC2XXX_REG_IO_BASE + CYGARC_HAL_LPC2XXX_REG_IOSET, CS_PIN);
 391              		.loc 1 112 0
 392 0064 4E32A0E3 		mov	r3, #-536870908
 393 0068 0A3983E2 		add	r3, r3, #163840
 394 006c 012CA0E3 		mov	r2, #256
 395 0070 002083E5 		str	r2, [r3, #0]
 113:test_uIP.c    **** 	HAL_WRITE_UINT32(CYGARC_HAL_LPC2XXX_REG_IO_BASE + CYGARC_HAL_LPC2XXX_REG_IOSET, RESET);
 396              		.loc 1 113 0
ARM GAS  /tmp/ccTFyqST.s 			page 10


 397 0074 4E32A0E3 		mov	r3, #-536870908
 398 0078 0A3983E2 		add	r3, r3, #163840
 399 007c 022CA0E3 		mov	r2, #512
 400 0080 002083E5 		str	r2, [r3, #0]
 114:test_uIP.c    **** 
 115:test_uIP.c    **** }
 401              		.loc 1 115 0
 402 0084 0CD04BE2 		sub	sp, fp, #12
 403 0088 00689DE8 		ldmfd	sp, {fp, sp, lr}
 404 008c 1EFF2FE1 		bx	lr
 405              	.LFE4:
 406              		.size	gpio_init, .-gpio_init
 407              		.section	.text.main_application_init,"ax",%progbits
 408              		.align	2
 409              		.type	main_application_init, %function
 410              	main_application_init:
 411              	.LFB5:
 116:test_uIP.c    **** 
 117:test_uIP.c    **** static void main_application_init(){
 412              		.loc 1 117 0
 413              		@ Function supports interworking.
 414              		@ args = 0, pretend = 0, frame = 0
 415              		@ frame_needed = 1, uses_anonymous_args = 0
 416 0000 0DC0A0E1 		mov	ip, sp
 417              	.LCFI12:
 418 0004 00D82DE9 		stmfd	sp!, {fp, ip, lr, pc}
 419              	.LCFI13:
 420 0008 04B04CE2 		sub	fp, ip, #4
 421              	.LCFI14:
 118:test_uIP.c    **** 		uip_listen(HTONS(1234));
 422              		.loc 1 118 0
 423 000c D20CA0E3 		mov	r0, #53760
 424 0010 040080E2 		add	r0, r0, #4
 425 0014 FEFFFFEB 		bl	uip_listen
 119:test_uIP.c    **** }
 426              		.loc 1 119 0
 427 0018 0CD04BE2 		sub	sp, fp, #12
 428 001c 00689DE8 		ldmfd	sp, {fp, sp, lr}
 429 0020 1EFF2FE1 		bx	lr
 430              	.LFE5:
 431              		.size	main_application_init, .-main_application_init
 432              		.section	.text.main_application,"ax",%progbits
 433              		.align	2
 434              		.global	main_application
 435              		.type	main_application, %function
 436              	main_application:
 437              	.LFB6:
 120:test_uIP.c    **** void main_application(void){
 438              		.loc 1 120 0
 439              		@ Function supports interworking.
 440              		@ args = 0, pretend = 0, frame = 0
 441              		@ frame_needed = 1, uses_anonymous_args = 0
 442 0000 0DC0A0E1 		mov	ip, sp
 443              	.LCFI15:
 444 0004 00D82DE9 		stmfd	sp!, {fp, ip, lr, pc}
 445              	.LCFI16:
 446 0008 04B04CE2 		sub	fp, ip, #4
ARM GAS  /tmp/ccTFyqST.s 			page 11


 447              	.LCFI17:
 121:test_uIP.c    **** 	if (uip_newdata())
 448              		.loc 1 121 0
 449 000c 34309FE5 		ldr	r3, .L27
 450 0010 0030D3E5 		ldrb	r3, [r3, #0]	@ zero_extendqisi2
 451 0014 023003E2 		and	r3, r3, #2
 452 0018 000053E3 		cmp	r3, #0
 453 001c 0600000A 		beq	.L26
 122:test_uIP.c    **** 		uip_send(uip_appdata, uip_datalen());
 454              		.loc 1 122 0
 455 0020 24309FE5 		ldr	r3, .L27+4
 456 0024 002093E5 		ldr	r2, [r3, #0]
 457 0028 20309FE5 		ldr	r3, .L27+8
 458 002c B030D3E1 		ldrh	r3, [r3, #0]
 459 0030 0200A0E1 		mov	r0, r2
 460 0034 0310A0E1 		mov	r1, r3
 461 0038 FEFFFFEB 		bl	uip_send
 462              	.L26:
 123:test_uIP.c    **** }
 463              		.loc 1 123 0
 464 003c 0CD04BE2 		sub	sp, fp, #12
 465 0040 00689DE8 		ldmfd	sp, {fp, sp, lr}
 466 0044 1EFF2FE1 		bx	lr
 467              	.L28:
 468              		.align	2
 469              	.L27:
 470 0048 00000000 		.word	uip_flags
 471 004c 00000000 		.word	uip_appdata
 472 0050 00000000 		.word	uip_len
 473              	.LFE6:
 474              		.size	main_application, .-main_application
 475              		.section	.rodata
 476              		.align	2
 477              	.LC0:
 478 0000 54657374 		.ascii	"Testing uip\012\015\000"
 478      696E6720 
 478      7569700A 
 478      0D00
 479 000e 0000     		.section	.text.main,"ax",%progbits
 480              		.align	2
 481              		.global	main
 482              		.type	main, %function
 483              	main:
 484              	.LFB7:
 124:test_uIP.c    **** 
 125:test_uIP.c    **** int main(){
 485              		.loc 1 125 0
 486              		@ Function supports interworking.
 487              		@ args = 0, pretend = 0, frame = 0
 488              		@ frame_needed = 1, uses_anonymous_args = 0
 489 0000 0DC0A0E1 		mov	ip, sp
 490              	.LCFI18:
 491 0004 00D82DE9 		stmfd	sp!, {fp, ip, lr, pc}
 492              	.LCFI19:
 493 0008 04B04CE2 		sub	fp, ip, #4
 494              	.LCFI20:
 126:test_uIP.c    **** 
ARM GAS  /tmp/ccTFyqST.s 			page 12


 127:test_uIP.c    **** 	diag_printf("Testing uip\n\r");
 495              		.loc 1 127 0
 496 000c 14009FE5 		ldr	r0, .L32
 497 0010 FEFFFFEB 		bl	diag_printf
 128:test_uIP.c    **** 	gpio_init();
 498              		.loc 1 128 0
 499 0014 FEFFFFEB 		bl	gpio_init
 129:test_uIP.c    **** 	//gpio_test();
 130:test_uIP.c    **** 	//enc_test(1,5,5);
 131:test_uIP.c    **** 	uip_setup();
 500              		.loc 1 131 0
 501 0018 FEFFFFEB 		bl	uip_setup
 132:test_uIP.c    **** 
 133:test_uIP.c    **** 	main_application_init();
 502              		.loc 1 133 0
 503 001c FEFFFFEB 		bl	main_application_init
 504              	.L30:
 134:test_uIP.c    **** 
 135:test_uIP.c    **** 	while(1){
 136:test_uIP.c    **** 		uip_activity();
 505              		.loc 1 136 0
 506 0020 FEFFFFEB 		bl	uip_activity
 507 0024 FDFFFFEA 		b	.L30
 508              	.L33:
 509              		.align	2
 510              	.L32:
 511 0028 00000000 		.word	.LC0
 512              	.LFE7:
 513              		.size	main, .-main
 514              		.section	.bss.packet,"aw",%nobits
 515              		.type	packet, %object
 516              		.size	packet, 1516
 517              	packet:
 518 0000 00000000 		.space	1516
 518      00000000 
 518      00000000 
 518      00000000 
 518      00000000 
 519              		.comm	periodic_timer,8,4
 520              		.comm	arp_timer,8,4
 521              		.section	.debug_frame,"",%progbits
 522              	.Lframe0:
 523 0000 0C000000 		.4byte	.LECIE0-.LSCIE0
 524              	.LSCIE0:
 525 0004 FFFFFFFF 		.4byte	0xffffffff
 526 0008 01       		.byte	0x1
 527 0009 00       		.ascii	"\000"
 528 000a 01       		.uleb128 0x1
 529 000b 7C       		.sleb128 -4
 530 000c 0E       		.byte	0xe
 531 000d 0C       		.byte	0xc
 532 000e 0D       		.uleb128 0xd
 533 000f 00       		.uleb128 0x0
 534              		.align	2
 535              	.LECIE0:
 536              	.LSFDE0:
 537 0010 1C000000 		.4byte	.LEFDE0-.LASFDE0
ARM GAS  /tmp/ccTFyqST.s 			page 13


 538              	.LASFDE0:
 539 0014 00000000 		.4byte	.Lframe0
 540 0018 00000000 		.4byte	.LFB2
 541 001c 60010000 		.4byte	.LFE2-.LFB2
 542 0020 44       		.byte	0x4
 543              		.4byte	.LCFI0-.LFB2
 544 0021 0D       		.byte	0xd
 545 0022 0C       		.uleb128 0xc
 546 0023 44       		.byte	0x4
 547              		.4byte	.LCFI1-.LCFI0
 548 0024 8E       		.byte	0x8e
 549 0025 02       		.uleb128 0x2
 550 0026 8D       		.byte	0x8d
 551 0027 03       		.uleb128 0x3
 552 0028 8B       		.byte	0x8b
 553 0029 04       		.uleb128 0x4
 554 002a 44       		.byte	0x4
 555              		.4byte	.LCFI2-.LCFI1
 556 002b 0C       		.byte	0xc
 557 002c 0B       		.uleb128 0xb
 558 002d 04       		.uleb128 0x4
 559 002e 0000     		.align	2
 560              	.LEFDE0:
 561              	.LSFDE2:
 562 0030 1C000000 		.4byte	.LEFDE2-.LASFDE2
 563              	.LASFDE2:
 564 0034 00000000 		.4byte	.Lframe0
 565 0038 00000000 		.4byte	.LFB3
 566 003c F0010000 		.4byte	.LFE3-.LFB3
 567 0040 44       		.byte	0x4
 568              		.4byte	.LCFI4-.LFB3
 569 0041 0D       		.byte	0xd
 570 0042 0C       		.uleb128 0xc
 571 0043 44       		.byte	0x4
 572              		.4byte	.LCFI5-.LCFI4
 573 0044 8E       		.byte	0x8e
 574 0045 02       		.uleb128 0x2
 575 0046 8D       		.byte	0x8d
 576 0047 03       		.uleb128 0x3
 577 0048 8B       		.byte	0x8b
 578 0049 04       		.uleb128 0x4
 579 004a 44       		.byte	0x4
 580              		.4byte	.LCFI6-.LCFI5
 581 004b 0C       		.byte	0xc
 582 004c 0B       		.uleb128 0xb
 583 004d 04       		.uleb128 0x4
 584 004e 0000     		.align	2
 585              	.LEFDE2:
 586              	.LSFDE4:
 587 0050 1C000000 		.4byte	.LEFDE4-.LASFDE4
 588              	.LASFDE4:
 589 0054 00000000 		.4byte	.Lframe0
 590 0058 00000000 		.4byte	.LFB4
 591 005c 90000000 		.4byte	.LFE4-.LFB4
 592 0060 44       		.byte	0x4
 593              		.4byte	.LCFI8-.LFB4
 594 0061 0D       		.byte	0xd
ARM GAS  /tmp/ccTFyqST.s 			page 14


 595 0062 0C       		.uleb128 0xc
 596 0063 44       		.byte	0x4
 597              		.4byte	.LCFI9-.LCFI8
 598 0064 8E       		.byte	0x8e
 599 0065 02       		.uleb128 0x2
 600 0066 8D       		.byte	0x8d
 601 0067 03       		.uleb128 0x3
 602 0068 8B       		.byte	0x8b
 603 0069 04       		.uleb128 0x4
 604 006a 44       		.byte	0x4
 605              		.4byte	.LCFI10-.LCFI9
 606 006b 0C       		.byte	0xc
 607 006c 0B       		.uleb128 0xb
 608 006d 04       		.uleb128 0x4
 609 006e 0000     		.align	2
 610              	.LEFDE4:
 611              	.LSFDE6:
 612 0070 1C000000 		.4byte	.LEFDE6-.LASFDE6
 613              	.LASFDE6:
 614 0074 00000000 		.4byte	.Lframe0
 615 0078 00000000 		.4byte	.LFB5
 616 007c 24000000 		.4byte	.LFE5-.LFB5
 617 0080 44       		.byte	0x4
 618              		.4byte	.LCFI12-.LFB5
 619 0081 0D       		.byte	0xd
 620 0082 0C       		.uleb128 0xc
 621 0083 44       		.byte	0x4
 622              		.4byte	.LCFI13-.LCFI12
 623 0084 8E       		.byte	0x8e
 624 0085 02       		.uleb128 0x2
 625 0086 8D       		.byte	0x8d
 626 0087 03       		.uleb128 0x3
 627 0088 8B       		.byte	0x8b
 628 0089 04       		.uleb128 0x4
 629 008a 44       		.byte	0x4
 630              		.4byte	.LCFI14-.LCFI13
 631 008b 0C       		.byte	0xc
 632 008c 0B       		.uleb128 0xb
 633 008d 04       		.uleb128 0x4
 634 008e 0000     		.align	2
 635              	.LEFDE6:
 636              	.LSFDE8:
 637 0090 1C000000 		.4byte	.LEFDE8-.LASFDE8
 638              	.LASFDE8:
 639 0094 00000000 		.4byte	.Lframe0
 640 0098 00000000 		.4byte	.LFB6
 641 009c 54000000 		.4byte	.LFE6-.LFB6
 642 00a0 44       		.byte	0x4
 643              		.4byte	.LCFI15-.LFB6
 644 00a1 0D       		.byte	0xd
 645 00a2 0C       		.uleb128 0xc
 646 00a3 44       		.byte	0x4
 647              		.4byte	.LCFI16-.LCFI15
 648 00a4 8E       		.byte	0x8e
 649 00a5 02       		.uleb128 0x2
 650 00a6 8D       		.byte	0x8d
 651 00a7 03       		.uleb128 0x3
ARM GAS  /tmp/ccTFyqST.s 			page 15


 652 00a8 8B       		.byte	0x8b
 653 00a9 04       		.uleb128 0x4
 654 00aa 44       		.byte	0x4
 655              		.4byte	.LCFI17-.LCFI16
 656 00ab 0C       		.byte	0xc
 657 00ac 0B       		.uleb128 0xb
 658 00ad 04       		.uleb128 0x4
 659 00ae 0000     		.align	2
 660              	.LEFDE8:
 661              	.LSFDE10:
 662 00b0 1C000000 		.4byte	.LEFDE10-.LASFDE10
 663              	.LASFDE10:
 664 00b4 00000000 		.4byte	.Lframe0
 665 00b8 00000000 		.4byte	.LFB7
 666 00bc 2C000000 		.4byte	.LFE7-.LFB7
 667 00c0 44       		.byte	0x4
 668              		.4byte	.LCFI18-.LFB7
 669 00c1 0D       		.byte	0xd
 670 00c2 0C       		.uleb128 0xc
 671 00c3 44       		.byte	0x4
 672              		.4byte	.LCFI19-.LCFI18
 673 00c4 8E       		.byte	0x8e
 674 00c5 02       		.uleb128 0x2
 675 00c6 8D       		.byte	0x8d
 676 00c7 03       		.uleb128 0x3
 677 00c8 8B       		.byte	0x8b
 678 00c9 04       		.uleb128 0x4
 679 00ca 44       		.byte	0x4
 680              		.4byte	.LCFI20-.LCFI19
 681 00cb 0C       		.byte	0xc
 682 00cc 0B       		.uleb128 0xb
 683 00cd 04       		.uleb128 0x4
 684 00ce 0000     		.align	2
 685              	.LEFDE10:
 686              		.text
 687              	.Letext0:
 688              		.section	.debug_loc,"",%progbits
 689              	.Ldebug_loc0:
 690              	.LLST0:
 691 0000 00000000 		.4byte	.LFB2
 692 0004 04000000 		.4byte	.LCFI0
 693 0008 0100     		.2byte	0x1
 694 000a 5D       		.byte	0x5d
 695 000b 04000000 		.4byte	.LCFI0
 696 000f 0C000000 		.4byte	.LCFI2
 697 0013 0100     		.2byte	0x1
 698 0015 5C       		.byte	0x5c
 699 0016 0C000000 		.4byte	.LCFI2
 700 001a 60010000 		.4byte	.LFE2
 701 001e 0200     		.2byte	0x2
 702 0020 7B       		.byte	0x7b
 703 0021 04       		.sleb128 4
 704 0022 00000000 		.4byte	0x0
 705 0026 00000000 		.4byte	0x0
 706              	.LLST1:
 707 002a 00000000 		.4byte	.LFB3
 708 002e 04000000 		.4byte	.LCFI4
ARM GAS  /tmp/ccTFyqST.s 			page 16


 709 0032 0100     		.2byte	0x1
 710 0034 5D       		.byte	0x5d
 711 0035 04000000 		.4byte	.LCFI4
 712 0039 0C000000 		.4byte	.LCFI6
 713 003d 0100     		.2byte	0x1
 714 003f 5C       		.byte	0x5c
 715 0040 0C000000 		.4byte	.LCFI6
 716 0044 F0010000 		.4byte	.LFE3
 717 0048 0200     		.2byte	0x2
 718 004a 7B       		.byte	0x7b
 719 004b 04       		.sleb128 4
 720 004c 00000000 		.4byte	0x0
 721 0050 00000000 		.4byte	0x0
 722              	.LLST2:
 723 0054 00000000 		.4byte	.LFB4
 724 0058 04000000 		.4byte	.LCFI8
 725 005c 0100     		.2byte	0x1
 726 005e 5D       		.byte	0x5d
 727 005f 04000000 		.4byte	.LCFI8
 728 0063 0C000000 		.4byte	.LCFI10
 729 0067 0100     		.2byte	0x1
 730 0069 5C       		.byte	0x5c
 731 006a 0C000000 		.4byte	.LCFI10
 732 006e 90000000 		.4byte	.LFE4
 733 0072 0200     		.2byte	0x2
 734 0074 7B       		.byte	0x7b
 735 0075 04       		.sleb128 4
 736 0076 00000000 		.4byte	0x0
 737 007a 00000000 		.4byte	0x0
 738              	.LLST3:
 739 007e 00000000 		.4byte	.LFB5
 740 0082 04000000 		.4byte	.LCFI12
 741 0086 0100     		.2byte	0x1
 742 0088 5D       		.byte	0x5d
 743 0089 04000000 		.4byte	.LCFI12
 744 008d 0C000000 		.4byte	.LCFI14
 745 0091 0100     		.2byte	0x1
 746 0093 5C       		.byte	0x5c
 747 0094 0C000000 		.4byte	.LCFI14
 748 0098 24000000 		.4byte	.LFE5
 749 009c 0200     		.2byte	0x2
 750 009e 7B       		.byte	0x7b
 751 009f 04       		.sleb128 4
 752 00a0 00000000 		.4byte	0x0
 753 00a4 00000000 		.4byte	0x0
 754              	.LLST4:
 755 00a8 00000000 		.4byte	.LFB6
 756 00ac 04000000 		.4byte	.LCFI15
 757 00b0 0100     		.2byte	0x1
 758 00b2 5D       		.byte	0x5d
 759 00b3 04000000 		.4byte	.LCFI15
 760 00b7 0C000000 		.4byte	.LCFI17
 761 00bb 0100     		.2byte	0x1
 762 00bd 5C       		.byte	0x5c
 763 00be 0C000000 		.4byte	.LCFI17
 764 00c2 54000000 		.4byte	.LFE6
 765 00c6 0200     		.2byte	0x2
ARM GAS  /tmp/ccTFyqST.s 			page 17


 766 00c8 7B       		.byte	0x7b
 767 00c9 04       		.sleb128 4
 768 00ca 00000000 		.4byte	0x0
 769 00ce 00000000 		.4byte	0x0
 770              	.LLST5:
 771 00d2 00000000 		.4byte	.LFB7
 772 00d6 04000000 		.4byte	.LCFI18
 773 00da 0100     		.2byte	0x1
 774 00dc 5D       		.byte	0x5d
 775 00dd 04000000 		.4byte	.LCFI18
 776 00e1 0C000000 		.4byte	.LCFI20
 777 00e5 0100     		.2byte	0x1
 778 00e7 5C       		.byte	0x5c
 779 00e8 0C000000 		.4byte	.LCFI20
 780 00ec 2C000000 		.4byte	.LFE7
 781 00f0 0200     		.2byte	0x2
 782 00f2 7B       		.byte	0x7b
 783 00f3 04       		.sleb128 4
 784 00f4 00000000 		.4byte	0x0
 785 00f8 00000000 		.4byte	0x0
 786              		.file 2 "./../../../../code/src/eCos//include/cyg/infra/cyg_type.h"
 787              		.file 3 "./../../../../code/src/include/TYPES.h"
 788              		.file 4 "./../../../../code/src/include/GPIO.h"
 789              		.file 5 "./../../../../code/src/eCos//include/cyg/kernel/kapi.h"
 790              		.file 6 "./../../../../code/src/eCos//include/cyg/kernel/kapidata.h"
 791              		.file 7 "./../../../../code/src/eCos//include/cyg/io/spi.h"
 792              		.file 8 "./../../../../code/src/eCos//include/cyg/io/spi_lpc2xxx.h"
 793              		.file 9 "./../../../../code/src/include/Ethernet.h"
 794              		.file 10 "./../../../../code/src/uip-1.0//lpc-2106/clock-arch.h"
 795              		.file 11 "./../../../../code/src/uip-1.0//uip/timer.h"
 796              		.file 12 "./../../../../code/src/uip-1.0//lpc-2106/uip-conf.h"
 797              		.file 13 "./../../../../code/src/uip-1.0//uip/lc-switch.h"
 798              		.file 14 "./../../../../code/src/uip-1.0//uip/pt.h"
 799              		.file 15 "./../../../../code/src/uip-1.0//uip/psock.h"
 800              		.file 16 "./../../../../code/src/uip-1.0/apps/webserver/httpd-fs.h"
 801              		.file 17 "./../../../../code/src/uip-1.0/apps/webserver/httpd.h"
 802              		.file 18 "./../../../../code/src/uip-1.0/apps/webserver/webserver.h"
 803              		.file 19 "./../../../../code/src/uip-1.0//uip/uip.h"
 804              		.file 20 "./../../../../code/src/uip-1.0//uip/uip_arp.h"
 805              		.section	.debug_info
 806 0000 030E0000 		.4byte	0xe03
 807 0004 0200     		.2byte	0x2
 808 0006 00000000 		.4byte	.Ldebug_abbrev0
 809 000a 04       		.byte	0x4
 810 000b 01       		.uleb128 0x1
 811 000c D2040000 		.4byte	.LASF176
 812 0010 01       		.byte	0x1
 813 0011 CC060000 		.4byte	.LASF177
 814 0015 F3040000 		.4byte	.LASF178
 815 0019 00000000 		.4byte	0x0
 816 001d 00000000 		.4byte	0x0
 817 0021 00000000 		.4byte	.Ldebug_ranges0+0x0
 818 0025 00000000 		.4byte	.Ldebug_line0
 819 0029 02       		.uleb128 0x2
 820 002a 04       		.byte	0x4
 821 002b 05       		.byte	0x5
 822 002c 696E7400 		.ascii	"int\000"
ARM GAS  /tmp/ccTFyqST.s 			page 18


 823 0030 03       		.uleb128 0x3
 824 0031 04       		.byte	0x4
 825 0032 07       		.byte	0x7
 826 0033 73000000 		.4byte	.LASF0
 827 0037 04       		.uleb128 0x4
 828 0038 54030000 		.4byte	.LASF3
 829 003c 02       		.byte	0x2
 830 003d D5       		.byte	0xd5
 831 003e 42000000 		.4byte	0x42
 832 0042 03       		.uleb128 0x3
 833 0043 01       		.byte	0x1
 834 0044 08       		.byte	0x8
 835 0045 B2060000 		.4byte	.LASF1
 836 0049 03       		.uleb128 0x3
 837 004a 01       		.byte	0x1
 838 004b 06       		.byte	0x6
 839 004c 6F070000 		.4byte	.LASF2
 840 0050 04       		.uleb128 0x4
 841 0051 0A060000 		.4byte	.LASF4
 842 0055 02       		.byte	0x2
 843 0056 D8       		.byte	0xd8
 844 0057 5B000000 		.4byte	0x5b
 845 005b 03       		.uleb128 0x3
 846 005c 02       		.byte	0x2
 847 005d 07       		.byte	0x7
 848 005e 7B070000 		.4byte	.LASF5
 849 0062 03       		.uleb128 0x3
 850 0063 02       		.byte	0x2
 851 0064 05       		.byte	0x5
 852 0065 7C050000 		.4byte	.LASF6
 853 0069 04       		.uleb128 0x4
 854 006a 29070000 		.4byte	.LASF7
 855 006e 02       		.byte	0x2
 856 006f DB       		.byte	0xdb
 857 0070 30000000 		.4byte	0x30
 858 0074 04       		.uleb128 0x4
 859 0075 95000000 		.4byte	.LASF8
 860 0079 02       		.byte	0x2
 861 007a DE       		.byte	0xde
 862 007b 7F000000 		.4byte	0x7f
 863 007f 03       		.uleb128 0x3
 864 0080 08       		.byte	0x8
 865 0081 07       		.byte	0x7
 866 0082 28020000 		.4byte	.LASF9
 867 0086 03       		.uleb128 0x3
 868 0087 08       		.byte	0x8
 869 0088 05       		.byte	0x5
 870 0089 AE030000 		.4byte	.LASF10
 871 008d 04       		.uleb128 0x4
 872 008e C5000000 		.4byte	.LASF11
 873 0092 02       		.byte	0x2
 874 0093 E1       		.byte	0xe1
 875 0094 29000000 		.4byte	0x29
 876 0098 04       		.uleb128 0x4
 877 0099 6A040000 		.4byte	.LASF12
 878 009d 02       		.byte	0x2
 879 009e EE       		.byte	0xee
ARM GAS  /tmp/ccTFyqST.s 			page 19


 880 009f 30000000 		.4byte	0x30
 881 00a3 04       		.uleb128 0x4
 882 00a4 32000000 		.4byte	.LASF13
 883 00a8 02       		.byte	0x2
 884 00a9 EF       		.byte	0xef
 885 00aa 29000000 		.4byte	0x29
 886 00ae 05       		.uleb128 0x5
 887 00af 42000000 		.4byte	0x42
 888 00b3 06       		.uleb128 0x6
 889 00b4 52020000 		.4byte	.LASF14
 890 00b8 02       		.byte	0x2
 891 00b9 0001     		.2byte	0x100
 892 00bb 37000000 		.4byte	0x37
 893 00bf 06       		.uleb128 0x6
 894 00c0 83010000 		.4byte	.LASF15
 895 00c4 02       		.byte	0x2
 896 00c5 0101     		.2byte	0x101
 897 00c7 50000000 		.4byte	0x50
 898 00cb 06       		.uleb128 0x6
 899 00cc A4010000 		.4byte	.LASF16
 900 00d0 02       		.byte	0x2
 901 00d1 0201     		.2byte	0x102
 902 00d3 69000000 		.4byte	0x69
 903 00d7 06       		.uleb128 0x6
 904 00d8 4E010000 		.4byte	.LASF17
 905 00dc 02       		.byte	0x2
 906 00dd 0501     		.2byte	0x105
 907 00df 69000000 		.4byte	0x69
 908 00e3 06       		.uleb128 0x6
 909 00e4 D8050000 		.4byte	.LASF18
 910 00e8 02       		.byte	0x2
 911 00e9 0601     		.2byte	0x106
 912 00eb 69000000 		.4byte	0x69
 913 00ef 07       		.uleb128 0x7
 914 00f0 55333200 		.ascii	"U32\000"
 915 00f4 03       		.byte	0x3
 916 00f5 1A       		.byte	0x1a
 917 00f6 CB000000 		.4byte	0xcb
 918 00fa 07       		.uleb128 0x7
 919 00fb 553800   		.ascii	"U8\000"
 920 00fe 03       		.byte	0x3
 921 00ff 1C       		.byte	0x1c
 922 0100 B3000000 		.4byte	0xb3
 923 0104 08       		.uleb128 0x8
 924 0105 2A030000 		.4byte	.LASF28
 925 0109 10       		.byte	0x10
 926 010a 04       		.byte	0x4
 927 010b 7B       		.byte	0x7b
 928 010c 49010000 		.4byte	0x149
 929 0110 09       		.uleb128 0x9
 930 0111 B8050000 		.4byte	.LASF19
 931 0115 04       		.byte	0x4
 932 0116 7C       		.byte	0x7c
 933 0117 EF000000 		.4byte	0xef
 934 011b 02       		.byte	0x2
 935 011c 23       		.byte	0x23
 936 011d 00       		.uleb128 0x0
ARM GAS  /tmp/ccTFyqST.s 			page 20


 937 011e 09       		.uleb128 0x9
 938 011f ED010000 		.4byte	.LASF20
 939 0123 04       		.byte	0x4
 940 0124 7D       		.byte	0x7d
 941 0125 EF000000 		.4byte	0xef
 942 0129 02       		.byte	0x2
 943 012a 23       		.byte	0x23
 944 012b 04       		.uleb128 0x4
 945 012c 09       		.uleb128 0x9
 946 012d 9C070000 		.4byte	.LASF21
 947 0131 04       		.byte	0x4
 948 0132 7E       		.byte	0x7e
 949 0133 EF000000 		.4byte	0xef
 950 0137 02       		.byte	0x2
 951 0138 23       		.byte	0x23
 952 0139 08       		.uleb128 0x8
 953 013a 09       		.uleb128 0x9
 954 013b ED050000 		.4byte	.LASF22
 955 013f 04       		.byte	0x4
 956 0140 7F       		.byte	0x7f
 957 0141 EF000000 		.4byte	0xef
 958 0145 02       		.byte	0x2
 959 0146 23       		.byte	0x23
 960 0147 0C       		.uleb128 0xc
 961 0148 00       		.byte	0x0
 962 0149 04       		.uleb128 0x4
 963 014a 59060000 		.4byte	.LASF23
 964 014e 05       		.byte	0x5
 965 014f 4A       		.byte	0x4a
 966 0150 E3000000 		.4byte	0xe3
 967 0154 04       		.uleb128 0x4
 968 0155 62070000 		.4byte	.LASF24
 969 0159 05       		.byte	0x5
 970 015a 4B       		.byte	0x4b
 971 015b 49010000 		.4byte	0x149
 972 015f 04       		.uleb128 0x4
 973 0160 16080000 		.4byte	.LASF25
 974 0164 05       		.byte	0x5
 975 0165 4C       		.byte	0x4c
 976 0166 69000000 		.4byte	0x69
 977 016a 04       		.uleb128 0x4
 978 016b 5B020000 		.4byte	.LASF26
 979 016f 05       		.byte	0x5
 980 0170 51       		.byte	0x51
 981 0171 74000000 		.4byte	0x74
 982 0175 04       		.uleb128 0x4
 983 0176 F1000000 		.4byte	.LASF27
 984 017a 05       		.byte	0x5
 985 017b 5E       		.byte	0x5e
 986 017c 80010000 		.4byte	0x180
 987 0180 08       		.uleb128 0x8
 988 0181 F1000000 		.4byte	.LASF27
 989 0185 A8       		.byte	0xa8
 990 0186 05       		.byte	0x5
 991 0187 5D       		.byte	0x5d
 992 0188 18030000 		.4byte	0x318
 993 018c 0A       		.uleb128 0xa
ARM GAS  /tmp/ccTFyqST.s 			page 21


 994 018d E6030000 		.4byte	.LASF29
 995 0191 06       		.byte	0x6
 996 0192 DA01     		.2byte	0x1da
 997 0194 D7000000 		.4byte	0xd7
 998 0198 02       		.byte	0x2
 999 0199 23       		.byte	0x23
 1000 019a 00       		.uleb128 0x0
 1001 019b 0A       		.uleb128 0xa
 1002 019c BB070000 		.4byte	.LASF30
 1003 01a0 06       		.byte	0x6
 1004 01a1 DA01     		.2byte	0x1da
 1005 01a3 69000000 		.4byte	0x69
 1006 01a7 02       		.byte	0x2
 1007 01a8 23       		.byte	0x23
 1008 01a9 04       		.uleb128 0x4
 1009 01aa 0A       		.uleb128 0xa
 1010 01ab 3F040000 		.4byte	.LASF31
 1011 01af 06       		.byte	0x6
 1012 01b0 DA01     		.2byte	0x1da
 1013 01b2 D7000000 		.4byte	0xd7
 1014 01b6 02       		.byte	0x2
 1015 01b7 23       		.byte	0x23
 1016 01b8 08       		.uleb128 0x8
 1017 01b9 0A       		.uleb128 0xa
 1018 01ba 1F070000 		.4byte	.LASF32
 1019 01be 06       		.byte	0x6
 1020 01bf DA01     		.2byte	0x1da
 1021 01c1 D7000000 		.4byte	0xd7
 1022 01c5 02       		.byte	0x2
 1023 01c6 23       		.byte	0x23
 1024 01c7 0C       		.uleb128 0xc
 1025 01c8 0A       		.uleb128 0xa
 1026 01c9 3E000000 		.4byte	.LASF33
 1027 01cd 06       		.byte	0x6
 1028 01ce DA01     		.2byte	0x1da
 1029 01d0 C2040000 		.4byte	0x4c2
 1030 01d4 02       		.byte	0x2
 1031 01d5 23       		.byte	0x23
 1032 01d6 10       		.uleb128 0x10
 1033 01d7 0A       		.uleb128 0xa
 1034 01d8 C7030000 		.4byte	.LASF34
 1035 01dc 06       		.byte	0x6
 1036 01dd DA01     		.2byte	0x1da
 1037 01df E3000000 		.4byte	0xe3
 1038 01e3 02       		.byte	0x2
 1039 01e4 23       		.byte	0x23
 1040 01e5 14       		.uleb128 0x14
 1041 01e6 0A       		.uleb128 0xa
 1042 01e7 E0070000 		.4byte	.LASF35
 1043 01eb 06       		.byte	0x6
 1044 01ec DA01     		.2byte	0x1da
 1045 01ee 6F040000 		.4byte	0x46f
 1046 01f2 02       		.byte	0x2
 1047 01f3 23       		.byte	0x23
 1048 01f4 18       		.uleb128 0x18
 1049 01f5 0A       		.uleb128 0xa
 1050 01f6 90000000 		.4byte	.LASF36
ARM GAS  /tmp/ccTFyqST.s 			page 22


 1051 01fa 06       		.byte	0x6
 1052 01fb DA01     		.2byte	0x1da
 1053 01fd 88040000 		.4byte	0x488
 1054 0201 02       		.byte	0x2
 1055 0202 23       		.byte	0x23
 1056 0203 1C       		.uleb128 0x1c
 1057 0204 0A       		.uleb128 0xa
 1058 0205 3C010000 		.4byte	.LASF37
 1059 0209 06       		.byte	0x6
 1060 020a DA01     		.2byte	0x1da
 1061 020c 88040000 		.4byte	0x488
 1062 0210 02       		.byte	0x2
 1063 0211 23       		.byte	0x23
 1064 0212 20       		.uleb128 0x20
 1065 0213 0A       		.uleb128 0xa
 1066 0214 CF050000 		.4byte	.LASF38
 1067 0218 06       		.byte	0x6
 1068 0219 DA01     		.2byte	0x1da
 1069 021b 5F010000 		.4byte	0x15f
 1070 021f 02       		.byte	0x2
 1071 0220 23       		.byte	0x23
 1072 0221 24       		.uleb128 0x24
 1073 0222 0A       		.uleb128 0xa
 1074 0223 AF010000 		.4byte	.LASF39
 1075 0227 06       		.byte	0x6
 1076 0228 DA01     		.2byte	0x1da
 1077 022a 98000000 		.4byte	0x98
 1078 022e 02       		.byte	0x2
 1079 022f 23       		.byte	0x23
 1080 0230 28       		.uleb128 0x28
 1081 0231 0A       		.uleb128 0xa
 1082 0232 68060000 		.4byte	.LASF40
 1083 0236 06       		.byte	0x6
 1084 0237 DA01     		.2byte	0x1da
 1085 0239 C8040000 		.4byte	0x4c8
 1086 023d 02       		.byte	0x2
 1087 023e 23       		.byte	0x23
 1088 023f 2C       		.uleb128 0x2c
 1089 0240 0A       		.uleb128 0xa
 1090 0241 DD020000 		.4byte	.LASF41
 1091 0245 06       		.byte	0x6
 1092 0246 DA01     		.2byte	0x1da
 1093 0248 A3000000 		.4byte	0xa3
 1094 024c 02       		.byte	0x2
 1095 024d 23       		.byte	0x23
 1096 024e 30       		.uleb128 0x30
 1097 024f 0A       		.uleb128 0xa
 1098 0250 F7030000 		.4byte	.LASF42
 1099 0254 06       		.byte	0x6
 1100 0255 DA01     		.2byte	0x1da
 1101 0257 5F010000 		.4byte	0x15f
 1102 025b 02       		.byte	0x2
 1103 025c 23       		.byte	0x23
 1104 025d 34       		.uleb128 0x34
 1105 025e 0A       		.uleb128 0xa
 1106 025f E1060000 		.4byte	.LASF43
 1107 0263 06       		.byte	0x6
ARM GAS  /tmp/ccTFyqST.s 			page 23


 1108 0264 DA01     		.2byte	0x1da
 1109 0266 8D000000 		.4byte	0x8d
 1110 026a 02       		.byte	0x2
 1111 026b 23       		.byte	0x23
 1112 026c 38       		.uleb128 0x38
 1113 026d 0A       		.uleb128 0xa
 1114 026e F9060000 		.4byte	.LASF44
 1115 0272 06       		.byte	0x6
 1116 0273 DA01     		.2byte	0x1da
 1117 0275 69000000 		.4byte	0x69
 1118 0279 02       		.byte	0x2
 1119 027a 23       		.byte	0x23
 1120 027b 3C       		.uleb128 0x3c
 1121 027c 0A       		.uleb128 0xa
 1122 027d AB020000 		.4byte	.LASF45
 1123 0281 06       		.byte	0x6
 1124 0282 DA01     		.2byte	0x1da
 1125 0284 98000000 		.4byte	0x98
 1126 0288 02       		.byte	0x2
 1127 0289 23       		.byte	0x23
 1128 028a 40       		.uleb128 0x40
 1129 028b 0A       		.uleb128 0xa
 1130 028c 41010000 		.4byte	.LASF46
 1131 0290 06       		.byte	0x6
 1132 0291 DA01     		.2byte	0x1da
 1133 0293 98000000 		.4byte	0x98
 1134 0297 02       		.byte	0x2
 1135 0298 23       		.byte	0x23
 1136 0299 44       		.uleb128 0x44
 1137 029a 0A       		.uleb128 0xa
 1138 029b A0000000 		.4byte	.LASF47
 1139 029f 06       		.byte	0x6
 1140 02a0 DA01     		.2byte	0x1da
 1141 02a2 E3000000 		.4byte	0xe3
 1142 02a6 02       		.byte	0x2
 1143 02a7 23       		.byte	0x23
 1144 02a8 48       		.uleb128 0x48
 1145 02a9 0A       		.uleb128 0xa
 1146 02aa C8040000 		.4byte	.LASF48
 1147 02ae 06       		.byte	0x6
 1148 02af DA01     		.2byte	0x1da
 1149 02b1 50000000 		.4byte	0x50
 1150 02b5 02       		.byte	0x2
 1151 02b6 23       		.byte	0x23
 1152 02b7 4C       		.uleb128 0x4c
 1153 02b8 0A       		.uleb128 0xa
 1154 02b9 DA070000 		.4byte	.LASF49
 1155 02bd 06       		.byte	0x6
 1156 02be DA01     		.2byte	0x1da
 1157 02c0 5F050000 		.4byte	0x55f
 1158 02c4 02       		.byte	0x2
 1159 02c5 23       		.byte	0x23
 1160 02c6 50       		.uleb128 0x50
 1161 02c7 0A       		.uleb128 0xa
 1162 02c8 06010000 		.4byte	.LASF50
 1163 02cc 06       		.byte	0x6
 1164 02cd DA01     		.2byte	0x1da
ARM GAS  /tmp/ccTFyqST.s 			page 24


 1165 02cf A5050000 		.4byte	0x5a5
 1166 02d3 03       		.byte	0x3
 1167 02d4 23       		.byte	0x23
 1168 02d5 8001     		.uleb128 0x80
 1169 02d7 0A       		.uleb128 0xa
 1170 02d8 0C030000 		.4byte	.LASF51
 1171 02dc 06       		.byte	0x6
 1172 02dd DA01     		.2byte	0x1da
 1173 02df A5050000 		.4byte	0x5a5
 1174 02e3 03       		.byte	0x3
 1175 02e4 23       		.byte	0x23
 1176 02e5 8101     		.uleb128 0x81
 1177 02e7 0A       		.uleb128 0xa
 1178 02e8 1C010000 		.4byte	.LASF52
 1179 02ec 06       		.byte	0x6
 1180 02ed DA01     		.2byte	0x1da
 1181 02ef B1050000 		.4byte	0x5b1
 1182 02f3 03       		.byte	0x3
 1183 02f4 23       		.byte	0x23
 1184 02f5 8401     		.uleb128 0x84
 1185 02f7 0A       		.uleb128 0xa
 1186 02f8 1E000000 		.4byte	.LASF53
 1187 02fc 06       		.byte	0x6
 1188 02fd DA01     		.2byte	0x1da
 1189 02ff 45040000 		.4byte	0x445
 1190 0303 03       		.byte	0x3
 1191 0304 23       		.byte	0x23
 1192 0305 9C01     		.uleb128 0x9c
 1193 0307 0A       		.uleb128 0xa
 1194 0308 D7060000 		.4byte	.LASF54
 1195 030c 06       		.byte	0x6
 1196 030d DA01     		.2byte	0x1da
 1197 030f 88040000 		.4byte	0x488
 1198 0313 03       		.byte	0x3
 1199 0314 23       		.byte	0x23
 1200 0315 A001     		.uleb128 0xa0
 1201 0317 00       		.byte	0x0
 1202 0318 04       		.uleb128 0x4
 1203 0319 08020000 		.4byte	.LASF55
 1204 031d 05       		.byte	0x5
 1205 031e 64       		.byte	0x64
 1206 031f 23030000 		.4byte	0x323
 1207 0323 08       		.uleb128 0x8
 1208 0324 08020000 		.4byte	.LASF55
 1209 0328 18       		.byte	0x18
 1210 0329 05       		.byte	0x5
 1211 032a 63       		.byte	0x63
 1212 032b 5A030000 		.4byte	0x35a
 1213 032f 09       		.uleb128 0x9
 1214 0330 BC030000 		.4byte	.LASF56
 1215 0334 06       		.byte	0x6
 1216 0335 AF       		.byte	0xaf
 1217 0336 99040000 		.4byte	0x499
 1218 033a 02       		.byte	0x2
 1219 033b 23       		.byte	0x23
 1220 033c 00       		.uleb128 0x0
 1221 033d 09       		.uleb128 0x9
ARM GAS  /tmp/ccTFyqST.s 			page 25


 1222 033e 6C020000 		.4byte	.LASF57
 1223 0342 06       		.byte	0x6
 1224 0343 AF       		.byte	0xaf
 1225 0344 6A010000 		.4byte	0x16a
 1226 0348 02       		.byte	0x2
 1227 0349 23       		.byte	0x23
 1228 034a 08       		.uleb128 0x8
 1229 034b 09       		.uleb128 0x9
 1230 034c CD020000 		.4byte	.LASF58
 1231 0350 06       		.byte	0x6
 1232 0351 AF       		.byte	0xaf
 1233 0352 69000000 		.4byte	0x69
 1234 0356 02       		.byte	0x2
 1235 0357 23       		.byte	0x23
 1236 0358 10       		.uleb128 0x10
 1237 0359 00       		.byte	0x0
 1238 035a 04       		.uleb128 0x4
 1239 035b 58070000 		.4byte	.LASF59
 1240 035f 05       		.byte	0x5
 1241 0360 6A       		.byte	0x6a
 1242 0361 65030000 		.4byte	0x365
 1243 0365 08       		.uleb128 0x8
 1244 0366 58070000 		.4byte	.LASF59
 1245 036a 30       		.byte	0x30
 1246 036b 05       		.byte	0x5
 1247 036c 69       		.byte	0x69
 1248 036d E2030000 		.4byte	0x3e2
 1249 0371 09       		.uleb128 0x9
 1250 0372 90000000 		.4byte	.LASF36
 1251 0376 06       		.byte	0x6
 1252 0377 D1       		.byte	0xd1
 1253 0378 99040000 		.4byte	0x499
 1254 037c 02       		.byte	0x2
 1255 037d 23       		.byte	0x23
 1256 037e 00       		.uleb128 0x0
 1257 037f 09       		.uleb128 0x9
 1258 0380 3C010000 		.4byte	.LASF37
 1259 0384 06       		.byte	0x6
 1260 0385 D1       		.byte	0xd1
 1261 0386 99040000 		.4byte	0x499
 1262 038a 02       		.byte	0x2
 1263 038b 23       		.byte	0x23
 1264 038c 04       		.uleb128 0x4
 1265 038d 09       		.uleb128 0x9
 1266 038e 6C020000 		.4byte	.LASF57
 1267 0392 06       		.byte	0x6
 1268 0393 D1       		.byte	0xd1
 1269 0394 9F040000 		.4byte	0x49f
 1270 0398 02       		.byte	0x2
 1271 0399 23       		.byte	0x23
 1272 039a 08       		.uleb128 0x8
 1273 039b 09       		.uleb128 0x9
 1274 039c F1030000 		.4byte	.LASF60
 1275 03a0 06       		.byte	0x6
 1276 03a1 D1       		.byte	0xd1
 1277 03a2 A5040000 		.4byte	0x4a5
 1278 03a6 02       		.byte	0x2
ARM GAS  /tmp/ccTFyqST.s 			page 26


 1279 03a7 23       		.byte	0x23
 1280 03a8 0C       		.uleb128 0xc
 1281 03a9 09       		.uleb128 0x9
 1282 03aa 6B030000 		.4byte	.LASF61
 1283 03ae 06       		.byte	0x6
 1284 03af D1       		.byte	0xd1
 1285 03b0 E3000000 		.4byte	0xe3
 1286 03b4 02       		.byte	0x2
 1287 03b5 23       		.byte	0x23
 1288 03b6 10       		.uleb128 0x10
 1289 03b7 09       		.uleb128 0x9
 1290 03b8 AD040000 		.4byte	.LASF62
 1291 03bc 06       		.byte	0x6
 1292 03bd D1       		.byte	0xd1
 1293 03be 6A010000 		.4byte	0x16a
 1294 03c2 02       		.byte	0x2
 1295 03c3 23       		.byte	0x23
 1296 03c4 18       		.uleb128 0x18
 1297 03c5 09       		.uleb128 0x9
 1298 03c6 15000000 		.4byte	.LASF63
 1299 03ca 06       		.byte	0x6
 1300 03cb D1       		.byte	0xd1
 1301 03cc 6A010000 		.4byte	0x16a
 1302 03d0 02       		.byte	0x2
 1303 03d1 23       		.byte	0x23
 1304 03d2 20       		.uleb128 0x20
 1305 03d3 09       		.uleb128 0x9
 1306 03d4 5C050000 		.4byte	.LASF64
 1307 03d8 06       		.byte	0x6
 1308 03d9 D1       		.byte	0xd1
 1309 03da 8D000000 		.4byte	0x8d
 1310 03de 02       		.byte	0x2
 1311 03df 23       		.byte	0x23
 1312 03e0 28       		.uleb128 0x28
 1313 03e1 00       		.byte	0x0
 1314 03e2 04       		.uleb128 0x4
 1315 03e3 C0060000 		.4byte	.LASF65
 1316 03e7 05       		.byte	0x5
 1317 03e8 76       		.byte	0x76
 1318 03e9 ED030000 		.4byte	0x3ed
 1319 03ed 08       		.uleb128 0x8
 1320 03ee C0060000 		.4byte	.LASF65
 1321 03f2 14       		.byte	0x14
 1322 03f3 05       		.byte	0x5
 1323 03f4 75       		.byte	0x75
 1324 03f5 45040000 		.4byte	0x445
 1325 03f9 0A       		.uleb128 0xa
 1326 03fa 80030000 		.4byte	.LASF66
 1327 03fe 06       		.byte	0x6
 1328 03ff 0502     		.2byte	0x205
 1329 0401 AE000000 		.4byte	0xae
 1330 0405 02       		.byte	0x2
 1331 0406 23       		.byte	0x23
 1332 0407 00       		.uleb128 0x0
 1333 0408 0A       		.uleb128 0xa
 1334 0409 44020000 		.4byte	.LASF67
 1335 040d 06       		.byte	0x6
ARM GAS  /tmp/ccTFyqST.s 			page 27


 1336 040e 0602     		.2byte	0x206
 1337 0410 88040000 		.4byte	0x488
 1338 0414 02       		.byte	0x2
 1339 0415 23       		.byte	0x23
 1340 0416 04       		.uleb128 0x4
 1341 0417 0A       		.uleb128 0xa
 1342 0418 68060000 		.4byte	.LASF40
 1343 041c 06       		.byte	0x6
 1344 041d 0702     		.2byte	0x207
 1345 041f 8E040000 		.4byte	0x48e
 1346 0423 02       		.byte	0x2
 1347 0424 23       		.byte	0x23
 1348 0425 08       		.uleb128 0x8
 1349 0426 0A       		.uleb128 0xa
 1350 0427 13010000 		.4byte	.LASF68
 1351 042b 06       		.byte	0x6
 1352 042c 0A02     		.2byte	0x20a
 1353 042e E0050000 		.4byte	0x5e0
 1354 0432 02       		.byte	0x2
 1355 0433 23       		.byte	0x23
 1356 0434 0C       		.uleb128 0xc
 1357 0435 0A       		.uleb128 0xa
 1358 0436 A6030000 		.4byte	.LASF69
 1359 043a 06       		.byte	0x6
 1360 043b 0D02     		.2byte	0x20d
 1361 043d 5F010000 		.4byte	0x15f
 1362 0441 02       		.byte	0x2
 1363 0442 23       		.byte	0x23
 1364 0443 10       		.uleb128 0x10
 1365 0444 00       		.byte	0x0
 1366 0445 0B       		.uleb128 0xb
 1367 0446 04       		.byte	0x4
 1368 0447 4B040000 		.4byte	0x44b
 1369 044b 03       		.uleb128 0x3
 1370 044c 01       		.byte	0x1
 1371 044d 08       		.byte	0x8
 1372 044e 30030000 		.4byte	.LASF70
 1373 0452 06       		.uleb128 0x6
 1374 0453 1E030000 		.4byte	.LASF71
 1375 0457 05       		.byte	0x5
 1376 0458 AF01     		.2byte	0x1af
 1377 045a 5E040000 		.4byte	0x45e
 1378 045e 0C       		.uleb128 0xc
 1379 045f 01       		.byte	0x1
 1380 0460 6F040000 		.4byte	0x46f
 1381 0464 0D       		.uleb128 0xd
 1382 0465 54010000 		.4byte	0x154
 1383 0469 0D       		.uleb128 0xd
 1384 046a 49010000 		.4byte	0x149
 1385 046e 00       		.byte	0x0
 1386 046f 0E       		.uleb128 0xe
 1387 0470 04       		.byte	0x4
 1388 0471 0F       		.uleb128 0xf
 1389 0472 04       		.byte	0x4
 1390 0473 06       		.byte	0x6
 1391 0474 73       		.byte	0x73
 1392 0475 88040000 		.4byte	0x488
ARM GAS  /tmp/ccTFyqST.s 			page 28


 1393 0479 09       		.uleb128 0x9
 1394 047a 68060000 		.4byte	.LASF40
 1395 047e 06       		.byte	0x6
 1396 047f 7A       		.byte	0x7a
 1397 0480 88040000 		.4byte	0x488
 1398 0484 02       		.byte	0x2
 1399 0485 23       		.byte	0x23
 1400 0486 00       		.uleb128 0x0
 1401 0487 00       		.byte	0x0
 1402 0488 0B       		.uleb128 0xb
 1403 0489 04       		.byte	0x4
 1404 048a 75010000 		.4byte	0x175
 1405 048e 04       		.uleb128 0x4
 1406 048f 92060000 		.4byte	.LASF72
 1407 0493 06       		.byte	0x6
 1408 0494 85       		.byte	0x85
 1409 0495 71040000 		.4byte	0x471
 1410 0499 0B       		.uleb128 0xb
 1411 049a 04       		.byte	0x4
 1412 049b 5A030000 		.4byte	0x35a
 1413 049f 0B       		.uleb128 0xb
 1414 04a0 04       		.byte	0x4
 1415 04a1 18030000 		.4byte	0x318
 1416 04a5 0B       		.uleb128 0xb
 1417 04a6 04       		.byte	0x4
 1418 04a7 52040000 		.4byte	0x452
 1419 04ab 04       		.uleb128 0x4
 1420 04ac BE050000 		.4byte	.LASF73
 1421 04b0 06       		.byte	0x6
 1422 04b1 FC       		.byte	0xfc
 1423 04b2 B6040000 		.4byte	0x4b6
 1424 04b6 0C       		.uleb128 0xc
 1425 04b7 01       		.byte	0x1
 1426 04b8 C2040000 		.4byte	0x4c2
 1427 04bc 0D       		.uleb128 0xd
 1428 04bd E3000000 		.4byte	0xe3
 1429 04c1 00       		.byte	0x0
 1430 04c2 0B       		.uleb128 0xb
 1431 04c3 04       		.byte	0x4
 1432 04c4 AB040000 		.4byte	0x4ab
 1433 04c8 0B       		.uleb128 0xb
 1434 04c9 04       		.byte	0x4
 1435 04ca 8E040000 		.4byte	0x48e
 1436 04ce 10       		.uleb128 0x10
 1437 04cf 30       		.byte	0x30
 1438 04d0 06       		.byte	0x6
 1439 04d1 8001     		.2byte	0x180
 1440 04d3 5F050000 		.4byte	0x55f
 1441 04d7 0A       		.uleb128 0xa
 1442 04d8 90000000 		.4byte	.LASF36
 1443 04dc 06       		.byte	0x6
 1444 04dd 8101     		.2byte	0x181
 1445 04df 99040000 		.4byte	0x499
 1446 04e3 02       		.byte	0x2
 1447 04e4 23       		.byte	0x23
 1448 04e5 00       		.uleb128 0x0
 1449 04e6 0A       		.uleb128 0xa
ARM GAS  /tmp/ccTFyqST.s 			page 29


 1450 04e7 3C010000 		.4byte	.LASF37
 1451 04eb 06       		.byte	0x6
 1452 04ec 8101     		.2byte	0x181
 1453 04ee 99040000 		.4byte	0x499
 1454 04f2 02       		.byte	0x2
 1455 04f3 23       		.byte	0x23
 1456 04f4 04       		.uleb128 0x4
 1457 04f5 0A       		.uleb128 0xa
 1458 04f6 6C020000 		.4byte	.LASF57
 1459 04fa 06       		.byte	0x6
 1460 04fb 8101     		.2byte	0x181
 1461 04fd 9F040000 		.4byte	0x49f
 1462 0501 02       		.byte	0x2
 1463 0502 23       		.byte	0x23
 1464 0503 08       		.uleb128 0x8
 1465 0504 0A       		.uleb128 0xa
 1466 0505 F1030000 		.4byte	.LASF60
 1467 0509 06       		.byte	0x6
 1468 050a 8101     		.2byte	0x181
 1469 050c A5040000 		.4byte	0x4a5
 1470 0510 02       		.byte	0x2
 1471 0511 23       		.byte	0x23
 1472 0512 0C       		.uleb128 0xc
 1473 0513 0A       		.uleb128 0xa
 1474 0514 6B030000 		.4byte	.LASF61
 1475 0518 06       		.byte	0x6
 1476 0519 8101     		.2byte	0x181
 1477 051b E3000000 		.4byte	0xe3
 1478 051f 02       		.byte	0x2
 1479 0520 23       		.byte	0x23
 1480 0521 10       		.uleb128 0x10
 1481 0522 0A       		.uleb128 0xa
 1482 0523 AD040000 		.4byte	.LASF62
 1483 0527 06       		.byte	0x6
 1484 0528 8101     		.2byte	0x181
 1485 052a 6A010000 		.4byte	0x16a
 1486 052e 02       		.byte	0x2
 1487 052f 23       		.byte	0x23
 1488 0530 18       		.uleb128 0x18
 1489 0531 0A       		.uleb128 0xa
 1490 0532 15000000 		.4byte	.LASF63
 1491 0536 06       		.byte	0x6
 1492 0537 8101     		.2byte	0x181
 1493 0539 6A010000 		.4byte	0x16a
 1494 053d 02       		.byte	0x2
 1495 053e 23       		.byte	0x23
 1496 053f 20       		.uleb128 0x20
 1497 0540 0A       		.uleb128 0xa
 1498 0541 5C050000 		.4byte	.LASF64
 1499 0545 06       		.byte	0x6
 1500 0546 8101     		.2byte	0x181
 1501 0548 8D000000 		.4byte	0x8d
 1502 054c 02       		.byte	0x2
 1503 054d 23       		.byte	0x23
 1504 054e 28       		.uleb128 0x28
 1505 054f 0A       		.uleb128 0xa
 1506 0550 75060000 		.4byte	.LASF74
ARM GAS  /tmp/ccTFyqST.s 			page 30


 1507 0554 06       		.byte	0x6
 1508 0555 8101     		.2byte	0x181
 1509 0557 88040000 		.4byte	0x488
 1510 055b 02       		.byte	0x2
 1511 055c 23       		.byte	0x23
 1512 055d 2C       		.uleb128 0x2c
 1513 055e 00       		.byte	0x0
 1514 055f 06       		.uleb128 0x6
 1515 0560 25080000 		.4byte	.LASF75
 1516 0564 06       		.byte	0x6
 1517 0565 8201     		.2byte	0x182
 1518 0567 CE040000 		.4byte	0x4ce
 1519 056b 11       		.uleb128 0x11
 1520 056c 01       		.byte	0x1
 1521 056d 06       		.byte	0x6
 1522 056e 8601     		.2byte	0x186
 1523 0570 A5050000 		.4byte	0x5a5
 1524 0574 12       		.uleb128 0x12
 1525 0575 70030000 		.4byte	.LASF76
 1526 0579 00       		.sleb128 0
 1527 057a 12       		.uleb128 0x12
 1528 057b 3F060000 		.4byte	.LASF77
 1529 057f 01       		.sleb128 1
 1530 0580 12       		.uleb128 0x12
 1531 0581 4B050000 		.4byte	.LASF78
 1532 0585 02       		.sleb128 2
 1533 0586 12       		.uleb128 0x12
 1534 0587 5A010000 		.4byte	.LASF79
 1535 058b 03       		.sleb128 3
 1536 058c 12       		.uleb128 0x12
 1537 058d 59000000 		.4byte	.LASF80
 1538 0591 04       		.sleb128 4
 1539 0592 12       		.uleb128 0x12
 1540 0593 B9020000 		.4byte	.LASF81
 1541 0597 05       		.sleb128 5
 1542 0598 12       		.uleb128 0x12
 1543 0599 AB070000 		.4byte	.LASF82
 1544 059d 06       		.sleb128 6
 1545 059e 12       		.uleb128 0x12
 1546 059f 93050000 		.4byte	.LASF83
 1547 05a3 07       		.sleb128 7
 1548 05a4 00       		.byte	0x0
 1549 05a5 06       		.uleb128 0x6
 1550 05a6 35080000 		.4byte	.LASF84
 1551 05aa 06       		.byte	0x6
 1552 05ab 8F01     		.2byte	0x18f
 1553 05ad 6B050000 		.4byte	0x56b
 1554 05b1 13       		.uleb128 0x13
 1555 05b2 E3000000 		.4byte	0xe3
 1556 05b6 C1050000 		.4byte	0x5c1
 1557 05ba 14       		.uleb128 0x14
 1558 05bb C1050000 		.4byte	0x5c1
 1559 05bf 05       		.byte	0x5
 1560 05c0 00       		.byte	0x0
 1561 05c1 15       		.uleb128 0x15
 1562 05c2 04       		.byte	0x4
 1563 05c3 07       		.byte	0x7
ARM GAS  /tmp/ccTFyqST.s 			page 31


 1564 05c4 11       		.uleb128 0x11
 1565 05c5 01       		.byte	0x1
 1566 05c6 06       		.byte	0x6
 1567 05c7 FD01     		.2byte	0x1fd
 1568 05c9 E0050000 		.4byte	0x5e0
 1569 05cd 12       		.uleb128 0x12
 1570 05ce 64050000 		.4byte	.LASF85
 1571 05d2 00       		.sleb128 0
 1572 05d3 12       		.uleb128 0x12
 1573 05d4 FF060000 		.4byte	.LASF86
 1574 05d8 01       		.sleb128 1
 1575 05d9 12       		.uleb128 0x12
 1576 05da AA000000 		.4byte	.LASF87
 1577 05de 02       		.sleb128 2
 1578 05df 00       		.byte	0x0
 1579 05e0 06       		.uleb128 0x6
 1580 05e1 F3010000 		.4byte	.LASF88
 1581 05e5 06       		.byte	0x6
 1582 05e6 0102     		.2byte	0x201
 1583 05e8 C4050000 		.4byte	0x5c4
 1584 05ec 0B       		.uleb128 0xb
 1585 05ed 04       		.byte	0x4
 1586 05ee 37000000 		.4byte	0x37
 1587 05f2 0B       		.uleb128 0xb
 1588 05f3 04       		.byte	0x4
 1589 05f4 69000000 		.4byte	0x69
 1590 05f8 08       		.uleb128 0x8
 1591 05f9 DE010000 		.4byte	.LASF89
 1592 05fd 04       		.byte	0x4
 1593 05fe 07       		.byte	0x7
 1594 05ff 38       		.byte	0x38
 1595 0600 13060000 		.4byte	0x613
 1596 0604 09       		.uleb128 0x9
 1597 0605 74020000 		.4byte	.LASF90
 1598 0609 07       		.byte	0x7
 1599 060a 39       		.byte	0x39
 1600 060b 82060000 		.4byte	0x682
 1601 060f 02       		.byte	0x2
 1602 0610 23       		.byte	0x23
 1603 0611 00       		.uleb128 0x0
 1604 0612 00       		.byte	0x0
 1605 0613 08       		.uleb128 0x8
 1606 0614 14020000 		.4byte	.LASF91
 1607 0618 2C       		.byte	0x2c
 1608 0619 07       		.byte	0x7
 1609 061a 39       		.byte	0x39
 1610 061b 82060000 		.4byte	0x682
 1611 061f 09       		.uleb128 0x9
 1612 0620 6A000000 		.4byte	.LASF92
 1613 0624 07       		.byte	0x7
 1614 0625 3D       		.byte	0x3d
 1615 0626 E2030000 		.4byte	0x3e2
 1616 062a 02       		.byte	0x2
 1617 062b 23       		.byte	0x23
 1618 062c 00       		.uleb128 0x0
 1619 062d 09       		.uleb128 0x9
 1620 062e E9020000 		.4byte	.LASF93
ARM GAS  /tmp/ccTFyqST.s 			page 32


 1621 0632 07       		.byte	0x7
 1622 0633 41       		.byte	0x41
 1623 0634 A5060000 		.4byte	0x6a5
 1624 0638 02       		.byte	0x2
 1625 0639 23       		.byte	0x23
 1626 063a 14       		.uleb128 0x14
 1627 063b 09       		.uleb128 0x9
 1628 063c 4B040000 		.4byte	.LASF94
 1629 0640 07       		.byte	0x7
 1630 0641 42       		.byte	0x42
 1631 0642 DB060000 		.4byte	0x6db
 1632 0646 02       		.byte	0x2
 1633 0647 23       		.byte	0x23
 1634 0648 18       		.uleb128 0x18
 1635 0649 09       		.uleb128 0x9
 1636 064a 1E040000 		.4byte	.LASF95
 1637 064e 07       		.byte	0x7
 1638 064f 43       		.byte	0x43
 1639 0650 F7060000 		.4byte	0x6f7
 1640 0654 02       		.byte	0x2
 1641 0655 23       		.byte	0x23
 1642 0656 1C       		.uleb128 0x1c
 1643 0657 09       		.uleb128 0x9
 1644 0658 40030000 		.4byte	.LASF96
 1645 065c 07       		.byte	0x7
 1646 065d 44       		.byte	0x44
 1647 065e A5060000 		.4byte	0x6a5
 1648 0662 02       		.byte	0x2
 1649 0663 23       		.byte	0x23
 1650 0664 20       		.uleb128 0x20
 1651 0665 09       		.uleb128 0x9
 1652 0666 FB050000 		.4byte	.LASF97
 1653 066a 07       		.byte	0x7
 1654 066b 45       		.byte	0x45
 1655 066c 1C070000 		.4byte	0x71c
 1656 0670 02       		.byte	0x2
 1657 0671 23       		.byte	0x23
 1658 0672 24       		.uleb128 0x24
 1659 0673 09       		.uleb128 0x9
 1660 0674 7F040000 		.4byte	.LASF98
 1661 0678 07       		.byte	0x7
 1662 0679 46       		.byte	0x46
 1663 067a 48070000 		.4byte	0x748
 1664 067e 02       		.byte	0x2
 1665 067f 23       		.byte	0x23
 1666 0680 28       		.uleb128 0x28
 1667 0681 00       		.byte	0x0
 1668 0682 0B       		.uleb128 0xb
 1669 0683 04       		.byte	0x4
 1670 0684 13060000 		.4byte	0x613
 1671 0688 04       		.uleb128 0x4
 1672 0689 DE010000 		.4byte	.LASF89
 1673 068d 07       		.byte	0x7
 1674 068e 3A       		.byte	0x3a
 1675 068f F8050000 		.4byte	0x5f8
 1676 0693 0C       		.uleb128 0xc
 1677 0694 01       		.byte	0x1
ARM GAS  /tmp/ccTFyqST.s 			page 33


 1678 0695 9F060000 		.4byte	0x69f
 1679 0699 0D       		.uleb128 0xd
 1680 069a 9F060000 		.4byte	0x69f
 1681 069e 00       		.byte	0x0
 1682 069f 0B       		.uleb128 0xb
 1683 06a0 04       		.byte	0x4
 1684 06a1 88060000 		.4byte	0x688
 1685 06a5 0B       		.uleb128 0xb
 1686 06a6 04       		.byte	0x4
 1687 06a7 93060000 		.4byte	0x693
 1688 06ab 0C       		.uleb128 0xc
 1689 06ac 01       		.byte	0x1
 1690 06ad D0060000 		.4byte	0x6d0
 1691 06b1 0D       		.uleb128 0xd
 1692 06b2 9F060000 		.4byte	0x69f
 1693 06b6 0D       		.uleb128 0xd
 1694 06b7 8D000000 		.4byte	0x8d
 1695 06bb 0D       		.uleb128 0xd
 1696 06bc 69000000 		.4byte	0x69
 1697 06c0 0D       		.uleb128 0xd
 1698 06c1 D0060000 		.4byte	0x6d0
 1699 06c5 0D       		.uleb128 0xd
 1700 06c6 EC050000 		.4byte	0x5ec
 1701 06ca 0D       		.uleb128 0xd
 1702 06cb 8D000000 		.4byte	0x8d
 1703 06cf 00       		.byte	0x0
 1704 06d0 0B       		.uleb128 0xb
 1705 06d1 04       		.byte	0x4
 1706 06d2 D6060000 		.4byte	0x6d6
 1707 06d6 16       		.uleb128 0x16
 1708 06d7 37000000 		.4byte	0x37
 1709 06db 0B       		.uleb128 0xb
 1710 06dc 04       		.byte	0x4
 1711 06dd AB060000 		.4byte	0x6ab
 1712 06e1 0C       		.uleb128 0xc
 1713 06e2 01       		.byte	0x1
 1714 06e3 F7060000 		.4byte	0x6f7
 1715 06e7 0D       		.uleb128 0xd
 1716 06e8 9F060000 		.4byte	0x69f
 1717 06ec 0D       		.uleb128 0xd
 1718 06ed 8D000000 		.4byte	0x8d
 1719 06f1 0D       		.uleb128 0xd
 1720 06f2 69000000 		.4byte	0x69
 1721 06f6 00       		.byte	0x0
 1722 06f7 0B       		.uleb128 0xb
 1723 06f8 04       		.byte	0x4
 1724 06f9 E1060000 		.4byte	0x6e1
 1725 06fd 17       		.uleb128 0x17
 1726 06fe 01       		.byte	0x1
 1727 06ff 29000000 		.4byte	0x29
 1728 0703 1C070000 		.4byte	0x71c
 1729 0707 0D       		.uleb128 0xd
 1730 0708 9F060000 		.4byte	0x69f
 1731 070c 0D       		.uleb128 0xd
 1732 070d 69000000 		.4byte	0x69
 1733 0711 0D       		.uleb128 0xd
 1734 0712 6F040000 		.4byte	0x46f
ARM GAS  /tmp/ccTFyqST.s 			page 34


 1735 0716 0D       		.uleb128 0xd
 1736 0717 F2050000 		.4byte	0x5f2
 1737 071b 00       		.byte	0x0
 1738 071c 0B       		.uleb128 0xb
 1739 071d 04       		.byte	0x4
 1740 071e FD060000 		.4byte	0x6fd
 1741 0722 17       		.uleb128 0x17
 1742 0723 01       		.byte	0x1
 1743 0724 29000000 		.4byte	0x29
 1744 0728 41070000 		.4byte	0x741
 1745 072c 0D       		.uleb128 0xd
 1746 072d 9F060000 		.4byte	0x69f
 1747 0731 0D       		.uleb128 0xd
 1748 0732 69000000 		.4byte	0x69
 1749 0736 0D       		.uleb128 0xd
 1750 0737 41070000 		.4byte	0x741
 1751 073b 0D       		.uleb128 0xd
 1752 073c F2050000 		.4byte	0x5f2
 1753 0740 00       		.byte	0x0
 1754 0741 0B       		.uleb128 0xb
 1755 0742 04       		.byte	0x4
 1756 0743 47070000 		.4byte	0x747
 1757 0747 18       		.uleb128 0x18
 1758 0748 0B       		.uleb128 0xb
 1759 0749 04       		.byte	0x4
 1760 074a 22070000 		.4byte	0x722
 1761 074e 0C       		.uleb128 0xc
 1762 074f 01       		.byte	0x1
 1763 0750 5A070000 		.4byte	0x75a
 1764 0754 0D       		.uleb128 0xd
 1765 0755 29000000 		.4byte	0x29
 1766 0759 00       		.byte	0x0
 1767 075a 0B       		.uleb128 0xb
 1768 075b 04       		.byte	0x4
 1769 075c 4E070000 		.4byte	0x74e
 1770 0760 0F       		.uleb128 0xf
 1771 0761 10       		.byte	0x10
 1772 0762 08       		.byte	0x8
 1773 0763 59       		.byte	0x59
 1774 0764 BD070000 		.4byte	0x7bd
 1775 0768 09       		.uleb128 0x9
 1776 0769 35030000 		.4byte	.LASF99
 1777 076d 08       		.byte	0x8
 1778 076e 5A       		.byte	0x5a
 1779 076f 88060000 		.4byte	0x688
 1780 0773 02       		.byte	0x2
 1781 0774 23       		.byte	0x23
 1782 0775 00       		.uleb128 0x0
 1783 0776 09       		.uleb128 0x9
 1784 0777 A4040000 		.4byte	.LASF100
 1785 077b 08       		.byte	0x8
 1786 077c 5C       		.byte	0x5c
 1787 077d 37000000 		.4byte	0x37
 1788 0781 02       		.byte	0x2
 1789 0782 23       		.byte	0x23
 1790 0783 04       		.uleb128 0x4
 1791 0784 09       		.uleb128 0x9
ARM GAS  /tmp/ccTFyqST.s 			page 35


 1792 0785 50000000 		.4byte	.LASF101
 1793 0789 08       		.byte	0x8
 1794 078a 5D       		.byte	0x5d
 1795 078b 37000000 		.4byte	0x37
 1796 078f 02       		.byte	0x2
 1797 0790 23       		.byte	0x23
 1798 0791 05       		.uleb128 0x5
 1799 0792 09       		.uleb128 0x9
 1800 0793 9B040000 		.4byte	.LASF102
 1801 0797 08       		.byte	0x8
 1802 0798 5E       		.byte	0x5e
 1803 0799 37000000 		.4byte	0x37
 1804 079d 02       		.byte	0x2
 1805 079e 23       		.byte	0x23
 1806 079f 06       		.uleb128 0x6
 1807 07a0 09       		.uleb128 0x9
 1808 07a1 8E070000 		.4byte	.LASF103
 1809 07a5 08       		.byte	0x8
 1810 07a6 5F       		.byte	0x5f
 1811 07a7 69000000 		.4byte	0x69
 1812 07ab 02       		.byte	0x2
 1813 07ac 23       		.byte	0x23
 1814 07ad 08       		.uleb128 0x8
 1815 07ae 09       		.uleb128 0x9
 1816 07af C6070000 		.4byte	.LASF104
 1817 07b3 08       		.byte	0x8
 1818 07b4 61       		.byte	0x61
 1819 07b5 5A070000 		.4byte	0x75a
 1820 07b9 02       		.byte	0x2
 1821 07ba 23       		.byte	0x23
 1822 07bb 0C       		.uleb128 0xc
 1823 07bc 00       		.byte	0x0
 1824 07bd 04       		.uleb128 0x4
 1825 07be 8D020000 		.4byte	.LASF105
 1826 07c2 08       		.byte	0x8
 1827 07c3 62       		.byte	0x62
 1828 07c4 60070000 		.4byte	0x760
 1829 07c8 19       		.uleb128 0x19
 1830 07c9 01       		.byte	0x1
 1831 07ca 09       		.byte	0x9
 1832 07cb 1D       		.byte	0x1d
 1833 07cc DD070000 		.4byte	0x7dd
 1834 07d0 12       		.uleb128 0x12
 1835 07d1 A3050000 		.4byte	.LASF106
 1836 07d5 00       		.sleb128 0
 1837 07d6 12       		.uleb128 0x12
 1838 07d7 EE070000 		.4byte	.LASF107
 1839 07db 01       		.sleb128 1
 1840 07dc 00       		.byte	0x0
 1841 07dd 04       		.uleb128 0x4
 1842 07de D2030000 		.4byte	.LASF108
 1843 07e2 09       		.byte	0x9
 1844 07e3 20       		.byte	0x20
 1845 07e4 C8070000 		.4byte	0x7c8
 1846 07e8 0F       		.uleb128 0xf
 1847 07e9 0C       		.byte	0xc
 1848 07ea 09       		.byte	0x9
ARM GAS  /tmp/ccTFyqST.s 			page 36


 1849 07eb 22       		.byte	0x22
 1850 07ec 1B080000 		.4byte	0x81b
 1851 07f0 09       		.uleb128 0x9
 1852 07f1 23000000 		.4byte	.LASF109
 1853 07f5 09       		.byte	0x9
 1854 07f6 23       		.byte	0x23
 1855 07f7 1B080000 		.4byte	0x81b
 1856 07fb 02       		.byte	0x2
 1857 07fc 23       		.byte	0x23
 1858 07fd 00       		.uleb128 0x0
 1859 07fe 09       		.uleb128 0x9
 1860 07ff 9F030000 		.4byte	.LASF110
 1861 0803 09       		.byte	0x9
 1862 0804 24       		.byte	0x24
 1863 0805 DD070000 		.4byte	0x7dd
 1864 0809 02       		.byte	0x2
 1865 080a 23       		.byte	0x23
 1866 080b 04       		.uleb128 0x4
 1867 080c 1A       		.uleb128 0x1a
 1868 080d 6D616300 		.ascii	"mac\000"
 1869 0811 09       		.byte	0x9
 1870 0812 25       		.byte	0x25
 1871 0813 21080000 		.4byte	0x821
 1872 0817 02       		.byte	0x2
 1873 0818 23       		.byte	0x23
 1874 0819 05       		.uleb128 0x5
 1875 081a 00       		.byte	0x0
 1876 081b 0B       		.uleb128 0xb
 1877 081c 04       		.byte	0x4
 1878 081d BD070000 		.4byte	0x7bd
 1879 0821 13       		.uleb128 0x13
 1880 0822 37000000 		.4byte	0x37
 1881 0826 31080000 		.4byte	0x831
 1882 082a 14       		.uleb128 0x14
 1883 082b C1050000 		.4byte	0x5c1
 1884 082f 05       		.byte	0x5
 1885 0830 00       		.byte	0x0
 1886 0831 04       		.uleb128 0x4
 1887 0832 80000000 		.4byte	.LASF111
 1888 0836 09       		.byte	0x9
 1889 0837 26       		.byte	0x26
 1890 0838 E8070000 		.4byte	0x7e8
 1891 083c 04       		.uleb128 0x4
 1892 083d 86050000 		.4byte	.LASF112
 1893 0841 0A       		.byte	0xa
 1894 0842 25       		.byte	0x25
 1895 0843 29000000 		.4byte	0x29
 1896 0847 08       		.uleb128 0x8
 1897 0848 DA070000 		.4byte	.LASF49
 1898 084c 08       		.byte	0x8
 1899 084d 0B       		.byte	0xb
 1900 084e 4A       		.byte	0x4a
 1901 084f 70080000 		.4byte	0x870
 1902 0853 09       		.uleb128 0x9
 1903 0854 15060000 		.4byte	.LASF113
 1904 0858 0B       		.byte	0xb
 1905 0859 4B       		.byte	0x4b
ARM GAS  /tmp/ccTFyqST.s 			page 37


 1906 085a 3C080000 		.4byte	0x83c
 1907 085e 02       		.byte	0x2
 1908 085f 23       		.byte	0x23
 1909 0860 00       		.uleb128 0x0
 1910 0861 09       		.uleb128 0x9
 1911 0862 15000000 		.4byte	.LASF63
 1912 0866 0B       		.byte	0xb
 1913 0867 4C       		.byte	0x4c
 1914 0868 3C080000 		.4byte	0x83c
 1915 086c 02       		.byte	0x2
 1916 086d 23       		.byte	0x23
 1917 086e 04       		.uleb128 0x4
 1918 086f 00       		.byte	0x0
 1919 0870 04       		.uleb128 0x4
 1920 0871 12040000 		.4byte	.LASF114
 1921 0875 0C       		.byte	0xc
 1922 0876 43       		.byte	0x43
 1923 0877 B3000000 		.4byte	0xb3
 1924 087b 04       		.uleb128 0x4
 1925 087c CE000000 		.4byte	.LASF115
 1926 0880 0C       		.byte	0xc
 1927 0881 4C       		.byte	0x4c
 1928 0882 BF000000 		.4byte	0xbf
 1929 0886 04       		.uleb128 0x4
 1930 0887 9A030000 		.4byte	.LASF116
 1931 088b 0D       		.byte	0xd
 1932 088c 40       		.byte	0x40
 1933 088d 5B000000 		.4byte	0x5b
 1934 0891 1B       		.uleb128 0x1b
 1935 0892 707400   		.ascii	"pt\000"
 1936 0895 02       		.byte	0x2
 1937 0896 0E       		.byte	0xe
 1938 0897 36       		.byte	0x36
 1939 0898 AA080000 		.4byte	0x8aa
 1940 089c 1A       		.uleb128 0x1a
 1941 089d 6C6300   		.ascii	"lc\000"
 1942 08a0 0E       		.byte	0xe
 1943 08a1 37       		.byte	0x37
 1944 08a2 86080000 		.4byte	0x886
 1945 08a6 02       		.byte	0x2
 1946 08a7 23       		.byte	0x23
 1947 08a8 00       		.uleb128 0x0
 1948 08a9 00       		.byte	0x0
 1949 08aa 08       		.uleb128 0x8
 1950 08ab 88060000 		.4byte	.LASF117
 1951 08af 08       		.byte	0x8
 1952 08b0 0F       		.byte	0xf
 1953 08b1 5F       		.byte	0x5f
 1954 08b2 D3080000 		.4byte	0x8d3
 1955 08b6 1A       		.uleb128 0x1a
 1956 08b7 70747200 		.ascii	"ptr\000"
 1957 08bb 0F       		.byte	0xf
 1958 08bc 60       		.byte	0x60
 1959 08bd D3080000 		.4byte	0x8d3
 1960 08c1 02       		.byte	0x2
 1961 08c2 23       		.byte	0x23
 1962 08c3 00       		.uleb128 0x0
ARM GAS  /tmp/ccTFyqST.s 			page 38


 1963 08c4 09       		.uleb128 0x9
 1964 08c5 1A070000 		.4byte	.LASF118
 1965 08c9 0F       		.byte	0xf
 1966 08ca 61       		.byte	0x61
 1967 08cb 5B000000 		.4byte	0x5b
 1968 08cf 02       		.byte	0x2
 1969 08d0 23       		.byte	0x23
 1970 08d1 04       		.uleb128 0x4
 1971 08d2 00       		.byte	0x0
 1972 08d3 0B       		.uleb128 0xb
 1973 08d4 04       		.byte	0x4
 1974 08d5 70080000 		.4byte	0x870
 1975 08d9 08       		.uleb128 0x8
 1976 08da 52070000 		.4byte	.LASF119
 1977 08de 24       		.byte	0x24
 1978 08df 0F       		.byte	0xf
 1979 08e0 6A       		.byte	0x6a
 1980 08e1 71090000 		.4byte	0x971
 1981 08e5 1A       		.uleb128 0x1a
 1982 08e6 707400   		.ascii	"pt\000"
 1983 08e9 0F       		.byte	0xf
 1984 08ea 6B       		.byte	0x6b
 1985 08eb 91080000 		.4byte	0x891
 1986 08ef 02       		.byte	0x2
 1987 08f0 23       		.byte	0x23
 1988 08f1 00       		.uleb128 0x0
 1989 08f2 09       		.uleb128 0x9
 1990 08f3 A3020000 		.4byte	.LASF120
 1991 08f7 0F       		.byte	0xf
 1992 08f8 6B       		.byte	0x6b
 1993 08f9 91080000 		.4byte	0x891
 1994 08fd 02       		.byte	0x2
 1995 08fe 23       		.byte	0x23
 1996 08ff 02       		.uleb128 0x2
 1997 0900 09       		.uleb128 0x9
 1998 0901 20020000 		.4byte	.LASF121
 1999 0905 0F       		.byte	0xf
 2000 0906 6E       		.byte	0x6e
 2001 0907 71090000 		.4byte	0x971
 2002 090b 02       		.byte	0x2
 2003 090c 23       		.byte	0x23
 2004 090d 04       		.uleb128 0x4
 2005 090e 09       		.uleb128 0x9
 2006 090f BF010000 		.4byte	.LASF122
 2007 0913 0F       		.byte	0xf
 2008 0914 6F       		.byte	0x6f
 2009 0915 D3080000 		.4byte	0x8d3
 2010 0919 02       		.byte	0x2
 2011 091a 23       		.byte	0x23
 2012 091b 08       		.uleb128 0x8
 2013 091c 09       		.uleb128 0x9
 2014 091d 00000000 		.4byte	.LASF123
 2015 0921 0F       		.byte	0xf
 2016 0922 71       		.byte	0x71
 2017 0923 45040000 		.4byte	0x445
 2018 0927 02       		.byte	0x2
 2019 0928 23       		.byte	0x23
ARM GAS  /tmp/ccTFyqST.s 			page 39


 2020 0929 0C       		.uleb128 0xc
 2021 092a 09       		.uleb128 0x9
 2022 092b 77040000 		.4byte	.LASF124
 2023 092f 0F       		.byte	0xf
 2024 0930 74       		.byte	0x74
 2025 0931 7B080000 		.4byte	0x87b
 2026 0935 02       		.byte	0x2
 2027 0936 23       		.byte	0x23
 2028 0937 10       		.uleb128 0x10
 2029 0938 09       		.uleb128 0x9
 2030 0939 E3040000 		.4byte	.LASF125
 2031 093d 0F       		.byte	0xf
 2032 093e 75       		.byte	0x75
 2033 093f 7B080000 		.4byte	0x87b
 2034 0943 02       		.byte	0x2
 2035 0944 23       		.byte	0x23
 2036 0945 12       		.uleb128 0x12
 2037 0946 1A       		.uleb128 0x1a
 2038 0947 62756600 		.ascii	"buf\000"
 2039 094b 0F       		.byte	0xf
 2040 094c 77       		.byte	0x77
 2041 094d AA080000 		.4byte	0x8aa
 2042 0951 02       		.byte	0x2
 2043 0952 23       		.byte	0x23
 2044 0953 14       		.uleb128 0x14
 2045 0954 09       		.uleb128 0x9
 2046 0955 92030000 		.4byte	.LASF126
 2047 0959 0F       		.byte	0xf
 2048 095a 79       		.byte	0x79
 2049 095b 30000000 		.4byte	0x30
 2050 095f 02       		.byte	0x2
 2051 0960 23       		.byte	0x23
 2052 0961 1C       		.uleb128 0x1c
 2053 0962 09       		.uleb128 0x9
 2054 0963 F9060000 		.4byte	.LASF44
 2055 0967 0F       		.byte	0xf
 2056 0968 7B       		.byte	0x7b
 2057 0969 42000000 		.4byte	0x42
 2058 096d 02       		.byte	0x2
 2059 096e 23       		.byte	0x23
 2060 096f 20       		.uleb128 0x20
 2061 0970 00       		.byte	0x0
 2062 0971 0B       		.uleb128 0xb
 2063 0972 04       		.byte	0x4
 2064 0973 77090000 		.4byte	0x977
 2065 0977 16       		.uleb128 0x16
 2066 0978 70080000 		.4byte	0x870
 2067 097c 08       		.uleb128 0x8
 2068 097d D0010000 		.4byte	.LASF127
 2069 0981 08       		.byte	0x8
 2070 0982 10       		.byte	0x10
 2071 0983 28       		.byte	0x28
 2072 0984 A5090000 		.4byte	0x9a5
 2073 0988 09       		.uleb128 0x9
 2074 0989 6B030000 		.4byte	.LASF61
 2075 098d 10       		.byte	0x10
 2076 098e 29       		.byte	0x29
ARM GAS  /tmp/ccTFyqST.s 			page 40


 2077 098f 45040000 		.4byte	0x445
 2078 0993 02       		.byte	0x2
 2079 0994 23       		.byte	0x23
 2080 0995 00       		.uleb128 0x0
 2081 0996 1A       		.uleb128 0x1a
 2082 0997 6C656E00 		.ascii	"len\000"
 2083 099b 10       		.byte	0x10
 2084 099c 2A       		.byte	0x2a
 2085 099d 29000000 		.4byte	0x29
 2086 09a1 02       		.byte	0x2
 2087 09a2 23       		.byte	0x23
 2088 09a3 04       		.uleb128 0x4
 2089 09a4 00       		.byte	0x0
 2090 09a5 08       		.uleb128 0x8
 2091 09a6 33040000 		.4byte	.LASF128
 2092 09aa B0       		.byte	0xb0
 2093 09ab 11       		.byte	0x11
 2094 09ac 29       		.byte	0x29
 2095 09ad 6F0A0000 		.4byte	0xa6f
 2096 09b1 09       		.uleb128 0x9
 2097 09b2 DA070000 		.4byte	.LASF49
 2098 09b6 11       		.byte	0x11
 2099 09b7 2A       		.byte	0x2a
 2100 09b8 42000000 		.4byte	0x42
 2101 09bc 02       		.byte	0x2
 2102 09bd 23       		.byte	0x23
 2103 09be 00       		.uleb128 0x0
 2104 09bf 1A       		.uleb128 0x1a
 2105 09c0 73696E00 		.ascii	"sin\000"
 2106 09c4 11       		.byte	0x11
 2107 09c5 2B       		.byte	0x2b
 2108 09c6 D9080000 		.4byte	0x8d9
 2109 09ca 02       		.byte	0x2
 2110 09cb 23       		.byte	0x23
 2111 09cc 04       		.uleb128 0x4
 2112 09cd 09       		.uleb128 0x9
 2113 09ce DE040000 		.4byte	.LASF129
 2114 09d2 11       		.byte	0x11
 2115 09d3 2B       		.byte	0x2b
 2116 09d4 D9080000 		.4byte	0x8d9
 2117 09d8 02       		.byte	0x2
 2118 09d9 23       		.byte	0x23
 2119 09da 28       		.uleb128 0x28
 2120 09db 09       		.uleb128 0x9
 2121 09dc C7010000 		.4byte	.LASF130
 2122 09e0 11       		.byte	0x11
 2123 09e1 2C       		.byte	0x2c
 2124 09e2 91080000 		.4byte	0x891
 2125 09e6 02       		.byte	0x2
 2126 09e7 23       		.byte	0x23
 2127 09e8 4C       		.uleb128 0x4c
 2128 09e9 09       		.uleb128 0x9
 2129 09ea A2070000 		.4byte	.LASF131
 2130 09ee 11       		.byte	0x11
 2131 09ef 2C       		.byte	0x2c
 2132 09f0 91080000 		.4byte	0x891
 2133 09f4 02       		.byte	0x2
ARM GAS  /tmp/ccTFyqST.s 			page 41


 2134 09f5 23       		.byte	0x23
 2135 09f6 4E       		.uleb128 0x4e
 2136 09f7 09       		.uleb128 0x9
 2137 09f8 09040000 		.4byte	.LASF132
 2138 09fc 11       		.byte	0x11
 2139 09fd 2D       		.byte	0x2d
 2140 09fe 6F0A0000 		.4byte	0xa6f
 2141 0a02 02       		.byte	0x2
 2142 0a03 23       		.byte	0x23
 2143 0a04 50       		.uleb128 0x50
 2144 0a05 09       		.uleb128 0x9
 2145 0a06 28010000 		.4byte	.LASF133
 2146 0a0a 11       		.byte	0x11
 2147 0a0b 2E       		.byte	0x2e
 2148 0a0c 7F0A0000 		.4byte	0xa7f
 2149 0a10 03       		.byte	0x3
 2150 0a11 23       		.byte	0x23
 2151 0a12 8201     		.uleb128 0x82
 2152 0a14 09       		.uleb128 0x9
 2153 0a15 F9060000 		.4byte	.LASF44
 2154 0a19 11       		.byte	0x11
 2155 0a1a 2F       		.byte	0x2f
 2156 0a1b 4B040000 		.4byte	0x44b
 2157 0a1f 03       		.byte	0x3
 2158 0a20 23       		.byte	0x23
 2159 0a21 9601     		.uleb128 0x96
 2160 0a23 09       		.uleb128 0x9
 2161 0a24 3F020000 		.4byte	.LASF134
 2162 0a28 11       		.byte	0x11
 2163 0a29 30       		.byte	0x30
 2164 0a2a 7C090000 		.4byte	0x97c
 2165 0a2e 03       		.byte	0x3
 2166 0a2f 23       		.byte	0x23
 2167 0a30 9801     		.uleb128 0x98
 2168 0a32 1A       		.uleb128 0x1a
 2169 0a33 6C656E00 		.ascii	"len\000"
 2170 0a37 11       		.byte	0x11
 2171 0a38 31       		.byte	0x31
 2172 0a39 29000000 		.4byte	0x29
 2173 0a3d 03       		.byte	0x3
 2174 0a3e 23       		.byte	0x23
 2175 0a3f A001     		.uleb128 0xa0
 2176 0a41 09       		.uleb128 0x9
 2177 0a42 9A010000 		.4byte	.LASF135
 2178 0a46 11       		.byte	0x11
 2179 0a47 32       		.byte	0x32
 2180 0a48 45040000 		.4byte	0x445
 2181 0a4c 03       		.byte	0x3
 2182 0a4d 23       		.byte	0x23
 2183 0a4e A401     		.uleb128 0xa4
 2184 0a50 09       		.uleb128 0x9
 2185 0a51 BE040000 		.4byte	.LASF136
 2186 0a55 11       		.byte	0x11
 2187 0a56 33       		.byte	0x33
 2188 0a57 29000000 		.4byte	0x29
 2189 0a5b 03       		.byte	0x3
 2190 0a5c 23       		.byte	0x23
ARM GAS  /tmp/ccTFyqST.s 			page 42


 2191 0a5d A801     		.uleb128 0xa8
 2192 0a5f 09       		.uleb128 0x9
 2193 0a60 18030000 		.4byte	.LASF137
 2194 0a64 11       		.byte	0x11
 2195 0a65 35       		.byte	0x35
 2196 0a66 5B000000 		.4byte	0x5b
 2197 0a6a 03       		.byte	0x3
 2198 0a6b 23       		.byte	0x23
 2199 0a6c AC01     		.uleb128 0xac
 2200 0a6e 00       		.byte	0x0
 2201 0a6f 13       		.uleb128 0x13
 2202 0a70 4B040000 		.4byte	0x44b
 2203 0a74 7F0A0000 		.4byte	0xa7f
 2204 0a78 14       		.uleb128 0x14
 2205 0a79 C1050000 		.4byte	0x5c1
 2206 0a7d 31       		.byte	0x31
 2207 0a7e 00       		.byte	0x0
 2208 0a7f 13       		.uleb128 0x13
 2209 0a80 4B040000 		.4byte	0x44b
 2210 0a84 8F0A0000 		.4byte	0xa8f
 2211 0a88 14       		.uleb128 0x14
 2212 0a89 C1050000 		.4byte	0x5c1
 2213 0a8d 13       		.byte	0x13
 2214 0a8e 00       		.byte	0x0
 2215 0a8f 04       		.uleb128 0x4
 2216 0a90 1B060000 		.4byte	.LASF138
 2217 0a94 12       		.byte	0x12
 2218 0a95 28       		.byte	0x28
 2219 0a96 A5090000 		.4byte	0x9a5
 2220 0a9a 04       		.uleb128 0x4
 2221 0a9b 07000000 		.4byte	.LASF139
 2222 0a9f 13       		.byte	0x13
 2223 0aa0 3E       		.byte	0x3e
 2224 0aa1 A50A0000 		.4byte	0xaa5
 2225 0aa5 13       		.uleb128 0x13
 2226 0aa6 7B080000 		.4byte	0x87b
 2227 0aaa B50A0000 		.4byte	0xab5
 2228 0aae 14       		.uleb128 0x14
 2229 0aaf C1050000 		.4byte	0x5c1
 2230 0ab3 01       		.byte	0x1
 2231 0ab4 00       		.byte	0x0
 2232 0ab5 04       		.uleb128 0x4
 2233 0ab6 8E040000 		.4byte	.LASF140
 2234 0aba 13       		.byte	0x13
 2235 0abb 43       		.byte	0x43
 2236 0abc 9A0A0000 		.4byte	0xa9a
 2237 0ac0 1C       		.uleb128 0x1c
 2238 0ac1 B5040000 		.4byte	.LASF141
 2239 0ac5 CC       		.byte	0xcc
 2240 0ac6 13       		.byte	0x13
 2241 0ac7 F201     		.2byte	0x1f2
 2242 0ac9 AD0B0000 		.4byte	0xbad
 2243 0acd 0A       		.uleb128 0xa
 2244 0ace 34070000 		.4byte	.LASF142
 2245 0ad2 13       		.byte	0x13
 2246 0ad3 8404     		.2byte	0x484
 2247 0ad5 B50A0000 		.4byte	0xab5
ARM GAS  /tmp/ccTFyqST.s 			page 43


 2248 0ad9 02       		.byte	0x2
 2249 0ada 23       		.byte	0x23
 2250 0adb 00       		.uleb128 0x0
 2251 0adc 0A       		.uleb128 0xa
 2252 0add 64040000 		.4byte	.LASF143
 2253 0ae1 13       		.byte	0x13
 2254 0ae2 8604     		.2byte	0x486
 2255 0ae4 7B080000 		.4byte	0x87b
 2256 0ae8 02       		.byte	0x2
 2257 0ae9 23       		.byte	0x23
 2258 0aea 04       		.uleb128 0x4
 2259 0aeb 0A       		.uleb128 0xa
 2260 0aec D7020000 		.4byte	.LASF144
 2261 0af0 13       		.byte	0x13
 2262 0af1 8704     		.2byte	0x487
 2263 0af3 7B080000 		.4byte	0x87b
 2264 0af7 02       		.byte	0x2
 2265 0af8 23       		.byte	0x23
 2266 0af9 06       		.uleb128 0x6
 2267 0afa 0A       		.uleb128 0xa
 2268 0afb 4A020000 		.4byte	.LASF145
 2269 0aff 13       		.byte	0x13
 2270 0b00 8A04     		.2byte	0x48a
 2271 0b02 AD0B0000 		.4byte	0xbad
 2272 0b06 02       		.byte	0x2
 2273 0b07 23       		.byte	0x23
 2274 0b08 08       		.uleb128 0x8
 2275 0b09 0A       		.uleb128 0xa
 2276 0b0a F3050000 		.4byte	.LASF146
 2277 0b0e 13       		.byte	0x13
 2278 0b0f 8C04     		.2byte	0x48c
 2279 0b11 AD0B0000 		.4byte	0xbad
 2280 0b15 02       		.byte	0x2
 2281 0b16 23       		.byte	0x23
 2282 0b17 0C       		.uleb128 0xc
 2283 0b18 1D       		.uleb128 0x1d
 2284 0b19 6C656E00 		.ascii	"len\000"
 2285 0b1d 13       		.byte	0x13
 2286 0b1e 8E04     		.2byte	0x48e
 2287 0b20 7B080000 		.4byte	0x87b
 2288 0b24 02       		.byte	0x2
 2289 0b25 23       		.byte	0x23
 2290 0b26 10       		.uleb128 0x10
 2291 0b27 1D       		.uleb128 0x1d
 2292 0b28 6D737300 		.ascii	"mss\000"
 2293 0b2c 13       		.byte	0x13
 2294 0b2d 8F04     		.2byte	0x48f
 2295 0b2f 7B080000 		.4byte	0x87b
 2296 0b33 02       		.byte	0x2
 2297 0b34 23       		.byte	0x23
 2298 0b35 12       		.uleb128 0x12
 2299 0b36 0A       		.uleb128 0xa
 2300 0b37 87030000 		.4byte	.LASF147
 2301 0b3b 13       		.byte	0x13
 2302 0b3c 9104     		.2byte	0x491
 2303 0b3e 7B080000 		.4byte	0x87b
 2304 0b42 02       		.byte	0x2
ARM GAS  /tmp/ccTFyqST.s 			page 44


 2305 0b43 23       		.byte	0x23
 2306 0b44 14       		.uleb128 0x14
 2307 0b45 1D       		.uleb128 0x1d
 2308 0b46 736100   		.ascii	"sa\000"
 2309 0b49 13       		.byte	0x13
 2310 0b4a 9304     		.2byte	0x493
 2311 0b4c 70080000 		.4byte	0x870
 2312 0b50 02       		.byte	0x2
 2313 0b51 23       		.byte	0x23
 2314 0b52 16       		.uleb128 0x16
 2315 0b53 1D       		.uleb128 0x1d
 2316 0b54 737600   		.ascii	"sv\000"
 2317 0b57 13       		.byte	0x13
 2318 0b58 9504     		.2byte	0x495
 2319 0b5a 70080000 		.4byte	0x870
 2320 0b5e 02       		.byte	0x2
 2321 0b5f 23       		.byte	0x23
 2322 0b60 17       		.uleb128 0x17
 2323 0b61 1D       		.uleb128 0x1d
 2324 0b62 72746F00 		.ascii	"rto\000"
 2325 0b66 13       		.byte	0x13
 2326 0b67 9704     		.2byte	0x497
 2327 0b69 70080000 		.4byte	0x870
 2328 0b6d 02       		.byte	0x2
 2329 0b6e 23       		.byte	0x23
 2330 0b6f 18       		.uleb128 0x18
 2331 0b70 0A       		.uleb128 0xa
 2332 0b71 D4000000 		.4byte	.LASF148
 2333 0b75 13       		.byte	0x13
 2334 0b76 9804     		.2byte	0x498
 2335 0b78 70080000 		.4byte	0x870
 2336 0b7c 02       		.byte	0x2
 2337 0b7d 23       		.byte	0x23
 2338 0b7e 19       		.uleb128 0x19
 2339 0b7f 0A       		.uleb128 0xa
 2340 0b80 DA070000 		.4byte	.LASF49
 2341 0b84 13       		.byte	0x13
 2342 0b85 9904     		.2byte	0x499
 2343 0b87 70080000 		.4byte	0x870
 2344 0b8b 02       		.byte	0x2
 2345 0b8c 23       		.byte	0x23
 2346 0b8d 1A       		.uleb128 0x1a
 2347 0b8e 0A       		.uleb128 0xa
 2348 0b8f 03080000 		.4byte	.LASF149
 2349 0b93 13       		.byte	0x13
 2350 0b94 9A04     		.2byte	0x49a
 2351 0b96 70080000 		.4byte	0x870
 2352 0b9a 02       		.byte	0x2
 2353 0b9b 23       		.byte	0x23
 2354 0b9c 1B       		.uleb128 0x1b
 2355 0b9d 0A       		.uleb128 0xa
 2356 0b9e 0D080000 		.4byte	.LASF150
 2357 0ba2 13       		.byte	0x13
 2358 0ba3 9E04     		.2byte	0x49e
 2359 0ba5 8F0A0000 		.4byte	0xa8f
 2360 0ba9 02       		.byte	0x2
 2361 0baa 23       		.byte	0x23
ARM GAS  /tmp/ccTFyqST.s 			page 45


 2362 0bab 1C       		.uleb128 0x1c
 2363 0bac 00       		.byte	0x0
 2364 0bad 13       		.uleb128 0x13
 2365 0bae 70080000 		.4byte	0x870
 2366 0bb2 BD0B0000 		.4byte	0xbbd
 2367 0bb6 14       		.uleb128 0x14
 2368 0bb7 C1050000 		.4byte	0x5c1
 2369 0bbb 03       		.byte	0x3
 2370 0bbc 00       		.byte	0x0
 2371 0bbd 1C       		.uleb128 0x1c
 2372 0bbe FF020000 		.4byte	.LASF151
 2373 0bc2 06       		.byte	0x6
 2374 0bc3 13       		.byte	0x13
 2375 0bc4 0806     		.2byte	0x608
 2376 0bc6 DA0B0000 		.4byte	0xbda
 2377 0bca 0A       		.uleb128 0xa
 2378 0bcb F4060000 		.4byte	.LASF152
 2379 0bcf 13       		.byte	0x13
 2380 0bd0 0906     		.2byte	0x609
 2381 0bd2 DA0B0000 		.4byte	0xbda
 2382 0bd6 02       		.byte	0x2
 2383 0bd7 23       		.byte	0x23
 2384 0bd8 00       		.uleb128 0x0
 2385 0bd9 00       		.byte	0x0
 2386 0bda 13       		.uleb128 0x13
 2387 0bdb 70080000 		.4byte	0x870
 2388 0bdf EA0B0000 		.4byte	0xbea
 2389 0be3 14       		.uleb128 0x14
 2390 0be4 C1050000 		.4byte	0x5c1
 2391 0be8 05       		.byte	0x5
 2392 0be9 00       		.byte	0x0
 2393 0bea 08       		.uleb128 0x8
 2394 0beb 6D010000 		.4byte	.LASF153
 2395 0bef 0E       		.byte	0xe
 2396 0bf0 14       		.byte	0x14
 2397 0bf1 3F       		.byte	0x3f
 2398 0bf2 210C0000 		.4byte	0xc21
 2399 0bf6 09       		.uleb128 0x9
 2400 0bf7 08080000 		.4byte	.LASF154
 2401 0bfb 14       		.byte	0x14
 2402 0bfc 40       		.byte	0x40
 2403 0bfd BD0B0000 		.4byte	0xbbd
 2404 0c01 02       		.byte	0x2
 2405 0c02 23       		.byte	0x23
 2406 0c03 00       		.uleb128 0x0
 2407 0c04 1A       		.uleb128 0x1a
 2408 0c05 73726300 		.ascii	"src\000"
 2409 0c09 14       		.byte	0x14
 2410 0c0a 41       		.byte	0x41
 2411 0c0b BD0B0000 		.4byte	0xbbd
 2412 0c0f 02       		.byte	0x2
 2413 0c10 23       		.byte	0x23
 2414 0c11 06       		.uleb128 0x6
 2415 0c12 09       		.uleb128 0x9
 2416 0c13 A2060000 		.4byte	.LASF155
 2417 0c17 14       		.byte	0x14
 2418 0c18 42       		.byte	0x42
ARM GAS  /tmp/ccTFyqST.s 			page 46


 2419 0c19 7B080000 		.4byte	0x87b
 2420 0c1d 02       		.byte	0x2
 2421 0c1e 23       		.byte	0x23
 2422 0c1f 0C       		.uleb128 0xc
 2423 0c20 00       		.byte	0x0
 2424 0c21 1E       		.uleb128 0x1e
 2425 0c22 01       		.byte	0x1
 2426 0c23 41050000 		.4byte	.LASF157
 2427 0c27 01       		.byte	0x1
 2428 0c28 19       		.byte	0x19
 2429 0c29 00000000 		.4byte	.LFB2
 2430 0c2d 60010000 		.4byte	.LFE2
 2431 0c31 00000000 		.4byte	.LLST0
 2432 0c35 560C0000 		.4byte	0xc56
 2433 0c39 1F       		.uleb128 0x1f
 2434 0c3a 65746800 		.ascii	"eth\000"
 2435 0c3e 01       		.byte	0x1
 2436 0c3f 1B       		.byte	0x1b
 2437 0c40 31080000 		.4byte	0x831
 2438 0c44 02       		.byte	0x2
 2439 0c45 91       		.byte	0x91
 2440 0c46 64       		.sleb128 -28
 2441 0c47 20       		.uleb128 0x20
 2442 0c48 7C020000 		.4byte	.LASF156
 2443 0c4c 01       		.byte	0x1
 2444 0c4d 21       		.byte	0x21
 2445 0c4e B50A0000 		.4byte	0xab5
 2446 0c52 02       		.byte	0x2
 2447 0c53 91       		.byte	0x91
 2448 0c54 60       		.sleb128 -32
 2449 0c55 00       		.byte	0x0
 2450 0c56 1E       		.uleb128 0x1e
 2451 0c57 01       		.byte	0x1
 2452 0c58 5E030000 		.4byte	.LASF158
 2453 0c5c 01       		.byte	0x1
 2454 0c5d 3A       		.byte	0x3a
 2455 0c5e 00000000 		.4byte	.LFB3
 2456 0c62 F0010000 		.4byte	.LFE3
 2457 0c66 2A000000 		.4byte	.LLST1
 2458 0c6a 7B0C0000 		.4byte	0xc7b
 2459 0c6e 1F       		.uleb128 0x1f
 2460 0c6f 6900     		.ascii	"i\000"
 2461 0c71 01       		.byte	0x1
 2462 0c72 3B       		.byte	0x3b
 2463 0c73 29000000 		.4byte	0x29
 2464 0c77 02       		.byte	0x2
 2465 0c78 91       		.byte	0x91
 2466 0c79 6C       		.sleb128 -20
 2467 0c7a 00       		.byte	0x0
 2468 0c7b 1E       		.uleb128 0x1e
 2469 0c7c 01       		.byte	0x1
 2470 0c7d FC000000 		.4byte	.LASF159
 2471 0c81 01       		.byte	0x1
 2472 0c82 65       		.byte	0x65
 2473 0c83 00000000 		.4byte	.LFB4
 2474 0c87 90000000 		.4byte	.LFE4
 2475 0c8b 54000000 		.4byte	.LLST2
ARM GAS  /tmp/ccTFyqST.s 			page 47


 2476 0c8f BA0C0000 		.4byte	0xcba
 2477 0c93 20       		.uleb128 0x20
 2478 0c94 4A000000 		.4byte	.LASF160
 2479 0c98 01       		.byte	0x1
 2480 0c99 66       		.byte	0x66
 2481 0c9a 69000000 		.4byte	0x69
 2482 0c9e 02       		.byte	0x2
 2483 0c9f 91       		.byte	0x91
 2484 0ca0 68       		.sleb128 -24
 2485 0ca1 21       		.uleb128 0x21
 2486 0ca2 10000000 		.4byte	.LBB2
 2487 0ca6 34000000 		.4byte	.LBE2
 2488 0caa 20       		.uleb128 0x20
 2489 0cab 17040000 		.4byte	.LASF161
 2490 0caf 01       		.byte	0x1
 2491 0cb0 68       		.byte	0x68
 2492 0cb1 69000000 		.4byte	0x69
 2493 0cb5 02       		.byte	0x2
 2494 0cb6 91       		.byte	0x91
 2495 0cb7 6C       		.sleb128 -20
 2496 0cb8 00       		.byte	0x0
 2497 0cb9 00       		.byte	0x0
 2498 0cba 22       		.uleb128 0x22
 2499 0cbb 3C070000 		.4byte	.LASF179
 2500 0cbf 01       		.byte	0x1
 2501 0cc0 75       		.byte	0x75
 2502 0cc1 00000000 		.4byte	.LFB5
 2503 0cc5 24000000 		.4byte	.LFE5
 2504 0cc9 7E000000 		.4byte	.LLST3
 2505 0ccd 23       		.uleb128 0x23
 2506 0cce 01       		.byte	0x1
 2507 0ccf 2E060000 		.4byte	.LASF162
 2508 0cd3 01       		.byte	0x1
 2509 0cd4 78       		.byte	0x78
 2510 0cd5 01       		.byte	0x1
 2511 0cd6 00000000 		.4byte	.LFB6
 2512 0cda 54000000 		.4byte	.LFE6
 2513 0cde A8000000 		.4byte	.LLST4
 2514 0ce2 24       		.uleb128 0x24
 2515 0ce3 01       		.byte	0x1
 2516 0ce4 97070000 		.4byte	.LASF163
 2517 0ce8 01       		.byte	0x1
 2518 0ce9 7D       		.byte	0x7d
 2519 0cea 29000000 		.4byte	0x29
 2520 0cee 00000000 		.4byte	.LFB7
 2521 0cf2 2C000000 		.4byte	.LFE7
 2522 0cf6 D2000000 		.4byte	.LLST5
 2523 0cfa 13       		.uleb128 0x13
 2524 0cfb FA000000 		.4byte	0xfa
 2525 0cff 0A0D0000 		.4byte	0xd0a
 2526 0d03 14       		.uleb128 0x14
 2527 0d04 C1050000 		.4byte	0x5c1
 2528 0d08 05       		.byte	0x5
 2529 0d09 00       		.byte	0x0
 2530 0d0a 20       		.uleb128 0x20
 2531 0d0b 31010000 		.4byte	.LASF164
 2532 0d0f 01       		.byte	0x1
ARM GAS  /tmp/ccTFyqST.s 			page 48


 2533 0d10 13       		.byte	0x13
 2534 0d11 FA0C0000 		.4byte	0xcfa
 2535 0d15 05       		.byte	0x5
 2536 0d16 03       		.byte	0x3
 2537 0d17 00000000 		.4byte	ether_addr
 2538 0d1b 13       		.uleb128 0x13
 2539 0d1c FA000000 		.4byte	0xfa
 2540 0d20 2C0D0000 		.4byte	0xd2c
 2541 0d24 25       		.uleb128 0x25
 2542 0d25 C1050000 		.4byte	0x5c1
 2543 0d29 EB05     		.2byte	0x5eb
 2544 0d2b 00       		.byte	0x0
 2545 0d2c 20       		.uleb128 0x20
 2546 0d2d 6E060000 		.4byte	.LASF165
 2547 0d31 01       		.byte	0x1
 2548 0d32 14       		.byte	0x14
 2549 0d33 1B0D0000 		.4byte	0xd1b
 2550 0d37 05       		.byte	0x5
 2551 0d38 03       		.byte	0x3
 2552 0d39 00000000 		.4byte	packet
 2553 0d3d 13       		.uleb128 0x13
 2554 0d3e 70080000 		.4byte	0x870
 2555 0d42 4E0D0000 		.4byte	0xd4e
 2556 0d46 25       		.uleb128 0x25
 2557 0d47 C1050000 		.4byte	0x5c1
 2558 0d4b A501     		.2byte	0x1a5
 2559 0d4d 00       		.byte	0x0
 2560 0d4e 26       		.uleb128 0x26
 2561 0d4f E5050000 		.4byte	.LASF166
 2562 0d53 13       		.byte	0x13
 2563 0d54 A601     		.2byte	0x1a6
 2564 0d56 3D0D0000 		.4byte	0xd3d
 2565 0d5a 01       		.byte	0x1
 2566 0d5b 01       		.byte	0x1
 2567 0d5c 26       		.uleb128 0x26
 2568 0d5d 7C060000 		.4byte	.LASF167
 2569 0d61 13       		.byte	0x13
 2570 0d62 4B04     		.2byte	0x44b
 2571 0d64 6F040000 		.4byte	0x46f
 2572 0d68 01       		.byte	0x1
 2573 0d69 01       		.byte	0x1
 2574 0d6a 26       		.uleb128 0x26
 2575 0d6b EB040000 		.4byte	.LASF168
 2576 0d6f 13       		.byte	0x13
 2577 0d70 6E04     		.2byte	0x46e
 2578 0d72 7B080000 		.4byte	0x87b
 2579 0d76 01       		.byte	0x1
 2580 0d77 01       		.byte	0x1
 2581 0d78 26       		.uleb128 0x26
 2582 0d79 B5040000 		.4byte	.LASF141
 2583 0d7d 13       		.byte	0x13
 2584 0d7e A804     		.2byte	0x4a8
 2585 0d80 860D0000 		.4byte	0xd86
 2586 0d84 01       		.byte	0x1
 2587 0d85 01       		.byte	0x1
 2588 0d86 0B       		.uleb128 0xb
 2589 0d87 04       		.byte	0x4
ARM GAS  /tmp/ccTFyqST.s 			page 49


 2590 0d88 C00A0000 		.4byte	0xac0
 2591 0d8c 13       		.uleb128 0x13
 2592 0d8d C00A0000 		.4byte	0xac0
 2593 0d91 9C0D0000 		.4byte	0xd9c
 2594 0d95 14       		.uleb128 0x14
 2595 0d96 C1050000 		.4byte	0x5c1
 2596 0d9a 27       		.byte	0x27
 2597 0d9b 00       		.byte	0x0
 2598 0d9c 26       		.uleb128 0x26
 2599 0d9d 79010000 		.4byte	.LASF169
 2600 0da1 13       		.byte	0x13
 2601 0da2 AA04     		.2byte	0x4aa
 2602 0da4 8C0D0000 		.4byte	0xd8c
 2603 0da8 01       		.byte	0x1
 2604 0da9 01       		.byte	0x1
 2605 0daa 26       		.uleb128 0x26
 2606 0dab 4F060000 		.4byte	.LASF170
 2607 0daf 13       		.byte	0x13
 2608 0db0 1B05     		.2byte	0x51b
 2609 0db2 70080000 		.4byte	0x870
 2610 0db6 01       		.byte	0x1
 2611 0db7 01       		.byte	0x1
 2612 0db8 26       		.uleb128 0x26
 2613 0db9 CD070000 		.4byte	.LASF171
 2614 0dbd 13       		.byte	0x13
 2615 0dbe 0006     		.2byte	0x600
 2616 0dc0 B50A0000 		.4byte	0xab5
 2617 0dc4 01       		.byte	0x1
 2618 0dc5 01       		.byte	0x1
 2619 0dc6 26       		.uleb128 0x26
 2620 0dc7 8E010000 		.4byte	.LASF172
 2621 0dcb 13       		.byte	0x13
 2622 0dcc 0006     		.2byte	0x600
 2623 0dce B50A0000 		.4byte	0xab5
 2624 0dd2 01       		.byte	0x1
 2625 0dd3 01       		.byte	0x1
 2626 0dd4 26       		.uleb128 0x26
 2627 0dd5 A7060000 		.4byte	.LASF173
 2628 0dd9 13       		.byte	0x13
 2629 0dda 0006     		.2byte	0x600
 2630 0ddc B50A0000 		.4byte	0xab5
 2631 0de0 01       		.byte	0x1
 2632 0de1 01       		.byte	0x1
 2633 0de2 27       		.uleb128 0x27
 2634 0de3 E2000000 		.4byte	.LASF174
 2635 0de7 01       		.byte	0x1
 2636 0de8 17       		.byte	0x17
 2637 0de9 47080000 		.4byte	0x847
 2638 0ded 01       		.byte	0x1
 2639 0dee 05       		.byte	0x5
 2640 0def 03       		.byte	0x3
 2641 0df0 00000000 		.4byte	periodic_timer
 2642 0df4 27       		.uleb128 0x27
 2643 0df5 83020000 		.4byte	.LASF175
 2644 0df9 01       		.byte	0x1
 2645 0dfa 17       		.byte	0x17
 2646 0dfb 47080000 		.4byte	0x847
ARM GAS  /tmp/ccTFyqST.s 			page 50


 2647 0dff 01       		.byte	0x1
 2648 0e00 05       		.byte	0x5
 2649 0e01 03       		.byte	0x3
 2650 0e02 00000000 		.4byte	arp_timer
 2651 0e06 00       		.byte	0x0
 2652              		.section	.debug_abbrev
 2653 0000 01       		.uleb128 0x1
 2654 0001 11       		.uleb128 0x11
 2655 0002 01       		.byte	0x1
 2656 0003 25       		.uleb128 0x25
 2657 0004 0E       		.uleb128 0xe
 2658 0005 13       		.uleb128 0x13
 2659 0006 0B       		.uleb128 0xb
 2660 0007 03       		.uleb128 0x3
 2661 0008 0E       		.uleb128 0xe
 2662 0009 1B       		.uleb128 0x1b
 2663 000a 0E       		.uleb128 0xe
 2664 000b 11       		.uleb128 0x11
 2665 000c 01       		.uleb128 0x1
 2666 000d 52       		.uleb128 0x52
 2667 000e 01       		.uleb128 0x1
 2668 000f 55       		.uleb128 0x55
 2669 0010 06       		.uleb128 0x6
 2670 0011 10       		.uleb128 0x10
 2671 0012 06       		.uleb128 0x6
 2672 0013 00       		.byte	0x0
 2673 0014 00       		.byte	0x0
 2674 0015 02       		.uleb128 0x2
 2675 0016 24       		.uleb128 0x24
 2676 0017 00       		.byte	0x0
 2677 0018 0B       		.uleb128 0xb
 2678 0019 0B       		.uleb128 0xb
 2679 001a 3E       		.uleb128 0x3e
 2680 001b 0B       		.uleb128 0xb
 2681 001c 03       		.uleb128 0x3
 2682 001d 08       		.uleb128 0x8
 2683 001e 00       		.byte	0x0
 2684 001f 00       		.byte	0x0
 2685 0020 03       		.uleb128 0x3
 2686 0021 24       		.uleb128 0x24
 2687 0022 00       		.byte	0x0
 2688 0023 0B       		.uleb128 0xb
 2689 0024 0B       		.uleb128 0xb
 2690 0025 3E       		.uleb128 0x3e
 2691 0026 0B       		.uleb128 0xb
 2692 0027 03       		.uleb128 0x3
 2693 0028 0E       		.uleb128 0xe
 2694 0029 00       		.byte	0x0
 2695 002a 00       		.byte	0x0
 2696 002b 04       		.uleb128 0x4
 2697 002c 16       		.uleb128 0x16
 2698 002d 00       		.byte	0x0
 2699 002e 03       		.uleb128 0x3
 2700 002f 0E       		.uleb128 0xe
 2701 0030 3A       		.uleb128 0x3a
 2702 0031 0B       		.uleb128 0xb
 2703 0032 3B       		.uleb128 0x3b
ARM GAS  /tmp/ccTFyqST.s 			page 51


 2704 0033 0B       		.uleb128 0xb
 2705 0034 49       		.uleb128 0x49
 2706 0035 13       		.uleb128 0x13
 2707 0036 00       		.byte	0x0
 2708 0037 00       		.byte	0x0
 2709 0038 05       		.uleb128 0x5
 2710 0039 35       		.uleb128 0x35
 2711 003a 00       		.byte	0x0
 2712 003b 49       		.uleb128 0x49
 2713 003c 13       		.uleb128 0x13
 2714 003d 00       		.byte	0x0
 2715 003e 00       		.byte	0x0
 2716 003f 06       		.uleb128 0x6
 2717 0040 16       		.uleb128 0x16
 2718 0041 00       		.byte	0x0
 2719 0042 03       		.uleb128 0x3
 2720 0043 0E       		.uleb128 0xe
 2721 0044 3A       		.uleb128 0x3a
 2722 0045 0B       		.uleb128 0xb
 2723 0046 3B       		.uleb128 0x3b
 2724 0047 05       		.uleb128 0x5
 2725 0048 49       		.uleb128 0x49
 2726 0049 13       		.uleb128 0x13
 2727 004a 00       		.byte	0x0
 2728 004b 00       		.byte	0x0
 2729 004c 07       		.uleb128 0x7
 2730 004d 16       		.uleb128 0x16
 2731 004e 00       		.byte	0x0
 2732 004f 03       		.uleb128 0x3
 2733 0050 08       		.uleb128 0x8
 2734 0051 3A       		.uleb128 0x3a
 2735 0052 0B       		.uleb128 0xb
 2736 0053 3B       		.uleb128 0x3b
 2737 0054 0B       		.uleb128 0xb
 2738 0055 49       		.uleb128 0x49
 2739 0056 13       		.uleb128 0x13
 2740 0057 00       		.byte	0x0
 2741 0058 00       		.byte	0x0
 2742 0059 08       		.uleb128 0x8
 2743 005a 13       		.uleb128 0x13
 2744 005b 01       		.byte	0x1
 2745 005c 03       		.uleb128 0x3
 2746 005d 0E       		.uleb128 0xe
 2747 005e 0B       		.uleb128 0xb
 2748 005f 0B       		.uleb128 0xb
 2749 0060 3A       		.uleb128 0x3a
 2750 0061 0B       		.uleb128 0xb
 2751 0062 3B       		.uleb128 0x3b
 2752 0063 0B       		.uleb128 0xb
 2753 0064 01       		.uleb128 0x1
 2754 0065 13       		.uleb128 0x13
 2755 0066 00       		.byte	0x0
 2756 0067 00       		.byte	0x0
 2757 0068 09       		.uleb128 0x9
 2758 0069 0D       		.uleb128 0xd
 2759 006a 00       		.byte	0x0
 2760 006b 03       		.uleb128 0x3
ARM GAS  /tmp/ccTFyqST.s 			page 52


 2761 006c 0E       		.uleb128 0xe
 2762 006d 3A       		.uleb128 0x3a
 2763 006e 0B       		.uleb128 0xb
 2764 006f 3B       		.uleb128 0x3b
 2765 0070 0B       		.uleb128 0xb
 2766 0071 49       		.uleb128 0x49
 2767 0072 13       		.uleb128 0x13
 2768 0073 38       		.uleb128 0x38
 2769 0074 0A       		.uleb128 0xa
 2770 0075 00       		.byte	0x0
 2771 0076 00       		.byte	0x0
 2772 0077 0A       		.uleb128 0xa
 2773 0078 0D       		.uleb128 0xd
 2774 0079 00       		.byte	0x0
 2775 007a 03       		.uleb128 0x3
 2776 007b 0E       		.uleb128 0xe
 2777 007c 3A       		.uleb128 0x3a
 2778 007d 0B       		.uleb128 0xb
 2779 007e 3B       		.uleb128 0x3b
 2780 007f 05       		.uleb128 0x5
 2781 0080 49       		.uleb128 0x49
 2782 0081 13       		.uleb128 0x13
 2783 0082 38       		.uleb128 0x38
 2784 0083 0A       		.uleb128 0xa
 2785 0084 00       		.byte	0x0
 2786 0085 00       		.byte	0x0
 2787 0086 0B       		.uleb128 0xb
 2788 0087 0F       		.uleb128 0xf
 2789 0088 00       		.byte	0x0
 2790 0089 0B       		.uleb128 0xb
 2791 008a 0B       		.uleb128 0xb
 2792 008b 49       		.uleb128 0x49
 2793 008c 13       		.uleb128 0x13
 2794 008d 00       		.byte	0x0
 2795 008e 00       		.byte	0x0
 2796 008f 0C       		.uleb128 0xc
 2797 0090 15       		.uleb128 0x15
 2798 0091 01       		.byte	0x1
 2799 0092 27       		.uleb128 0x27
 2800 0093 0C       		.uleb128 0xc
 2801 0094 01       		.uleb128 0x1
 2802 0095 13       		.uleb128 0x13
 2803 0096 00       		.byte	0x0
 2804 0097 00       		.byte	0x0
 2805 0098 0D       		.uleb128 0xd
 2806 0099 05       		.uleb128 0x5
 2807 009a 00       		.byte	0x0
 2808 009b 49       		.uleb128 0x49
 2809 009c 13       		.uleb128 0x13
 2810 009d 00       		.byte	0x0
 2811 009e 00       		.byte	0x0
 2812 009f 0E       		.uleb128 0xe
 2813 00a0 0F       		.uleb128 0xf
 2814 00a1 00       		.byte	0x0
 2815 00a2 0B       		.uleb128 0xb
 2816 00a3 0B       		.uleb128 0xb
 2817 00a4 00       		.byte	0x0
ARM GAS  /tmp/ccTFyqST.s 			page 53


 2818 00a5 00       		.byte	0x0
 2819 00a6 0F       		.uleb128 0xf
 2820 00a7 13       		.uleb128 0x13
 2821 00a8 01       		.byte	0x1
 2822 00a9 0B       		.uleb128 0xb
 2823 00aa 0B       		.uleb128 0xb
 2824 00ab 3A       		.uleb128 0x3a
 2825 00ac 0B       		.uleb128 0xb
 2826 00ad 3B       		.uleb128 0x3b
 2827 00ae 0B       		.uleb128 0xb
 2828 00af 01       		.uleb128 0x1
 2829 00b0 13       		.uleb128 0x13
 2830 00b1 00       		.byte	0x0
 2831 00b2 00       		.byte	0x0
 2832 00b3 10       		.uleb128 0x10
 2833 00b4 13       		.uleb128 0x13
 2834 00b5 01       		.byte	0x1
 2835 00b6 0B       		.uleb128 0xb
 2836 00b7 0B       		.uleb128 0xb
 2837 00b8 3A       		.uleb128 0x3a
 2838 00b9 0B       		.uleb128 0xb
 2839 00ba 3B       		.uleb128 0x3b
 2840 00bb 05       		.uleb128 0x5
 2841 00bc 01       		.uleb128 0x1
 2842 00bd 13       		.uleb128 0x13
 2843 00be 00       		.byte	0x0
 2844 00bf 00       		.byte	0x0
 2845 00c0 11       		.uleb128 0x11
 2846 00c1 04       		.uleb128 0x4
 2847 00c2 01       		.byte	0x1
 2848 00c3 0B       		.uleb128 0xb
 2849 00c4 0B       		.uleb128 0xb
 2850 00c5 3A       		.uleb128 0x3a
 2851 00c6 0B       		.uleb128 0xb
 2852 00c7 3B       		.uleb128 0x3b
 2853 00c8 05       		.uleb128 0x5
 2854 00c9 01       		.uleb128 0x1
 2855 00ca 13       		.uleb128 0x13
 2856 00cb 00       		.byte	0x0
 2857 00cc 00       		.byte	0x0
 2858 00cd 12       		.uleb128 0x12
 2859 00ce 28       		.uleb128 0x28
 2860 00cf 00       		.byte	0x0
 2861 00d0 03       		.uleb128 0x3
 2862 00d1 0E       		.uleb128 0xe
 2863 00d2 1C       		.uleb128 0x1c
 2864 00d3 0D       		.uleb128 0xd
 2865 00d4 00       		.byte	0x0
 2866 00d5 00       		.byte	0x0
 2867 00d6 13       		.uleb128 0x13
 2868 00d7 01       		.uleb128 0x1
 2869 00d8 01       		.byte	0x1
 2870 00d9 49       		.uleb128 0x49
 2871 00da 13       		.uleb128 0x13
 2872 00db 01       		.uleb128 0x1
 2873 00dc 13       		.uleb128 0x13
 2874 00dd 00       		.byte	0x0
ARM GAS  /tmp/ccTFyqST.s 			page 54


 2875 00de 00       		.byte	0x0
 2876 00df 14       		.uleb128 0x14
 2877 00e0 21       		.uleb128 0x21
 2878 00e1 00       		.byte	0x0
 2879 00e2 49       		.uleb128 0x49
 2880 00e3 13       		.uleb128 0x13
 2881 00e4 2F       		.uleb128 0x2f
 2882 00e5 0B       		.uleb128 0xb
 2883 00e6 00       		.byte	0x0
 2884 00e7 00       		.byte	0x0
 2885 00e8 15       		.uleb128 0x15
 2886 00e9 24       		.uleb128 0x24
 2887 00ea 00       		.byte	0x0
 2888 00eb 0B       		.uleb128 0xb
 2889 00ec 0B       		.uleb128 0xb
 2890 00ed 3E       		.uleb128 0x3e
 2891 00ee 0B       		.uleb128 0xb
 2892 00ef 00       		.byte	0x0
 2893 00f0 00       		.byte	0x0
 2894 00f1 16       		.uleb128 0x16
 2895 00f2 26       		.uleb128 0x26
 2896 00f3 00       		.byte	0x0
 2897 00f4 49       		.uleb128 0x49
 2898 00f5 13       		.uleb128 0x13
 2899 00f6 00       		.byte	0x0
 2900 00f7 00       		.byte	0x0
 2901 00f8 17       		.uleb128 0x17
 2902 00f9 15       		.uleb128 0x15
 2903 00fa 01       		.byte	0x1
 2904 00fb 27       		.uleb128 0x27
 2905 00fc 0C       		.uleb128 0xc
 2906 00fd 49       		.uleb128 0x49
 2907 00fe 13       		.uleb128 0x13
 2908 00ff 01       		.uleb128 0x1
 2909 0100 13       		.uleb128 0x13
 2910 0101 00       		.byte	0x0
 2911 0102 00       		.byte	0x0
 2912 0103 18       		.uleb128 0x18
 2913 0104 26       		.uleb128 0x26
 2914 0105 00       		.byte	0x0
 2915 0106 00       		.byte	0x0
 2916 0107 00       		.byte	0x0
 2917 0108 19       		.uleb128 0x19
 2918 0109 04       		.uleb128 0x4
 2919 010a 01       		.byte	0x1
 2920 010b 0B       		.uleb128 0xb
 2921 010c 0B       		.uleb128 0xb
 2922 010d 3A       		.uleb128 0x3a
 2923 010e 0B       		.uleb128 0xb
 2924 010f 3B       		.uleb128 0x3b
 2925 0110 0B       		.uleb128 0xb
 2926 0111 01       		.uleb128 0x1
 2927 0112 13       		.uleb128 0x13
 2928 0113 00       		.byte	0x0
 2929 0114 00       		.byte	0x0
 2930 0115 1A       		.uleb128 0x1a
 2931 0116 0D       		.uleb128 0xd
ARM GAS  /tmp/ccTFyqST.s 			page 55


 2932 0117 00       		.byte	0x0
 2933 0118 03       		.uleb128 0x3
 2934 0119 08       		.uleb128 0x8
 2935 011a 3A       		.uleb128 0x3a
 2936 011b 0B       		.uleb128 0xb
 2937 011c 3B       		.uleb128 0x3b
 2938 011d 0B       		.uleb128 0xb
 2939 011e 49       		.uleb128 0x49
 2940 011f 13       		.uleb128 0x13
 2941 0120 38       		.uleb128 0x38
 2942 0121 0A       		.uleb128 0xa
 2943 0122 00       		.byte	0x0
 2944 0123 00       		.byte	0x0
 2945 0124 1B       		.uleb128 0x1b
 2946 0125 13       		.uleb128 0x13
 2947 0126 01       		.byte	0x1
 2948 0127 03       		.uleb128 0x3
 2949 0128 08       		.uleb128 0x8
 2950 0129 0B       		.uleb128 0xb
 2951 012a 0B       		.uleb128 0xb
 2952 012b 3A       		.uleb128 0x3a
 2953 012c 0B       		.uleb128 0xb
 2954 012d 3B       		.uleb128 0x3b
 2955 012e 0B       		.uleb128 0xb
 2956 012f 01       		.uleb128 0x1
 2957 0130 13       		.uleb128 0x13
 2958 0131 00       		.byte	0x0
 2959 0132 00       		.byte	0x0
 2960 0133 1C       		.uleb128 0x1c
 2961 0134 13       		.uleb128 0x13
 2962 0135 01       		.byte	0x1
 2963 0136 03       		.uleb128 0x3
 2964 0137 0E       		.uleb128 0xe
 2965 0138 0B       		.uleb128 0xb
 2966 0139 0B       		.uleb128 0xb
 2967 013a 3A       		.uleb128 0x3a
 2968 013b 0B       		.uleb128 0xb
 2969 013c 3B       		.uleb128 0x3b
 2970 013d 05       		.uleb128 0x5
 2971 013e 01       		.uleb128 0x1
 2972 013f 13       		.uleb128 0x13
 2973 0140 00       		.byte	0x0
 2974 0141 00       		.byte	0x0
 2975 0142 1D       		.uleb128 0x1d
 2976 0143 0D       		.uleb128 0xd
 2977 0144 00       		.byte	0x0
 2978 0145 03       		.uleb128 0x3
 2979 0146 08       		.uleb128 0x8
 2980 0147 3A       		.uleb128 0x3a
 2981 0148 0B       		.uleb128 0xb
 2982 0149 3B       		.uleb128 0x3b
 2983 014a 05       		.uleb128 0x5
 2984 014b 49       		.uleb128 0x49
 2985 014c 13       		.uleb128 0x13
 2986 014d 38       		.uleb128 0x38
 2987 014e 0A       		.uleb128 0xa
 2988 014f 00       		.byte	0x0
ARM GAS  /tmp/ccTFyqST.s 			page 56


 2989 0150 00       		.byte	0x0
 2990 0151 1E       		.uleb128 0x1e
 2991 0152 2E       		.uleb128 0x2e
 2992 0153 01       		.byte	0x1
 2993 0154 3F       		.uleb128 0x3f
 2994 0155 0C       		.uleb128 0xc
 2995 0156 03       		.uleb128 0x3
 2996 0157 0E       		.uleb128 0xe
 2997 0158 3A       		.uleb128 0x3a
 2998 0159 0B       		.uleb128 0xb
 2999 015a 3B       		.uleb128 0x3b
 3000 015b 0B       		.uleb128 0xb
 3001 015c 11       		.uleb128 0x11
 3002 015d 01       		.uleb128 0x1
 3003 015e 12       		.uleb128 0x12
 3004 015f 01       		.uleb128 0x1
 3005 0160 40       		.uleb128 0x40
 3006 0161 06       		.uleb128 0x6
 3007 0162 01       		.uleb128 0x1
 3008 0163 13       		.uleb128 0x13
 3009 0164 00       		.byte	0x0
 3010 0165 00       		.byte	0x0
 3011 0166 1F       		.uleb128 0x1f
 3012 0167 34       		.uleb128 0x34
 3013 0168 00       		.byte	0x0
 3014 0169 03       		.uleb128 0x3
 3015 016a 08       		.uleb128 0x8
 3016 016b 3A       		.uleb128 0x3a
 3017 016c 0B       		.uleb128 0xb
 3018 016d 3B       		.uleb128 0x3b
 3019 016e 0B       		.uleb128 0xb
 3020 016f 49       		.uleb128 0x49
 3021 0170 13       		.uleb128 0x13
 3022 0171 02       		.uleb128 0x2
 3023 0172 0A       		.uleb128 0xa
 3024 0173 00       		.byte	0x0
 3025 0174 00       		.byte	0x0
 3026 0175 20       		.uleb128 0x20
 3027 0176 34       		.uleb128 0x34
 3028 0177 00       		.byte	0x0
 3029 0178 03       		.uleb128 0x3
 3030 0179 0E       		.uleb128 0xe
 3031 017a 3A       		.uleb128 0x3a
 3032 017b 0B       		.uleb128 0xb
 3033 017c 3B       		.uleb128 0x3b
 3034 017d 0B       		.uleb128 0xb
 3035 017e 49       		.uleb128 0x49
 3036 017f 13       		.uleb128 0x13
 3037 0180 02       		.uleb128 0x2
 3038 0181 0A       		.uleb128 0xa
 3039 0182 00       		.byte	0x0
 3040 0183 00       		.byte	0x0
 3041 0184 21       		.uleb128 0x21
 3042 0185 0B       		.uleb128 0xb
 3043 0186 01       		.byte	0x1
 3044 0187 11       		.uleb128 0x11
 3045 0188 01       		.uleb128 0x1
ARM GAS  /tmp/ccTFyqST.s 			page 57


 3046 0189 12       		.uleb128 0x12
 3047 018a 01       		.uleb128 0x1
 3048 018b 00       		.byte	0x0
 3049 018c 00       		.byte	0x0
 3050 018d 22       		.uleb128 0x22
 3051 018e 2E       		.uleb128 0x2e
 3052 018f 00       		.byte	0x0
 3053 0190 03       		.uleb128 0x3
 3054 0191 0E       		.uleb128 0xe
 3055 0192 3A       		.uleb128 0x3a
 3056 0193 0B       		.uleb128 0xb
 3057 0194 3B       		.uleb128 0x3b
 3058 0195 0B       		.uleb128 0xb
 3059 0196 11       		.uleb128 0x11
 3060 0197 01       		.uleb128 0x1
 3061 0198 12       		.uleb128 0x12
 3062 0199 01       		.uleb128 0x1
 3063 019a 40       		.uleb128 0x40
 3064 019b 06       		.uleb128 0x6
 3065 019c 00       		.byte	0x0
 3066 019d 00       		.byte	0x0
 3067 019e 23       		.uleb128 0x23
 3068 019f 2E       		.uleb128 0x2e
 3069 01a0 00       		.byte	0x0
 3070 01a1 3F       		.uleb128 0x3f
 3071 01a2 0C       		.uleb128 0xc
 3072 01a3 03       		.uleb128 0x3
 3073 01a4 0E       		.uleb128 0xe
 3074 01a5 3A       		.uleb128 0x3a
 3075 01a6 0B       		.uleb128 0xb
 3076 01a7 3B       		.uleb128 0x3b
 3077 01a8 0B       		.uleb128 0xb
 3078 01a9 27       		.uleb128 0x27
 3079 01aa 0C       		.uleb128 0xc
 3080 01ab 11       		.uleb128 0x11
 3081 01ac 01       		.uleb128 0x1
 3082 01ad 12       		.uleb128 0x12
 3083 01ae 01       		.uleb128 0x1
 3084 01af 40       		.uleb128 0x40
 3085 01b0 06       		.uleb128 0x6
 3086 01b1 00       		.byte	0x0
 3087 01b2 00       		.byte	0x0
 3088 01b3 24       		.uleb128 0x24
 3089 01b4 2E       		.uleb128 0x2e
 3090 01b5 00       		.byte	0x0
 3091 01b6 3F       		.uleb128 0x3f
 3092 01b7 0C       		.uleb128 0xc
 3093 01b8 03       		.uleb128 0x3
 3094 01b9 0E       		.uleb128 0xe
 3095 01ba 3A       		.uleb128 0x3a
 3096 01bb 0B       		.uleb128 0xb
 3097 01bc 3B       		.uleb128 0x3b
 3098 01bd 0B       		.uleb128 0xb
 3099 01be 49       		.uleb128 0x49
 3100 01bf 13       		.uleb128 0x13
 3101 01c0 11       		.uleb128 0x11
 3102 01c1 01       		.uleb128 0x1
ARM GAS  /tmp/ccTFyqST.s 			page 58


 3103 01c2 12       		.uleb128 0x12
 3104 01c3 01       		.uleb128 0x1
 3105 01c4 40       		.uleb128 0x40
 3106 01c5 06       		.uleb128 0x6
 3107 01c6 00       		.byte	0x0
 3108 01c7 00       		.byte	0x0
 3109 01c8 25       		.uleb128 0x25
 3110 01c9 21       		.uleb128 0x21
 3111 01ca 00       		.byte	0x0
 3112 01cb 49       		.uleb128 0x49
 3113 01cc 13       		.uleb128 0x13
 3114 01cd 2F       		.uleb128 0x2f
 3115 01ce 05       		.uleb128 0x5
 3116 01cf 00       		.byte	0x0
 3117 01d0 00       		.byte	0x0
 3118 01d1 26       		.uleb128 0x26
 3119 01d2 34       		.uleb128 0x34
 3120 01d3 00       		.byte	0x0
 3121 01d4 03       		.uleb128 0x3
 3122 01d5 0E       		.uleb128 0xe
 3123 01d6 3A       		.uleb128 0x3a
 3124 01d7 0B       		.uleb128 0xb
 3125 01d8 3B       		.uleb128 0x3b
 3126 01d9 05       		.uleb128 0x5
 3127 01da 49       		.uleb128 0x49
 3128 01db 13       		.uleb128 0x13
 3129 01dc 3F       		.uleb128 0x3f
 3130 01dd 0C       		.uleb128 0xc
 3131 01de 3C       		.uleb128 0x3c
 3132 01df 0C       		.uleb128 0xc
 3133 01e0 00       		.byte	0x0
 3134 01e1 00       		.byte	0x0
 3135 01e2 27       		.uleb128 0x27
 3136 01e3 34       		.uleb128 0x34
 3137 01e4 00       		.byte	0x0
 3138 01e5 03       		.uleb128 0x3
 3139 01e6 0E       		.uleb128 0xe
 3140 01e7 3A       		.uleb128 0x3a
 3141 01e8 0B       		.uleb128 0xb
 3142 01e9 3B       		.uleb128 0x3b
 3143 01ea 0B       		.uleb128 0xb
 3144 01eb 49       		.uleb128 0x49
 3145 01ec 13       		.uleb128 0x13
 3146 01ed 3F       		.uleb128 0x3f
 3147 01ee 0C       		.uleb128 0xc
 3148 01ef 02       		.uleb128 0x2
 3149 01f0 0A       		.uleb128 0xa
 3150 01f1 00       		.byte	0x0
 3151 01f2 00       		.byte	0x0
 3152 01f3 00       		.byte	0x0
 3153              		.section	.debug_pubnames,"",%progbits
 3154 0000 7A000000 		.4byte	0x7a
 3155 0004 0200     		.2byte	0x2
 3156 0006 00000000 		.4byte	.Ldebug_info0
 3157 000a 070E0000 		.4byte	0xe07
 3158 000e 210C0000 		.4byte	0xc21
 3159 0012 7569705F 		.ascii	"uip_setup\000"
ARM GAS  /tmp/ccTFyqST.s 			page 59


 3159      73657475 
 3159      7000
 3160 001c 560C0000 		.4byte	0xc56
 3161 0020 7569705F 		.ascii	"uip_activity\000"
 3161      61637469 
 3161      76697479 
 3161      00
 3162 002d 7B0C0000 		.4byte	0xc7b
 3163 0031 6770696F 		.ascii	"gpio_init\000"
 3163      5F696E69 
 3163      7400
 3164 003b CD0C0000 		.4byte	0xccd
 3165 003f 6D61696E 		.ascii	"main_application\000"
 3165      5F617070 
 3165      6C696361 
 3165      74696F6E 
 3165      00
 3166 0050 E20C0000 		.4byte	0xce2
 3167 0054 6D61696E 		.ascii	"main\000"
 3167      00
 3168 0059 E20D0000 		.4byte	0xde2
 3169 005d 70657269 		.ascii	"periodic_timer\000"
 3169      6F646963 
 3169      5F74696D 
 3169      657200
 3170 006c F40D0000 		.4byte	0xdf4
 3171 0070 6172705F 		.ascii	"arp_timer\000"
 3171      74696D65 
 3171      7200
 3172 007a 00000000 		.4byte	0x0
 3173              		.section	.debug_aranges,"",%progbits
 3174 0000 44000000 		.4byte	0x44
 3175 0004 0200     		.2byte	0x2
 3176 0006 00000000 		.4byte	.Ldebug_info0
 3177 000a 04       		.byte	0x4
 3178 000b 00       		.byte	0x0
 3179 000c 0000     		.2byte	0x0
 3180 000e 0000     		.2byte	0x0
 3181 0010 00000000 		.4byte	.LFB2
 3182 0014 60010000 		.4byte	.LFE2-.LFB2
 3183 0018 00000000 		.4byte	.LFB3
 3184 001c F0010000 		.4byte	.LFE3-.LFB3
 3185 0020 00000000 		.4byte	.LFB4
 3186 0024 90000000 		.4byte	.LFE4-.LFB4
 3187 0028 00000000 		.4byte	.LFB5
 3188 002c 24000000 		.4byte	.LFE5-.LFB5
 3189 0030 00000000 		.4byte	.LFB6
 3190 0034 54000000 		.4byte	.LFE6-.LFB6
 3191 0038 00000000 		.4byte	.LFB7
 3192 003c 2C000000 		.4byte	.LFE7-.LFB7
 3193 0040 00000000 		.4byte	0x0
 3194 0044 00000000 		.4byte	0x0
 3195              		.section	.debug_ranges,"",%progbits
 3196              	.Ldebug_ranges0:
 3197 0000 00000000 		.4byte	.Ltext0
 3198 0004 00000000 		.4byte	.Letext0
 3199 0008 00000000 		.4byte	.LFB2
ARM GAS  /tmp/ccTFyqST.s 			page 60


 3200 000c 60010000 		.4byte	.LFE2
 3201 0010 00000000 		.4byte	.LFB3
 3202 0014 F0010000 		.4byte	.LFE3
 3203 0018 00000000 		.4byte	.LFB4
 3204 001c 90000000 		.4byte	.LFE4
 3205 0020 00000000 		.4byte	.LFB5
 3206 0024 24000000 		.4byte	.LFE5
 3207 0028 00000000 		.4byte	.LFB6
 3208 002c 54000000 		.4byte	.LFE6
 3209 0030 00000000 		.4byte	.LFB7
 3210 0034 2C000000 		.4byte	.LFE7
 3211 0038 00000000 		.4byte	0x0
 3212 003c 00000000 		.4byte	0x0
 3213              		.section	.debug_str,"MS",%progbits,1
 3214              	.LASF123:
 3215 0000 62756670 		.ascii	"bufptr\000"
 3215      747200
 3216              	.LASF139:
 3217 0007 7569705F 		.ascii	"uip_ip4addr_t\000"
 3217      69703461 
 3217      6464725F 
 3217      7400
 3218              	.LASF63:
 3219 0015 696E7465 		.ascii	"interval\000"
 3219      7276616C 
 3219      00
 3220              	.LASF53:
 3221 001e 6E616D65 		.ascii	"name\000"
 3221      00
 3222              	.LASF109:
 3223 0023 65746865 		.ascii	"ethernetDevice\000"
 3223      726E6574 
 3223      44657669 
 3223      636500
 3224              	.LASF13:
 3225 0032 6379675F 		.ascii	"cyg_count32\000"
 3225      636F756E 
 3225      74333200 
 3226              	.LASF33:
 3227 003e 656E7472 		.ascii	"entry_point\000"
 3227      795F706F 
 3227      696E7400 
 3228              	.LASF160:
 3229 004a 696F6469 		.ascii	"iodir\000"
 3229      7200
 3230              	.LASF101:
 3231 0050 7370695F 		.ascii	"spi_cpol\000"
 3231      63706F6C 
 3231      00
 3232              	.LASF80:
 3233 0059 4359475F 		.ascii	"CYG_REASON_BREAK\000"
 3233      52454153 
 3233      4F4E5F42 
 3233      5245414B 
 3233      00
 3234              	.LASF92:
 3235 006a 7370695F 		.ascii	"spi_lock\000"
ARM GAS  /tmp/ccTFyqST.s 			page 61


 3235      6C6F636B 
 3235      00
 3236              	.LASF0:
 3237 0073 756E7369 		.ascii	"unsigned int\000"
 3237      676E6564 
 3237      20696E74 
 3237      00
 3238              	.LASF111:
 3239 0080 45544845 		.ascii	"ETHERNET_Device\000"
 3239      524E4554 
 3239      5F446576 
 3239      69636500 
 3240              	.LASF36:
 3241 0090 6E657874 		.ascii	"next\000"
 3241      00
 3242              	.LASF8:
 3243 0095 6379675F 		.ascii	"cyg_uint64\000"
 3243      75696E74 
 3243      363400
 3244              	.LASF47:
 3245 00a0 77616974 		.ascii	"wait_info\000"
 3245      5F696E66 
 3245      6F00
 3246              	.LASF87:
 3247 00aa 4359475F 		.ascii	"CYG_MUTEX_PROTOCOL_CEILING\000"
 3247      4D555445 
 3247      585F5052 
 3247      4F544F43 
 3247      4F4C5F43 
 3248              	.LASF11:
 3249 00c5 6379675F 		.ascii	"cyg_bool\000"
 3249      626F6F6C 
 3249      00
 3250              	.LASF115:
 3251 00ce 7531365F 		.ascii	"u16_t\000"
 3251      7400
 3252              	.LASF148:
 3253 00d4 74637073 		.ascii	"tcpstateflags\000"
 3253      74617465 
 3253      666C6167 
 3253      7300
 3254              	.LASF174:
 3255 00e2 70657269 		.ascii	"periodic_timer\000"
 3255      6F646963 
 3255      5F74696D 
 3255      657200
 3256              	.LASF27:
 3257 00f1 6379675F 		.ascii	"cyg_thread\000"
 3257      74687265 
 3257      616400
 3258              	.LASF159:
 3259 00fc 6770696F 		.ascii	"gpio_init\000"
 3259      5F696E69 
 3259      7400
 3260              	.LASF50:
 3261 0106 736C6565 		.ascii	"sleep_reason\000"
 3261      705F7265 
ARM GAS  /tmp/ccTFyqST.s 			page 62


 3261      61736F6E 
 3261      00
 3262              	.LASF68:
 3263 0113 70726F74 		.ascii	"protocol\000"
 3263      6F636F6C 
 3263      00
 3264              	.LASF52:
 3265 011c 74687265 		.ascii	"thread_data\000"
 3265      61645F64 
 3265      61746100 
 3266              	.LASF133:
 3267 0128 66696C65 		.ascii	"filename\000"
 3267      6E616D65 
 3267      00
 3268              	.LASF164:
 3269 0131 65746865 		.ascii	"ether_addr\000"
 3269      725F6164 
 3269      647200
 3270              	.LASF37:
 3271 013c 70726576 		.ascii	"prev\000"
 3271      00
 3272              	.LASF46:
 3273 0141 77616B65 		.ascii	"wakeup_count\000"
 3273      75705F63 
 3273      6F756E74 
 3273      00
 3274              	.LASF17:
 3275 014e 4359475F 		.ascii	"CYG_ADDRESS\000"
 3275      41444452 
 3275      45535300 
 3276              	.LASF79:
 3277 015a 4359475F 		.ascii	"CYG_REASON_TIMEOUT\000"
 3277      52454153 
 3277      4F4E5F54 
 3277      494D454F 
 3277      555400
 3278              	.LASF153:
 3279 016d 7569705F 		.ascii	"uip_eth_hdr\000"
 3279      6574685F 
 3279      68647200 
 3280              	.LASF169:
 3281 0179 7569705F 		.ascii	"uip_conns\000"
 3281      636F6E6E 
 3281      7300
 3282              	.LASF15:
 3283 0183 4359475F 		.ascii	"CYG_WORD16\000"
 3283      574F5244 
 3283      313600
 3284              	.LASF172:
 3285 018e 7569705F 		.ascii	"uip_netmask\000"
 3285      6E65746D 
 3285      61736B00 
 3286              	.LASF135:
 3287 019a 73637269 		.ascii	"scriptptr\000"
 3287      70747074 
 3287      7200
 3288              	.LASF16:
ARM GAS  /tmp/ccTFyqST.s 			page 63


 3289 01a4 4359475F 		.ascii	"CYG_WORD32\000"
 3289      574F5244 
 3289      333200
 3290              	.LASF39:
 3291 01af 74696D65 		.ascii	"timeslice_count\000"
 3291      736C6963 
 3291      655F636F 
 3291      756E7400 
 3292              	.LASF122:
 3293 01bf 72656164 		.ascii	"readptr\000"
 3293      70747200 
 3294              	.LASF130:
 3295 01c7 6F757470 		.ascii	"outputpt\000"
 3295      75747074 
 3295      00
 3296              	.LASF127:
 3297 01d0 68747470 		.ascii	"httpd_fs_file\000"
 3297      645F6673 
 3297      5F66696C 
 3297      6500
 3298              	.LASF89:
 3299 01de 6379675F 		.ascii	"cyg_spi_device\000"
 3299      7370695F 
 3299      64657669 
 3299      636500
 3300              	.LASF20:
 3301 01ed 494F5345 		.ascii	"IOSET\000"
 3301      5400
 3302              	.LASF88:
 3303 01f3 6379675F 		.ascii	"cyg_mutex_protocol_t\000"
 3303      6D757465 
 3303      785F7072 
 3303      6F746F63 
 3303      6F6C5F74 
 3304              	.LASF55:
 3305 0208 6379675F 		.ascii	"cyg_counter\000"
 3305      636F756E 
 3305      74657200 
 3306              	.LASF91:
 3307 0214 6379675F 		.ascii	"cyg_spi_bus\000"
 3307      7370695F 
 3307      62757300 
 3308              	.LASF121:
 3309 0220 73656E64 		.ascii	"sendptr\000"
 3309      70747200 
 3310              	.LASF9:
 3311 0228 6C6F6E67 		.ascii	"long long unsigned int\000"
 3311      206C6F6E 
 3311      6720756E 
 3311      7369676E 
 3311      65642069 
 3312              	.LASF134:
 3313 023f 66696C65 		.ascii	"file\000"
 3313      00
 3314              	.LASF67:
 3315 0244 6F776E65 		.ascii	"owner\000"
 3315      7200
ARM GAS  /tmp/ccTFyqST.s 			page 64


 3316              	.LASF145:
 3317 024a 7263765F 		.ascii	"rcv_nxt\000"
 3317      6E787400 
 3318              	.LASF14:
 3319 0252 4359475F 		.ascii	"CYG_BYTE\000"
 3319      42595445 
 3319      00
 3320              	.LASF26:
 3321 025b 6379675F 		.ascii	"cyg_tick_count_t\000"
 3321      7469636B 
 3321      5F636F75 
 3321      6E745F74 
 3321      00
 3322              	.LASF57:
 3323 026c 636F756E 		.ascii	"counter\000"
 3323      74657200 
 3324              	.LASF90:
 3325 0274 7370695F 		.ascii	"spi_bus\000"
 3325      62757300 
 3326              	.LASF156:
 3327 027c 69706164 		.ascii	"ipaddr\000"
 3327      647200
 3328              	.LASF175:
 3329 0283 6172705F 		.ascii	"arp_timer\000"
 3329      74696D65 
 3329      7200
 3330              	.LASF105:
 3331 028d 6379675F 		.ascii	"cyg_spi_lpc2xxx_dev_t\000"
 3331      7370695F 
 3331      6C706332 
 3331      7878785F 
 3331      6465765F 
 3332              	.LASF120:
 3333 02a3 70736F63 		.ascii	"psockpt\000"
 3333      6B707400 
 3334              	.LASF45:
 3335 02ab 73757370 		.ascii	"suspend_count\000"
 3335      656E645F 
 3335      636F756E 
 3335      7400
 3336              	.LASF81:
 3337 02b9 4359475F 		.ascii	"CYG_REASON_DESTRUCT\000"
 3337      52454153 
 3337      4F4E5F44 
 3337      45535452 
 3337      55435400 
 3338              	.LASF58:
 3339 02cd 696E6372 		.ascii	"increment\000"
 3339      656D656E 
 3339      7400
 3340              	.LASF144:
 3341 02d7 72706F72 		.ascii	"rport\000"
 3341      7400
 3342              	.LASF41:
 3343 02dd 6D757465 		.ascii	"mutex_count\000"
 3343      785F636F 
 3343      756E7400 
ARM GAS  /tmp/ccTFyqST.s 			page 65


 3344              	.LASF93:
 3345 02e9 7370695F 		.ascii	"spi_transaction_begin\000"
 3345      7472616E 
 3345      73616374 
 3345      696F6E5F 
 3345      62656769 
 3346              	.LASF151:
 3347 02ff 7569705F 		.ascii	"uip_eth_addr\000"
 3347      6574685F 
 3347      61646472 
 3347      00
 3348              	.LASF51:
 3349 030c 77616B65 		.ascii	"wake_reason\000"
 3349      5F726561 
 3349      736F6E00 
 3350              	.LASF137:
 3351 0318 636F756E 		.ascii	"count\000"
 3351      7400
 3352              	.LASF71:
 3353 031e 6379675F 		.ascii	"cyg_alarm_t\000"
 3353      616C6172 
 3353      6D5F7400 
 3354              	.LASF28:
 3355 032a 5F475049 		.ascii	"_GPIO\000"
 3355      4F00
 3356              	.LASF70:
 3357 0330 63686172 		.ascii	"char\000"
 3357      00
 3358              	.LASF99:
 3359 0335 7370695F 		.ascii	"spi_device\000"
 3359      64657669 
 3359      636500
 3360              	.LASF96:
 3361 0340 7370695F 		.ascii	"spi_transaction_end\000"
 3361      7472616E 
 3361      73616374 
 3361      696F6E5F 
 3361      656E6400 
 3362              	.LASF3:
 3363 0354 6379675F 		.ascii	"cyg_uint8\000"
 3363      75696E74 
 3363      3800
 3364              	.LASF158:
 3365 035e 7569705F 		.ascii	"uip_activity\000"
 3365      61637469 
 3365      76697479 
 3365      00
 3366              	.LASF61:
 3367 036b 64617461 		.ascii	"data\000"
 3367      00
 3368              	.LASF76:
 3369 0370 4359475F 		.ascii	"CYG_REASON_NONE\000"
 3369      52454153 
 3369      4F4E5F4E 
 3369      4F4E4500 
 3370              	.LASF66:
 3371 0380 6C6F636B 		.ascii	"locked\000"
ARM GAS  /tmp/ccTFyqST.s 			page 66


 3371      656400
 3372              	.LASF147:
 3373 0387 696E6974 		.ascii	"initialmss\000"
 3373      69616C6D 
 3373      737300
 3374              	.LASF126:
 3375 0392 62756673 		.ascii	"bufsize\000"
 3375      697A6500 
 3376              	.LASF116:
 3377 039a 6C635F74 		.ascii	"lc_t\000"
 3377      00
 3378              	.LASF110:
 3379 039f 6475706C 		.ascii	"duplex\000"
 3379      657800
 3380              	.LASF69:
 3381 03a6 6365696C 		.ascii	"ceiling\000"
 3381      696E6700 
 3382              	.LASF10:
 3383 03ae 6C6F6E67 		.ascii	"long long int\000"
 3383      206C6F6E 
 3383      6720696E 
 3383      7400
 3384              	.LASF56:
 3385 03bc 616C6172 		.ascii	"alarm_list\000"
 3385      6D5F6C69 
 3385      737400
 3386              	.LASF34:
 3387 03c7 656E7472 		.ascii	"entry_data\000"
 3387      795F6461 
 3387      746100
 3388              	.LASF108:
 3389 03d2 45544845 		.ascii	"ETHERNET_COM_SYSTEM\000"
 3389      524E4554 
 3389      5F434F4D 
 3389      5F535953 
 3389      54454D00 
 3390              	.LASF29:
 3391 03e6 73746163 		.ascii	"stack_base\000"
 3391      6B5F6261 
 3391      736500
 3392              	.LASF60:
 3393 03f1 616C6172 		.ascii	"alarm\000"
 3393      6D00
 3394              	.LASF42:
 3395 03f7 6F726967 		.ascii	"original_priority\000"
 3395      696E616C 
 3395      5F707269 
 3395      6F726974 
 3395      7900
 3396              	.LASF132:
 3397 0409 696E7075 		.ascii	"inputbuf\000"
 3397      74627566 
 3397      00
 3398              	.LASF114:
 3399 0412 75385F74 		.ascii	"u8_t\000"
 3399      00
 3400              	.LASF161:
ARM GAS  /tmp/ccTFyqST.s 			page 67


 3401 0417 70696E73 		.ascii	"pinsel\000"
 3401      656C00
 3402              	.LASF95:
 3403 041e 7370695F 		.ascii	"spi_transaction_tick\000"
 3403      7472616E 
 3403      73616374 
 3403      696F6E5F 
 3403      7469636B 
 3404              	.LASF128:
 3405 0433 68747470 		.ascii	"httpd_state\000"
 3405      645F7374 
 3405      61746500 
 3406              	.LASF31:
 3407 043f 73746163 		.ascii	"stack_limit\000"
 3407      6B5F6C69 
 3407      6D697400 
 3408              	.LASF94:
 3409 044b 7370695F 		.ascii	"spi_transaction_transfer\000"
 3409      7472616E 
 3409      73616374 
 3409      696F6E5F 
 3409      7472616E 
 3410              	.LASF143:
 3411 0464 6C706F72 		.ascii	"lport\000"
 3411      7400
 3412              	.LASF12:
 3413 046a 6379675F 		.ascii	"cyg_ucount32\000"
 3413      75636F75 
 3413      6E743332 
 3413      00
 3414              	.LASF124:
 3415 0477 73656E64 		.ascii	"sendlen\000"
 3415      6C656E00 
 3416              	.LASF98:
 3417 047f 7370695F 		.ascii	"spi_set_config\000"
 3417      7365745F 
 3417      636F6E66 
 3417      696700
 3418              	.LASF140:
 3419 048e 7569705F 		.ascii	"uip_ipaddr_t\000"
 3419      69706164 
 3419      64725F74 
 3419      00
 3420              	.LASF102:
 3421 049b 7370695F 		.ascii	"spi_lsbf\000"
 3421      6C736266 
 3421      00
 3422              	.LASF100:
 3423 04a4 7370695F 		.ascii	"spi_cpha\000"
 3423      63706861 
 3423      00
 3424              	.LASF62:
 3425 04ad 74726967 		.ascii	"trigger\000"
 3425      67657200 
 3426              	.LASF141:
 3427 04b5 7569705F 		.ascii	"uip_conn\000"
 3427      636F6E6E 
ARM GAS  /tmp/ccTFyqST.s 			page 68


 3427      00
 3428              	.LASF136:
 3429 04be 73637269 		.ascii	"scriptlen\000"
 3429      70746C65 
 3429      6E00
 3430              	.LASF48:
 3431 04c8 756E6971 		.ascii	"unique_id\000"
 3431      75655F69 
 3431      6400
 3432              	.LASF176:
 3433 04d2 474E5520 		.ascii	"GNU C 4.3.2\000"
 3433      4320342E 
 3433      332E3200 
 3434              	.LASF129:
 3435 04de 736F7574 		.ascii	"sout\000"
 3435      00
 3436              	.LASF125:
 3437 04e3 72656164 		.ascii	"readlen\000"
 3437      6C656E00 
 3438              	.LASF168:
 3439 04eb 7569705F 		.ascii	"uip_len\000"
 3439      6C656E00 
 3440              	.LASF178:
 3441 04f3 2F686F6D 		.ascii	"/home/masterzdran/WorkingArea/Isel/semestre6/SE2/wo"
 3441      652F6D61 
 3441      73746572 
 3441      7A647261 
 3441      6E2F576F 
 3442 0526 726B706C 		.ascii	"rkplace/code/src/tests/uIP\000"
 3442      6163652F 
 3442      636F6465 
 3442      2F737263 
 3442      2F746573 
 3443              	.LASF157:
 3444 0541 7569705F 		.ascii	"uip_setup\000"
 3444      73657475 
 3444      7000
 3445              	.LASF78:
 3446 054b 4359475F 		.ascii	"CYG_REASON_DELAY\000"
 3446      52454153 
 3446      4F4E5F44 
 3446      454C4159 
 3446      00
 3447              	.LASF64:
 3448 055c 656E6162 		.ascii	"enabled\000"
 3448      6C656400 
 3449              	.LASF85:
 3450 0564 4359475F 		.ascii	"CYG_MUTEX_PROTOCOL_NONE\000"
 3450      4D555445 
 3450      585F5052 
 3450      4F544F43 
 3450      4F4C5F4E 
 3451              	.LASF6:
 3452 057c 73686F72 		.ascii	"short int\000"
 3452      7420696E 
 3452      7400
 3453              	.LASF112:
ARM GAS  /tmp/ccTFyqST.s 			page 69


 3454 0586 636C6F63 		.ascii	"clock_time_t\000"
 3454      6B5F7469 
 3454      6D655F74 
 3454      00
 3455              	.LASF83:
 3456 0593 4359475F 		.ascii	"CYG_REASON_DONE\000"
 3456      52454153 
 3456      4F4E5F44 
 3456      4F4E4500 
 3457              	.LASF106:
 3458 05a3 45544845 		.ascii	"ETHERNET_HALF_DUPLEX\000"
 3458      524E4554 
 3458      5F48414C 
 3458      465F4455 
 3458      504C4558 
 3459              	.LASF19:
 3460 05b8 494F5049 		.ascii	"IOPIN\000"
 3460      4E00
 3461              	.LASF73:
 3462 05be 6379675F 		.ascii	"cyg_thread_entry\000"
 3462      74687265 
 3462      61645F65 
 3462      6E747279 
 3462      00
 3463              	.LASF38:
 3464 05cf 7072696F 		.ascii	"priority\000"
 3464      72697479 
 3464      00
 3465              	.LASF18:
 3466 05d8 4359475F 		.ascii	"CYG_ADDRWORD\000"
 3466      41444452 
 3466      574F5244 
 3466      00
 3467              	.LASF166:
 3468 05e5 7569705F 		.ascii	"uip_buf\000"
 3468      62756600 
 3469              	.LASF22:
 3470 05ed 494F434C 		.ascii	"IOCLR\000"
 3470      5200
 3471              	.LASF146:
 3472 05f3 736E645F 		.ascii	"snd_nxt\000"
 3472      6E787400 
 3473              	.LASF97:
 3474 05fb 7370695F 		.ascii	"spi_get_config\000"
 3474      6765745F 
 3474      636F6E66 
 3474      696700
 3475              	.LASF4:
 3476 060a 6379675F 		.ascii	"cyg_uint16\000"
 3476      75696E74 
 3476      313600
 3477              	.LASF113:
 3478 0615 73746172 		.ascii	"start\000"
 3478      7400
 3479              	.LASF138:
 3480 061b 7569705F 		.ascii	"uip_tcp_appstate_t\000"
 3480      7463705F 
ARM GAS  /tmp/ccTFyqST.s 			page 70


 3480      61707073 
 3480      74617465 
 3480      5F7400
 3481              	.LASF162:
 3482 062e 6D61696E 		.ascii	"main_application\000"
 3482      5F617070 
 3482      6C696361 
 3482      74696F6E 
 3482      00
 3483              	.LASF77:
 3484 063f 4359475F 		.ascii	"CYG_REASON_WAIT\000"
 3484      52454153 
 3484      4F4E5F57 
 3484      41495400 
 3485              	.LASF170:
 3486 064f 7569705F 		.ascii	"uip_flags\000"
 3486      666C6167 
 3486      7300
 3487              	.LASF23:
 3488 0659 6379675F 		.ascii	"cyg_addrword_t\000"
 3488      61646472 
 3488      776F7264 
 3488      5F7400
 3489              	.LASF40:
 3490 0668 71756575 		.ascii	"queue\000"
 3490      6500
 3491              	.LASF165:
 3492 066e 7061636B 		.ascii	"packet\000"
 3492      657400
 3493              	.LASF74:
 3494 0675 74687265 		.ascii	"thread\000"
 3494      616400
 3495              	.LASF167:
 3496 067c 7569705F 		.ascii	"uip_appdata\000"
 3496      61707064 
 3496      61746100 
 3497              	.LASF117:
 3498 0688 70736F63 		.ascii	"psock_buf\000"
 3498      6B5F6275 
 3498      6600
 3499              	.LASF72:
 3500 0692 6379675F 		.ascii	"cyg_threadqueue\000"
 3500      74687265 
 3500      61647175 
 3500      65756500 
 3501              	.LASF155:
 3502 06a2 74797065 		.ascii	"type\000"
 3502      00
 3503              	.LASF173:
 3504 06a7 7569705F 		.ascii	"uip_draddr\000"
 3504      64726164 
 3504      647200
 3505              	.LASF1:
 3506 06b2 756E7369 		.ascii	"unsigned char\000"
 3506      676E6564 
 3506      20636861 
 3506      7200
ARM GAS  /tmp/ccTFyqST.s 			page 71


 3507              	.LASF65:
 3508 06c0 6379675F 		.ascii	"cyg_mutex_t\000"
 3508      6D757465 
 3508      785F7400 
 3509              	.LASF177:
 3510 06cc 74657374 		.ascii	"test_uIP.c\000"
 3510      5F754950 
 3510      2E6300
 3511              	.LASF54:
 3512 06d7 6C697374 		.ascii	"list_next\000"
 3512      5F6E6578 
 3512      7400
 3513              	.LASF43:
 3514 06e1 7072696F 		.ascii	"priority_inherited\000"
 3514      72697479 
 3514      5F696E68 
 3514      65726974 
 3514      656400
 3515              	.LASF152:
 3516 06f4 61646472 		.ascii	"addr\000"
 3516      00
 3517              	.LASF44:
 3518 06f9 73746174 		.ascii	"state\000"
 3518      6500
 3519              	.LASF86:
 3520 06ff 4359475F 		.ascii	"CYG_MUTEX_PROTOCOL_INHERIT\000"
 3520      4D555445 
 3520      585F5052 
 3520      4F544F43 
 3520      4F4C5F49 
 3521              	.LASF118:
 3522 071a 6C656674 		.ascii	"left\000"
 3522      00
 3523              	.LASF32:
 3524 071f 73746163 		.ascii	"stack_ptr\000"
 3524      6B5F7074 
 3524      7200
 3525              	.LASF7:
 3526 0729 6379675F 		.ascii	"cyg_uint32\000"
 3526      75696E74 
 3526      333200
 3527              	.LASF142:
 3528 0734 72697061 		.ascii	"ripaddr\000"
 3528      64647200 
 3529              	.LASF179:
 3530 073c 6D61696E 		.ascii	"main_application_init\000"
 3530      5F617070 
 3530      6C696361 
 3530      74696F6E 
 3530      5F696E69 
 3531              	.LASF119:
 3532 0752 70736F63 		.ascii	"psock\000"
 3532      6B00
 3533              	.LASF59:
 3534 0758 6379675F 		.ascii	"cyg_alarm\000"
 3534      616C6172 
 3534      6D00
ARM GAS  /tmp/ccTFyqST.s 			page 72


 3535              	.LASF24:
 3536 0762 6379675F 		.ascii	"cyg_handle_t\000"
 3536      68616E64 
 3536      6C655F74 
 3536      00
 3537              	.LASF2:
 3538 076f 7369676E 		.ascii	"signed char\000"
 3538      65642063 
 3538      68617200 
 3539              	.LASF5:
 3540 077b 73686F72 		.ascii	"short unsigned int\000"
 3540      7420756E 
 3540      7369676E 
 3540      65642069 
 3540      6E7400
 3541              	.LASF103:
 3542 078e 7370695F 		.ascii	"spi_baud\000"
 3542      62617564 
 3542      00
 3543              	.LASF163:
 3544 0797 6D61696E 		.ascii	"main\000"
 3544      00
 3545              	.LASF21:
 3546 079c 494F4449 		.ascii	"IODIR\000"
 3546      5200
 3547              	.LASF131:
 3548 07a2 73637269 		.ascii	"scriptpt\000"
 3548      70747074 
 3548      00
 3549              	.LASF82:
 3550 07ab 4359475F 		.ascii	"CYG_REASON_EXIT\000"
 3550      52454153 
 3550      4F4E5F45 
 3550      58495400 
 3551              	.LASF30:
 3552 07bb 73746163 		.ascii	"stack_size\000"
 3552      6B5F7369 
 3552      7A6500
 3553              	.LASF104:
 3554 07c6 7370695F 		.ascii	"spi_cs\000"
 3554      637300
 3555              	.LASF171:
 3556 07cd 7569705F 		.ascii	"uip_hostaddr\000"
 3556      686F7374 
 3556      61646472 
 3556      00
 3557              	.LASF49:
 3558 07da 74696D65 		.ascii	"timer\000"
 3558      7200
 3559              	.LASF35:
 3560 07e0 73617665 		.ascii	"saved_context\000"
 3560      645F636F 
 3560      6E746578 
 3560      7400
 3561              	.LASF107:
 3562 07ee 45544845 		.ascii	"ETHERNET_FULL_DUPLEX\000"
 3562      524E4554 
ARM GAS  /tmp/ccTFyqST.s 			page 73


 3562      5F46554C 
 3562      4C5F4455 
 3562      504C4558 
 3563              	.LASF149:
 3564 0803 6E727478 		.ascii	"nrtx\000"
 3564      00
 3565              	.LASF154:
 3566 0808 64657374 		.ascii	"dest\000"
 3566      00
 3567              	.LASF150:
 3568 080d 61707073 		.ascii	"appstate\000"
 3568      74617465 
 3568      00
 3569              	.LASF25:
 3570 0816 6379675F 		.ascii	"cyg_priority_t\000"
 3570      7072696F 
 3570      72697479 
 3570      5F7400
 3571              	.LASF75:
 3572 0825 6379675F 		.ascii	"cyg_threadtimer\000"
 3572      74687265 
 3572      61647469 
 3572      6D657200 
 3573              	.LASF84:
 3574 0835 6379675F 		.ascii	"cyg_reason_t\000"
 3574      72656173 
 3574      6F6E5F74 
 3574      00
 3575              		.ident	"GCC: (eCosCentric GNU tools 4.3.2-sw) 4.3.2"
ARM GAS  /tmp/ccTFyqST.s 			page 74


DEFINED SYMBOLS
                            *ABS*:00000000 test_uIP.c
     /tmp/ccTFyqST.s:23     .data.ether_addr:00000000 ether_addr
     /tmp/ccTFyqST.s:24     .data.ether_addr:00000000 $d
     /tmp/ccTFyqST.s:34     .rodata.C.0.2845:00000000 C.0.2845
     /tmp/ccTFyqST.s:35     .rodata.C.0.2845:00000000 $d
     /tmp/ccTFyqST.s:48     .text.uip_setup:00000000 uip_setup
     /tmp/ccTFyqST.s:55     .text.uip_setup:00000000 $a
     /tmp/ccTFyqST.s:153    .text.uip_setup:00000134 $d
                            *COM*:00000008 periodic_timer
                            *COM*:00000008 arp_timer
     /tmp/ccTFyqST.s:170    .text.uip_activity:00000000 uip_activity
     /tmp/ccTFyqST.s:176    .text.uip_activity:00000000 $a
     /tmp/ccTFyqST.s:338    .text.uip_activity:000001d8 $d
     /tmp/ccTFyqST.s:350    .text.gpio_init:00000000 gpio_init
     /tmp/ccTFyqST.s:356    .text.gpio_init:00000000 $a
     /tmp/ccTFyqST.s:410    .text.main_application_init:00000000 main_application_init
     /tmp/ccTFyqST.s:416    .text.main_application_init:00000000 $a
     /tmp/ccTFyqST.s:436    .text.main_application:00000000 main_application
     /tmp/ccTFyqST.s:442    .text.main_application:00000000 $a
     /tmp/ccTFyqST.s:470    .text.main_application:00000048 $d
     /tmp/ccTFyqST.s:483    .text.main:00000000 main
     /tmp/ccTFyqST.s:489    .text.main:00000000 $a
     /tmp/ccTFyqST.s:511    .text.main:00000028 $d
     /tmp/ccTFyqST.s:517    .bss.packet:00000000 packet
     /tmp/ccTFyqST.s:523    .debug_frame:00000000 $d
     /tmp/ccTFyqST.s:691    .debug_loc:00000000 $d

UNDEFINED SYMBOLS
timer_set
Ethernet_init
uip_init
uip_draddr
uip_hostaddr
uip_netmask
Ethernet_receive
uip_process
uip_arp_out
Ethernet_send
uip_arp_arpin
timer_expired
timer_reset
uip_arp_timer
uip_buf
uip_len
uip_conns
uip_conn
uip_listen
uip_send
uip_flags
uip_appdata
diag_printf
