ARM GAS  /tmp/ccbogDaM.s 			page 1


   1              		.cpu arm7tdmi
   2              		.fpu softvfp
   3              		.eabi_attribute 20, 1
   4              		.eabi_attribute 21, 1
   5              		.eabi_attribute 23, 3
   6              		.eabi_attribute 24, 1
   7              		.eabi_attribute 25, 1
   8              		.eabi_attribute 26, 1
   9              		.eabi_attribute 30, 6
  10              		.eabi_attribute 18, 4
  11              		.file	"RTC.c"
  18 0000 6B010000 		.text
  18      02009500 
  18      00000201 
  18      FB0E0D00 
  18      01010101 
  19              	.Ltext0:
  20              		.section	.text.rtc_init,"ax",%progbits
  21              		.align	2
  22              		.global	rtc_init
  23              		.type	rtc_init, %function
  24              	rtc_init:
  25              	.LFB2:
  26              		.file 1 "RTC.c"
   1:RTC.c         **** /*
   2:RTC.c         **** #=======================================================================
   3:RTC.c         **** # SE1   - Sistemas Embebidos 1
   4:RTC.c         **** #-----------------------------------------------------------------------
   5:RTC.c         **** # Turma:	LI51N
   6:RTC.c         **** # Semestre:	Inverno 2010/2011
   7:RTC.c         **** # Data:		Novembro/2010
   8:RTC.c         **** #-----------------------------------------------------------------------
   9:RTC.c         **** # Nome: 	Nuno Cancelo
  10:RTC.c         **** # Numero:	31401
  11:RTC.c         **** #-----------------------------------------------------------------------
  12:RTC.c         **** # Nome:		Nuno Sousa
  13:RTC.c         **** # Numero:	33595
  14:RTC.c         **** #-----------------------------------------------------------------------
  15:RTC.c         **** # LEIC  - Licenciatura em Engenharia Informática e Computadores
  16:RTC.c         **** # DEETC - Dep. de Eng. Electrónica e Telecomunicações e Computadores
  17:RTC.c         **** # ISEL  - Instituto Superior de Engenharia de Lisboa
  18:RTC.c         **** #=======================================================================
  19:RTC.c         **** */
  20:RTC.c         **** /**
  21:RTC.c         ****  * @author Nuno Cancelo, (nuno.cancelo<at>gmail.com)
  22:RTC.c         ****  * @author Nuno Sousa,   (ng.sousa<at>gmail.com)
  23:RTC.c         ****  * @date November/2010
  24:RTC.c         ****  * 
  25:RTC.c         ****  * @file  RTC.c
  26:RTC.c         ****  * @brief Module to configure RTC ports of LPC2106 from Philips
  27:RTC.c         ****  * 
ARM GAS  /tmp/ccbogDaM.s 			page 2


  28:RTC.c         ****  * */
  29:RTC.c         **** #include "RTC.h"
  30:RTC.c         **** /**
  31:RTC.c         ****  * @brief Initialization of the RTC
  32:RTC.c         ****  * */
  33:RTC.c         **** void rtc_init(){
  27              		.loc 1 33 0
  28              		@ Function supports interworking.
  29              		@ args = 0, pretend = 0, frame = 0
  30              		@ frame_needed = 1, uses_anonymous_args = 0
  31 0000 0DC0A0E1 		mov	ip, sp
  32              	.LCFI0:
  33 0004 00D82DE9 		stmfd	sp!, {fp, ip, lr, pc}
  34              	.LCFI1:
  35 0008 04B04CE2 		sub	fp, ip, #4
  36              	.LCFI2:
  34:RTC.c         ****     /*Power: In the PCONP register (Table 3–27), set bit PCRTC = 1.*/
  35:RTC.c         ****     pPLL->CONTROL   |= PCRTC;
  37              		.loc 1 35 0
  38 000c 0E22A0E3 		mov	r2, #-536870912
  39 0010 7F2982E2 		add	r2, r2, #2080768
  40 0014 022B82E2 		add	r2, r2, #2048
  41 0018 0E32A0E3 		mov	r3, #-536870912
  42 001c 7F3983E2 		add	r3, r3, #2080768
  43 0020 023B83E2 		add	r3, r3, #2048
  44 0024 0030D3E5 		ldrb	r3, [r3, #0]	@ zero_extendqisi2
  45 0028 0030C2E5 		strb	r3, [r2, #0]
  36:RTC.c         ****     pRTC->CCR       =  __CCR_CLKEN_DISABLE__|__CCR_CTCRST_ENABLE__;
  46              		.loc 1 36 0
  47 002c 0E32A0E3 		mov	r3, #-536870912
  48 0030 093983E2 		add	r3, r3, #147456
  49 0034 0220A0E3 		mov	r2, #2
  50 0038 0820C3E5 		strb	r2, [r3, #8]
  37:RTC.c         ****     pRTC->PREINT    = LPC_PREINT;
  51              		.loc 1 37 0
  52 003c 0E22A0E3 		mov	r2, #-536870912
  53 0040 092982E2 		add	r2, r2, #147456
  54 0044 073CA0E3 		mov	r3, #1792
  55 0048 073083E2 		add	r3, r3, #7
  56 004c B038C2E1 		strh	r3, [r2, #128]	@ movhi
  38:RTC.c         ****     pRTC->PREFRAC   = LPC_PREFRAC;
  57              		.loc 1 38 0
  58 0050 0E32A0E3 		mov	r3, #-536870912
  59 0054 093983E2 		add	r3, r3, #147456
  60 0058 0020A0E3 		mov	r2, #0
  61 005c B428C3E1 		strh	r2, [r3, #132]	@ movhi
  39:RTC.c         ****     pRTC->ILR       = __ILR_RTCALF_CLEAR__|__ILR_RTCCIF_CLEAR__;
  62              		.loc 1 39 0
  63 0060 0E32A0E3 		mov	r3, #-536870912
  64 0064 093983E2 		add	r3, r3, #147456
  65 0068 0320A0E3 		mov	r2, #3
  66 006c 0020C3E5 		strb	r2, [r3, #0]
  40:RTC.c         ****     pRTC->ILR       = __ILR_RTCALF_DISABLE__|__ILR_RTCCIF_DISABLE__;
  67              		.loc 1 40 0
  68 0070 0E32A0E3 		mov	r3, #-536870912
  69 0074 093983E2 		add	r3, r3, #147456
  70 0078 0020A0E3 		mov	r2, #0
ARM GAS  /tmp/ccbogDaM.s 			page 3


  71 007c 0020C3E5 		strb	r2, [r3, #0]
  41:RTC.c         ****     pRTC->CIIR      = (~(__CIIR_IMDOM__|__CIIR_IMDOW__|__CIIR_IMDOY__|__CIIR_IMHOUR__|__CIIR_IMMIN_
  72              		.loc 1 41 0
  73 0080 0E32A0E3 		mov	r3, #-536870912
  74 0084 093983E2 		add	r3, r3, #147456
  75 0088 0020A0E3 		mov	r2, #0
  76 008c 0C20C3E5 		strb	r2, [r3, #12]
  42:RTC.c         ****     pRTC->AMR       = __AMRDOM__|__AMRDOW__|__AMRDOY__|__AMRHOUR__|__AMRMIN__|__AMRMON__|__AMRSEC__
  77              		.loc 1 42 0
  78 0090 0E32A0E3 		mov	r3, #-536870912
  79 0094 093983E2 		add	r3, r3, #147456
  80 0098 0020E0E3 		mvn	r2, #0
  81 009c 1020C3E5 		strb	r2, [r3, #16]
  43:RTC.c         ****     rtc_initCalendar();
  82              		.loc 1 43 0
  83 00a0 FEFFFFEB 		bl	rtc_initCalendar
  44:RTC.c         ****     pRTC->CCR       = __CCR_CLKEN_ENABLE__|__CCR_CTCRST_DISABLE__;
  84              		.loc 1 44 0
  85 00a4 0E32A0E3 		mov	r3, #-536870912
  86 00a8 093983E2 		add	r3, r3, #147456
  87 00ac 0120A0E3 		mov	r2, #1
  88 00b0 0820C3E5 		strb	r2, [r3, #8]
  45:RTC.c         **** }
  89              		.loc 1 45 0
  90 00b4 0CD04BE2 		sub	sp, fp, #12
  91 00b8 00689DE8 		ldmfd	sp, {fp, sp, lr}
  92 00bc 1EFF2FE1 		bx	lr
  93              	.LFE2:
  94              		.size	rtc_init, .-rtc_init
  95              		.section	.text.rtc_getDate,"ax",%progbits
  96              		.align	2
  97              		.global	rtc_getDate
  98              		.type	rtc_getDate, %function
  99              	rtc_getDate:
 100              	.LFB3:
  46:RTC.c         **** 
  47:RTC.c         **** /**
  48:RTC.c         ****  * @brief Get the date from the RTC
  49:RTC.c         ****  * @param date: pointer to an DATE structure, that will be filled.
  50:RTC.c         ****  * */
  51:RTC.c         **** void rtc_getDate(DATE* date){
 101              		.loc 1 51 0
 102              		@ Function supports interworking.
 103              		@ args = 0, pretend = 0, frame = 8
 104              		@ frame_needed = 1, uses_anonymous_args = 0
 105 0000 0DC0A0E1 		mov	ip, sp
 106              	.LCFI3:
 107 0004 00D82DE9 		stmfd	sp!, {fp, ip, lr, pc}
 108              	.LCFI4:
 109 0008 04B04CE2 		sub	fp, ip, #4
 110              	.LCFI5:
 111 000c 08D04DE2 		sub	sp, sp, #8
 112              	.LCFI6:
 113 0010 10000BE5 		str	r0, [fp, #-16]
  52:RTC.c         ****     date->year   = rtc_getYear();
 114              		.loc 1 52 0
 115 0014 0E32A0E3 		mov	r3, #-536870912
ARM GAS  /tmp/ccbogDaM.s 			page 4


 116 0018 093983E2 		add	r3, r3, #147456
 117 001c 183093E5 		ldr	r3, [r3, #24]
 118 0020 2338A0E1 		mov	r3, r3, lsr #16
 119 0024 0338A0E1 		mov	r3, r3, asl #16
 120 0028 2338A0E1 		mov	r3, r3, lsr #16
 121 002c 14300BE5 		str	r3, [fp, #-20]
 122 0030 14201BE5 		ldr	r2, [fp, #-20]
 123 0034 023AA0E1 		mov	r3, r2, asl #20
 124 0038 233AA0E1 		mov	r3, r3, lsr #20
 125 003c 14300BE5 		str	r3, [fp, #-20]
 126 0040 10301BE5 		ldr	r3, [fp, #-16]
 127 0044 14201BE5 		ldr	r2, [fp, #-20]
 128 0048 B020C3E1 		strh	r2, [r3, #0]	@ movhi
  53:RTC.c         ****     date->month  = rtc_getMonth();
 129              		.loc 1 53 0
 130 004c 0E32A0E3 		mov	r3, #-536870912
 131 0050 093983E2 		add	r3, r3, #147456
 132 0054 183093E5 		ldr	r3, [r3, #24]
 133 0058 2334A0E1 		mov	r3, r3, lsr #8
 134 005c FF3003E2 		and	r3, r3, #255
 135 0060 0F3003E2 		and	r3, r3, #15
 136 0064 10201BE5 		ldr	r2, [fp, #-16]
 137 0068 0230C2E5 		strb	r3, [r2, #2]
  54:RTC.c         ****     date->day    = rtc_getDom();
 138              		.loc 1 54 0
 139 006c 0E32A0E3 		mov	r3, #-536870912
 140 0070 093983E2 		add	r3, r3, #147456
 141 0074 183093E5 		ldr	r3, [r3, #24]
 142 0078 FF3003E2 		and	r3, r3, #255
 143 007c 1F3003E2 		and	r3, r3, #31
 144 0080 10201BE5 		ldr	r2, [fp, #-16]
 145 0084 0330C2E5 		strb	r3, [r2, #3]
  55:RTC.c         **** }
 146              		.loc 1 55 0
 147 0088 0CD04BE2 		sub	sp, fp, #12
 148 008c 00689DE8 		ldmfd	sp, {fp, sp, lr}
 149 0090 1EFF2FE1 		bx	lr
 150              	.LFE3:
 151              		.size	rtc_getDate, .-rtc_getDate
 152              		.section	.text.rtc_getTime,"ax",%progbits
 153              		.align	2
 154              		.global	rtc_getTime
 155              		.type	rtc_getTime, %function
 156              	rtc_getTime:
 157              	.LFB4:
  56:RTC.c         **** 
  57:RTC.c         **** /**
  58:RTC.c         ****  * @brief Get the time from the RTC
  59:RTC.c         ****  * @param time: pointer to an TIME structure, that will be filled.
  60:RTC.c         ****  */
  61:RTC.c         **** void rtc_getTime(TIME* time){
 158              		.loc 1 61 0
 159              		@ Function supports interworking.
 160              		@ args = 0, pretend = 0, frame = 8
 161              		@ frame_needed = 1, uses_anonymous_args = 0
 162 0000 0DC0A0E1 		mov	ip, sp
 163              	.LCFI7:
ARM GAS  /tmp/ccbogDaM.s 			page 5


 164 0004 00D82DE9 		stmfd	sp!, {fp, ip, lr, pc}
 165              	.LCFI8:
 166 0008 04B04CE2 		sub	fp, ip, #4
 167              	.LCFI9:
 168 000c 08D04DE2 		sub	sp, sp, #8
 169              	.LCFI10:
 170 0010 10000BE5 		str	r0, [fp, #-16]
  62:RTC.c         ****     time->hour   = rtc_getHour();
 171              		.loc 1 62 0
 172 0014 0E32A0E3 		mov	r3, #-536870912
 173 0018 093983E2 		add	r3, r3, #147456
 174 001c 143093E5 		ldr	r3, [r3, #20]
 175 0020 2338A0E1 		mov	r3, r3, lsr #16
 176 0024 FF3003E2 		and	r3, r3, #255
 177 0028 1F3003E2 		and	r3, r3, #31
 178 002c 10201BE5 		ldr	r2, [fp, #-16]
 179 0030 0030C2E5 		strb	r3, [r2, #0]
  63:RTC.c         ****     time->minute = rtc_getMin();
 180              		.loc 1 63 0
 181 0034 0E32A0E3 		mov	r3, #-536870912
 182 0038 093983E2 		add	r3, r3, #147456
 183 003c 143093E5 		ldr	r3, [r3, #20]
 184 0040 2334A0E1 		mov	r3, r3, lsr #8
 185 0044 FF3003E2 		and	r3, r3, #255
 186 0048 3F3003E2 		and	r3, r3, #63
 187 004c 10201BE5 		ldr	r2, [fp, #-16]
 188 0050 0130C2E5 		strb	r3, [r2, #1]
  64:RTC.c         ****     time->second =  rtc_getSec();
 189              		.loc 1 64 0
 190 0054 0E32A0E3 		mov	r3, #-536870912
 191 0058 093983E2 		add	r3, r3, #147456
 192 005c 143093E5 		ldr	r3, [r3, #20]
 193 0060 FF3003E2 		and	r3, r3, #255
 194 0064 3F3003E2 		and	r3, r3, #63
 195 0068 10201BE5 		ldr	r2, [fp, #-16]
 196 006c 0230C2E5 		strb	r3, [r2, #2]
  65:RTC.c         **** }
 197              		.loc 1 65 0
 198 0070 0CD04BE2 		sub	sp, fp, #12
 199 0074 00689DE8 		ldmfd	sp, {fp, sp, lr}
 200 0078 1EFF2FE1 		bx	lr
 201              	.LFE4:
 202              		.size	rtc_getTime, .-rtc_getTime
 203              		.section	.text.rtc_initCalendar,"ax",%progbits
 204              		.align	2
 205              		.global	rtc_initCalendar
 206              		.type	rtc_initCalendar, %function
 207              	rtc_initCalendar:
 208              	.LFB5:
  66:RTC.c         **** 
  67:RTC.c         **** /**
  68:RTC.c         ****  * @brief Set the default values in the rtc. Should be used as an reset of the RTC.
  69:RTC.c         ****  * */
  70:RTC.c         **** void rtc_initCalendar(){
 209              		.loc 1 70 0
 210              		@ Function supports interworking.
 211              		@ args = 0, pretend = 0, frame = 0
ARM GAS  /tmp/ccbogDaM.s 			page 6


 212              		@ frame_needed = 1, uses_anonymous_args = 0
 213 0000 0DC0A0E1 		mov	ip, sp
 214              	.LCFI11:
 215 0004 00D82DE9 		stmfd	sp!, {fp, ip, lr, pc}
 216              	.LCFI12:
 217 0008 04B04CE2 		sub	fp, ip, #4
 218              	.LCFI13:
  71:RTC.c         ****   rtc_setDate(__DEFAULT_YEAR__,__DEFAULT_MONTH__,__DEFAULT_DAY__);
 219              		.loc 1 71 0
 220 000c 7D0EA0E3 		mov	r0, #2000
 221 0010 0A0080E2 		add	r0, r0, #10
 222 0014 0110A0E3 		mov	r1, #1
 223 0018 0120A0E3 		mov	r2, #1
 224 001c FEFFFFEB 		bl	rtc_setDate
  72:RTC.c         ****   rtc_setTime(__DEFAULT_HOUR__,__DEFAULT_MINUTE__,__DEFAULT_SECOND__);
 225              		.loc 1 72 0
 226 0020 0000A0E3 		mov	r0, #0
 227 0024 0010A0E3 		mov	r1, #0
 228 0028 0020A0E3 		mov	r2, #0
 229 002c FEFFFFEB 		bl	rtc_setTime
  73:RTC.c         ****   rtc_setDOW(__DEFAULT_DOW__);
 230              		.loc 1 73 0
 231 0030 0500A0E3 		mov	r0, #5
 232 0034 FEFFFFEB 		bl	rtc_setDOW
  74:RTC.c         ****   rtc_setDOY(__DEFAULT_DOY__);
 233              		.loc 1 74 0
 234 0038 0100A0E3 		mov	r0, #1
 235 003c FEFFFFEB 		bl	rtc_setDOY
  75:RTC.c         **** }
 236              		.loc 1 75 0
 237 0040 0CD04BE2 		sub	sp, fp, #12
 238 0044 00689DE8 		ldmfd	sp, {fp, sp, lr}
 239 0048 1EFF2FE1 		bx	lr
 240              	.LFE5:
 241              		.size	rtc_initCalendar, .-rtc_initCalendar
 242              		.section	.text.rtc_setDate,"ax",%progbits
 243              		.align	2
 244              		.global	rtc_setDate
 245              		.type	rtc_setDate, %function
 246              	rtc_setDate:
 247              	.LFB6:
  76:RTC.c         **** 
  77:RTC.c         **** /**
  78:RTC.c         ****  * @brief set the date in RTC. Parameters should be validated before calling the method
  79:RTC.c         ****  * @param year: Year of the date
  80:RTC.c         ****  * @param month: Month of the date. Should be an valid month between 1 and 12.
  81:RTC.c         ****  * @param day: Day of the month. Should be an valid day of month.
  82:RTC.c         ****  * */
  83:RTC.c         **** void rtc_setDate(U16 year,U8 month, U8 day){
 248              		.loc 1 83 0
 249              		@ Function supports interworking.
 250              		@ args = 0, pretend = 0, frame = 8
 251              		@ frame_needed = 1, uses_anonymous_args = 0
 252 0000 0DC0A0E1 		mov	ip, sp
 253              	.LCFI14:
 254 0004 00D82DE9 		stmfd	sp!, {fp, ip, lr, pc}
 255              	.LCFI15:
ARM GAS  /tmp/ccbogDaM.s 			page 7


 256 0008 04B04CE2 		sub	fp, ip, #4
 257              	.LCFI16:
 258 000c 08D04DE2 		sub	sp, sp, #8
 259              	.LCFI17:
 260 0010 0030A0E1 		mov	r3, r0
 261 0014 BE304BE1 		strh	r3, [fp, #-14]	@ movhi
 262 0018 0130A0E1 		mov	r3, r1
 263 001c 0F304BE5 		strb	r3, [fp, #-15]
 264 0020 0230A0E1 		mov	r3, r2
 265 0024 10304BE5 		strb	r3, [fp, #-16]
  84:RTC.c         **** 	rtc_setDom(day);
 266              		.loc 1 84 0
 267 0028 0E22A0E3 		mov	r2, #-536870912
 268 002c 092982E2 		add	r2, r2, #147456
 269 0030 10305BE5 		ldrb	r3, [fp, #-16]	@ zero_extendqisi2
 270 0034 1F3003E2 		and	r3, r3, #31
 271 0038 2C30C2E5 		strb	r3, [r2, #44]
  85:RTC.c         **** 	rtc_setMonth(month);
 272              		.loc 1 85 0
 273 003c 0E22A0E3 		mov	r2, #-536870912
 274 0040 092982E2 		add	r2, r2, #147456
 275 0044 0F305BE5 		ldrb	r3, [fp, #-15]	@ zero_extendqisi2
 276 0048 0F3003E2 		and	r3, r3, #15
 277 004c 3830C2E5 		strb	r3, [r2, #56]
  86:RTC.c         **** 	rtc_setYear(year);
 278              		.loc 1 86 0
 279 0050 0E22A0E3 		mov	r2, #-536870912
 280 0054 092982E2 		add	r2, r2, #147456
 281 0058 BE105BE1 		ldrh	r1, [fp, #-14]
 282 005c 14100BE5 		str	r1, [fp, #-20]
 283 0060 14101BE5 		ldr	r1, [fp, #-20]
 284 0064 013AA0E1 		mov	r3, r1, asl #20
 285 0068 233AA0E1 		mov	r3, r3, lsr #20
 286 006c 14300BE5 		str	r3, [fp, #-20]
 287 0070 14301BE5 		ldr	r3, [fp, #-20]
 288 0074 BC33C2E1 		strh	r3, [r2, #60]	@ movhi
  87:RTC.c         **** }
 289              		.loc 1 87 0
 290 0078 0CD04BE2 		sub	sp, fp, #12
 291 007c 00689DE8 		ldmfd	sp, {fp, sp, lr}
 292 0080 1EFF2FE1 		bx	lr
 293              	.LFE6:
 294              		.size	rtc_setDate, .-rtc_setDate
 295              		.section	.text.rtc_setTime,"ax",%progbits
 296              		.align	2
 297              		.global	rtc_setTime
 298              		.type	rtc_setTime, %function
 299              	rtc_setTime:
 300              	.LFB7:
  88:RTC.c         **** /**
  89:RTC.c         ****  * @brief set the time in RTC. Parameters should be validated before calling the method
  90:RTC.c         ****  * @param hour: Hour of time. Should be an valid value between 0 and 23
  91:RTC.c         ****  * @param minute: Minute of the time. Should be an valid value between 0 and 59.
  92:RTC.c         ****  * @param seconds: Second of the time. Should be an valid value between 0-59.
  93:RTC.c         ****  * */
  94:RTC.c         **** void rtc_setTime(U8 hour,U8 minute, U8 seconds){
 301              		.loc 1 94 0
ARM GAS  /tmp/ccbogDaM.s 			page 8


 302              		@ Function supports interworking.
 303              		@ args = 0, pretend = 0, frame = 8
 304              		@ frame_needed = 1, uses_anonymous_args = 0
 305 0000 0DC0A0E1 		mov	ip, sp
 306              	.LCFI18:
 307 0004 00D82DE9 		stmfd	sp!, {fp, ip, lr, pc}
 308              	.LCFI19:
 309 0008 04B04CE2 		sub	fp, ip, #4
 310              	.LCFI20:
 311 000c 08D04DE2 		sub	sp, sp, #8
 312              	.LCFI21:
 313 0010 0030A0E1 		mov	r3, r0
 314 0014 0D304BE5 		strb	r3, [fp, #-13]
 315 0018 0130A0E1 		mov	r3, r1
 316 001c 0E304BE5 		strb	r3, [fp, #-14]
 317 0020 0230A0E1 		mov	r3, r2
 318 0024 0F304BE5 		strb	r3, [fp, #-15]
  95:RTC.c         ****     pRTC->CCR       =  __CCR_CLKEN_DISABLE__|__CCR_CTCRST_ENABLE__;
 319              		.loc 1 95 0
 320 0028 0E32A0E3 		mov	r3, #-536870912
 321 002c 093983E2 		add	r3, r3, #147456
 322 0030 0220A0E3 		mov	r2, #2
 323 0034 0820C3E5 		strb	r2, [r3, #8]
  96:RTC.c         **** 	rtc_setHour(hour);
 324              		.loc 1 96 0
 325 0038 0E22A0E3 		mov	r2, #-536870912
 326 003c 092982E2 		add	r2, r2, #147456
 327 0040 0D305BE5 		ldrb	r3, [fp, #-13]	@ zero_extendqisi2
 328 0044 1F3003E2 		and	r3, r3, #31
 329 0048 2830C2E5 		strb	r3, [r2, #40]
  97:RTC.c         **** 	rtc_setMin(minute);
 330              		.loc 1 97 0
 331 004c 0E22A0E3 		mov	r2, #-536870912
 332 0050 092982E2 		add	r2, r2, #147456
 333 0054 0E305BE5 		ldrb	r3, [fp, #-14]	@ zero_extendqisi2
 334 0058 3F3003E2 		and	r3, r3, #63
 335 005c 2430C2E5 		strb	r3, [r2, #36]
  98:RTC.c         **** 	rtc_setSec(seconds);
 336              		.loc 1 98 0
 337 0060 0E22A0E3 		mov	r2, #-536870912
 338 0064 092982E2 		add	r2, r2, #147456
 339 0068 0F305BE5 		ldrb	r3, [fp, #-15]	@ zero_extendqisi2
 340 006c 3F3003E2 		and	r3, r3, #63
 341 0070 2030C2E5 		strb	r3, [r2, #32]
  99:RTC.c         ****     pRTC->CCR       = __CCR_CLKEN_ENABLE__|__CCR_CTCRST_DISABLE__;  
 342              		.loc 1 99 0
 343 0074 0E32A0E3 		mov	r3, #-536870912
 344 0078 093983E2 		add	r3, r3, #147456
 345 007c 0120A0E3 		mov	r2, #1
 346 0080 0820C3E5 		strb	r2, [r3, #8]
 100:RTC.c         **** }
 347              		.loc 1 100 0
 348 0084 0CD04BE2 		sub	sp, fp, #12
 349 0088 00689DE8 		ldmfd	sp, {fp, sp, lr}
 350 008c 1EFF2FE1 		bx	lr
 351              	.LFE7:
 352              		.size	rtc_setTime, .-rtc_setTime
ARM GAS  /tmp/ccbogDaM.s 			page 9


 353              		.section	.text.rtc_setDOW,"ax",%progbits
 354              		.align	2
 355              		.global	rtc_setDOW
 356              		.type	rtc_setDOW, %function
 357              	rtc_setDOW:
 358              	.LFB8:
 101:RTC.c         **** 
 102:RTC.c         **** /**
 103:RTC.c         ****  * @brief Set day of the week. Parameters should be validated before calling the method
 104:RTC.c         ****  * @param dow: Day of the week. Should be an valid value between 0-6.
 105:RTC.c         ****  * */
 106:RTC.c         **** void rtc_setDOW(U8 dow){
 359              		.loc 1 106 0
 360              		@ Function supports interworking.
 361              		@ args = 0, pretend = 0, frame = 8
 362              		@ frame_needed = 1, uses_anonymous_args = 0
 363 0000 0DC0A0E1 		mov	ip, sp
 364              	.LCFI22:
 365 0004 00D82DE9 		stmfd	sp!, {fp, ip, lr, pc}
 366              	.LCFI23:
 367 0008 04B04CE2 		sub	fp, ip, #4
 368              	.LCFI24:
 369 000c 08D04DE2 		sub	sp, sp, #8
 370              	.LCFI25:
 371 0010 0030A0E1 		mov	r3, r0
 372 0014 0D304BE5 		strb	r3, [fp, #-13]
 107:RTC.c         ****   pRTC->DOW   = dow & __DOW_MASK__;
 373              		.loc 1 107 0
 374 0018 0E22A0E3 		mov	r2, #-536870912
 375 001c 092982E2 		add	r2, r2, #147456
 376 0020 0D305BE5 		ldrb	r3, [fp, #-13]	@ zero_extendqisi2
 377 0024 073003E2 		and	r3, r3, #7
 378 0028 3030C2E5 		strb	r3, [r2, #48]
 108:RTC.c         **** }
 379              		.loc 1 108 0
 380 002c 0CD04BE2 		sub	sp, fp, #12
 381 0030 00689DE8 		ldmfd	sp, {fp, sp, lr}
 382 0034 1EFF2FE1 		bx	lr
 383              	.LFE8:
 384              		.size	rtc_setDOW, .-rtc_setDOW
 385              		.section	.text.rtc_setDOY,"ax",%progbits
 386              		.align	2
 387              		.global	rtc_setDOY
 388              		.type	rtc_setDOY, %function
 389              	rtc_setDOY:
 390              	.LFB9:
 109:RTC.c         **** 
 110:RTC.c         **** /**
 111:RTC.c         ****  * @brief Set day of the year. Parameters should be validated before calling the method
 112:RTC.c         ****  * @param doy: Day of the year. Should be an valid value between 1-365(366).
 113:RTC.c         ****  * */
 114:RTC.c         **** void rtc_setDOY(U16 doy){
 391              		.loc 1 114 0
 392              		@ Function supports interworking.
 393              		@ args = 0, pretend = 0, frame = 8
 394              		@ frame_needed = 1, uses_anonymous_args = 0
 395 0000 0DC0A0E1 		mov	ip, sp
ARM GAS  /tmp/ccbogDaM.s 			page 10


 396              	.LCFI26:
 397 0004 00D82DE9 		stmfd	sp!, {fp, ip, lr, pc}
 398              	.LCFI27:
 399 0008 04B04CE2 		sub	fp, ip, #4
 400              	.LCFI28:
 401 000c 08D04DE2 		sub	sp, sp, #8
 402              	.LCFI29:
 403 0010 0030A0E1 		mov	r3, r0
 404 0014 BE304BE1 		strh	r3, [fp, #-14]	@ movhi
 115:RTC.c         ****     pRTC->DOY   = doy & __DOY_MASK__;
 405              		.loc 1 115 0
 406 0018 0E22A0E3 		mov	r2, #-536870912
 407 001c 092982E2 		add	r2, r2, #147456
 408 0020 BE105BE1 		ldrh	r1, [fp, #-14]
 409 0024 14100BE5 		str	r1, [fp, #-20]
 410 0028 14101BE5 		ldr	r1, [fp, #-20]
 411 002c 813BA0E1 		mov	r3, r1, asl #23
 412 0030 A33BA0E1 		mov	r3, r3, lsr #23
 413 0034 14300BE5 		str	r3, [fp, #-20]
 414 0038 14301BE5 		ldr	r3, [fp, #-20]
 415 003c B433C2E1 		strh	r3, [r2, #52]	@ movhi
 116:RTC.c         **** }
 416              		.loc 1 116 0
 417 0040 0CD04BE2 		sub	sp, fp, #12
 418 0044 00689DE8 		ldmfd	sp, {fp, sp, lr}
 419 0048 1EFF2FE1 		bx	lr
 420              	.LFE9:
 421              		.size	rtc_setDOY, .-rtc_setDOY
 422              		.section	.text.rtc_setDateTime,"ax",%progbits
 423              		.align	2
 424              		.global	rtc_setDateTime
 425              		.type	rtc_setDateTime, %function
 426              	rtc_setDateTime:
 427              	.LFB10:
 117:RTC.c         **** 
 118:RTC.c         **** /**
 119:RTC.c         ****  * @brief set the date in RTC. Parameters should be validated before calling the method
 120:RTC.c         ****  * @param datetime: Pointer to an DATE_TIME structure with valid values of Date and Time structures
 121:RTC.c         ****  * */
 122:RTC.c         **** void rtc_setDateTime(DATE_TIME* datetime){
 428              		.loc 1 122 0
 429              		@ Function supports interworking.
 430              		@ args = 0, pretend = 0, frame = 8
 431              		@ frame_needed = 1, uses_anonymous_args = 0
 432 0000 0DC0A0E1 		mov	ip, sp
 433              	.LCFI30:
 434 0004 00D82DE9 		stmfd	sp!, {fp, ip, lr, pc}
 435              	.LCFI31:
 436 0008 04B04CE2 		sub	fp, ip, #4
 437              	.LCFI32:
 438 000c 08D04DE2 		sub	sp, sp, #8
 439              	.LCFI33:
 440 0010 10000BE5 		str	r0, [fp, #-16]
 123:RTC.c         ****   rtc_setDate(datetime->date.year,datetime->date.month,datetime->date.day);
 441              		.loc 1 123 0
 442 0014 10301BE5 		ldr	r3, [fp, #-16]
 443 0018 B020D3E1 		ldrh	r2, [r3, #0]
ARM GAS  /tmp/ccbogDaM.s 			page 11


 444 001c 10301BE5 		ldr	r3, [fp, #-16]
 445 0020 0210D3E5 		ldrb	r1, [r3, #2]	@ zero_extendqisi2
 446 0024 10301BE5 		ldr	r3, [fp, #-16]
 447 0028 0330D3E5 		ldrb	r3, [r3, #3]	@ zero_extendqisi2
 448 002c 0200A0E1 		mov	r0, r2
 449 0030 0320A0E1 		mov	r2, r3
 450 0034 FEFFFFEB 		bl	rtc_setDate
 124:RTC.c         ****   rtc_setTime(datetime->time.hour,datetime->time.minute,datetime->time.second);
 451              		.loc 1 124 0
 452 0038 10301BE5 		ldr	r3, [fp, #-16]
 453 003c 0820D3E5 		ldrb	r2, [r3, #8]	@ zero_extendqisi2
 454 0040 10301BE5 		ldr	r3, [fp, #-16]
 455 0044 0910D3E5 		ldrb	r1, [r3, #9]	@ zero_extendqisi2
 456 0048 10301BE5 		ldr	r3, [fp, #-16]
 457 004c 0A30D3E5 		ldrb	r3, [r3, #10]	@ zero_extendqisi2
 458 0050 0200A0E1 		mov	r0, r2
 459 0054 0320A0E1 		mov	r2, r3
 460 0058 FEFFFFEB 		bl	rtc_setTime
 125:RTC.c         **** }
 461              		.loc 1 125 0
 462 005c 0CD04BE2 		sub	sp, fp, #12
 463 0060 00689DE8 		ldmfd	sp, {fp, sp, lr}
 464 0064 1EFF2FE1 		bx	lr
 465              	.LFE10:
 466              		.size	rtc_setDateTime, .-rtc_setDateTime
 467              		.section	.text.rtc_getDateTime,"ax",%progbits
 468              		.align	2
 469              		.global	rtc_getDateTime
 470              		.type	rtc_getDateTime, %function
 471              	rtc_getDateTime:
 472              	.LFB11:
 126:RTC.c         **** /**
 127:RTC.c         ****  * @brief get the date in RTC. 
 128:RTC.c         ****  * @param datetime: Pointer to an DATE_TIME structure which will be set.
 129:RTC.c         ****  * */
 130:RTC.c         **** void rtc_getDateTime(DATE_TIME* datetime){
 473              		.loc 1 130 0
 474              		@ Function supports interworking.
 475              		@ args = 0, pretend = 0, frame = 8
 476              		@ frame_needed = 1, uses_anonymous_args = 0
 477 0000 0DC0A0E1 		mov	ip, sp
 478              	.LCFI34:
 479 0004 00D82DE9 		stmfd	sp!, {fp, ip, lr, pc}
 480              	.LCFI35:
 481 0008 04B04CE2 		sub	fp, ip, #4
 482              	.LCFI36:
 483 000c 08D04DE2 		sub	sp, sp, #8
 484              	.LCFI37:
 485 0010 10000BE5 		str	r0, [fp, #-16]
 131:RTC.c         ****   rtc_getDate(&(datetime->date));
 486              		.loc 1 131 0
 487 0014 10301BE5 		ldr	r3, [fp, #-16]
 488 0018 0300A0E1 		mov	r0, r3
 489 001c FEFFFFEB 		bl	rtc_getDate
 132:RTC.c         ****   rtc_getTime(&(datetime->time));
 490              		.loc 1 132 0
 491 0020 10301BE5 		ldr	r3, [fp, #-16]
ARM GAS  /tmp/ccbogDaM.s 			page 12


 492 0024 083083E2 		add	r3, r3, #8
 493 0028 0300A0E1 		mov	r0, r3
 494 002c FEFFFFEB 		bl	rtc_getTime
 133:RTC.c         **** }
 495              		.loc 1 133 0
 496 0030 0CD04BE2 		sub	sp, fp, #12
 497 0034 00689DE8 		ldmfd	sp, {fp, sp, lr}
 498 0038 1EFF2FE1 		bx	lr
 499              	.LFE11:
 500              		.size	rtc_getDateTime, .-rtc_getDateTime
 501              		.section	.debug_frame,"",%progbits
 502              	.Lframe0:
 503 0000 0C000000 		.4byte	.LECIE0-.LSCIE0
 504              	.LSCIE0:
 505 0004 FFFFFFFF 		.4byte	0xffffffff
 506 0008 01       		.byte	0x1
 507 0009 00       		.ascii	"\000"
 508 000a 01       		.uleb128 0x1
 509 000b 7C       		.sleb128 -4
 510 000c 0E       		.byte	0xe
 511 000d 0C       		.byte	0xc
 512 000e 0D       		.uleb128 0xd
 513 000f 00       		.uleb128 0x0
 514              		.align	2
 515              	.LECIE0:
 516              	.LSFDE0:
 517 0010 1C000000 		.4byte	.LEFDE0-.LASFDE0
 518              	.LASFDE0:
 519 0014 00000000 		.4byte	.Lframe0
 520 0018 00000000 		.4byte	.LFB2
 521 001c C0000000 		.4byte	.LFE2-.LFB2
 522 0020 44       		.byte	0x4
 523              		.4byte	.LCFI0-.LFB2
 524 0021 0D       		.byte	0xd
 525 0022 0C       		.uleb128 0xc
 526 0023 44       		.byte	0x4
 527              		.4byte	.LCFI1-.LCFI0
 528 0024 8E       		.byte	0x8e
 529 0025 02       		.uleb128 0x2
 530 0026 8D       		.byte	0x8d
 531 0027 03       		.uleb128 0x3
 532 0028 8B       		.byte	0x8b
 533 0029 04       		.uleb128 0x4
 534 002a 44       		.byte	0x4
 535              		.4byte	.LCFI2-.LCFI1
 536 002b 0C       		.byte	0xc
 537 002c 0B       		.uleb128 0xb
 538 002d 04       		.uleb128 0x4
 539 002e 0000     		.align	2
 540              	.LEFDE0:
 541              	.LSFDE2:
 542 0030 1C000000 		.4byte	.LEFDE2-.LASFDE2
 543              	.LASFDE2:
 544 0034 00000000 		.4byte	.Lframe0
 545 0038 00000000 		.4byte	.LFB3
 546 003c 94000000 		.4byte	.LFE3-.LFB3
 547 0040 44       		.byte	0x4
ARM GAS  /tmp/ccbogDaM.s 			page 13


 548              		.4byte	.LCFI3-.LFB3
 549 0041 0D       		.byte	0xd
 550 0042 0C       		.uleb128 0xc
 551 0043 44       		.byte	0x4
 552              		.4byte	.LCFI4-.LCFI3
 553 0044 8E       		.byte	0x8e
 554 0045 02       		.uleb128 0x2
 555 0046 8D       		.byte	0x8d
 556 0047 03       		.uleb128 0x3
 557 0048 8B       		.byte	0x8b
 558 0049 04       		.uleb128 0x4
 559 004a 44       		.byte	0x4
 560              		.4byte	.LCFI5-.LCFI4
 561 004b 0C       		.byte	0xc
 562 004c 0B       		.uleb128 0xb
 563 004d 04       		.uleb128 0x4
 564 004e 0000     		.align	2
 565              	.LEFDE2:
 566              	.LSFDE4:
 567 0050 1C000000 		.4byte	.LEFDE4-.LASFDE4
 568              	.LASFDE4:
 569 0054 00000000 		.4byte	.Lframe0
 570 0058 00000000 		.4byte	.LFB4
 571 005c 7C000000 		.4byte	.LFE4-.LFB4
 572 0060 44       		.byte	0x4
 573              		.4byte	.LCFI7-.LFB4
 574 0061 0D       		.byte	0xd
 575 0062 0C       		.uleb128 0xc
 576 0063 44       		.byte	0x4
 577              		.4byte	.LCFI8-.LCFI7
 578 0064 8E       		.byte	0x8e
 579 0065 02       		.uleb128 0x2
 580 0066 8D       		.byte	0x8d
 581 0067 03       		.uleb128 0x3
 582 0068 8B       		.byte	0x8b
 583 0069 04       		.uleb128 0x4
 584 006a 44       		.byte	0x4
 585              		.4byte	.LCFI9-.LCFI8
 586 006b 0C       		.byte	0xc
 587 006c 0B       		.uleb128 0xb
 588 006d 04       		.uleb128 0x4
 589 006e 0000     		.align	2
 590              	.LEFDE4:
 591              	.LSFDE6:
 592 0070 1C000000 		.4byte	.LEFDE6-.LASFDE6
 593              	.LASFDE6:
 594 0074 00000000 		.4byte	.Lframe0
 595 0078 00000000 		.4byte	.LFB5
 596 007c 4C000000 		.4byte	.LFE5-.LFB5
 597 0080 44       		.byte	0x4
 598              		.4byte	.LCFI11-.LFB5
 599 0081 0D       		.byte	0xd
 600 0082 0C       		.uleb128 0xc
 601 0083 44       		.byte	0x4
 602              		.4byte	.LCFI12-.LCFI11
 603 0084 8E       		.byte	0x8e
 604 0085 02       		.uleb128 0x2
ARM GAS  /tmp/ccbogDaM.s 			page 14


 605 0086 8D       		.byte	0x8d
 606 0087 03       		.uleb128 0x3
 607 0088 8B       		.byte	0x8b
 608 0089 04       		.uleb128 0x4
 609 008a 44       		.byte	0x4
 610              		.4byte	.LCFI13-.LCFI12
 611 008b 0C       		.byte	0xc
 612 008c 0B       		.uleb128 0xb
 613 008d 04       		.uleb128 0x4
 614 008e 0000     		.align	2
 615              	.LEFDE6:
 616              	.LSFDE8:
 617 0090 1C000000 		.4byte	.LEFDE8-.LASFDE8
 618              	.LASFDE8:
 619 0094 00000000 		.4byte	.Lframe0
 620 0098 00000000 		.4byte	.LFB6
 621 009c 84000000 		.4byte	.LFE6-.LFB6
 622 00a0 44       		.byte	0x4
 623              		.4byte	.LCFI14-.LFB6
 624 00a1 0D       		.byte	0xd
 625 00a2 0C       		.uleb128 0xc
 626 00a3 44       		.byte	0x4
 627              		.4byte	.LCFI15-.LCFI14
 628 00a4 8E       		.byte	0x8e
 629 00a5 02       		.uleb128 0x2
 630 00a6 8D       		.byte	0x8d
 631 00a7 03       		.uleb128 0x3
 632 00a8 8B       		.byte	0x8b
 633 00a9 04       		.uleb128 0x4
 634 00aa 44       		.byte	0x4
 635              		.4byte	.LCFI16-.LCFI15
 636 00ab 0C       		.byte	0xc
 637 00ac 0B       		.uleb128 0xb
 638 00ad 04       		.uleb128 0x4
 639 00ae 0000     		.align	2
 640              	.LEFDE8:
 641              	.LSFDE10:
 642 00b0 1C000000 		.4byte	.LEFDE10-.LASFDE10
 643              	.LASFDE10:
 644 00b4 00000000 		.4byte	.Lframe0
 645 00b8 00000000 		.4byte	.LFB7
 646 00bc 90000000 		.4byte	.LFE7-.LFB7
 647 00c0 44       		.byte	0x4
 648              		.4byte	.LCFI18-.LFB7
 649 00c1 0D       		.byte	0xd
 650 00c2 0C       		.uleb128 0xc
 651 00c3 44       		.byte	0x4
 652              		.4byte	.LCFI19-.LCFI18
 653 00c4 8E       		.byte	0x8e
 654 00c5 02       		.uleb128 0x2
 655 00c6 8D       		.byte	0x8d
 656 00c7 03       		.uleb128 0x3
 657 00c8 8B       		.byte	0x8b
 658 00c9 04       		.uleb128 0x4
 659 00ca 44       		.byte	0x4
 660              		.4byte	.LCFI20-.LCFI19
 661 00cb 0C       		.byte	0xc
ARM GAS  /tmp/ccbogDaM.s 			page 15


 662 00cc 0B       		.uleb128 0xb
 663 00cd 04       		.uleb128 0x4
 664 00ce 0000     		.align	2
 665              	.LEFDE10:
 666              	.LSFDE12:
 667 00d0 1C000000 		.4byte	.LEFDE12-.LASFDE12
 668              	.LASFDE12:
 669 00d4 00000000 		.4byte	.Lframe0
 670 00d8 00000000 		.4byte	.LFB8
 671 00dc 38000000 		.4byte	.LFE8-.LFB8
 672 00e0 44       		.byte	0x4
 673              		.4byte	.LCFI22-.LFB8
 674 00e1 0D       		.byte	0xd
 675 00e2 0C       		.uleb128 0xc
 676 00e3 44       		.byte	0x4
 677              		.4byte	.LCFI23-.LCFI22
 678 00e4 8E       		.byte	0x8e
 679 00e5 02       		.uleb128 0x2
 680 00e6 8D       		.byte	0x8d
 681 00e7 03       		.uleb128 0x3
 682 00e8 8B       		.byte	0x8b
 683 00e9 04       		.uleb128 0x4
 684 00ea 44       		.byte	0x4
 685              		.4byte	.LCFI24-.LCFI23
 686 00eb 0C       		.byte	0xc
 687 00ec 0B       		.uleb128 0xb
 688 00ed 04       		.uleb128 0x4
 689 00ee 0000     		.align	2
 690              	.LEFDE12:
 691              	.LSFDE14:
 692 00f0 1C000000 		.4byte	.LEFDE14-.LASFDE14
 693              	.LASFDE14:
 694 00f4 00000000 		.4byte	.Lframe0
 695 00f8 00000000 		.4byte	.LFB9
 696 00fc 4C000000 		.4byte	.LFE9-.LFB9
 697 0100 44       		.byte	0x4
 698              		.4byte	.LCFI26-.LFB9
 699 0101 0D       		.byte	0xd
 700 0102 0C       		.uleb128 0xc
 701 0103 44       		.byte	0x4
 702              		.4byte	.LCFI27-.LCFI26
 703 0104 8E       		.byte	0x8e
 704 0105 02       		.uleb128 0x2
 705 0106 8D       		.byte	0x8d
 706 0107 03       		.uleb128 0x3
 707 0108 8B       		.byte	0x8b
 708 0109 04       		.uleb128 0x4
 709 010a 44       		.byte	0x4
 710              		.4byte	.LCFI28-.LCFI27
 711 010b 0C       		.byte	0xc
 712 010c 0B       		.uleb128 0xb
 713 010d 04       		.uleb128 0x4
 714 010e 0000     		.align	2
 715              	.LEFDE14:
 716              	.LSFDE16:
 717 0110 1C000000 		.4byte	.LEFDE16-.LASFDE16
 718              	.LASFDE16:
ARM GAS  /tmp/ccbogDaM.s 			page 16


 719 0114 00000000 		.4byte	.Lframe0
 720 0118 00000000 		.4byte	.LFB10
 721 011c 68000000 		.4byte	.LFE10-.LFB10
 722 0120 44       		.byte	0x4
 723              		.4byte	.LCFI30-.LFB10
 724 0121 0D       		.byte	0xd
 725 0122 0C       		.uleb128 0xc
 726 0123 44       		.byte	0x4
 727              		.4byte	.LCFI31-.LCFI30
 728 0124 8E       		.byte	0x8e
 729 0125 02       		.uleb128 0x2
 730 0126 8D       		.byte	0x8d
 731 0127 03       		.uleb128 0x3
 732 0128 8B       		.byte	0x8b
 733 0129 04       		.uleb128 0x4
 734 012a 44       		.byte	0x4
 735              		.4byte	.LCFI32-.LCFI31
 736 012b 0C       		.byte	0xc
 737 012c 0B       		.uleb128 0xb
 738 012d 04       		.uleb128 0x4
 739 012e 0000     		.align	2
 740              	.LEFDE16:
 741              	.LSFDE18:
 742 0130 1C000000 		.4byte	.LEFDE18-.LASFDE18
 743              	.LASFDE18:
 744 0134 00000000 		.4byte	.Lframe0
 745 0138 00000000 		.4byte	.LFB11
 746 013c 3C000000 		.4byte	.LFE11-.LFB11
 747 0140 44       		.byte	0x4
 748              		.4byte	.LCFI34-.LFB11
 749 0141 0D       		.byte	0xd
 750 0142 0C       		.uleb128 0xc
 751 0143 44       		.byte	0x4
 752              		.4byte	.LCFI35-.LCFI34
 753 0144 8E       		.byte	0x8e
 754 0145 02       		.uleb128 0x2
 755 0146 8D       		.byte	0x8d
 756 0147 03       		.uleb128 0x3
 757 0148 8B       		.byte	0x8b
 758 0149 04       		.uleb128 0x4
 759 014a 44       		.byte	0x4
 760              		.4byte	.LCFI36-.LCFI35
 761 014b 0C       		.byte	0xc
 762 014c 0B       		.uleb128 0xb
 763 014d 04       		.uleb128 0x4
 764 014e 0000     		.align	2
 765              	.LEFDE18:
 766              		.text
 767              	.Letext0: